; Listing generated by Microsoft (R) Optimizing Compiler Version 19.30.30705.0 

	TITLE	D:\学习\毕业设计\方案1_GFX+底板\官方例程\DISPLAY\TouchGFX\build\Debug\obj\BitmapDatabase.obj
	.686P
	.XMM
	include listing.inc
	.model	flat

INCLUDELIB MSVCRTD
INCLUDELIB OLDNAMES

EXTRN	?image_china_flag_small@@3QBEB:BYTE		; image_china_flag_small
EXTRN	?image_denmark_flag_small@@3QBEB:BYTE		; image_denmark_flag_small
EXTRN	?image_flags@@3QBEB:BYTE			; image_flags
EXTRN	?image_flagsdimmed@@3QBEB:BYTE			; image_flagsdimmed
EXTRN	?image_france_flag_small@@3QBEB:BYTE		; image_france_flag_small
EXTRN	?image_goback@@3QBEB:BYTE			; image_goback
EXTRN	?image_image0@@3QBEB:BYTE			; image_image0
EXTRN	?image_image01@@3QBEB:BYTE			; image_image01
EXTRN	?image_image02@@3QBEB:BYTE			; image_image02
EXTRN	?image_infobackground@@3QBEB:BYTE		; image_infobackground
EXTRN	?image_infobackground2@@3QBEB:BYTE		; image_infobackground2
EXTRN	?image_japan_flag_small@@3QBEB:BYTE		; image_japan_flag_small
EXTRN	?image_joystick_overlay@@3QBEB:BYTE		; image_joystick_overlay
EXTRN	?image_leftarrow@@3QBEB:BYTE			; image_leftarrow
EXTRN	?image_leftarrowdark@@3QBEB:BYTE		; image_leftarrowdark
EXTRN	?image_listbackground@@3QBEB:BYTE		; image_listbackground
EXTRN	?image_logo_00@@3QBEB:BYTE			; image_logo_00
EXTRN	?image_logo_01@@3QBEB:BYTE			; image_logo_01
EXTRN	?image_logo_01_transparent@@3QBEB:BYTE		; image_logo_01_transparent
EXTRN	?image_rightarrow@@3QBEB:BYTE			; image_rightarrow
EXTRN	?image_rightarrowdark@@3QBEB:BYTE		; image_rightarrowdark
EXTRN	?image_south_korea_flag_small@@3QBEB:BYTE	; image_south_korea_flag_small
EXTRN	?image_subdemoicon_image@@3QBEB:BYTE		; image_subdemoicon_image
EXTRN	?image_subdemoicon_info@@3QBEB:BYTE		; image_subdemoicon_info
EXTRN	?image_subdemoicon_list@@3QBEB:BYTE		; image_subdemoicon_list
EXTRN	?image_subtitle071@@3QBEB:BYTE			; image_subtitle071
EXTRN	?image_tiledbackground@@3QBEB:BYTE		; image_tiledbackground
EXTRN	?image_tunisia_flag_small@@3QBEB:BYTE		; image_tunisia_flag_small
EXTRN	?image_united_kingdom_flag_small@@3QBEB:BYTE	; image_united_kingdom_flag_small
msvcjmc	SEGMENT
__692521D7_concurrencysal@h DB 01H
__A324AF7F_sal@h DB 01H
__3FA7CF14_vadefs@h DB 01H
__4DFECF8D_vcruntime@h DB 01H
__6569C2CA_corecrt@h DB 01H
__C3DF3361_assert@h DB 01H
__47AAA172_stdint@h DB 01H
__BA83647B_Config@hpp DB 01H
__AA120D12_Types@hpp DB 01H
__2CF17959_Bitmap@hpp DB 01H
__D348F264_BitmapDatabase@hpp DB 01H
__CB63855F_BitmapDatabase@cpp DB 01H
msvcjmc	ENDS
CONST	SEGMENT
?bitmap_database@@3QBUBitmapData@Bitmap@touchgfx@@B DD FLAT:?image_china_flag_small@@3QBEB ; bitmap_database
	DD	00H
	DW	020H
	DW	018H
	DW	00H
	DW	00H
	DW	020H
	DW	018H
	DD	FLAT:?image_denmark_flag_small@@3QBEB
	DD	00H
	DW	020H
	DW	018H
	DW	00H
	DW	00H
	DW	020H
	DW	018H
	DD	FLAT:?image_flags@@3QBEB
	DD	00H
	DW	012cH
	DW	030H
	DW	0e9H
	DW	03H
	DW	03eH
	DW	0402aH
	DD	FLAT:?image_flagsdimmed@@3QBEB
	DD	00H
	DW	012cH
	DW	030H
	DW	0e9H
	DW	03H
	DW	03eH
	DW	0402aH
	DD	FLAT:?image_france_flag_small@@3QBEB
	DD	00H
	DW	020H
	DW	018H
	DW	00H
	DW	00H
	DW	020H
	DW	018H
	DD	FLAT:?image_goback@@3QBEB
	DD	00H
	DW	020H
	DW	020H
	DW	03H
	DW	0dH
	DW	016H
	DW	04001H
	DD	FLAT:?image_image0@@3QBEB
	DD	00H
	DW	0140H
	DW	0f0H
	DW	00H
	DW	00H
	DW	0140H
	DW	0f0H
	DD	FLAT:?image_image01@@3QBEB
	DD	00H
	DW	0140H
	DW	0f0H
	DW	00H
	DW	00H
	DW	0140H
	DW	0f0H
	DD	FLAT:?image_image02@@3QBEB
	DD	00H
	DW	0140H
	DW	0f0H
	DW	00H
	DW	00H
	DW	0140H
	DW	0f0H
	DD	FLAT:?image_infobackground@@3QBEB
	DD	00H
	DW	0140H
	DW	0b0H
	DW	00H
	DW	00H
	DW	0140H
	DW	0b0H
	DD	FLAT:?image_infobackground2@@3QBEB
	DD	00H
	DW	0140H
	DW	043H
	DW	00H
	DW	00H
	DW	0140H
	DW	043H
	DD	FLAT:?image_japan_flag_small@@3QBEB
	DD	00H
	DW	020H
	DW	018H
	DW	00H
	DW	00H
	DW	020H
	DW	018H
	DD	FLAT:?image_joystick_overlay@@3QBEB
	DD	00H
	DW	0e5H
	DW	07eH
	DW	011H
	DW	019H
	DW	03eH
	DW	0404eH
	DD	FLAT:?image_leftarrow@@3QBEB
	DD	00H
	DW	010H
	DW	020H
	DW	03H
	DW	0aH
	DW	06H
	DW	0400cH
	DD	FLAT:?image_leftarrowdark@@3QBEB
	DD	00H
	DW	010H
	DW	020H
	DW	05H
	DW	0aH
	DW	05H
	DW	0400cH
	DD	FLAT:?image_listbackground@@3QBEB
	DD	00H
	DW	0140H
	DW	0f0H
	DW	00H
	DW	00H
	DW	0140H
	DW	0f0H
	DD	FLAT:?image_logo_00@@3QBEB
	DD	00H
	DW	0f0H
	DW	034H
	DW	00H
	DW	00H
	DW	0f0H
	DW	034H
	DD	FLAT:?image_logo_01@@3QBEB
	DD	00H
	DW	028H
	DW	034H
	DW	00H
	DW	00H
	DW	028H
	DW	034H
	DD	FLAT:?image_logo_01_transparent@@3QBEB
	DD	00H
	DW	027H
	DW	030H
	DW	015H
	DW	0dH
	DW	06H
	DW	04016H
	DD	FLAT:?image_rightarrow@@3QBEB
	DD	00H
	DW	010H
	DW	020H
	DW	07H
	DW	0bH
	DW	06H
	DW	0400bH
	DD	FLAT:?image_rightarrowdark@@3QBEB
	DD	00H
	DW	010H
	DW	020H
	DW	06H
	DW	0bH
	DW	06H
	DW	0400aH
	DD	FLAT:?image_south_korea_flag_small@@3QBEB
	DD	00H
	DW	020H
	DW	018H
	DW	00H
	DW	00H
	DW	020H
	DW	018H
	DD	FLAT:?image_subdemoicon_image@@3QBEB
	DD	00H
	DW	04aH
	DW	04aH
	DW	00H
	DW	00H
	DW	04aH
	DW	04aH
	DD	FLAT:?image_subdemoicon_info@@3QBEB
	DD	00H
	DW	04aH
	DW	04aH
	DW	00H
	DW	00H
	DW	04aH
	DW	04aH
	DD	FLAT:?image_subdemoicon_list@@3QBEB
	DD	00H
	DW	04aH
	DW	04aH
	DW	00H
	DW	00H
	DW	04aH
	DW	04aH
	DD	FLAT:?image_subtitle071@@3QBEB
	DD	00H
	DW	0ccH
	DW	014H
	DW	00H
	DW	00H
	DW	0ccH
	DW	014H
	DD	FLAT:?image_tiledbackground@@3QBEB
	DD	00H
	DW	012cH
	DW	012cH
	DW	00H
	DW	00H
	DW	012cH
	DW	012cH
	DD	FLAT:?image_tunisia_flag_small@@3QBEB
	DD	00H
	DW	020H
	DW	018H
	DW	00H
	DW	00H
	DW	020H
	DW	018H
	DD	FLAT:?image_united_kingdom_flag_small@@3QBEB
	DD	00H
	DW	020H
	DW	018H
	DW	01H
	DW	01H
	DW	01eH
	DW	04016H
CONST	ENDS
PUBLIC	?getInstance@BitmapDatabase@@YAPBUBitmapData@Bitmap@touchgfx@@XZ ; BitmapDatabase::getInstance
PUBLIC	?getInstanceSize@BitmapDatabase@@YAGXZ		; BitmapDatabase::getInstanceSize
PUBLIC	__JustMyCode_Default
EXTRN	@__CheckForDebuggerJustMyCode@4:PROC
EXTRN	__RTC_CheckEsp:PROC
EXTRN	__RTC_InitBase:PROC
EXTRN	__RTC_Shutdown:PROC
;	COMDAT rtc$TMZ
rtc$TMZ	SEGMENT
__RTC_Shutdown.rtc$TMZ DD FLAT:__RTC_Shutdown
rtc$TMZ	ENDS
;	COMDAT rtc$IMZ
rtc$IMZ	SEGMENT
__RTC_InitBase.rtc$IMZ DD FLAT:__RTC_InitBase
rtc$IMZ	ENDS
; Function compile flags: /Odt
;	COMDAT __JustMyCode_Default
_TEXT	SEGMENT
__JustMyCode_Default PROC				; COMDAT
	push	ebp
	mov	ebp, esp
	pop	ebp
	ret	0
__JustMyCode_Default ENDP
_TEXT	ENDS
; Function compile flags: /Odtp /RTCsu /ZI
;	COMDAT ?getInstanceSize@BitmapDatabase@@YAGXZ
_TEXT	SEGMENT
?getInstanceSize@BitmapDatabase@@YAGXZ PROC		; BitmapDatabase::getInstanceSize, COMDAT
; File D:\学习\毕业设计\方案1_GFX+底板\官方例程\DISPLAY\TouchGFX\generated\images\src\BitmapDatabase.cpp
; Line 77
	push	ebp
	mov	ebp, esp
	sub	esp, 192				; 000000c0H
	push	ebx
	push	esi
	push	edi
	mov	edi, ebp
	xor	ecx, ecx
	mov	eax, -858993460				; ccccccccH
	rep stosd
	mov	ecx, OFFSET __CB63855F_BitmapDatabase@cpp
	call	@__CheckForDebuggerJustMyCode@4
; Line 78
	mov	eax, 29					; 0000001dH
; Line 79
	pop	edi
	pop	esi
	pop	ebx
	add	esp, 192				; 000000c0H
	cmp	ebp, esp
	call	__RTC_CheckEsp
	mov	esp, ebp
	pop	ebp
	ret	0
?getInstanceSize@BitmapDatabase@@YAGXZ ENDP		; BitmapDatabase::getInstanceSize
_TEXT	ENDS
; Function compile flags: /Odtp /RTCsu /ZI
;	COMDAT ?getInstance@BitmapDatabase@@YAPBUBitmapData@Bitmap@touchgfx@@XZ
_TEXT	SEGMENT
?getInstance@BitmapDatabase@@YAPBUBitmapData@Bitmap@touchgfx@@XZ PROC ; BitmapDatabase::getInstance, COMDAT
; File D:\学习\毕业设计\方案1_GFX+底板\官方例程\DISPLAY\TouchGFX\generated\images\src\BitmapDatabase.cpp
; Line 72
	push	ebp
	mov	ebp, esp
	sub	esp, 192				; 000000c0H
	push	ebx
	push	esi
	push	edi
	mov	edi, ebp
	xor	ecx, ecx
	mov	eax, -858993460				; ccccccccH
	rep stosd
	mov	ecx, OFFSET __CB63855F_BitmapDatabase@cpp
	call	@__CheckForDebuggerJustMyCode@4
; Line 73
	mov	eax, OFFSET ?bitmap_database@@3QBUBitmapData@Bitmap@touchgfx@@B
; Line 74
	pop	edi
	pop	esi
	pop	ebx
	add	esp, 192				; 000000c0H
	cmp	ebp, esp
	call	__RTC_CheckEsp
	mov	esp, ebp
	pop	ebp
	ret	0
?getInstance@BitmapDatabase@@YAPBUBitmapData@Bitmap@touchgfx@@XZ ENDP ; BitmapDatabase::getInstance
_TEXT	ENDS
END
