; Listing generated by Microsoft (R) Optimizing Compiler Version 19.30.30705.0 

	TITLE	D:\学习\毕业设计\方案1_GFX+底板\官方例程\DISPLAY\TouchGFX\build\Debug\obj\Font_chinese_msyh_20_4bpp_12.obj
	.686P
	.XMM
	include listing.inc
	.model	flat

INCLUDELIB MSVCRTD
INCLUDELIB OLDNAMES

PUBLIC	?unicodes_chinese_msyh_20_4bpp_12@@3QBEB	; unicodes_chinese_msyh_20_4bpp_12
msvcjmc	SEGMENT
__692521D7_concurrencysal@h DB 01H
__A324AF7F_sal@h DB 01H
__3FA7CF14_vadefs@h DB 01H
__4DFECF8D_vcruntime@h DB 01H
__6569C2CA_corecrt@h DB 01H
__C3DF3361_assert@h DB 01H
__47AAA172_stdint@h DB 01H
__BA83647B_Config@hpp DB 01H
__AA120D12_Types@hpp DB 01H
__033C803A_Font_chinese_msyh_20_4bpp_12@cpp DB 01H
msvcjmc	ENDS
CONST	SEGMENT
?unicodes_chinese_msyh_20_4bpp_12@@3QBEB DB 00H		; unicodes_chinese_msyh_20_4bpp_12
	DB	0a0H
	DB	06H
	DB	00H
	DB	00H
	DB	00H
	DB	00H
	DB	00H
	DB	00H
	DB	00H
	DB	00H
	DB	0e0H
	DB	08H
	DB	00H
	DB	021H
	DB	022H
	DB	022H
	DB	022H
	DB	022H
	DB	01H
	DB	00H
	DB	0e0H
	DB	08H
	DB	00H
	DB	0f6H
	DB	0ffH
	DB	0ffH
	DB	0ffH
	DB	0ffH
	DB	05H
	DB	00H
	DB	0e0H
	DB	08H
	DB	00H
	DB	0f6H
	DB	045H
	DB	044H
	DB	044H
	DB	0f5H
	DB	05H
	DB	063H
	DB	0f6H
	DB	06bH
	DB	06H
	DB	0f6H
	DB	01H
	DB	00H
	DB	00H
	DB	0f1H
	DB	05H
	DB	0e7H
	DB	0feH
	DB	0efH
	DB	01eH
	DB	0f6H
	DB	01H
	DB	00H
	DB	00H
	DB	0f1H
	DB	05H
	DB	00H
	DB	0e0H
	DB	08H
	DB	00H
	DB	0f6H
	DB	01H
	DB	00H
	DB	00H
	DB	0f1H
	DB	05H
	DB	00H
	DB	0e0H
	DB	08H
	DB	00H
	DB	0f6H
	DB	01H
	DB	00H
	DB	00H
	DB	0f1H
	DB	05H
	DB	00H
	DB	0e0H
	DB	08H
	DB	00H
	DB	0f7H
	DB	0eeH
	DB	0eeH
	DB	0eeH
	DB	0feH
	DB	05H
	DB	00H
	DB	0e0H
	DB	069H
	DB	01aH
	DB	0f7H
	DB	088H
	DB	0ceH
	DB	088H
	DB	0f8H
	DB	05H
	DB	040H
	DB	0f8H
	DB	0ffH
	DB	01dH
	DB	0e8H
	DB	00H
	DB	0bbH
	DB	00H
	DB	071H
	DB	02H
	DB	0f9H
	DB	0ffH
	DB	02aH
	DB	00H
	DB	0caH
	DB	00H
	DB	0f7H
	DB	01H
	DB	00H
	DB	00H
	DB	054H
	DB	0e1H
	DB	08H
	DB	00H
	DB	0aeH
	DB	00H
	DB	0f2H
	DB	07H
	DB	00H
	DB	00H
	DB	00H
	DB	0e0H
	DB	08H
	DB	020H
	DB	06fH
	DB	00H
	DB	0b0H
	DB	01eH
	DB	00H
	DB	00H
	DB	00H
	DB	0e0H
	DB	08H
	DB	070H
	DB	02fH
	DB	00H
	DB	020H
	DB	0afH
	DB	00H
	DB	00H
	DB	00H
	DB	0e0H
	DB	08H
	DB	0e0H
	DB	0cH
	DB	00H
	DB	00H
	DB	0f7H
	DB	09H
	DB	00H
	DB	00H
	DB	0f0H
	DB	08H
	DB	0f7H
	DB	05H
	DB	00H
	DB	00H
	DB	090H
	DB	0afH
	DB	01H
	DB	084H
	DB	0f9H
	DB	047H
	DB	0cfH
	DB	00H
	DB	00H
	DB	00H
	DB	00H
	DB	0f9H
	DB	04eH
	DB	0f6H
	DB	0cfH
	DB	042H
	DB	02eH
	DB	00H
	DB	00H
	DB	00H
	DB	00H
	DB	070H
	DB	02eH
	DB	00H
	DB	00H
	DB	00H
	DB	01H
	DB	00H
	DB	00H
	DB	00H
	DB	00H
	DB	00H
	DB	01H
	DB	00H
	DB	0e0H
	DB	07H
	DB	00H
	DB	00H
	DB	00H
	DB	00H
	DB	00H
	DB	00H
	DB	00H
	DB	00H
	DB	0f0H
	DB	08H
	DB	050H
	DB	077H
	DB	077H
	DB	077H
	DB	077H
	DB	077H
	DB	03H
	DB	00H
	DB	0f0H
	DB	08H
	DB	0a0H
	DB	0feH
	DB	0eeH
	DB	0eeH
	DB	0eeH
	DB	0feH
	DB	08H
	DB	00H
	DB	0f0H
	DB	08H
	DB	00H
	DB	0f3H
	DB	05H
	DB	00H
	DB	00H
	DB	0ebH
	DB	02H
	DB	0e8H
	DB	0feH
	DB	0efH
	DB	0eH
	DB	070H
	DB	06fH
	DB	00H
	DB	0b1H
	DB	03eH
	DB	00H
	DB	063H
	DB	0f6H
	DB	06bH
	DB	06H
	DB	00H
	DB	0f7H
	DB	07aH
	DB	0deH
	DB	02H
	DB	00H
	DB	00H
	DB	0f0H
	DB	08H
	DB	00H
	DB	00H
	DB	0b3H
	DB	0ffH
	DB	06eH
	DB	01H
	DB	00H
	DB	00H
	DB	0f0H
	DB	08H
	DB	061H
	DB	0d9H
	DB	0efH
	DB	058H
	DB	0fcH
	DB	0dfH
	DB	06aH
	DB	00H
	DB	0f0H
	DB	08H
	DB	0f2H
	DB	0bfH
	DB	016H
	DB	095H
	DB	030H
	DB	0c8H
	DB	05fH
	DB	00H
	DB	0f0H
	DB	0abH
	DB	048H
	DB	01H
	DB	00H
	DB	0e8H
	DB	00H
	DB	00H
	DB	01H
	DB	083H
	DB	0fcH
	DB	0ffH
	DB	08H
	DB	00H
	DB	00H
	DB	0e8H
	DB	00H
	DB	00H
	DB	00H
	DB	0faH
	DB	0feH
	DB	01aH
	DB	080H
	DB	0eeH
	DB	0eeH
	DB	0ffH
	DB	0eeH
	DB	0eeH
	DB	0dH
	DB	033H
	DB	0f0H
	DB	08H
	DB	040H
	DB	077H
	DB	077H
	DB	0ebH
	DB	077H
	DB	077H
	DB	06H
	DB	00H
	DB	0f0H
	DB	08H
	DB	00H
	DB	00H
	DB	00H
	DB	0e8H
	DB	00H
	DB	00H
	DB	00H
	DB	00H
	DB	0f0H
	DB	08H
	DB	043H
	DB	044H
	DB	044H
	DB	0eaH
	DB	044H
	DB	044H
	DB	044H
	DB	00H
	DB	0f0H
	DB	08H
	DB	0fbH
	DB	0ffH
	DB	0ffH
	DB	0ffH
	DB	0ffH
	DB	0ffH
	DB	0dfH
	DB	00H
	DB	0f0H
	DB	07H
	DB	021H
	DB	022H
	DB	022H
	DB	0e9H
	DB	022H
	DB	022H
	DB	022H
	DB	074H
	DB	0f9H
	DB	06H
	DB	00H
	DB	00H
	DB	00H
	DB	0e8H
	DB	00H
	DB	00H
	DB	00H
	DB	0f6H
	DB	0cfH
	DB	01H
	DB	00H
	DB	00H
	DB	00H
	DB	0e8H
	DB	00H
	DB	00H
	DB	00H
	DB	00H
	DB	0f2H
	DB	05H
	DB	00H
	DB	00H
	DB	0b0H
	DB	09H
	DB	00H
	DB	00H
	DB	00H
	DB	00H
	DB	0f3H
	DB	05H
	DB	00H
	DB	00H
	DB	090H
	DB	05fH
	DB	00H
	DB	00H
	DB	00H
	DB	00H
	DB	0f3H
	DB	05H
	DB	00H
	DB	00H
	DB	010H
	DB	0aeH
	DB	00H
	DB	00H
	DB	00H
	DB	00H
	DB	0f3H
	DB	05H
	DB	0d1H
	DB	0ddH
	DB	0ddH
	DB	0deH
	DB	0ddH
	DB	0ddH
	DB	08H
	DB	0ecH
	DB	0feH
	DB	0efH
	DB	0f6H
	DB	09bH
	DB	099H
	DB	099H
	DB	099H
	DB	0e9H
	DB	09H
	DB	076H
	DB	0f8H
	DB	07aH
	DB	0f4H
	DB	06H
	DB	00H
	DB	00H
	DB	00H
	DB	0d0H
	DB	09H
	DB	00H
	DB	0f3H
	DB	05H
	DB	0d1H
	DB	015H
	DB	04cH
	DB	010H
	DB	06bH
	DB	0b0H
	DB	08H
	DB	00H
	DB	0f3H
	DB	05H
	DB	00H
	DB	0d2H
	DB	05eH
	DB	010H
	DB	0fbH
	DB	09H
	DB	00H
	DB	00H
	DB	0f3H
	DB	05H
	DB	030H
	DB	0edH
	DB	03H
	DB	00H
	DB	080H
	DB	0bfH
	DB	01H
	DB	00H
	DB	0f3H
	DB	099H
	DB	0f7H
	DB	02cH
	DB	00H
	DB	00H
	DB	00H
	DB	0f6H
	DB	0cH
	DB	095H
	DB	0fdH
	DB	0efH
	DB	074H
	DB	01H
	DB	00H
	DB	00H
	DB	00H
	DB	050H
	DB	04H
	DB	0fdH
	DB	0fcH
	DB	07H
	DB	0c0H
	DB	0eeH
	DB	0eeH
	DB	0eeH
	DB	0eeH
	DB	0eeH
	DB	03H
	DB	014H
	DB	0f3H
	DB	05H
	DB	050H
	DB	066H
	DB	076H
	DB	0afH
	DB	066H
	DB	066H
	DB	01H
	DB	00H
	DB	0f3H
	DB	05H
	DB	00H
	DB	00H
	DB	010H
	DB	07fH
	DB	00H
	DB	00H
	DB	00H
	DB	00H
	DB	0f3H
	DB	05H
	DB	00H
	DB	00H
	DB	010H
	DB	07fH
	DB	00H
	DB	00H
	DB	00H
	DB	00H
	DB	0f3H
	DB	05H
	DB	00H
	DB	00H
	DB	010H
	DB	07fH
	DB	00H
	DB	00H
	DB	00H
	DB	00H
	DB	0f3H
	DB	05H
	DB	00H
	DB	00H
	DB	010H
	DB	07fH
	DB	00H
	DB	00H
	DB	00H
	DB	085H
	DB	0fbH
	DB	04H
	DB	077H
	DB	077H
	DB	087H
	DB	0bfH
	DB	077H
	DB	077H
	DB	017H
	DB	0f9H
	DB	0bfH
	DB	00H
	DB	0edH
	DB	0eeH
	DB	0eeH
	DB	0eeH
	DB	0eeH
	DB	0eeH
	DB	02eH
	DB	00H
	DB	00H
	DB	00H
	DB	00H
	DB	020H
	DB	04H
	DB	00H
	DB	00H
	DB	00H
	DB	00H
	DB	00H
	DB	00H
	DB	00H
	DB	00H
	DB	080H
	DB	0eH
	DB	00H
	DB	00H
	DB	00H
	DB	00H
	DB	00H
	DB	00H
	DB	00H
	DB	00H
	DB	080H
	DB	0eH
	DB	00H
	DB	00H
	DB	00H
	DB	00H
	DB	010H
	DB	0eeH
	DB	0eeH
	DB	0eeH
	DB	0feH
	DB	0efH
	DB	0eeH
	DB	0eeH
	DB	0eeH
	DB	09H
	DB	00H
	DB	066H
	DB	066H
	DB	066H
	DB	0b6H
	DB	06fH
	DB	066H
	DB	066H
	DB	066H
	DB	04H
	DB	00H
	DB	010H
	DB	02bH
	DB	00H
	DB	080H
	DB	0eH
	DB	00H
	DB	0a0H
	DB	06H
	DB	00H
	DB	00H
	DB	020H
	DB	0deH
	DB	02H
	DB	080H
	DB	0eH
	DB	00H
	DB	0f8H
	DB	09H
	DB	00H
	DB	00H
	DB	00H
	DB	0f3H
	DB	01cH
	DB	080H
	DB	0eH
	DB	060H
	DB	0afH
	DB	00H
	DB	00H
	DB	00H
	DB	00H
	DB	060H
	DB	02dH
	DB	080H
	DB	0eH
	DB	0c0H
	DB	0bH
	DB	00H
	DB	00H
	DB	061H
	DB	066H
	DB	066H
	DB	066H
	DB	0b6H
	DB	06fH
	DB	066H
	DB	066H
	DB	066H
	DB	046H
	DB	0f3H
	DB	0ffH
	DB	0ffH
	DB	0ffH
	DB	0ffH
	DB	0ffH
	DB	0ffH
	DB	0ffH
	DB	0ffH
	DB	0afH
	DB	00H
	DB	00H
	DB	00H
	DB	00H
	DB	0f8H
	DB	0cfH
	DB	01H
	DB	00H
	DB	00H
	DB	00H
	DB	00H
	DB	00H
	DB	00H
	DB	090H
	DB	0aeH
	DB	0ceH
	DB	01cH
	DB	00H
	DB	00H
	DB	00H
	DB	00H
	DB	00H
	DB	010H
	DB	0ebH
	DB	083H
	DB	01eH
	DB	0ddH
	DB	03H
	DB	00H
	DB	00H
	DB	00H
	DB	00H
	DB	0d4H
	DB	03eH
	DB	080H
	DB	0eH
	DB	0c2H
	DB	07fH
	DB	00H
	DB	00H
	DB	00H
	DB	091H
	DB	0cfH
	DB	02H
	DB	080H
	DB	0eH
	DB	010H
	DB	0faH
	DB	05dH
	DB	00H
	DB	060H
	DB	0feH
	DB	019H
	DB	00H
	DB	080H
	DB	0eH
	DB	00H
	DB	060H
	DB	0feH
	DB	06dH
	DB	0f4H
	DB	05dH
	DB	00H
	DB	00H
	DB	080H
	DB	0eH
	DB	00H
	DB	00H
	DB	092H
	DB	07fH
	DB	050H
	DB	01H
	DB	00H
	DB	00H
	DB	080H
	DB	0eH
	DB	00H
	DB	00H
	DB	00H
	DB	02H
	DB	00H
	DB	00H
	DB	00H
	DB	00H
	DB	080H
	DB	0eH
	DB	00H
	DB	00H
	DB	00H
	DB	00H
CONST	ENDS
PUBLIC	__JustMyCode_Default
; Function compile flags: /Odt
;	COMDAT __JustMyCode_Default
_TEXT	SEGMENT
__JustMyCode_Default PROC				; COMDAT
	push	ebp
	mov	ebp, esp
	pop	ebp
	ret	0
__JustMyCode_Default ENDP
_TEXT	ENDS
END
