; Listing generated by Microsoft (R) Optimizing Compiler Version 19.30.30705.0 

	TITLE	D:\学习\毕业设计\方案1_GFX+底板\官方例程\DISPLAY\TouchGFX\build\Debug\obj\Font_chinese_msyh_20_4bpp_14.obj
	.686P
	.XMM
	include listing.inc
	.model	flat

INCLUDELIB MSVCRTD
INCLUDELIB OLDNAMES

PUBLIC	?unicodes_chinese_msyh_20_4bpp_14@@3QBEB	; unicodes_chinese_msyh_20_4bpp_14
msvcjmc	SEGMENT
__692521D7_concurrencysal@h DB 01H
__A324AF7F_sal@h DB 01H
__3FA7CF14_vadefs@h DB 01H
__4DFECF8D_vcruntime@h DB 01H
__6569C2CA_corecrt@h DB 01H
__C3DF3361_assert@h DB 01H
__47AAA172_stdint@h DB 01H
__BA83647B_Config@hpp DB 01H
__AA120D12_Types@hpp DB 01H
__8C7C759A_Font_chinese_msyh_20_4bpp_14@cpp DB 01H
msvcjmc	ENDS
CONST	SEGMENT
?unicodes_chinese_msyh_20_4bpp_14@@3QBEB DB 00H		; unicodes_chinese_msyh_20_4bpp_14
	DB	00H
	DB	00H
	DB	00H
	DB	021H
	DB	022H
	DB	022H
	DB	022H
	DB	022H
	DB	02H
	DB	072H
	DB	077H
	DB	077H
	DB	047H
	DB	0f9H
	DB	0ffH
	DB	0ffH
	DB	0ffH
	DB	0ffH
	DB	03fH
	DB	0e4H
	DB	0feH
	DB	0efH
	DB	09eH
	DB	053H
	DB	055H
	DB	0fbH
	DB	055H
	DB	055H
	DB	015H
	DB	00H
	DB	080H
	DB	01fH
	DB	00H
	DB	00H
	DB	00H
	DB	0bdH
	DB	00H
	DB	00H
	DB	00H
	DB	00H
	DB	080H
	DB	01fH
	DB	00H
	DB	00H
	DB	030H
	DB	06fH
	DB	00H
	DB	00H
	DB	00H
	DB	00H
	DB	080H
	DB	01fH
	DB	00H
	DB	00H
	DB	080H
	DB	02fH
	DB	00H
	DB	00H
	DB	00H
	DB	071H
	DB	0b7H
	DB	07fH
	DB	047H
	DB	00H
	DB	0e1H
	DB	01cH
	DB	00H
	DB	00H
	DB	00H
	DB	0e2H
	DB	0feH
	DB	0efH
	DB	09eH
	DB	00H
	DB	0f6H
	DB	0eeH
	DB	094H
	DB	00H
	DB	00H
	DB	00H
	DB	080H
	DB	01fH
	DB	00H
	DB	00H
	DB	0ddH
	DB	0eaH
	DB	0f6H
	DB	07H
	DB	00H
	DB	00H
	DB	080H
	DB	01fH
	DB	00H
	DB	060H
	DB	06fH
	DB	0e9H
	DB	0a0H
	DB	03fH
	DB	00H
	DB	00H
	DB	080H
	DB	01fH
	DB	00H
	DB	0d1H
	DB	0dH
	DB	0e9H
	DB	010H
	DB	0ceH
	DB	00H
	DB	00H
	DB	080H
	DB	01fH
	DB	032H
	DB	0f8H
	DB	05H
	DB	0e9H
	DB	00H
	DB	0f5H
	DB	08H
	DB	00H
	DB	091H
	DB	0dfH
	DB	0afH
	DB	0bfH
	DB	00H
	DB	0e9H
	DB	00H
	DB	0b0H
	DB	03fH
	DB	0c4H
	DB	0ffH
	DB	09dH
	DB	0d4H
	DB	02eH
	DB	00H
	DB	0e9H
	DB	00H
	DB	020H
	DB	0cfH
	DB	0d5H
	DB	038H
	DB	00H
	DB	0f7H
	DB	05H
	DB	00H
	DB	0e9H
	DB	00H
	DB	00H
	DB	026H
	DB	00H
	DB	00H
	DB	00H
	DB	050H
	DB	00H
	DB	00H
	DB	0e9H
	DB	00H
	DB	00H
	DB	00H
	DB	00H
	DB	00H
	DB	00H
	DB	00H
	DB	00H
	DB	00H
	DB	0e9H
	DB	00H
	DB	00H
	DB	00H
	DB	00H
	DB	00H
	DB	00H
	DB	00H
	DB	00H
	DB	00H
	DB	0e9H
	DB	00H
	DB	00H
	DB	00H
	DB	00H
	DB	00H
	DB	00H
	DB	00H
	DB	00H
	DB	00H
	DB	0e9H
	DB	00H
	DB	00H
	DB	00H
	DB	00H
	DB	00H
	DB	00H
	DB	070H
	DB	088H
	DB	088H
	DB	088H
	DB	088H
	DB	088H
	DB	02H
	DB	075H
	DB	077H
	DB	077H
	DB	0e1H
	DB	08aH
	DB	0ebH
	DB	0a8H
	DB	08fH
	DB	0f8H
	DB	04H
	DB	0eaH
	DB	0feH
	DB	0eeH
	DB	0e1H
	DB	04H
	DB	0c5H
	DB	030H
	DB	0eH
	DB	0e0H
	DB	04H
	DB	00H
	DB	0f6H
	DB	00H
	DB	0e0H
	DB	026H
	DB	0c7H
	DB	052H
	DB	02eH
	DB	0e2H
	DB	04H
	DB	00H
	DB	0f6H
	DB	00H
	DB	0e0H
	DB	0eeH
	DB	0eeH
	DB	0eeH
	DB	0eeH
	DB	0feH
	DB	04H
	DB	00H
	DB	0f6H
	DB	00H
	DB	051H
	DB	023H
	DB	022H
	DB	022H
	DB	022H
	DB	042H
	DB	02H
	DB	00H
	DB	0f6H
	DB	00H
	DB	0e9H
	DB	0eeH
	DB	0eeH
	DB	0eeH
	DB	0eeH
	DB	0eeH
	DB	01eH
	DB	0c7H
	DB	0fdH
	DB	0cdH
	DB	00H
	DB	00H
	DB	00H
	DB	00H
	DB	00H
	DB	00H
	DB	00H
	DB	074H
	DB	0faH
	DB	077H
	DB	080H
	DB	0eeH
	DB	0eeH
	DB	0eeH
	DB	0eeH
	DB	0deH
	DB	00H
	DB	00H
	DB	0f6H
	DB	00H
	DB	080H
	DB	02dH
	DB	022H
	DB	022H
	DB	022H
	DB	0e7H
	DB	00H
	DB	00H
	DB	0f6H
	DB	00H
	DB	080H
	DB	0dH
	DB	00H
	DB	00H
	DB	00H
	DB	0e5H
	DB	00H
	DB	00H
	DB	0f6H
	DB	00H
	DB	080H
	DB	0efH
	DB	0eeH
	DB	0eeH
	DB	0eeH
	DB	0efH
	DB	00H
	DB	00H
	DB	0f6H
	DB	010H
	DB	051H
	DB	029H
	DB	0f6H
	DB	06fH
	DB	022H
	DB	084H
	DB	03H
	DB	00H
	DB	0f7H
	DB	0fbH
	DB	04H
	DB	060H
	DB	05eH
	DB	0e6H
	DB	02H
	DB	0f7H
	DB	09H
	DB	0e9H
	DB	0ffH
	DB	08cH
	DB	021H
	DB	0fbH
	DB	0eH
	DB	090H
	DB	0deH
	DB	04dH
	DB	00H
	DB	0a9H
	DB	015H
	DB	020H
	DB	0f9H
	DB	07bH
	DB	0eH
	DB	020H
	DB	0f9H
	DB	019H
	DB	00H
	DB	00H
	DB	00H
	DB	060H
	DB	06eH
	DB	060H
	DB	08eH
	DB	07eH
	DB	050H
	DB	0feH
	DB	02bH
	DB	00H
	DB	00H
	DB	00H
	DB	01H
	DB	0a0H
	DB	0cfH
	DB	016H
	DB	00H
	DB	061H
	DB	0aH
	DB	00H
	DB	00H
	DB	00H
	DB	00H
	DB	010H
	DB	04H
	DB	00H
	DB	00H
	DB	00H
	DB	00H
	DB	00H
	DB	073H
	DB	077H
	DB	077H
	DB	077H
	DB	077H
	DB	077H
	DB	077H
	DB	077H
	DB	03H
	DB	00H
	DB	0f8H
	DB	0ffH
	DB	0ffH
	DB	0ffH
	DB	0ffH
	DB	0ffH
	DB	0ffH
	DB	0ffH
	DB	07H
	DB	00H
	DB	0f8H
	DB	01H
	DB	00H
	DB	070H
	DB	01fH
	DB	00H
	DB	00H
	DB	0f1H
	DB	07H
	DB	00H
	DB	0f8H
	DB	01H
	DB	00H
	DB	070H
	DB	01fH
	DB	00H
	DB	00H
	DB	0f1H
	DB	07H
	DB	00H
	DB	0f8H
	DB	01H
	DB	00H
	DB	070H
	DB	01fH
	DB	00H
	DB	00H
	DB	0f1H
	DB	07H
	DB	00H
	DB	0f8H
	DB	066H
	DB	066H
	DB	0a6H
	DB	06fH
	DB	066H
	DB	066H
	DB	0f6H
	DB	07H
	DB	00H
	DB	0f8H
	DB	0ffH
	DB	0ffH
	DB	0ffH
	DB	0ffH
	DB	0ffH
	DB	0ffH
	DB	0ffH
	DB	07H
	DB	00H
	DB	0f8H
	DB	01H
	DB	00H
	DB	080H
	DB	02fH
	DB	00H
	DB	00H
	DB	0f2H
	DB	07H
	DB	00H
	DB	0f8H
	DB	00H
	DB	00H
	DB	070H
	DB	01fH
	DB	00H
	DB	00H
	DB	0f1H
	DB	07H
	DB	00H
	DB	0f8H
	DB	00H
	DB	00H
	DB	070H
	DB	01fH
	DB	00H
	DB	00H
	DB	0f1H
	DB	07H
	DB	00H
	DB	0f9H
	DB	055H
	DB	055H
	DB	0a5H
	DB	06fH
	DB	055H
	DB	055H
	DB	0f6H
	DB	07H
	DB	00H
	DB	0fbH
	DB	0ffH
	DB	0ffH
	DB	0ffH
	DB	0ffH
	DB	0ffH
	DB	0ffH
	DB	0ffH
	DB	07H
	DB	00H
	DB	0ccH
	DB	011H
	DB	011H
	DB	081H
	DB	02fH
	DB	011H
	DB	011H
	DB	0f2H
	DB	07H
	DB	010H
	DB	0afH
	DB	00H
	DB	00H
	DB	070H
	DB	01fH
	DB	00H
	DB	00H
	DB	0f1H
	DB	07H
	DB	050H
	DB	06fH
	DB	00H
	DB	00H
	DB	070H
	DB	01fH
	DB	00H
	DB	00H
	DB	0f1H
	DB	07H
	DB	0b0H
	DB	02fH
	DB	00H
	DB	00H
	DB	070H
	DB	01fH
	DB	00H
	DB	00H
	DB	0f2H
	DB	07H
	DB	0f5H
	DB	0aH
	DB	00H
	DB	00H
	DB	070H
	DB	01fH
	DB	090H
	DB	088H
	DB	0fcH
	DB	05H
	DB	0f5H
	DB	03H
	DB	00H
	DB	00H
	DB	070H
	DB	01eH
	DB	0d0H
	DB	0ffH
	DB	0bfH
	DB	00H
	DB	020H
	DB	00H
	DB	00H
	DB	00H
	DB	00H
	DB	00H
	DB	00H
	DB	00H
	DB	00H
	DB	00H
CONST	ENDS
PUBLIC	__JustMyCode_Default
; Function compile flags: /Odt
;	COMDAT __JustMyCode_Default
_TEXT	SEGMENT
__JustMyCode_Default PROC				; COMDAT
	push	ebp
	mov	ebp, esp
	pop	ebp
	ret	0
__JustMyCode_Default ENDP
_TEXT	ENDS
END
