; Listing generated by Microsoft (R) Optimizing Compiler Version 19.30.30705.0 

	TITLE	D:\学习\毕业设计\方案1_GFX+底板\官方例程\DISPLAY\TouchGFX\build\Debug\obj\Font_Amiri_Regular_18_2bpp_31.obj
	.686P
	.XMM
	include listing.inc
	.model	flat

INCLUDELIB MSVCRTD
INCLUDELIB OLDNAMES

PUBLIC	?unicodes_Amiri_Regular_18_2bpp_31@@3QBEB	; unicodes_Amiri_Regular_18_2bpp_31
msvcjmc	SEGMENT
__692521D7_concurrencysal@h DB 01H
__A324AF7F_sal@h DB 01H
__3FA7CF14_vadefs@h DB 01H
__4DFECF8D_vcruntime@h DB 01H
__6569C2CA_corecrt@h DB 01H
__C3DF3361_assert@h DB 01H
__47AAA172_stdint@h DB 01H
__BA83647B_Config@hpp DB 01H
__AA120D12_Types@hpp DB 01H
__4BF6BABD_Font_Amiri_Regular_18_2bpp_31@cpp DB 01H
msvcjmc	ENDS
CONST	SEGMENT
?unicodes_Amiri_Regular_18_2bpp_31@@3QBEB DB 00H	; unicodes_Amiri_Regular_18_2bpp_31
	DB	0a0H
	DB	00H
	DB	00H
	DB	0f4H
	DB	00H
	DB	00H
	DB	088H
	DB	00H
	DB	00H
	DB	045H
	DB	00H
	DB	080H
	DB	02H
	DB	00H
	DB	078H
	DB	050H
	DB	05H
	DB	0feH
	DB	0ffH
	DB	0bH
	DB	055H
	DB	06fH
	DB	00H
	DB	0c0H
	DB	02H
	DB	00H
	DB	060H
	DB	00H
	DB	0eH
	DB	014H
	DB	00H
	DB	0aH
	DB	04H
	DB	00H
	DB	00H
	DB	04H
	DB	00H
	DB	00H
	DB	05H
	DB	00H
	DB	00H
	DB	05H
	DB	00H
	DB	00H
	DB	0dH
	DB	00H
	DB	00H
	DB	02cH
	DB	00H
	DB	00H
	DB	0f4H
	DB	05aH
	DB	051H
	DB	090H
	DB	0ffH
	DB	06fH
	DB	00H
	DB	054H
	DB	00H
	DB	014H
	DB	00H
	DB	00H
	DB	03cH
	DB	0a0H
	DB	00H
	DB	014H
	DB	0f4H
	DB	00H
	DB	00H
	DB	088H
	DB	00H
	DB	00H
	DB	045H
	DB	00H
	DB	080H
	DB	02H
	DB	00H
	DB	078H
	DB	050H
	DB	05H
	DB	0feH
	DB	0ffH
	DB	0bH
	DB	055H
	DB	06fH
	DB	00H
	DB	0c0H
	DB	02H
	DB	00H
	DB	060H
	DB	00H
	DB	0eH
	DB	014H
	DB	00H
	DB	0aH
	DB	04H
	DB	00H
	DB	00H
	DB	04H
	DB	00H
	DB	00H
	DB	05H
	DB	00H
	DB	00H
	DB	05H
	DB	00H
	DB	00H
	DB	0dH
	DB	00H
	DB	00H
	DB	02cH
	DB	00H
	DB	00H
	DB	0f4H
	DB	05aH
	DB	051H
	DB	090H
	DB	0ffH
	DB	06fH
	DB	00H
	DB	054H
	DB	00H
	DB	00H
	DB	0e0H
	DB	07H
	DB	0e0H
	DB	07aH
	DB	0d0H
	DB	02H
	DB	01H
	DB	07eH
	DB	00H
	DB	0e0H
	DB	01fH
	DB	040H
	DB	0ffH
	DB	01H
	DB	018H
	DB	00H
	DB	050H
	DB	00H
	DB	00H
	DB	05H
	DB	00H
	DB	095H
	DB	00H
	DB	0f0H
	DB	09H
	DB	00H
	DB	084H
	DB	00H
	DB	00H
	DB	08H
	DB	00H
	DB	080H
	DB	00H
	DB	00H
	DB	08H
	DB	00H
	DB	040H
	DB	00H
	DB	00H
	DB	00H
	DB	00H
	DB	09H
	DB	00H
	DB	00H
	DB	0eH
	DB	00H
	DB	00H
	DB	018H
	DB	00H
	DB	00H
	DB	014H
	DB	04H
	DB	00H
	DB	014H
	DB	05H
	DB	040H
	DB	0aH
	DB	01H
	DB	0d0H
	DB	02fH
	DB	02H
	DB	00H
	DB	034H
	DB	03H
	DB	00H
	DB	038H
	DB	0aH
	DB	090H
	DB	0bH
	DB	0bdH
	DB	0feH
	DB	01H
	DB	0f4H
	DB	01bH
	DB	00H
	DB	00H
	DB	00H
	DB	060H
	DB	00H
	DB	010H
	DB	074H
	DB	040H
	DB	07bH
	DB	010H
	DB	040H
	DB	027H
	DB	00H
	DB	00H
	DB	084H
	DB	01H
	DB	00H
	DB	0fcH
	DB	02H
	DB	00H
	DB	058H
	DB	00H
	DB	00H
	DB	00H
	DB	00H
	DB	00H
	DB	0a0H
	DB	00H
	DB	00H
	DB	0f4H
	DB	00H
	DB	00H
	DB	088H
	DB	00H
	DB	00H
	DB	045H
	DB	00H
	DB	080H
	DB	02H
	DB	00H
	DB	078H
	DB	050H
	DB	05H
	DB	0feH
	DB	0ffH
	DB	0bH
	DB	055H
	DB	06fH
	DB	00H
	DB	0c0H
	DB	02H
	DB	00H
	DB	060H
	DB	00H
	DB	00H
	DB	014H
	DB	00H
	DB	00H
	DB	04H
	DB	00H
	DB	00H
	DB	04H
	DB	00H
	DB	00H
	DB	05H
	DB	00H
	DB	00H
	DB	05H
	DB	00H
	DB	00H
	DB	0dH
	DB	00H
	DB	00H
	DB	02cH
	DB	00H
	DB	00H
	DB	0f4H
	DB	05aH
	DB	051H
	DB	090H
	DB	0ffH
	DB	06fH
	DB	00H
	DB	054H
	DB	00H
	DB	00H
	DB	084H
	DB	01H
	DB	00H
	DB	0fcH
	DB	02H
	DB	00H
	DB	058H
	DB	00H
	DB	014H
	DB	00H
	DB	00H
	DB	03cH
	DB	0a0H
	DB	00H
	DB	014H
	DB	0f4H
	DB	00H
	DB	00H
	DB	088H
	DB	00H
	DB	00H
	DB	045H
	DB	00H
	DB	080H
	DB	02H
	DB	00H
	DB	078H
	DB	050H
	DB	05H
	DB	0feH
	DB	0ffH
	DB	0bH
	DB	055H
	DB	06fH
	DB	00H
	DB	0c0H
	DB	02H
	DB	00H
	DB	060H
	DB	00H
	DB	00H
	DB	014H
	DB	00H
	DB	00H
	DB	04H
	DB	00H
	DB	00H
	DB	04H
	DB	00H
	DB	00H
	DB	05H
	DB	00H
	DB	00H
	DB	05H
	DB	00H
	DB	00H
	DB	0dH
	DB	00H
	DB	00H
	DB	02cH
	DB	00H
	DB	00H
	DB	0f4H
	DB	05aH
	DB	051H
	DB	090H
	DB	0ffH
	DB	06fH
	DB	00H
	DB	054H
	DB	00H
	DB	00H
	DB	060H
	DB	07H
	DB	040H
	DB	07bH
	DB	00H
	DB	010H
	DB	00H
	DB	00H
	DB	00H
	DB	00H
	DB	00H
	DB	00H
	DB	00H
	DB	07eH
	DB	00H
	DB	0aeH
	DB	07H
	DB	02dH
	DB	010H
	DB	0e0H
	DB	07H
	DB	00H
	DB	0feH
	DB	01H
	DB	0f4H
	DB	01fH
	DB	080H
	DB	01H
	DB	00H
	DB	05H
	DB	00H
	DB	050H
	DB	00H
	DB	00H
	DB	09H
	DB	00H
	DB	090H
	DB	00H
	DB	00H
	DB	08H
	DB	00H
	DB	080H
	DB	00H
	DB	00H
	DB	08H
	DB	00H
	DB	080H
	DB	00H
	DB	00H
	DB	04H
	DB	00H
	DB	00H
	DB	00H
	DB	00H
	DB	05H
	DB	00H
	DB	0f4H
	DB	07H
	DB	00H
	DB	049H
	DB	00H
	DB	00H
	DB	00H
	DB	00H
	DB	00H
	DB	00H
	DB	00H
	DB	040H
	DB	02H
	DB	00H
	DB	0e0H
	DB	00H
	DB	00H
	DB	060H
	DB	00H
	DB	00H
	DB	014H
	DB	01H
	DB	00H
	DB	055H
	DB	00H
	DB	0a4H
	DB	04H
	DB	040H
	DB	0bfH
	DB	02H
	DB	00H
	DB	0f4H
	DB	00H
	DB	00H
	DB	0aeH
	DB	00H
	DB	0b9H
	DB	0f4H
	DB	0faH
	DB	07H
	DB	0f4H
	DB	01bH
	DB	00H
	DB	00H
	DB	00H
	DB	00H
	DB	00H
	DB	01H
	DB	00H
	DB	0edH
	DB	01H
	DB	040H
	DB	027H
	DB	00H
	DB	00H
	DB	00H
	DB	054H
	DB	00H
	DB	00H
	DB	00H
	DB	040H
	DB	0ffH
	DB	016H
	DB	00H
	DB	04H
	DB	00H
	DB	0e4H
	DB	0ffH
	DB	083H
	DB	01fH
	DB	00H
	DB	0f9H
	DB	06aH
	DB	0fcH
	DB	0bfH
	DB	0ffH
	DB	02H
	DB	080H
	DB	0f2H
	DB	0faH
	DB	06H
	DB	00H
	DB	020H
	DB	078H
	DB	00H
	DB	00H
	DB	00H
	DB	08H
	DB	09H
	DB	00H
	DB	00H
	DB	00H
	DB	02H
	DB	00H
	DB	00H
	DB	00H
	DB	080H
	DB	01H
	DB	00H
	DB	00H
	DB	00H
	DB	060H
	DB	00H
	DB	00H
	DB	00H
	DB	00H
	DB	014H
	DB	00H
	DB	00H
	DB	00H
	DB	00H
	DB	09H
	DB	00H
	DB	00H
	DB	00H
	DB	00H
	DB	02H
	DB	00H
	DB	00H
	DB	00H
	DB	080H
	DB	00H
	DB	00H
	DB	00H
	DB	00H
	DB	020H
	DB	00H
	DB	00H
	DB	00H
	DB	00H
	DB	00H
	DB	00H
	DB	040H
	DB	01H
	DB	00H
	DB	00H
	DB	0fH
	DB	00H
	DB	00H
	DB	010H
	DB	080H
	DB	01bH
	DB	00H
	DB	040H
	DB	0e5H
	DB	06H
	DB	00H
	DB	00H
	DB	0feH
	DB	0bH
	DB	090H
	DB	05aH
	DB	019H
	DB	064H
	DB	00H
	DB	00H
	DB	02cH
	DB	050H
	DB	05H
	DB	0fcH
	DB	0ffH
	DB	02fH
	DB	050H
	DB	0f5H
	DB	06H
	DB	00H
	DB	0b0H
	DB	00H
	DB	00H
	DB	060H
	DB	00H
	DB	00H
	DB	050H
	DB	00H
	DB	00H
	DB	040H
	DB	00H
	DB	00H
	DB	00H
	DB	01H
	DB	00H
	DB	00H
	DB	05H
	DB	00H
	DB	00H
	DB	014H
	DB	00H
	DB	00H
	DB	0d0H
	DB	00H
	DB	00H
	DB	00H
	DB	0bH
	DB	00H
	DB	00H
	DB	0f4H
	DB	05aH
	DB	051H
	DB	040H
	DB	0feH
	DB	0bfH
	DB	01H
	DB	040H
	DB	05H
	DB	00H
	DB	00H
	DB	00H
	DB	00H
	DB	02cH
	DB	00H
	DB	00H
	DB	00H
	DB	00H
	DB	06H
	DB	00H
	DB	00H
	DB	00H
	DB	00H
	DB	00H
	DB	00H
	DB	00H
	DB	050H
	DB	01H
	DB	00H
	DB	00H
	DB	00H
	DB	0fdH
	DB	05bH
	DB	00H
	DB	010H
	DB	00H
	DB	090H
	DB	0ffH
	DB	0fH
	DB	07eH
	DB	00H
	DB	0e4H
	DB	0abH
	DB	0f1H
	DB	0ffH
	DB	0feH
	DB	0bH
	DB	00H
	DB	0caH
	DB	0ebH
	DB	01bH
	DB	00H
	DB	080H
	DB	0e0H
	DB	01H
	DB	00H
	DB	00H
	DB	020H
	DB	024H
	DB	00H
	DB	00H
	DB	00H
	DB	08H
	DB	00H
	DB	00H
	DB	00H
	DB	00H
	DB	06H
	DB	00H
	DB	00H
	DB	00H
	DB	080H
	DB	01H
	DB	00H
	DB	00H
	DB	00H
	DB	050H
	DB	00H
	DB	00H
	DB	00H
	DB	00H
	DB	024H
	DB	00H
	DB	00H
	DB	00H
	DB	00H
	DB	08H
	DB	00H
	DB	00H
	DB	00H
	DB	00H
	DB	02H
	DB	00H
	DB	00H
	DB	00H
	DB	080H
	DB	00H
	DB	00H
	DB	00H
	DB	00H
	DB	00H
	DB	00H
	DB	01H
	DB	084H
	DB	00H
	DB	0bH
	DB	09aH
	DB	080H
	DB	0fdH
	DB	07eH
	DB	060H
	DB	0a4H
	DB	010H
	DB	01dH
	DB	050H
	DB	05H
	DB	0ffH
	DB	0ffH
	DB	0bH
	DB	055H
	DB	06fH
	DB	00H
	DB	0c0H
	DB	02H
	DB	00H
	DB	060H
	DB	00H
	DB	00H
	DB	014H
	DB	00H
	DB	00H
	DB	04H
	DB	00H
	DB	00H
	DB	04H
	DB	00H
	DB	00H
	DB	05H
	DB	00H
	DB	00H
	DB	05H
	DB	00H
	DB	00H
	DB	0dH
	DB	00H
	DB	00H
	DB	02cH
	DB	00H
	DB	00H
	DB	0f4H
	DB	05aH
	DB	051H
	DB	090H
	DB	0ffH
	DB	06fH
	DB	00H
	DB	054H
	DB	00H
	DB	018H
	DB	00H
	DB	00H
	DB	02cH
	DB	00H
	DB	00H
	DB	00H
	DB	01H
	DB	084H
	DB	00H
	DB	0bH
	DB	09aH
	DB	080H
	DB	0fdH
	DB	07eH
	DB	060H
	DB	0a4H
	DB	010H
	DB	01dH
	DB	050H
	DB	05H
	DB	0ffH
	DB	0ffH
	DB	0bH
	DB	055H
	DB	06fH
	DB	00H
	DB	0c0H
	DB	02H
	DB	00H
	DB	060H
	DB	00H
	DB	00H
	DB	014H
	DB	00H
	DB	00H
	DB	04H
	DB	00H
	DB	00H
	DB	04H
	DB	00H
	DB	00H
	DB	05H
	DB	00H
	DB	00H
	DB	05H
	DB	00H
	DB	00H
	DB	0dH
	DB	00H
	DB	00H
	DB	02cH
	DB	00H
	DB	00H
	DB	0f4H
	DB	05aH
	DB	051H
	DB	090H
	DB	0ffH
	DB	06fH
	DB	00H
	DB	054H
	DB	00H
	DB	00H
	DB	00H
	DB	00H
	DB	04H
	DB	00H
	DB	014H
	DB	020H
	DB	06H
	DB	0e0H
	DB	01fH
	DB	0adH
	DB	041H
	DB	07H
	DB	0beH
	DB	02eH
	DB	0e0H
	DB	07H
	DB	01fH
	DB	00H
	DB	0f8H
	DB	0bH
	DB	00H
	DB	080H
	DB	0ffH
	DB	01H
	DB	00H
	DB	020H
	DB	00H
	DB	00H
	DB	00H
	DB	05H
	DB	00H
	DB	00H
	DB	040H
	DB	01H
	DB	00H
	DB	00H
	DB	090H
	DB	00H
	DB	00H
	DB	00H
	DB	020H
	DB	00H
	DB	00H
	DB	00H
	DB	0cH
	DB	00H
	DB	00H
	DB	00H
	DB	02H
	DB	00H
	DB	00H
	DB	080H
	DB	00H
	DB	00H
	DB	00H
	DB	020H
	DB	00H
	DB	00H
	DB	00H
	DB	00H
	DB	00H
	DB	090H
	DB	01fH
	DB	00H
	DB	00H
	DB	0a9H
	DB	0fH
	DB	0d0H
	DB	060H
	DB	080H
	DB	02H
	DB	0f8H
	DB	05aH
	DB	02eH
	DB	080H
	DB	0f5H
	DB	0bfH
	DB	02H
	DB	01dH
	DB	054H
	DB	01H
	DB	0f0H
	DB	0ffH
	DB	0bfH
	DB	00H
	DB	058H
	DB	0bdH
	DB	01H
	DB	00H
	DB	0c0H
	DB	02H
	DB	00H
	DB	00H
	DB	018H
	DB	00H
	DB	00H
	DB	040H
	DB	01H
	DB	00H
	DB	00H
	DB	010H
	DB	00H
	DB	00H
	DB	00H
	DB	04H
	DB	00H
	DB	00H
	DB	040H
	DB	01H
	DB	00H
	DB	00H
	DB	050H
	DB	00H
	DB	00H
	DB	00H
	DB	034H
	DB	00H
	DB	00H
	DB	00H
	DB	02cH
	DB	00H
	DB	00H
	DB	00H
	DB	0bdH
	DB	056H
	DB	014H
	DB	00H
	DB	0f9H
	DB	0ffH
	DB	06H
	DB	00H
	DB	050H
	DB	01H
	DB	00H
	DB	00H
	DB	00H
	DB	00H
	DB	0e0H
	DB	02H
	DB	00H
	DB	00H
	DB	0d0H
	DB	0bfH
	DB	00H
	DB	050H
	DB	040H
	DB	06H
	DB	07H
	DB	0e0H
	DB	01fH
	DB	08H
	DB	039H
	DB	0d0H
	DB	081H
	DB	0bfH
	DB	0ffH
	DB	01H
	DB	07eH
	DB	0f0H
	DB	0afH
	DB	01H
	DB	0e0H
	DB	02fH
	DB	08H
	DB	00H
	DB	080H
	DB	0ffH
	DB	01H
	DB	00H
	DB	00H
	DB	08H
	DB	00H
	DB	00H
	DB	00H
	DB	050H
	DB	00H
	DB	00H
	DB	00H
	DB	00H
	DB	05H
	DB	00H
	DB	00H
	DB	00H
	DB	090H
	DB	00H
	DB	00H
	DB	00H
	DB	00H
	DB	08H
	DB	00H
	DB	00H
	DB	00H
	DB	0c0H
	DB	00H
	DB	00H
	DB	00H
	DB	00H
	DB	08H
	DB	00H
	DB	00H
	DB	00H
	DB	080H
	DB	00H
	DB	00H
	DB	00H
	DB	00H
	DB	08H
	DB	00H
	DB	00H
	DB	00H
	DB	00H
	DB	00H
	DB	00H
	DB	0d0H
	DB	0bH
	DB	00H
	DB	00H
	DB	074H
	DB	05H
	DB	00H
	DB	00H
	DB	08H
	DB	080H
	DB	040H
	DB	00H
	DB	06cH
	DB	0b9H
	DB	0e0H
	DB	07H
	DB	0f8H
	DB	01bH
	DB	0fcH
	DB	0bfH
	DB	0bfH
	DB	01H
	DB	0caH
	DB	0ebH
	DB	0bH
	DB	00H
	DB	082H
	DB	07H
	DB	00H
	DB	00H
	DB	042H
	DB	02H
	DB	00H
	DB	00H
	DB	02H
	DB	00H
	DB	00H
	DB	00H
	DB	06H
	DB	00H
	DB	00H
	DB	00H
	DB	06H
	DB	00H
	DB	00H
	DB	00H
	DB	05H
	DB	00H
	DB	00H
	DB	00H
	DB	09H
	DB	00H
	DB	00H
	DB	00H
	DB	08H
	DB	00H
	DB	00H
	DB	00H
	DB	08H
	DB	00H
	DB	00H
	DB	00H
	DB	08H
	DB	00H
	DB	00H
	DB	00H
	DB	00H
	DB	00H
	DB	050H
	DB	00H
	DB	00H
	DB	00H
	DB	0f0H
	DB	00H
	DB	00H
	DB	00H
	DB	040H
	DB	00H
	DB	00H
	DB	00H
	DB	00H
	DB	00H
	DB	00H
	DB	00H
	DB	0d0H
	DB	0bH
	DB	00H
	DB	00H
	DB	074H
	DB	05H
	DB	00H
	DB	00H
	DB	08H
	DB	080H
	DB	040H
	DB	00H
	DB	06cH
	DB	0b9H
	DB	0e0H
	DB	07H
	DB	0f8H
	DB	01bH
	DB	0fcH
	DB	0bfH
	DB	0bfH
	DB	01H
	DB	0caH
	DB	0ebH
	DB	0bH
	DB	00H
	DB	082H
	DB	07H
	DB	00H
	DB	00H
	DB	042H
	DB	02H
	DB	00H
	DB	00H
	DB	02H
	DB	00H
	DB	00H
	DB	00H
	DB	06H
	DB	00H
	DB	00H
	DB	00H
	DB	06H
	DB	00H
	DB	00H
	DB	00H
	DB	05H
	DB	00H
	DB	00H
	DB	00H
	DB	09H
	DB	00H
	DB	00H
	DB	00H
	DB	08H
	DB	00H
	DB	00H
	DB	00H
	DB	08H
	DB	00H
	DB	00H
	DB	00H
	DB	08H
	DB	00H
	DB	00H
	DB	00H
	DB	040H
	DB	00H
	DB	00H
	DB	0edH
	DB	01H
	DB	00H
	DB	09dH
	DB	00H
	DB	00H
	DB	00H
	DB	00H
	DB	00H
	DB	050H
	DB	00H
	DB	00H
	DB	0f0H
	DB	01H
	DB	00H
	DB	0e4H
	DB	02H
	DB	00H
	DB	0e8H
	DB	03H
	DB	00H
	DB	074H
	DB	01H
	DB	00H
	DB	040H
	DB	02H
	DB	00H
	DB	0f8H
	DB	051H
	DB	05H
	DB	0feH
	DB	0ffH
	DB	0bH
	DB	055H
	DB	06fH
	DB	00H
	DB	0c0H
	DB	02H
	DB	00H
	DB	060H
	DB	00H
	DB	00H
	DB	014H
	DB	00H
	DB	00H
	DB	04H
	DB	00H
	DB	00H
	DB	04H
	DB	00H
	DB	00H
	DB	05H
	DB	00H
	DB	00H
	DB	05H
	DB	00H
	DB	00H
	DB	0dH
	DB	00H
	DB	00H
	DB	02cH
	DB	00H
	DB	00H
	DB	0f4H
	DB	05aH
	DB	051H
	DB	090H
	DB	0ffH
	DB	06fH
	DB	00H
	DB	054H
	DB	00H
	DB	00H
	DB	00H
	DB	0e8H
	DB	01H
	DB	00H
	DB	0b4H
	DB	02H
	DB	00H
	DB	040H
	DB	00H
	DB	00H
	DB	00H
	DB	00H
	DB	00H
	DB	00H
	DB	074H
	DB	00H
	DB	00H
	DB	0f0H
	DB	03H
	DB	00H
	DB	090H
	DB	01eH
	DB	010H
	DB	040H
	DB	0afH
	DB	0e0H
	DB	07H
	DB	094H
	DB	0f1H
	DB	0ffH
	DB	0eeH
	DB	0a2H
	DB	0bcH
	DB	0feH
	DB	082H
	DB	0e0H
	DB	01H
	DB	00H
	DB	042H
	DB	02H
	DB	00H
	DB	08H
	DB	00H
	DB	00H
	DB	060H
	DB	00H
	DB	00H
	DB	080H
	DB	01H
	DB	00H
	DB	00H
	DB	05H
	DB	00H
	DB	00H
	DB	024H
	DB	00H
	DB	00H
	DB	080H
	DB	00H
	DB	00H
	DB	00H
	DB	02H
	DB	00H
	DB	00H
	DB	08H
	DB	00H
	DB	00H
	DB	00H
	DB	00H
	DB	00H
	DB	01H
	DB	00H
	DB	0edH
	DB	01H
	DB	040H
	DB	017H
	DB	00H
	DB	00H
	DB	00H
	DB	00H
	DB	00H
	DB	00H
	DB	00H
	DB	00H
	DB	00H
	DB	00H
	DB	074H
	DB	00H
	DB	00H
	DB	03eH
	DB	00H
	DB	080H
	DB	01eH
	DB	00H
	DB	0f0H
	DB	046H
	DB	00H
	DB	014H
	DB	015H
	DB	00H
	DB	039H
	DB	01H
	DB	0d0H
	DB	0afH
	DB	00H
	DB	00H
	DB	03dH
	DB	00H
	DB	080H
	DB	02bH
	DB	00H
	DB	02eH
	DB	0bdH
	DB	0feH
	DB	01H
	DB	0fdH
	DB	06H
	DB	00H
	DB	00H
	DB	00H
	DB	00H
	DB	040H
	DB	00H
	DB	040H
	DB	07bH
	DB	00H
	DB	0d0H
	DB	09H
	DB	00H
	DB	00H
	DB	00H
	DB	0d0H
	DB	015H
	DB	00H
	DB	0f4H
	DB	092H
	DB	00H
	DB	0bdH
	DB	041H
	DB	042H
	DB	06eH
	DB	00H
	DB	048H
	DB	01bH
	DB	00H
	DB	0a0H
	DB	07H
	DB	00H
	DB	0c0H
	DB	02H
	DB	00H
	DB	00H
	DB	06fH
	DB	00H
	DB	00H
	DB	0d8H
	DB	0bH
	DB	00H
	DB	020H
	DB	0b4H
	DB	00H
	DB	080H
	DB	00H
	DB	02H
	DB	00H
	DB	06H
	DB	08H
	DB	00H
	DB	0f8H
	DB	03eH
	DB	00H
	DB	0c0H
	DB	07fH
	DB	00H
	DB	00H
	DB	04H
	DB	00H
	DB	00H
	DB	00H
	DB	040H
	DB	0e9H
	DB	01H
	DB	0e4H
	DB	0bfH
	DB	042H
	DB	0beH
	DB	05H
	DB	040H
	DB	01bH
	DB	00H
	DB	00H
	DB	0eH
	DB	00H
	DB	00H
	DB	0f8H
	DB	00H
	DB	00H
	DB	080H
	DB	0bH
	DB	00H
	DB	00H
	DB	074H
	DB	00H
	DB	00H
	DB	040H
	DB	02H
	DB	00H
	DB	00H
	DB	05H
	DB	00H
	DB	080H
	DB	01fH
	DB	055H
	DB	080H
	DB	0ffH
	DB	0ffH
	DB	02H
	DB	055H
	DB	06fH
	DB	00H
	DB	00H
	DB	0bH
	DB	00H
	DB	00H
	DB	06H
	DB	00H
	DB	00H
	DB	05H
	DB	00H
	DB	00H
	DB	04H
	DB	00H
	DB	00H
	DB	010H
	DB	00H
	DB	00H
	DB	050H
	DB	00H
	DB	00H
	DB	040H
	DB	01H
	DB	00H
	DB	00H
	DB	0dH
	DB	00H
	DB	00H
	DB	0b0H
	DB	00H
	DB	00H
	DB	040H
	DB	0afH
	DB	015H
	DB	05H
	DB	0e4H
	DB	0ffH
	DB	01bH
	DB	00H
	DB	054H
	DB	00H
	DB	00H
	DB	00H
	DB	040H
	DB	0e9H
	DB	01H
	DB	0e4H
	DB	0bfH
	DB	042H
	DB	0beH
	DB	05H
	DB	040H
	DB	01bH
	DB	00H
	DB	00H
	DB	0eH
	DB	00H
	DB	00H
	DB	0f8H
	DB	00H
	DB	00H
	DB	080H
	DB	0bH
	DB	00H
	DB	00H
	DB	074H
	DB	090H
	DB	01H
	DB	040H
	DB	082H
	DB	03H
	DB	00H
	DB	05H
	DB	00H
	DB	080H
	DB	01fH
	DB	055H
	DB	080H
	DB	0ffH
	DB	0ffH
	DB	02H
	DB	055H
	DB	06fH
	DB	00H
	DB	00H
	DB	0bH
	DB	00H
	DB	00H
	DB	06H
	DB	00H
	DB	00H
	DB	05H
	DB	00H
	DB	00H
	DB	04H
	DB	00H
	DB	00H
	DB	010H
	DB	00H
	DB	00H
	DB	050H
	DB	00H
	DB	00H
	DB	040H
	DB	01H
	DB	00H
	DB	00H
	DB	0dH
	DB	00H
	DB	00H
	DB	0b0H
	DB	00H
	DB	00H
	DB	040H
	DB	0afH
	DB	015H
	DB	05H
	DB	0e4H
	DB	0ffH
	DB	01bH
	DB	00H
	DB	054H
	DB	00H
	DB	00H
	DB	00H
	DB	00H
	DB	00H
	DB	00H
	DB	029H
	DB	00H
	DB	00H
	DB	00H
	DB	0e4H
	DB	07H
	DB	00H
	DB	08H
	DB	080H
	DB	01fH
	DB	00H
	DB	00H
	DB	02H
	DB	07eH
	DB	00H
	DB	00H
	DB	080H
	DB	0e0H
	DB	01H
	DB	00H
	DB	00H
	DB	060H
	DB	0bH
	DB	00H
	DB	00H
	DB	00H
	DB	078H
	DB	00H
	DB	00H
	DB	00H
	DB	00H
	DB	0beH
	DB	00H
	DB	00H
	DB	00H
	DB	040H
	DB	0fbH
	DB	01H
	DB	00H
	DB	00H
	DB	090H
	DB	0e0H
	DB	00H
	DB	00H
	DB	00H
	DB	034H
	DB	090H
	DB	00H
	DB	00H
	DB	00H
	DB	02dH
	DB	024H
	DB	00H
	DB	00H
	DB	040H
	DB	0beH
	DB	07H
	DB	00H
	DB	02H
	DB	040H
	DB	0bfH
	DB	00H
	DB	050H
	DB	00H
	DB	020H
	DB	00H
	DB	00H
	DB	08H
	DB	00H
	DB	04H
	DB	00H
	DB	00H
	DB	06H
	DB	00H
	DB	01H
	DB	00H
	DB	080H
	DB	07H
	DB	034H
	DB	00H
	DB	00H
	DB	0d0H
	DB	0ffH
	DB	07H
	DB	00H
	DB	00H
	DB	090H
	DB	06fH
	DB	00H
	DB	00H
	DB	00H
	DB	00H
	DB	00H
	DB	090H
	DB	02H
	DB	050H
	DB	0feH
	DB	0bH
	DB	0f4H
	DB	06fH
	DB	01H
	DB	0bcH
	DB	01H
	DB	00H
	DB	028H
	DB	00H
	DB	00H
	DB	0f0H
	DB	01H
	DB	00H
	DB	080H
	DB	01fH
	DB	00H
	DB	00H
	DB	0e4H
	DB	00H
	DB	00H
	DB	00H
	DB	07H
	DB	00H
	DB	00H
	DB	024H
	DB	00H
	DB	00H
	DB	080H
	DB	00H
	DB	00H
	DB	040H
	DB	02H
	DB	00H
	DB	0d0H
	DB	03H
	DB	00H
	DB	080H
	DB	02fH
	DB	00H
	DB	00H
	DB	0feH
	DB	02H
	DB	00H
	DB	0aeH
	DB	06H
	DB	00H
	DB	05H
	DB	00H
	DB	00H
	DB	014H
	DB	00H
	DB	00H
	DB	050H
	DB	00H
	DB	00H
	DB	040H
	DB	02H
	DB	00H
	DB	00H
	DB	08H
	DB	00H
	DB	00H
	DB	030H
	DB	00H
	DB	00H
	DB	080H
	DB	00H
	DB	00H
	DB	00H
	DB	02H
	DB	00H
	DB	00H
	DB	08H
	DB	00H
	DB	00H
	DB	00H
	DB	00H
	DB	00H
	DB	00H
	DB	050H
	DB	00H
	DB	00H
	DB	00H
	DB	07eH
	DB	00H
	DB	00H
	DB	0e0H
	DB	01bH
	DB	00H
	DB	00H
	DB	0beH
	DB	00H
	DB	00H
	DB	0d0H
	DB	07H
	DB	00H
	DB	00H
	DB	078H
	DB	00H
	DB	00H
	DB	00H
	DB	09H
	DB	00H
	DB	00H
	DB	00H
	DB	02eH
	DB	00H
	DB	00H
	DB	00H
	DB	0beH
	DB	00H
	DB	00H
	DB	00H
	DB	0e8H
	DB	02H
	DB	00H
	DB	00H
	DB	040H
	DB	07H
	DB	00H
	DB	00H
	DB	00H
	DB	09H
	DB	00H
	DB	00H
	DB	00H
	DB	08H
	DB	00H
	DB	04H
	DB	00H
	DB	08H
	DB	00H
	DB	05H
	DB	080H
	DB	07H
	DB	00H
	DB	01H
	DB	0d0H
	DB	02fH
	DB	00H
	DB	02H
	DB	00H
	DB	034H
	DB	00H
	DB	03H
	DB	00H
	DB	038H
	DB	00H
	DB	0aH
	DB	090H
	DB	0bH
	DB	00H
	DB	0bdH
	DB	0feH
	DB	01H
	DB	00H
	DB	0f4H
	DB	01bH
	DB	00H
	DB	00H
	DB	00H
	DB	00H
	DB	00H
	DB	00H
	DB	00H
	DB	010H
	DB	00H
	DB	00H
	DB	040H
	DB	07bH
	DB	00H
	DB	00H
	DB	040H
	DB	027H
	DB	00H
	DB	00H
	DB	040H
	DB	02H
	DB	00H
	DB	040H
	DB	03H
	DB	00H
	DB	00H
	DB	02H
	DB	00H
	DB	00H
	DB	03H
	DB	00H
	DB	00H
	DB	02H
	DB	00H
	DB	00H
	DB	02H
	DB	00H
	DB	00H
	DB	02H
	DB	00H
	DB	0e8H
	DB	052H
	DB	05H
	DB	0feH
	DB	0ffH
	DB	0bH
	DB	055H
	DB	06fH
	DB	00H
	DB	0c0H
	DB	02H
	DB	00H
	DB	060H
	DB	00H
	DB	00H
	DB	014H
	DB	00H
	DB	00H
	DB	04H
	DB	00H
	DB	00H
	DB	04H
	DB	00H
	DB	00H
	DB	05H
	DB	00H
	DB	00H
	DB	05H
	DB	00H
	DB	00H
	DB	0dH
	DB	00H
	DB	00H
	DB	02cH
	DB	00H
	DB	00H
	DB	0f4H
	DB	05aH
	DB	051H
	DB	090H
	DB	0ffH
	DB	06fH
	DB	00H
	DB	054H
	DB	00H
	DB	040H
	DB	02H
	DB	00H
	DB	040H
	DB	03H
	DB	00H
	DB	00H
	DB	02H
	DB	00H
	DB	00H
	DB	03H
	DB	00H
	DB	00H
	DB	042H
	DB	02H
	DB	00H
	DB	082H
	DB	07H
	DB	00H
	DB	02H
	DB	01H
	DB	0e8H
	DB	052H
	DB	05H
	DB	0feH
	DB	0ffH
	DB	0bH
	DB	055H
	DB	06fH
	DB	00H
	DB	0c0H
	DB	02H
	DB	00H
	DB	060H
	DB	00H
	DB	00H
	DB	014H
	DB	00H
	DB	00H
	DB	04H
	DB	00H
	DB	00H
	DB	04H
	DB	00H
	DB	00H
	DB	05H
	DB	00H
	DB	00H
	DB	05H
	DB	00H
	DB	00H
	DB	0dH
	DB	00H
	DB	00H
	DB	02cH
	DB	00H
	DB	00H
	DB	0f4H
	DB	05aH
	DB	051H
	DB	090H
	DB	0ffH
	DB	06fH
	DB	00H
	DB	054H
	DB	00H
	DB	040H
	DB	00H
	DB	0e0H
	DB	00H
	DB	024H
	DB	00H
	DB	09H
	DB	00H
	DB	02H
	DB	080H
	DB	00H
	DB	020H
	DB	00H
	DB	08H
	DB	00H
	DB	02H
	DB	080H
	DB	00H
	DB	02dH
	DB	080H
	DB	02fH
	DB	0e0H
	DB	02fH
	DB	0aeH
	DB	056H
	DB	00H
	DB	014H
	DB	00H
	DB	05H
	DB	040H
	DB	02H
	DB	080H
	DB	00H
	DB	030H
	DB	00H
	DB	08H
	DB	00H
	DB	02H
	DB	080H
	DB	00H
	DB	00H
	DB	00H
	DB	080H
	DB	00H
	DB	00H
	DB	070H
	DB	00H
	DB	00H
	DB	08H
	DB	00H
	DB	00H
	DB	06H
	DB	00H
	DB	040H
	DB	01H
	DB	00H
	DB	090H
	DB	00H
	DB	00H
	DB	020H
	DB	00H
	DB	00H
	DB	08H
	DB	00H
	DB	00H
	DB	02H
	DB	01H
	DB	080H
	DB	010H
	DB	00H
	DB	07cH
	DB	09H
	DB	040H
	DB	0ebH
	DB	02H
	DB	00H
	DB	0f0H
	DB	00H
	DB	040H
	DB	0ebH
	DB	041H
	DB	07dH
	DB	0f4H
	DB	0ffH
	DB	06H
	DB	0a0H
	DB	06H
	DB	00H
	DB	00H
	DB	00H
	DB	00H
	DB	010H
	DB	02H
	DB	00H
	DB	0fdH
	DB	01H
	DB	040H
	DB	012H
	DB	00H
	DB	00H
	DB	024H
	DB	00H
	DB	00H
	DB	0f8H
	DB	01H
	DB	00H
	DB	0f8H
	DB	00H
	DB	040H
	DB	06eH
	DB	00H
	DB	0a0H
	DB	01H
	DB	00H
	DB	02cH
	DB	050H
	DB	05H
	DB	0feH
	DB	0ffH
	DB	0bH
	DB	055H
	DB	06fH
	DB	00H
	DB	0c0H
	DB	02H
	DB	00H
	DB	060H
	DB	00H
	DB	00H
	DB	014H
	DB	00H
	DB	00H
	DB	04H
	DB	00H
	DB	00H
	DB	04H
	DB	00H
	DB	00H
	DB	05H
	DB	00H
	DB	00H
	DB	05H
	DB	00H
	DB	00H
	DB	0dH
	DB	00H
	DB	00H
	DB	02cH
	DB	00H
	DB	00H
	DB	0f4H
	DB	05aH
	DB	051H
	DB	090H
	DB	0ffH
	DB	06fH
	DB	00H
	DB	054H
	DB	00H
	DB	018H
	DB	00H
	DB	00H
	DB	02cH
	DB	024H
	DB	00H
	DB	00H
	DB	0f8H
	DB	01H
	DB	00H
	DB	0f8H
	DB	00H
	DB	040H
	DB	06eH
	DB	00H
	DB	0a0H
	DB	01H
	DB	00H
	DB	02cH
	DB	050H
	DB	05H
	DB	0feH
	DB	0ffH
	DB	0bH
	DB	055H
	DB	06fH
	DB	00H
	DB	0c0H
	DB	02H
	DB	00H
	DB	060H
	DB	00H
	DB	00H
	DB	014H
	DB	00H
	DB	00H
	DB	04H
	DB	00H
	DB	00H
	DB	04H
	DB	00H
	DB	00H
	DB	05H
	DB	00H
	DB	00H
	DB	05H
	DB	00H
	DB	00H
	DB	0dH
	DB	00H
	DB	00H
	DB	02cH
	DB	00H
	DB	00H
	DB	0f4H
	DB	05aH
	DB	051H
	DB	090H
	DB	0ffH
	DB	06fH
	DB	00H
	DB	054H
	DB	00H
	DB	00H
	DB	00H
	DB	00H
	DB	01H
	DB	00H
	DB	00H
	DB	0e0H
	DB	02H
	DB	04H
	DB	00H
	DB	0d9H
	DB	080H
	DB	01fH
	DB	0d0H
	DB	07fH
	DB	0fcH
	DB	0bfH
	DB	04fH
	DB	086H
	DB	0f2H
	DB	0faH
	DB	01H
	DB	020H
	DB	078H
	DB	00H
	DB	00H
	DB	08H
	DB	09H
	DB	00H
	DB	00H
	DB	02H
	DB	00H
	DB	00H
	DB	080H
	DB	01H
	DB	00H
	DB	00H
	DB	060H
	DB	00H
	DB	00H
	DB	00H
	DB	014H
	DB	00H
	DB	00H
	DB	00H
	DB	09H
	DB	00H
	DB	00H
	DB	00H
	DB	02H
	DB	00H
	DB	00H
	DB	080H
	DB	00H
	DB	00H
	DB	00H
	DB	020H
	DB	00H
	DB	00H
	DB	00H
	DB	00H
	DB	00H
	DB	0f0H
	DB	01H
	DB	00H
	DB	040H
	DB	07fH
	DB	00H
	DB	00H
	DB	0f4H
	DB	047H
	DB	00H
	DB	0e0H
	DB	016H
	DB	05H
	DB	080H
	DB	02H
	DB	010H
	DB	00H
	DB	0fcH
	DB	02H
	DB	02H
	DB	00H
	DB	034H
	DB	030H
	DB	00H
	DB	080H
	DB	03H
	DB	0aH
	DB	090H
	DB	0bH
	DB	0d0H
	DB	0ebH
	DB	01fH
	DB	00H
	DB	0f4H
	DB	01bH
	DB	00H
	DB	00H
	DB	00H
	DB	00H
	DB	00H
	DB	00H
	DB	010H
	DB	00H
	DB	00H
	DB	0b4H
	DB	07H
	DB	00H
	DB	040H
	DB	027H
	DB	00H
	DB	00H
	DB	00H
	DB	010H
	DB	00H
	DB	00H
	DB	0b4H
	DB	00H
	DB	00H
	DB	060H
	DB	00H
	DB	00H
	DB	00H
	DB	00H
	DB	00H
	DB	0a0H
	DB	00H
	DB	00H
	DB	0f4H
	DB	00H
	DB	00H
	DB	088H
	DB	00H
	DB	00H
	DB	045H
	DB	00H
	DB	080H
	DB	02H
	DB	00H
	DB	078H
	DB	050H
	DB	05H
	DB	0feH
	DB	0ffH
	DB	0bH
	DB	055H
	DB	06fH
	DB	00H
	DB	0c0H
	DB	02H
	DB	00H
	DB	060H
	DB	00H
	DB	00H
	DB	014H
	DB	00H
	DB	00H
	DB	04H
	DB	00H
	DB	00H
	DB	04H
	DB	00H
	DB	00H
	DB	05H
	DB	00H
	DB	00H
	DB	05H
	DB	00H
	DB	00H
	DB	0dH
	DB	00H
	DB	00H
	DB	02cH
	DB	00H
	DB	00H
	DB	0f4H
	DB	05aH
	DB	051H
	DB	090H
	DB	0ffH
	DB	06fH
	DB	00H
	DB	054H
	DB	00H
	DB	00H
	DB	010H
	DB	00H
	DB	00H
	DB	0b4H
	DB	00H
	DB	00H
	DB	060H
	DB	00H
	DB	014H
	DB	00H
	DB	00H
	DB	03cH
	DB	0a0H
	DB	00H
	DB	014H
	DB	0f4H
	DB	00H
	DB	00H
	DB	088H
	DB	00H
	DB	00H
	DB	045H
	DB	00H
	DB	080H
	DB	02H
	DB	00H
	DB	078H
	DB	050H
	DB	05H
	DB	0feH
	DB	0ffH
	DB	0bH
	DB	055H
	DB	06fH
	DB	00H
	DB	0c0H
	DB	02H
	DB	00H
	DB	060H
	DB	00H
	DB	00H
	DB	014H
	DB	00H
	DB	00H
	DB	04H
	DB	00H
	DB	00H
	DB	04H
	DB	00H
	DB	00H
	DB	05H
	DB	00H
	DB	00H
	DB	05H
	DB	00H
	DB	00H
	DB	0dH
	DB	00H
	DB	00H
	DB	02cH
	DB	00H
	DB	00H
	DB	0f4H
	DB	05aH
	DB	051H
	DB	090H
	DB	0ffH
	DB	06fH
	DB	00H
	DB	054H
	DB	00H
	DB	00H
	DB	080H
	DB	00H
	DB	00H
	DB	02dH
	DB	00H
	DB	040H
	DB	00H
	DB	00H
	DB	00H
	DB	00H
	DB	00H
	DB	00H
	DB	00H
	DB	07eH
	DB	00H
	DB	0aeH
	DB	07H
	DB	02dH
	DB	010H
	DB	0e0H
	DB	07H
	DB	00H
	DB	0feH
	DB	01H
	DB	0f4H
	DB	01fH
	DB	080H
	DB	01H
	DB	00H
	DB	05H
	DB	00H
	DB	050H
	DB	00H
	DB	00H
	DB	09H
	DB	00H
	DB	090H
	DB	00H
	DB	00H
	DB	08H
	DB	00H
	DB	080H
	DB	00H
	DB	00H
	DB	08H
	DB	00H
	DB	080H
	DB	00H
	DB	00H
	DB	04H
	DB	00H
	DB	00H
	DB	00H
	DB	040H
	DB	0bH
	DB	00H
	DB	080H
	DB	01H
	DB	00H
	DB	00H
	DB	00H
	DB	00H
	DB	00H
	DB	00H
	DB	00H
	DB	09H
	DB	00H
	DB	080H
	DB	03H
	DB	00H
	DB	080H
	DB	01H
	DB	00H
	DB	050H
	DB	04H
	DB	00H
	DB	054H
	DB	01H
	DB	090H
	DB	012H
	DB	00H
	DB	0fdH
	DB	0aH
	DB	00H
	DB	0d0H
	DB	03H
	DB	00H
	DB	0b8H
	DB	02H
	DB	0e4H
	DB	0d2H
	DB	0ebH
	DB	01fH
	DB	0d0H
	DB	06fH
	DB	00H
	DB	00H
	DB	00H
	DB	00H
	DB	00H
	DB	04H
	DB	00H
	DB	0b4H
	DB	07H
	DB	00H
	DB	09dH
	DB	00H
	DB	00H
	DB	0a0H
	DB	00H
	DB	00H
	DB	0f4H
	DB	00H
	DB	00H
	DB	088H
	DB	00H
	DB	00H
	DB	045H
	DB	00H
	DB	080H
	DB	02H
	DB	00H
	DB	078H
	DB	050H
	DB	05H
	DB	0feH
	DB	0ffH
	DB	0bH
	DB	055H
	DB	06fH
	DB	00H
	DB	0c0H
	DB	02H
	DB	00H
	DB	060H
	DB	090H
	DB	0aH
	DB	014H
	DB	0e0H
	DB	0aH
	DB	04H
	DB	040H
	DB	00H
	DB	04H
	DB	00H
	DB	00H
	DB	05H
	DB	00H
	DB	00H
	DB	05H
	DB	00H
	DB	00H
	DB	0dH
	DB	00H
	DB	00H
	DB	02cH
	DB	00H
	DB	00H
	DB	0f4H
	DB	05aH
	DB	051H
	DB	090H
	DB	0ffH
	DB	06fH
	DB	00H
	DB	054H
	DB	00H
	DB	014H
	DB	00H
	DB	00H
	DB	03cH
	DB	0a0H
	DB	00H
	DB	014H
	DB	0f4H
	DB	00H
	DB	00H
	DB	088H
	DB	00H
	DB	00H
	DB	045H
	DB	00H
	DB	080H
	DB	02H
	DB	00H
	DB	078H
	DB	050H
	DB	05H
	DB	0feH
	DB	0ffH
	DB	0bH
	DB	055H
	DB	06fH
	DB	00H
	DB	0c0H
	DB	02H
	DB	00H
	DB	060H
	DB	090H
	DB	0aH
	DB	014H
	DB	0e0H
	DB	0aH
	DB	04H
	DB	040H
	DB	00H
	DB	04H
	DB	00H
	DB	00H
	DB	05H
	DB	00H
	DB	00H
	DB	05H
	DB	00H
	DB	00H
	DB	0dH
	DB	00H
	DB	00H
	DB	02cH
	DB	00H
	DB	00H
	DB	0f4H
	DB	05aH
	DB	051H
	DB	090H
	DB	0ffH
	DB	06fH
	DB	00H
	DB	054H
	DB	00H
	DB	00H
	DB	0e0H
	DB	07H
	DB	080H
	DB	0ebH
	DB	01H
	DB	02dH
	DB	010H
	DB	080H
	DB	01fH
	DB	00H
	DB	0e0H
	DB	01fH
	DB	00H
	DB	0fdH
	DB	07H
	DB	080H
	DB	01H
	DB	00H
	DB	014H
	DB	00H
	DB	010H
	DB	05H
	DB	080H
	DB	07fH
	DB	02H
	DB	0a0H
	DB	095H
	DB	00H
	DB	00H
	DB	020H
	DB	00H
	DB	00H
	DB	08H
	DB	00H
	DB	00H
	DB	02H
	DB	00H
	DB	080H
	DB	00H
	DB	00H
	DB	010H
	DB	00H
	DB	00H
	DB	00H
	DB	00H
	DB	09H
	DB	00H
	DB	00H
	DB	038H
	DB	00H
	DB	00H
	DB	080H
	DB	01H
	DB	00H
	DB	00H
	DB	05H
	DB	04H
	DB	00H
	DB	014H
	DB	014H
	DB	00H
	DB	029H
	DB	010H
	DB	00H
	DB	0fdH
	DB	082H
	DB	00H
	DB	00H
	DB	0dH
	DB	03H
	DB	00H
	DB	038H
	DB	028H
	DB	040H
	DB	02eH
	DB	0d0H
	DB	0ebH
	DB	01fH
	DB	00H
	DB	0fdH
	DB	06H
	DB	076H
	DB	00H
	DB	00H
	DB	0edH
	DB	01H
	DB	040H
	DB	010H
	DB	00H
	DB	0b4H
	DB	07H
	DB	00H
	DB	0d0H
	DB	09H
	DB	00H
	DB	00H
	DB	00H
	DB	04H
	DB	00H
	DB	00H
	DB	09H
	DB	00H
	DB	0b8H
	DB	0bH
	DB	00H
	DB	0f8H
	DB	09H
	DB	00H
	DB	034H
	DB	028H
	DB	00H
	DB	020H
	DB	074H
	DB	00H
	DB	018H
	DB	00H
	DB	00H
	DB	0eH
	DB	00H
	DB	0e5H
	DB	03H
	DB	06H
	DB	0a4H
	DB	040H
	DB	0bH
	DB	00H
	DB	00H
	DB	01H
	DB	00H
	DB	050H
	DB	00H
	DB	0e0H
	DB	01fH
	DB	0d0H
	DB	081H
	DB	07H
	DB	07eH
	DB	0a0H
	DB	0e0H
	DB	02fH
	DB	080H
	DB	0ffH
	DB	01H
	DB	08H
	DB	00H
	DB	050H
	DB	00H
	DB	00H
	DB	05H
	DB	0a0H
	DB	090H
	DB	00H
	DB	0bH
	DB	08H
	DB	00H
	DB	0c0H
	DB	00H
	DB	00H
	DB	08H
	DB	00H
	DB	080H
	DB	00H
	DB	00H
	DB	08H
	DB	00H
	DB	00H
	DB	040H
	DB	0bH
	DB	00H
	DB	00H
	DB	019H
	DB	00H
	DB	00H
	DB	00H
	DB	00H
	DB	00H
	DB	00H
	DB	00H
	DB	024H
	DB	00H
	DB	00H
	DB	0bbH
	DB	010H
	DB	00H
	DB	02cH
	DB	012H
	DB	00H
	DB	020H
	DB	058H
	DB	00H
	DB	040H
	DB	0d0H
	DB	02H
	DB	00H
	DB	02H
	DB	01cH
	DB	040H
	DB	06H
	DB	0e0H
	DB	0ebH
	DB	0bH
	DB	00H
	DB	0feH
	DB	06H
	DB	0eH
	DB	00H
	DB	00H
	DB	024H
	DB	00H
	DB	00H
	DB	00H
	DB	04H
	DB	00H
	DB	00H
	DB	0f8H
	DB	040H
	DB	00H
	DB	058H
	DB	01fH
	DB	01H
	DB	08H
	DB	074H
	DB	01H
	DB	0b0H
	DB	01H
	DB	08H
	DB	040H
	DB	0ffH
	DB	062H
	DB	00H
	DB	040H
	DB	08eH
	DB	07H
	DB	040H
	DB	01eH
	DB	0bdH
	DB	0faH
	DB	01bH
	DB	090H
	DB	0bfH
	DB	06H
	DB	00H
	DB	00H
	DB	080H
	DB	02H
	DB	00H
	DB	04H
	DB	0aH
	DB	00H
	DB	0baH
	DB	00H
	DB	00H
	DB	0adH
	DB	00H
	DB	00H
	DB	00H
	DB	080H
	DB	02dH
	DB	00H
	DB	0c0H
	DB	01aH
	DB	00H
	DB	00H
	DB	00H
	DB	00H
	DB	00H
	DB	00H
	DB	00H
	DB	00H
	DB	04H
	DB	00H
	DB	00H
	DB	09H
	DB	00H
	DB	0b8H
	DB	0bH
	DB	00H
	DB	0f8H
	DB	09H
	DB	00H
	DB	034H
	DB	028H
	DB	00H
	DB	020H
	DB	074H
	DB	00H
	DB	018H
	DB	00H
	DB	00H
	DB	0eH
	DB	00H
	DB	0e5H
	DB	03H
	DB	00H
	DB	0a4H
	DB	00H
	DB	00H
	DB	00H
	DB	050H
	DB	00H
	DB	0d0H
	DB	0fH
	DB	00H
	DB	059H
	DB	00H
	DB	00H
	DB	00H
	DB	00H
	DB	00H
	DB	00H
	DB	00H
	DB	05H
	DB	00H
	DB	0feH
	DB	01H
	DB	01dH
	DB	078H
	DB	0e0H
	DB	07H
	DB	0aH
	DB	0feH
	DB	02H
	DB	0f8H
	DB	01fH
	DB	080H
	DB	00H
	DB	00H
	DB	05H
	DB	00H
	DB	050H
	DB	00H
	DB	00H
	DB	09H
	DB	00H
	DB	080H
	DB	00H
	DB	00H
	DB	0cH
	DB	00H
	DB	080H
	DB	00H
	DB	00H
	DB	08H
	DB	00H
	DB	080H
	DB	00H
	DB	00H
	DB	00H
	DB	00H
	DB	094H
	DB	00H
	DB	02dH
	DB	0b8H
	DB	03H
	DB	064H
	DB	040H
	DB	00H
	DB	00H
	DB	00H
	DB	00H
	DB	00H
	DB	00H
	DB	090H
	DB	00H
	DB	00H
	DB	0ecH
	DB	042H
	DB	00H
	DB	0b0H
	DB	048H
	DB	00H
	DB	080H
	DB	060H
	DB	01H
	DB	00H
	DB	041H
	DB	0bH
	DB	00H
	DB	08H
	DB	070H
	DB	00H
	DB	019H
	DB	080H
	DB	0afH
	DB	02fH
	DB	00H
	DB	0f8H
	DB	01bH
	DB	00H
	DB	00H
	DB	00H
	DB	00H
	DB	04H
	DB	00H
	DB	040H
	DB	07fH
	DB	00H
	DB	00H
	DB	05dH
	DB	00H
	DB	00H
	DB	00H
	DB	00H
	DB	00H
	DB	00H
	DB	00H
	DB	00H
	DB	00H
	DB	010H
	DB	00H
	DB	00H
	DB	0e0H
	DB	03H
	DB	01H
	DB	060H
	DB	07dH
	DB	04H
	DB	020H
	DB	0d0H
	DB	05H
	DB	0c0H
	DB	06H
	DB	020H
	DB	00H
	DB	0fdH
	DB	08bH
	DB	01H
	DB	00H
	DB	039H
	DB	01eH
	DB	00H
	DB	079H
	DB	0f4H
	DB	0eaH
	DB	06fH
	DB	040H
	DB	0feH
	DB	01aH
	DB	00H
	DB	00H
	DB	00H
	DB	00H
	DB	00H
	DB	010H
	DB	00H
	DB	00H
	DB	0e8H
	DB	02H
	DB	00H
	DB	0b4H
	DB	02H
	DB	00H
	DB	00H
	DB	00H
	DB	050H
	DB	0aH
	DB	00H
	DB	00H
	DB	0f0H
	DB	0aH
	DB	00H
	DB	00H
	DB	040H
	DB	00H
	DB	00H
	DB	00H
	DB	00H
	DB	00H
	DB	00H
	DB	00H
	DB	00H
	DB	00H
	DB	00H
	DB	00H
	DB	00H
	DB	0dH
	DB	00H
	DB	00H
	DB	040H
	DB	01fH
	DB	00H
	DB	00H
	DB	080H
	DB	019H
	DB	00H
	DB	00H
	DB	060H
	DB	08H
	DB	00H
	DB	00H
	DB	0e0H
	DB	0aH
	DB	00H
	DB	00H
	DB	0e0H
	DB	06fH
	DB	04H
	DB	00H
	DB	02dH
	DB	079H
	DB	05H
	DB	0c0H
	DB	07H
	DB	00H
	DB	01H
	DB	0d0H
	DB	03fH
	DB	00H
	DB	02H
	DB	00H
	DB	030H
	DB	00H
	DB	03H
	DB	00H
	DB	028H
	DB	00H
	DB	0aH
	DB	090H
	DB	0bH
	DB	00H
	DB	0bdH
	DB	0feH
	DB	01H
	DB	00H
	DB	0f4H
	DB	01bH
	DB	00H
	DB	00H
	DB	00H
	DB	00H
	DB	00H
	DB	00H
	DB	00H
	DB	010H
	DB	00H
	DB	00H
	DB	040H
	DB	07bH
	DB	00H
	DB	00H
	DB	040H
	DB	027H
	DB	00H
	DB	00H
	DB	00H
	DB	00H
	DB	040H
	DB	01H
	DB	00H
	DB	040H
	DB	01fH
	DB	05H
	DB	040H
	DB	06fH
	DB	090H
	DB	040H
	DB	06fH
	DB	00H
	DB	09H
	DB	06eH
	DB	00H
	DB	080H
	DB	078H
	DB	00H
	DB	00H
	DB	0a8H
	DB	00H
	DB	00H
	DB	080H
	DB	07H
	DB	00H
	DB	00H
	DB	0e8H
	DB	0bH
	DB	00H
	DB	080H
	DB	0e4H
	DB	07H
	DB	00H
	DB	08H
	DB	0f4H
	DB	02H
	DB	080H
	DB	00H
	DB	0b9H
	DB	00H
	DB	018H
	DB	050H
	DB	078H
	DB	080H
	DB	0efH
	DB	03H
	DB	02eH
	DB	0f0H
	DB	01fH
	DB	040H
	DB	07H
	DB	04H
	DB	00H
	DB	00H
	DB	00H
	DB	00H
	DB	00H
	DB	00H
	DB	024H
	DB	00H
	DB	00H
	DB	00H
	DB	040H
	DB	02eH
	DB	00H
	DB	00H
	DB	00H
	DB	0e4H
	DB	06H
	DB	00H
	DB	040H
	DB	00H
	DB	06eH
	DB	00H
	DB	00H
	DB	080H
	DB	0d0H
	DB	07H
	DB	00H
	DB	00H
	DB	080H
	DB	074H
	DB	00H
	DB	00H
	DB	00H
	DB	080H
	DB	09H
	DB	00H
	DB	00H
	DB	00H
	DB	080H
	DB	01bH
	DB	00H
	DB	00H
	DB	00H
	DB	080H
	DB	0feH
	DB	01H
	DB	00H
	DB	00H
	DB	080H
	DB	0d2H
	DB	0bH
	DB	00H
	DB	00H
	DB	040H
	DB	02H
	DB	07eH
	DB	00H
	DB	00H
	DB	040H
	DB	03H
	DB	0d8H
	DB	01H
	DB	00H
	DB	040H
	DB	07H
	DB	049H
	DB	0bH
	DB	00H
	DB	040H
	DB	0ffH
	DB	07H
	DB	07dH
	DB	04H
	DB	00H
	DB	0feH
	DB	01H
	DB	0a0H
	DB	04H
	DB	00H
	DB	01H
	DB	00H
	DB	00H
	DB	01H
	DB	00H
	DB	02H
	DB	00H
	DB	00H
	DB	02H
	DB	00H
	DB	01H
	DB	00H
	DB	00H
	DB	07H
	DB	040H
	DB	01H
	DB	00H
	DB	00H
	DB	01eH
	DB	0e0H
	DB	00H
	DB	00H
	DB	00H
	DB	0fdH
	DB	07fH
	DB	00H
	DB	00H
	DB	00H
	DB	0e4H
	DB	0aH
	DB	00H
	DB	00H
	DB	00H
	DB	00H
	DB	00H
	DB	090H
	DB	0aH
	DB	00H
	DB	0f9H
	DB	07fH
	DB	080H
	DB	0ffH
	DB	016H
	DB	040H
	DB	06bH
	DB	00H
	DB	00H
	DB	09H
	DB	00H
	DB	00H
	DB	0e0H
	DB	01H
	DB	00H
	DB	00H
	DB	07cH
	DB	00H
	DB	00H
	DB	00H
	DB	01fH
	DB	00H
	DB	00H
	DB	0c0H
	DB	0bH
	DB	00H
	DB	00H
	DB	0f4H
	DB	02H
	DB	00H
	DB	00H
	DB	0b6H
	DB	00H
	DB	00H
	DB	050H
	DB	02cH
	DB	00H
	DB	0f0H
	DB	02H
	DB	01fH
	DB	040H
	DB	02fH
	DB	0c0H
	DB	0bH
	DB	0f4H
	DB	0bH
	DB	0a0H
	DB	0d0H
	DB	0bfH
	DB	00H
	DB	00H
	DB	06H
	DB	00H
	DB	00H
	DB	020H
	DB	00H
	DB	00H
	DB	00H
	DB	02H
	DB	00H
	DB	00H
	DB	020H
	DB	00H
	DB	00H
	DB	00H
	DB	03H
	DB	00H
	DB	00H
	DB	020H
	DB	00H
	DB	00H
	DB	00H
	DB	06H
	DB	00H
	DB	00H
	DB	050H
	DB	00H
	DB	00H
	DB	00H
	DB	05H
	DB	00H
	DB	00H
	DB	00H
	DB	00H
	DB	00H
	DB	00H
	DB	040H
	DB	06H
	DB	00H
	DB	00H
	DB	090H
	DB	07fH
	DB	00H
	DB	00H
	DB	0f8H
	DB	06fH
	DB	00H
	DB	00H
	DB	0f9H
	DB	016H
	DB	00H
	DB	00H
	DB	0b8H
	DB	01H
	DB	00H
	DB	00H
	DB	090H
	DB	01H
	DB	00H
	DB	00H
	DB	00H
	DB	01eH
	DB	00H
	DB	00H
	DB	00H
	DB	0d0H
	DB	0bH
	DB	00H
	DB	00H
	DB	00H
	DB	0f4H
	DB	07H
	DB	00H
	DB	00H
	DB	00H
	DB	0f8H
	DB	02H
	DB	00H
	DB	00H
	DB	00H
	DB	0faH
	DB	01H
	DB	00H
	DB	00H
	DB	080H
	DB	0b8H
	DB	01H
	DB	00H
	DB	00H
	DB	04H
	DB	0b9H
	DB	051H
	DB	00H
	DB	0a4H
	DB	00H
	DB	029H
	DB	01H
	DB	0d0H
	DB	02fH
	DB	00H
	DB	020H
	DB	00H
	DB	094H
	DB	07H
	DB	00H
	DB	03H
	DB	00H
	DB	034H
	DB	00H
	DB	0e0H
	DB	01H
	DB	0f4H
	DB	01H
	DB	00H
	DB	0fdH
	DB	0feH
	DB	02H
	DB	00H
	DB	040H
	DB	0ffH
	DB	06H
	DB	00H
	DB	00H
	DB	00H
	DB	00H
	DB	00H
	DB	00H
	DB	00H
	DB	00H
	DB	01H
	DB	00H
	DB	00H
	DB	00H
	DB	07aH
	DB	00H
	DB	00H
	DB	00H
	DB	0b4H
	DB	02H
	DB	00H
	DB	00H
	DB	00H
	DB	02H
	DB	00H
	DB	03H
	DB	00H
	DB	03H
	DB	00H
	DB	06H
	DB	00H
	DB	06H
	DB	00H
	DB	06H
	DB	00H
	DB	0aH
	DB	00H
	DB	09H
	DB	00H
	DB	09H
	DB	00H
	DB	09H
	DB	00H
	DB	02aH
	DB	090H
	DB	0b5H
	DB	0f0H
	DB	0d1H
	DB	0f0H
	DB	0fH
	DB	0f8H
	DB	0fH
	DB	059H
	DB	05H
	DB	02H
	DB	00H
	DB	02H
	DB	00H
	DB	02H
	DB	00H
	DB	06H
	DB	00H
	DB	05H
	DB	00H
	DB	09H
	DB	00H
	DB	08H
	DB	00H
	DB	08H
	DB	00H
	DB	04H
	DB	00H
	DB	00H
	DB	040H
	DB	01H
	DB	00H
	DB	080H
	DB	01H
	DB	00H
	DB	080H
	DB	02H
	DB	00H
	DB	040H
	DB	02H
	DB	00H
	DB	040H
	DB	02H
	DB	00H
	DB	00H
	DB	03H
	DB	00H
	DB	00H
	DB	03H
	DB	00H
	DB	00H
	DB	06H
	DB	00H
	DB	00H
	DB	0aH
	DB	00H
	DB	00H
	DB	01eH
	DB	04H
	DB	00H
	DB	079H
	DB	04H
	DB	00H
	DB	061H
	DB	05H
	DB	080H
	DB	01H
	DB	02H
	DB	0c0H
	DB	01fH
	DB	06H
	DB	00H
	DB	024H
	DB	0aH
	DB	00H
	DB	029H
	DB	06eH
	DB	0e5H
	DB	0bH
	DB	0f8H
	DB	0bfH
	DB	01H
	DB	050H
	DB	015H
	DB	00H
	DB	00H
	DB	00H
	DB	00H
	DB	040H
	DB	019H
	DB	00H
	DB	0c0H
	DB	02fH
	DB	00H
	DB	040H
	DB	01H
	DB	00H
	DB	04H
	DB	00H
	DB	00H
	DB	024H
	DB	00H
	DB	00H
	DB	0c0H
	DB	00H
	DB	00H
	DB	00H
	DB	03H
	DB	00H
	DB	00H
	DB	08H
	DB	00H
	DB	00H
	DB	020H
	DB	00H
	DB	00H
	DB	080H
	DB	00H
	DB	00H
	DB	00H
	DB	06H
	DB	00H
	DB	00H
	DB	018H
	DB	00H
	DB	01H
	DB	050H
	DB	040H
	DB	01fH
	DB	040H
	DB	02H
	DB	0e6H
	DB	01H
	DB	0fdH
	DB	0feH
	DB	07fH
	DB	0e0H
	DB	087H
	DB	09fH
	DB	02H
	DB	00H
	DB	00H
	DB	00H
	DB	01H
	DB	00H
	DB	01H
	DB	00H
	DB	01eH
	DB	00H
	DB	07eH
	DB	00H
	DB	0daH
	DB	01H
	DB	0ffH
	DB	0efH
	DB	0faH
	DB	0bfH
	DB	0caH
	DB	0ebH
	DB	047H
	DB	09eH
	DB	0bH
	DB	01eH
	DB	00H
	DB	00H
	DB	020H
	DB	024H
	DB	00H
	DB	00H
	DB	080H
	DB	00H
	DB	00H
	DB	00H
	DB	00H
	DB	06H
	DB	00H
	DB	00H
	DB	00H
	DB	018H
	DB	00H
	DB	00H
	DB	00H
	DB	050H
	DB	00H
	DB	00H
	DB	00H
	DB	040H
	DB	02H
	DB	00H
	DB	00H
	DB	00H
	DB	08H
	DB	00H
	DB	00H
	DB	00H
	DB	020H
	DB	00H
	DB	00H
	DB	00H
	DB	080H
	DB	00H
	DB	00H
	DB	00H
	DB	00H
	DB	00H
	DB	00H
	DB	06H
	DB	00H
	DB	040H
	DB	0bH
	DB	00H
	DB	00H
	DB	01H
	DB	00H
	DB	00H
	DB	00H
	DB	00H
	DB	00H
	DB	04H
	DB	00H
	DB	00H
	DB	09H
	DB	00H
	DB	0b8H
	DB	0bH
	DB	00H
	DB	0f8H
	DB	09H
	DB	00H
	DB	034H
	DB	028H
	DB	00H
	DB	020H
	DB	074H
	DB	00H
	DB	018H
	DB	00H
	DB	00H
	DB	0eH
	DB	00H
	DB	0e5H
	DB	03H
	DB	00H
	DB	0a4H
	DB	00H
	DB	00H
	DB	00H
	DB	078H
	DB	00H
	DB	040H
	DB	02H
	DB	00H
	DB	00H
	DB	00H
	DB	00H
	DB	00H
	DB	00H
	DB	050H
	DB	00H
	DB	0e0H
	DB	01fH
	DB	0d0H
	DB	081H
	DB	07H
	DB	07eH
	DB	0a0H
	DB	0e0H
	DB	02fH
	DB	080H
	DB	0ffH
	DB	01H
	DB	08H
	DB	00H
	DB	050H
	DB	00H
	DB	00H
	DB	05H
	DB	00H
	DB	090H
	DB	00H
	DB	00H
	DB	08H
	DB	00H
	DB	0c0H
	DB	00H
	DB	00H
	DB	08H
	DB	00H
	DB	080H
	DB	00H
	DB	00H
	DB	08H
	DB	00H
	DB	00H
	DB	00H
	DB	00H
	DB	010H
	DB	00H
	DB	02dH
	DB	0e0H
	DB	01H
	DB	064H
	DB	00H
	DB	01H
	DB	00H
	DB	00H
	DB	00H
	DB	00H
	DB	00H
	DB	090H
	DB	00H
	DB	00H
	DB	0ecH
	DB	042H
	DB	00H
	DB	0b0H
	DB	048H
	DB	00H
	DB	080H
	DB	060H
	DB	01H
	DB	00H
	DB	041H
	DB	0bH
	DB	00H
	DB	08H
	DB	070H
	DB	00H
	DB	019H
	DB	080H
	DB	0afH
	DB	02fH
	DB	00H
	DB	0f8H
	DB	01bH
	DB	00H
	DB	00H
	DB	00H
	DB	040H
	DB	07H
	DB	00H
	DB	00H
	DB	0dH
	DB	00H
	DB	00H
	DB	00H
	DB	00H
	DB	00H
	DB	00H
	DB	00H
	DB	00H
	DB	00H
	DB	04H
	DB	00H
	DB	00H
	DB	0f8H
	DB	040H
	DB	00H
	DB	058H
	DB	01fH
	DB	01H
	DB	08H
	DB	074H
	DB	01H
	DB	0b0H
	DB	01H
	DB	08H
	DB	040H
	DB	0ffH
	DB	062H
	DB	00H
	DB	040H
	DB	08eH
	DB	07H
	DB	040H
	DB	01eH
	DB	0bdH
	DB	0faH
	DB	01bH
	DB	090H
	DB	0bfH
	DB	06H
	DB	00H
	DB	00H
	DB	00H
	DB	00H
	DB	00H
	DB	04H
	DB	00H
	DB	00H
	DB	0baH
	DB	00H
	DB	00H
	DB	0adH
	DB	00H
	DB	00H
	DB	00H
	DB	00H
	DB	04H
	DB	00H
	DB	00H
	DB	09H
	DB	00H
	DB	0b8H
	DB	0bH
	DB	00H
	DB	0f8H
	DB	09H
	DB	00H
	DB	034H
	DB	028H
	DB	00H
	DB	020H
	DB	074H
	DB	00H
	DB	018H
	DB	00H
	DB	00H
	DB	0eH
	DB	04H
	DB	0e5H
	DB	0c3H
	DB	02eH
	DB	0a4H
	DB	090H
	DB	05H
	DB	00H
	DB	050H
	DB	00H
	DB	0e0H
	DB	01fH
	DB	0d0H
	DB	081H
	DB	07H
	DB	07eH
	DB	0a0H
	DB	0e0H
	DB	02fH
	DB	080H
	DB	0ffH
	DB	01H
	DB	08H
	DB	00H
	DB	050H
	DB	00H
	DB	00H
	DB	05H
	DB	094H
	DB	091H
	DB	0d0H
	DB	01fH
	DB	08H
	DB	014H
	DB	0c0H
	DB	00H
	DB	00H
	DB	08H
	DB	00H
	DB	080H
	DB	00H
	DB	00H
	DB	08H
	DB	00H
	DB	00H
	DB	040H
	DB	0bH
	DB	00H
	DB	00H
	DB	019H
	DB	00H
	DB	00H
	DB	00H
	DB	00H
	DB	00H
	DB	00H
	DB	00H
	DB	024H
	DB	00H
	DB	00H
	DB	0bbH
	DB	010H
	DB	00H
	DB	02cH
	DB	012H
	DB	00H
	DB	020H
	DB	058H
	DB	00H
	DB	040H
	DB	0d0H
	DB	02H
	DB	00H
	DB	02H
	DB	01cH
	DB	040H
	DB	06H
	DB	0e0H
	DB	0ebH
	DB	09bH
	DB	0eH
	DB	0feH
	DB	086H
	DB	02bH
	DB	00H
	DB	00H
	DB	04H
	DB	00H
	DB	00H
	DB	00H
	DB	04H
	DB	00H
	DB	00H
	DB	0f8H
	DB	040H
	DB	00H
	DB	058H
	DB	01fH
	DB	01H
	DB	08H
	DB	074H
	DB	01H
	DB	0b0H
	DB	01H
	DB	08H
	DB	040H
	DB	0ffH
	DB	062H
	DB	00H
	DB	040H
	DB	08eH
	DB	07H
	DB	040H
	DB	01eH
	DB	0bdH
	DB	0faH
	DB	01bH
	DB	090H
	DB	0bfH
	DB	06H
	DB	00H
	DB	00H
	DB	040H
	DB	029H
	DB	00H
	DB	04H
	DB	0aeH
	DB	00H
	DB	0baH
	DB	010H
	DB	00H
	DB	0adH
	DB	00H
	DB	00H
	DB	00H
	DB	00H
	DB	02H
	DB	00H
	DB	080H
	DB	07H
	DB	00H
	DB	090H
	DB	08H
	DB	00H
	DB	024H
	DB	04H
	DB	040H
	DB	0bH
	DB	00H
	DB	0f4H
	DB	02H
	DB	00H
	DB	0a4H
	DB	0bfH
	DB	056H
	DB	00H
	DB	0fdH
	DB	07fH
	DB	0f9H
	DB	05bH
	DB	00H
	DB	06dH
	DB	00H
	DB	00H
	DB	00H
	DB	00H
	DB	00H
	DB	00H
	DB	00H
	DB	00H
	DB	00H
	DB	00H
	DB	010H
	DB	00H
	DB	00H
	DB	078H
	DB	00H
	DB	00H
	DB	010H
	DB	060H
	DB	00H
	DB	02H
	DB	074H
	DB	080H
	DB	07H
	DB	010H
	DB	090H
	DB	08H
	DB	00H
	DB	024H
	DB	04H
	DB	040H
	DB	0bH
	DB	00H
	DB	0f4H
	DB	02H
	DB	00H
	DB	0a4H
	DB	0bfH
	DB	056H
	DB	00H
	DB	0fdH
	DB	07fH
	DB	0f9H
	DB	05bH
	DB	00H
	DB	06dH
	DB	00H
	DB	00H
	DB	00H
	DB	00H
	DB	00H
	DB	00H
	DB	00H
	DB	00H
	DB	00H
	DB	00H
	DB	010H
	DB	00H
	DB	00H
	DB	078H
	DB	00H
	DB	00H
	DB	010H
	DB	00H
	DB	014H
	DB	00H
	DB	07fH
	DB	080H
	DB	061H
	DB	080H
	DB	00H
	DB	0d0H
	DB	00H
	DB	0d0H
	DB	00H
	DB	0c0H
	DB	07H
	DB	0f9H
	DB	02fH
	DB	02dH
	DB	018H
	DB	00H
	DB	00H
	DB	00H
	DB	00H
	DB	00H
	DB	060H
	DB	00H
	DB	074H
	DB	00H
	DB	040H
	DB	09H
	DB	00H
	DB	0e0H
	DB	0fH
	DB	00H
	DB	090H
	DB	04H
	DB	00H
	DB	00H
	DB	00H
	DB	00H
	DB	00H
	DB	02H
	DB	00H
	DB	080H
	DB	07H
	DB	00H
	DB	090H
	DB	08H
	DB	00H
	DB	024H
	DB	04H
	DB	040H
	DB	0bH
	DB	00H
	DB	0f4H
	DB	02H
	DB	00H
	DB	0a4H
	DB	0bfH
	DB	056H
	DB	00H
	DB	0fdH
	DB	07fH
	DB	0f9H
	DB	05bH
	DB	00H
	DB	06dH
	DB	00H
	DB	00H
	DB	00H
	DB	040H
	DB	09H
	DB	00H
	DB	0e0H
	DB	0fH
	DB	00H
	DB	090H
	DB	04H
	DB	00H
	DB	00H
	DB	00H
	DB	060H
	DB	00H
	DB	02H
	DB	074H
	DB	080H
	DB	07H
	DB	010H
	DB	090H
	DB	08H
	DB	00H
	DB	024H
	DB	04H
	DB	040H
	DB	0bH
	DB	00H
	DB	0f4H
	DB	02H
	DB	00H
	DB	0a4H
	DB	0bfH
	DB	056H
	DB	00H
	DB	0fdH
	DB	07fH
	DB	0f9H
	DB	05bH
	DB	00H
	DB	06dH
	DB	00H
	DB	00H
	DB	040H
	DB	03aH
	DB	080H
	DB	02bH
	DB	00H
	DB	01H
	DB	00H
	DB	014H
	DB	00H
	DB	07fH
	DB	080H
	DB	061H
	DB	080H
	DB	00H
	DB	0d0H
	DB	00H
	DB	0d0H
	DB	00H
	DB	0c0H
	DB	07H
	DB	0f9H
	DB	02fH
	DB	02dH
	DB	018H
	DB	00H
	DB	014H
	DB	00H
	DB	00H
	DB	0f8H
	DB	07H
	DB	00H
	DB	00H
	DB	0fdH
	DB	01H
	DB	080H
	DB	0afH
	DB	0bfH
	DB	080H
	DB	0fH
	DB	040H
	DB	041H
	DB	06bH
	DB	00H
	DB	090H
	DB	0faH
	DB	01H
	DB	040H
	DB	02H
	DB	01H
	DB	00H
	DB	00H
	DB	00H
	DB	0c0H
	DB	02H
	DB	00H
	DB	00H
	DB	06H
	DB	00H
	DB	00H
	DB	00H
	DB	00H
	DB	05H
	DB	00H
	DB	00H
	DB	0feH
	DB	01H
	DB	00H
	DB	040H
	DB	07fH
	DB	00H
	DB	0e0H
	DB	0ebH
	DB	02fH
	DB	0e0H
	DB	03H
	DB	050H
	DB	0d0H
	DB	01aH
	DB	00H
	DB	0a4H
	DB	07eH
	DB	00H
	DB	090H
	DB	040H
	DB	00H
	DB	00H
	DB	00H
	DB	014H
	DB	054H
	DB	01H
	DB	0e4H
	DB	0b6H
	DB	06H
	DB	028H
	DB	06dH
	DB	0aH
	DB	07eH
	DB	00H
	DB	00H
	DB	0a4H
	DB	0bfH
	DB	056H
	DB	00H
	DB	0f4H
	DB	0ffH
	DB	091H
	DB	0bfH
	DB	05H
	DB	040H
	DB	01bH
	DB	00H
	DB	00H
	DB	060H
	DB	00H
	DB	00H
	DB	0d0H
	DB	01H
	DB	00H
	DB	00H
	DB	041H
	DB	041H
	DB	015H
	DB	040H
	DB	06eH
	DB	06bH
	DB	080H
	DB	0d2H
	DB	0a6H
	DB	0e0H
	DB	07H
	DB	00H
	DB	040H
	DB	0faH
	DB	06bH
	DB	05H
	DB	040H
	DB	0ffH
	DB	01fH
	DB	0f9H
	DB	05bH
	DB	00H
	DB	0b4H
	DB	01H
	DB	00H
	DB	00H
	DB	00H
	DB	00H
	DB	044H
	DB	00H
	DB	029H
	DB	074H
	DB	06H
	DB	0ecH
	DB	0faH
	DB	0fH
	DB	024H
	DB	07dH
	DB	019H
	DB	090H
	DB	00H
	DB	00H
	DB	00H
	DB	01bH
	DB	00H
	DB	080H
	DB	0ffH
	DB	02H
	DB	040H
	DB	05bH
	DB	0aH
	DB	00H
	DB	00H
	DB	00H
	DB	040H
	DB	02eH
	DB	00H
	DB	00H
	DB	090H
	DB	079H
	DB	00H
	DB	070H
	DB	018H
	DB	034H
	DB	00H
	DB	0d8H
	DB	0abH
	DB	01fH
	DB	080H
	DB	042H
	DB	0feH
	DB	06H
	DB	0f8H
	DB	01H
	DB	00H
	DB	00H
	DB	0a4H
	DB	0bfH
	DB	05aH
	DB	00H
	DB	00H
	DB	0fdH
	DB	07fH
	DB	00H
	DB	0f9H
	DB	05bH
	DB	00H
	DB	00H
	DB	06dH
	DB	00H
	DB	00H
	DB	00H
	DB	0b4H
	DB	00H
	DB	040H
	DB	02eH
	DB	064H
	DB	00H
	DB	090H
	DB	079H
	DB	00H
	DB	070H
	DB	018H
	DB	034H
	DB	00H
	DB	0d8H
	DB	0abH
	DB	01fH
	DB	080H
	DB	042H
	DB	0feH
	DB	06H
	DB	0f8H
	DB	01H
	DB	00H
	DB	00H
	DB	0a4H
	DB	0bfH
	DB	05aH
	DB	00H
	DB	00H
	DB	0fdH
	DB	07fH
	DB	00H
	DB	0f9H
	DB	05bH
	DB	00H
	DB	00H
	DB	06dH
	DB	00H
	DB	00H
	DB	00H
	DB	00H
	DB	00H
	DB	090H
	DB	0bH
	DB	00H
	DB	00H
	DB	0edH
	DB	07H
	DB	050H
	DB	090H
	DB	080H
	DB	01H
	DB	07dH
	DB	049H
	DB	029H
	DB	0c0H
	DB	0f8H
	DB	0ffH
	DB	07H
	DB	024H
	DB	098H
	DB	016H
	DB	00H
	DB	0dH
	DB	00H
	DB	00H
	DB	00H
	DB	02fH
	DB	00H
	DB	00H
	DB	0f9H
	DB	02fH
	DB	00H
	DB	040H
	DB	0bH
	DB	06H
	DB	00H
	DB	00H
	DB	00H
	DB	00H
	DB	05H
	DB	00H
	DB	00H
	DB	0bfH
	DB	00H
	DB	00H
	DB	06H
	DB	00H
	DB	00H
	DB	09H
	DB	050H
	DB	00H
	DB	0f4H
	DB	0e6H
	DB	01H
	DB	080H
	DB	06fH
	DB	00H
	DB	0e0H
	DB	06H
	DB	00H
	DB	0f0H
	DB	03H
	DB	00H
	DB	0d0H
	DB	01aH
	DB	00H
	DB	0a4H
	DB	07eH
	DB	00H
	DB	090H
	DB	040H
	DB	00H
	DB	00H
	DB	00H
	DB	080H
	DB	02H
	DB	00H
	DB	00H
	DB	0bH
	DB	00H
	DB	00H
	DB	00H
	DB	00H
	DB	00H
	DB	040H
	DB	01H
	DB	00H
	DB	0c0H
	DB	02fH
	DB	00H
	DB	080H
	DB	01H
	DB	00H
	DB	040H
	DB	02H
	DB	014H
	DB	00H
	DB	0bdH
	DB	079H
	DB	00H
	DB	0e0H
	DB	01bH
	DB	00H
	DB	0b8H
	DB	01H
	DB	00H
	DB	0fcH
	DB	00H
	DB	00H
	DB	0b4H
	DB	06H
	DB	00H
	DB	0a9H
	DB	01fH
	DB	00H
	DB	024H
	DB	010H
	DB	00H
	DB	00H
	DB	050H
	DB	01H
	DB	00H
	DB	0f8H
	DB	03H
	DB	00H
	DB	024H
	DB	01H
	DB	00H
	DB	00H
	DB	00H
	DB	00H
	DB	040H
	DB	01H
	DB	00H
	DB	0d0H
	DB	07H
	DB	00H
	DB	060H
	DB	0bH
	DB	00H
	DB	0e0H
	DB	0bH
	DB	00H
	DB	0e0H
	DB	09H
	DB	00H
	DB	00H
	DB	09H
	DB	00H
	DB	0f4H
	DB	07H
	DB	00H
	DB	0f8H
	DB	0bfH
	DB	056H
	DB	00H
	DB	0fdH
	DB	07fH
	DB	0f9H
	DB	05bH
	DB	00H
	DB	06dH
	DB	00H
	DB	00H
	DB	040H
	DB	02dH
	DB	0b0H
	DB	06H
	DB	00H
	DB	00H
	DB	00H
	DB	00H
	DB	0aH
	DB	0e0H
	DB	07H
	DB	0d8H
	DB	02H
	DB	0feH
	DB	040H
	DB	026H
	DB	080H
	DB	0aH
	DB	0f8H
	DB	040H
	DB	06bH
	DB	0a9H
	DB	05fH
	DB	02H
	DB	01H
	DB	00H
	DB	00H
	DB	0e9H
	DB	07H
	DB	090H
	DB	0ffH
	DB	01aH
	DB	0d0H
	DB	06bH
	DB	00H
	DB	080H
	DB	07H
	DB	00H
	DB	00H
	DB	02cH
	DB	00H
	DB	00H
	DB	080H
	DB	0bH
	DB	00H
	DB	00H
	DB	0d0H
	DB	02H
	DB	00H
	DB	00H
	DB	034H
	DB	00H
	DB	00H
	DB	00H
	DB	05H
	DB	00H
	DB	00H
	DB	060H
	DB	00H
	DB	00H
	DB	0f4H
	DB	03H
	DB	00H
	DB	080H
	DB	0ffH
	DB	06bH
	DB	05H
	DB	00H
	DB	0fdH
	DB	07fH
	DB	090H
	DB	0bfH
	DB	05H
	DB	00H
	DB	06dH
	DB	00H
	DB	00H
	DB	00H
	DB	00H
	DB	00H
	DB	0e9H
	DB	07H
	DB	090H
	DB	0ffH
	DB	01aH
	DB	0d0H
	DB	06bH
	DB	00H
	DB	080H
	DB	07H
	DB	00H
	DB	00H
	DB	02cH
	DB	00H
	DB	00H
	DB	080H
	DB	0bH
	DB	00H
	DB	00H
	DB	0d0H
	DB	02H
	DB	02cH
	DB	00H
	DB	034H
	DB	0c0H
	DB	02H
	DB	00H
	DB	05H
	DB	00H
	DB	00H
	DB	060H
	DB	00H
	DB	00H
	DB	0f4H
	DB	03H
	DB	00H
	DB	080H
	DB	0ffH
	DB	06bH
	DB	05H
	DB	00H
	DB	0fdH
	DB	07fH
	DB	090H
	DB	0bfH
	DB	05H
	DB	00H
	DB	06dH
	DB	00H
	DB	00H
	DB	00H
	DB	00H
	DB	00H
	DB	040H
	DB	06H
	DB	01H
	DB	040H
	DB	02fH
	DB	024H
	DB	040H
	DB	06fH
	DB	040H
	DB	02H
	DB	06eH
	DB	00H
	DB	024H
	DB	06dH
	DB	00H
	DB	040H
	DB	076H
	DB	00H
	DB	00H
	DB	0b0H
	DB	00H
	DB	00H
	DB	00H
	DB	06fH
	DB	00H
	DB	00H
	DB	0b0H
	DB	02eH
	DB	00H
	DB	00H
	DB	047H
	DB	0bH
	DB	00H
	DB	060H
	DB	080H
	DB	00H
	DB	00H
	DB	0aH
	DB	018H
	DB	00H
	DB	0d9H
	DB	0fbH
	DB	00H
	DB	090H
	DB	0f4H
	DB	07H
	DB	00H
	DB	00H
	DB	01H
	DB	00H
	DB	00H
	DB	00H
	DB	00H
	DB	050H
	DB	06H
	DB	00H
	DB	0f9H
	DB	02fH
	DB	00H
	DB	0beH
	DB	05H
	DB	00H
	DB	068H
	DB	00H
	DB	00H
	DB	0a0H
	DB	00H
	DB	00H
	DB	00H
	DB	02fH
	DB	00H
	DB	00H
	DB	0d0H
	DB	07H
	DB	00H
	DB	00H
	DB	0d0H
	DB	00H
	DB	00H
	DB	00H
	DB	028H
	DB	00H
	DB	00H
	DB	00H
	DB	02H
	DB	00H
	DB	00H
	DB	02aH
	DB	00H
	DB	00H
	DB	0f8H
	DB	00H
	DB	00H
	DB	0d0H
	DB	01aH
	DB	00H
	DB	090H
	DB	0eaH
	DB	01H
	DB	00H
	DB	09H
	DB	00H
	DB	00H
	DB	00H
	DB	00H
	DB	04H
	DB	00H
	DB	00H
	DB	0aH
	DB	00H
	DB	00H
	DB	09H
	DB	00H
	DB	00H
	DB	09H
	DB	00H
	DB	00H
	DB	08H
	DB	00H
	DB	00H
	DB	08H
	DB	00H
	DB	00H
	DB	08H
	DB	00H
	DB	00H
	DB	09H
	DB	00H
	DB	0f4H
	DB	07H
	DB	00H
	DB	0f8H
	DB	0bfH
	DB	056H
	DB	00H
	DB	0fdH
	DB	07fH
	DB	0f9H
	DB	05bH
	DB	00H
	DB	06dH
	DB	00H
	DB	00H
	DB	00H
	DB	04H
	DB	00H
	DB	00H
	DB	0aH
	DB	00H
	DB	00H
	DB	09H
	DB	00H
	DB	00H
	DB	09H
	DB	00H
	DB	00H
	DB	08H
	DB	028H
	DB	00H
	DB	08H
	DB	02cH
	DB	00H
	DB	08H
	DB	00H
	DB	00H
	DB	09H
	DB	00H
	DB	0f4H
	DB	07H
	DB	00H
	DB	0f8H
	DB	0bfH
	DB	056H
	DB	00H
	DB	0fdH
	DB	07fH
	DB	0f9H
	DB	05bH
	DB	00H
	DB	06dH
	DB	00H
	DB	00H
	DB	010H
	DB	00H
	DB	028H
	DB	00H
	DB	06H
	DB	080H
	DB	01H
	DB	050H
	DB	00H
	DB	024H
	DB	00H
	DB	09H
	DB	00H
	DB	02H
	DB	0c0H
	DB	00H
	DB	030H
	DB	00H
	DB	07cH
	DB	0e4H
	DB	07fH
	DB	01dH
	DB	0dH
	DB	00H
	DB	040H
	DB	00H
	DB	00H
	DB	0e0H
	DB	03H
	DB	00H
	DB	0e0H
	DB	07H
	DB	00H
	DB	0f9H
	DB	02H
	DB	0d0H
	DB	06H
	DB	00H
	DB	0b8H
	DB	01H
	DB	00H
	DB	0a4H
	DB	0bfH
	DB	05aH
	DB	00H
	DB	0fdH
	DB	07fH
	DB	0f9H
	DB	05bH
	DB	00H
	DB	06dH
	DB	00H
	DB	00H
	DB	070H
	DB	040H
	DB	00H
	DB	074H
	DB	0e0H
	DB	03H
	DB	00H
	DB	0e0H
	DB	07H
	DB	00H
	DB	0f9H
	DB	02H
	DB	0d0H
	DB	06H
	DB	00H
	DB	0b8H
	DB	01H
	DB	00H
	DB	0a4H
	DB	0bfH
	DB	05aH
	DB	00H
	DB	0fdH
	DB	07fH
	DB	0f9H
	DB	05bH
	DB	00H
	DB	06dH
	DB	00H
	DB	00H
	DB	00H
	DB	018H
	DB	00H
	DB	0beH
	DB	00H
	DB	0beH
	DB	040H
	DB	03fH
	DB	080H
	DB	01H
	DB	090H
	DB	00H
	DB	0d0H
	DB	00H
	DB	0c0H
	DB	07H
	DB	0f9H
	DB	02fH
	DB	02dH
	DB	018H
	DB	00H
	DB	00H
	DB	01H
	DB	00H
	DB	080H
	DB	07H
	DB	00H
	DB	040H
	DB	02H
	DB	00H
	DB	00H
	DB	00H
	DB	00H
	DB	00H
	DB	02H
	DB	00H
	DB	080H
	DB	07H
	DB	00H
	DB	090H
	DB	08H
	DB	00H
	DB	024H
	DB	04H
	DB	040H
	DB	0bH
	DB	00H
	DB	0f4H
	DB	02H
	DB	00H
	DB	0a4H
	DB	0bfH
	DB	056H
	DB	00H
	DB	0fdH
	DB	07fH
	DB	0f9H
	DB	05bH
	DB	00H
	DB	06dH
	DB	00H
	DB	00H
	DB	00H
	DB	00H
	DB	01H
	DB	00H
	DB	080H
	DB	07H
	DB	00H
	DB	040H
	DB	02H
	DB	00H
	DB	00H
	DB	00H
	DB	060H
	DB	00H
	DB	02H
	DB	074H
	DB	080H
	DB	07H
	DB	010H
	DB	090H
	DB	08H
	DB	00H
	DB	024H
	DB	04H
	DB	040H
	DB	0bH
	DB	00H
	DB	0f4H
	DB	02H
	DB	00H
	DB	0a4H
	DB	0bfH
	DB	056H
	DB	00H
	DB	0fdH
	DB	07fH
	DB	0f9H
	DB	05bH
	DB	00H
	DB	06dH
	DB	00H
	DB	00H
	DB	00H
	DB	09H
	DB	00H
	DB	01eH
	DB	00H
	DB	04H
	DB	00H
	DB	014H
	DB	00H
	DB	07fH
	DB	080H
	DB	061H
	DB	080H
	DB	00H
	DB	0d0H
	DB	00H
	DB	0d0H
	DB	00H
	DB	0c0H
	DB	07H
	DB	0f9H
	DB	02fH
	DB	02dH
	DB	018H
	DB	00H
	DB	00H
	DB	02H
	DB	00H
	DB	00H
	DB	01eH
	DB	00H
	DB	00H
	DB	089H
	DB	00H
	DB	00H
	DB	09H
	DB	01H
	DB	040H
	DB	0bH
	DB	00H
	DB	0d0H
	DB	0bH
	DB	00H
	DB	040H
	DB	0faH
	DB	06bH
	DB	05H
	DB	040H
	DB	0ffH
	DB	01fH
	DB	0f9H
	DB	05bH
	DB	00H
	DB	0b4H
	DB	01H
	DB	00H
	DB	00H
	DB	00H
	DB	00H
	DB	00H
	DB	00H
	DB	00H
	DB	07aH
	DB	00H
	DB	00H
	DB	0aeH
	DB	00H
	DB	00H
	DB	010H
	DB	00H
	DB	060H
	DB	00H
	DB	02H
	DB	0d0H
	DB	01H
	DB	01eH
	DB	00H
	DB	01H
	DB	089H
	DB	00H
	DB	00H
	DB	09H
	DB	01H
	DB	040H
	DB	0bH
	DB	00H
	DB	0d0H
	DB	0bH
	DB	00H
	DB	040H
	DB	0faH
	DB	06bH
	DB	05H
	DB	040H
	DB	0ffH
	DB	01fH
	DB	0f9H
	DB	05bH
	DB	00H
	DB	0b4H
	DB	01H
	DB	00H
	DB	00H
	DB	00H
	DB	00H
	DB	00H
	DB	00H
	DB	00H
	DB	07aH
	DB	00H
	DB	00H
	DB	0aeH
	DB	00H
	DB	00H
	DB	010H
	DB	00H
	DB	00H
	DB	014H
	DB	00H
	DB	0fcH
	DB	01H
	DB	018H
	DB	06H
	DB	020H
	DB	00H
	DB	0d0H
	DB	00H
	DB	040H
	DB	03H
	DB	00H
	DB	07cH
	DB	040H
	DB	0feH
	DB	0bH
	DB	02dH
	DB	018H
	DB	00H
	DB	00H
	DB	00H
	DB	00H
	DB	04H
	DB	00H
	DB	0baH
	DB	00H
	DB	0adH
	DB	01H
	DB	00H
	DB	01H
	DB	00H
	DB	00H
	DB	0f4H
	DB	00H
	DB	010H
	DB	0c0H
	DB	079H
	DB	090H
	DB	083H
	DB	0feH
	DB	0efH
	DB	0ffH
	DB	0dH
	DB	06eH
	DB	06fH
	DB	0eH
	DB	00H
	DB	00H
	DB	00H
	DB	00H
	DB	00H
	DB	040H
	DB	00H
	DB	00H
	DB	00H
	DB	02dH
	DB	00H
	DB	00H
	DB	080H
	DB	01H
	DB	00H
	DB	00H
	DB	00H
	DB	01H
	DB	00H
	DB	040H
	DB	07bH
	DB	00H
	DB	00H
	DB	074H
	DB	02H
	DB	00H
	DB	00H
	DB	00H
	DB	00H
	DB	01H
	DB	00H
	DB	00H
	DB	0f4H
	DB	00H
	DB	010H
	DB	0c0H
	DB	079H
	DB	090H
	DB	083H
	DB	0feH
	DB	0efH
	DB	0ffH
	DB	0dH
	DB	06eH
	DB	06fH
	DB	0eH
	DB	00H
	DB	01H
	DB	00H
	DB	00H
	DB	00H
	DB	040H
	DB	0fH
	DB	00H
	DB	050H
	DB	08H
	DB	0c0H
	DB	079H
	DB	080H
	DB	060H
	DB	02cH
	DB	0e8H
	DB	0ffH
	DB	0feH
	DB	0ffH
	DB	0bbH
	DB	0dH
	DB	06eH
	DB	0afH
	DB	0dbH
	DB	0a2H
	DB	00H
	DB	00H
	DB	00H
	DB	05H
	DB	00H
	DB	00H
	DB	0f4H
	DB	01H
	DB	01H
	DB	0d0H
	DB	01bH
	DB	090H
	DB	040H
	DB	06eH
	DB	00H
	DB	024H
	DB	0b4H
	DB	01H
	DB	00H
	DB	089H
	DB	07H
	DB	00H
	DB	040H
	DB	026H
	DB	00H
	DB	00H
	DB	0c0H
	DB	07H
	DB	00H
	DB	00H
	DB	0b0H
	DB	02fH
	DB	00H
	DB	00H
	DB	04cH
	DB	07eH
	DB	00H
	DB	00H
	DB	07H
	DB	0bdH
	DB	00H
	DB	080H
	DB	01H
	DB	0a9H
	DB	00H
	DB	0a0H
	DB	040H
	DB	0e1H
	DB	041H
	DB	0f6H
	DB	03aH
	DB	0e0H
	DB	096H
	DB	0f4H
	DB	07H
	DB	0d0H
	DB	01H
	DB	04H
	DB	00H
	DB	00H
	DB	00H
	DB	00H
	DB	00H
	DB	050H
	DB	00H
	DB	00H
	DB	0a4H
	DB	03fH
	DB	00H
	DB	090H
	DB	0bfH
	DB	06H
	DB	040H
	DB	0beH
	DB	06H
	DB	00H
	DB	0d0H
	DB	06H
	DB	00H
	DB	00H
	DB	070H
	DB	00H
	DB	00H
	DB	00H
	DB	0e0H
	DB	02H
	DB	00H
	DB	00H
	DB	080H
	DB	01fH
	DB	00H
	DB	00H
	DB	00H
	DB	0beH
	DB	00H
	DB	00H
	DB	00H
	DB	0f8H
	DB	02H
	DB	00H
	DB	00H
	DB	020H
	DB	0aH
	DB	00H
	DB	00H
	DB	02aH
	DB	028H
	DB	00H
	DB	080H
	DB	01fH
	DB	0e0H
	DB	00H
	DB	0d0H
	DB	01aH
	DB	080H
	DB	07H
	DB	0a9H
	DB	01fH
	DB	00H
	DB	06eH
	DB	09H
	DB	04H
	DB	00H
	DB	074H
	DB	00H
	DB	040H
	DB	00H
	DB	00H
	DB	09H
	DB	00H
	DB	090H
	DB	00H
	DB	00H
	DB	08H
	DB	00H
	DB	0c0H
	DB	00H
	DB	00H
	DB	0cH
	DB	00H
	DB	080H
	DB	00H
	DB	00H
	DB	018H
	DB	00H
	DB	080H
	DB	01H
	DB	04H
	DB	028H
	DB	0e0H
	DB	0bfH
	DB	0d3H
	DB	0f6H
	DB	0a2H
	DB	04H
	DB	01fH
	DB	04H
	DB	090H
	DB	01H
	DB	00H
	DB	00H
	DB	0d0H
	DB	01H
	DB	00H
	DB	00H
	DB	019H
	DB	00H
	DB	00H
	DB	00H
	DB	00H
	DB	00H
	DB	00H
	DB	00H
	DB	00H
	DB	01H
	DB	00H
	DB	00H
	DB	0f4H
	DB	00H
	DB	010H
	DB	0c0H
	DB	079H
	DB	090H
	DB	083H
	DB	0feH
	DB	0efH
	DB	0ffH
	DB	0dH
	DB	06eH
	DB	06fH
	DB	0eH
	DB	00H
	DB	01H
	DB	00H
	DB	00H
	DB	0f4H
	DB	00H
	DB	010H
	DB	0c0H
	DB	079H
	DB	090H
	DB	083H
	DB	0feH
	DB	0efH
	DB	0ffH
	DB	0dH
	DB	06eH
	DB	06fH
	DB	0eH
	DB	00H
	DB	00H
	DB	00H
	DB	00H
	DB	00H
	DB	060H
	DB	0bH
	DB	00H
	DB	040H
	DB	06bH
	DB	00H
	DB	00H
	DB	00H
	DB	09H
	DB	00H
	DB	00H
	DB	00H
	DB	0aeH
	DB	01H
	DB	00H
	DB	00H
	DB	0aH
	DB	00H
	DB	00H
	DB	00H
	DB	01cH
	DB	080H
	DB	00H
	DB	00H
	DB	0f0H
	DB	0eaH
	DB	02H
	DB	00H
	DB	040H
	DB	0bfH
	DB	041H
	DB	00H
	DB	090H
	DB	01bH
	DB	040H
	DB	01H
	DB	0e0H
	DB	02H
	DB	00H
	DB	01H
	DB	0c0H
	DB	02fH
	DB	00H
	DB	08H
	DB	00H
	DB	0d0H
	DB	00H
	DB	030H
	DB	00H
	DB	080H
	DB	03H
	DB	080H
	DB	02H
	DB	0e4H
	DB	02H
	DB	00H
	DB	0bdH
	DB	0feH
	DB	01H
	DB	00H
	DB	0d0H
	DB	06fH
	DB	00H
	DB	00H
	DB	00H
	DB	00H
	DB	00H
	DB	00H
	DB	00H
	DB	00H
	DB	04H
	DB	00H
	DB	00H
	DB	040H
	DB	07bH
	DB	00H
	DB	00H
	DB	00H
	DB	09dH
	DB	00H
	DB	00H
	DB	00H
	DB	00H
	DB	00H
	DB	040H
	DB	03H
	DB	00H
	DB	00H
	DB	00H
	DB	0eH
	DB	00H
	DB	00H
	DB	00H
	DB	00H
	DB	00H
	DB	00H
	DB	00H
	DB	040H
	DB	02H
	DB	00H
	DB	00H
	DB	080H
	DB	06bH
	DB	00H
	DB	00H
	DB	080H
	DB	02H
	DB	00H
	DB	00H
	DB	00H
	DB	07H
	DB	020H
	DB	00H
	DB	00H
	DB	0bcH
	DB	0baH
	DB	00H
	DB	00H
	DB	0d0H
	DB	06fH
	DB	010H
	DB	00H
	DB	0e4H
	DB	06H
	DB	050H
	DB	00H
	DB	0b8H
	DB	00H
	DB	040H
	DB	00H
	DB	0f0H
	DB	0bH
	DB	00H
	DB	02H
	DB	00H
	DB	034H
	DB	00H
	DB	0cH
	DB	00H
	DB	0e0H
	DB	00H
	DB	0a0H
	DB	00H
	DB	0b9H
	DB	00H
	DB	040H
	DB	0afH
	DB	07fH
	DB	00H
	DB	00H
	DB	0f4H
	DB	01bH
	DB	00H
	DB	00H
	DB	00H
	DB	00H
	DB	00H
	DB	00H
	DB	00H
	DB	00H
	DB	01H
	DB	00H
	DB	00H
	DB	0d0H
	DB	01eH
	DB	00H
	DB	00H
	DB	040H
	DB	027H
	DB	00H
	DB	00H
	DB	00H
	DB	00H
	DB	00H
	DB	00H
	DB	00H
	DB	01H
	DB	00H
	DB	040H
	DB	00H
	DB	062H
	DB	00H
	DB	00H
	DB	03eH
	DB	0b4H
	DB	046H
	DB	00H
	DB	058H
	DB	0ffH
	DB	02eH
	DB	04H
	DB	020H
	DB	0d0H
	DB	047H
	DB	010H
	DB	00H
	DB	01bH
	DB	00H
	DB	00H
	DB	02H
	DB	0d0H
	DB	0bfH
	DB	00H
	DB	060H
	DB	00H
	DB	040H
	DB	0eH
	DB	00H
	DB	01eH
	DB	00H
	DB	079H
	DB	00H
	DB	0d0H
	DB	0abH
	DB	0bfH
	DB	01H
	DB	00H
	DB	0e4H
	DB	0afH
	DB	01H
	DB	00H
	DB	00H
	DB	00H
	DB	00H
	DB	00H
	DB	00H
	DB	00H
	DB	010H
	DB	00H
	DB	00H
	DB	00H
	DB	0a0H
	DB	0bH
	DB	00H
	DB	00H
	DB	040H
	DB	02bH
	DB	00H
	DB	00H
	DB	00H
	DB	00H
	DB	00H
	DB	068H
	DB	00H
	DB	00H
	DB	00H
	DB	090H
	DB	07eH
	DB	00H
	DB	00H
	DB	00H
	DB	040H
	DB	0ffH
	DB	046H
	DB	00H
	DB	090H
	DB	0abH
	DB	02aH
	DB	05H
	DB	080H
	DB	06H
	DB	00H
	DB	010H
	DB	00H
	DB	0fcH
	DB	02H
	DB	00H
	DB	02H
	DB	00H
	DB	034H
	DB	00H
	DB	030H
	DB	00H
	DB	080H
	DB	03H
	DB	00H
	DB	0aH
	DB	090H
	DB	0bH
	DB	00H
	DB	0d0H
	DB	0ebH
	DB	01fH
	DB	00H
	DB	00H
	DB	0f4H
	DB	01bH
	DB	00H
	DB	00H
	DB	00H
	DB	00H
	DB	00H
	DB	00H
	DB	00H
	DB	00H
	DB	010H
	DB	00H
	DB	00H
	DB	00H
	DB	0b4H
	DB	07H
	DB	00H
	DB	00H
	DB	040H
	DB	027H
	DB	00H
	DB	00H
	DB	00H
	DB	00H
	DB	00H
	DB	00H
	DB	074H
	DB	00H
	DB	00H
	DB	00H
	DB	040H
	DB	03H
	DB	00H
	DB	00H
	DB	00H
	DB	00H
	DB	00H
	DB	00H
	DB	00H
	DB	00H
	DB	00H
	DB	00H
	DB	00H
	DB	068H
	DB	00H
	DB	00H
	DB	00H
	DB	090H
	DB	07eH
	DB	00H
	DB	00H
	DB	00H
	DB	040H
	DB	0ffH
	DB	046H
	DB	00H
	DB	090H
	DB	0abH
	DB	02aH
	DB	05H
	DB	080H
	DB	06H
	DB	00H
	DB	010H
	DB	00H
	DB	0fcH
	DB	02H
	DB	00H
	DB	02H
	DB	00H
	DB	034H
	DB	00H
	DB	030H
	DB	00H
	DB	080H
	DB	03H
	DB	00H
	DB	0aH
	DB	090H
	DB	0bH
	DB	00H
	DB	0d0H
	DB	0ebH
	DB	01fH
	DB	00H
	DB	00H
	DB	0f4H
	DB	01bH
	DB	00H
	DB	00H
	DB	00H
	DB	00H
	DB	00H
	DB	00H
	DB	00H
	DB	00H
	DB	010H
	DB	00H
	DB	00H
	DB	00H
	DB	0b4H
	DB	07H
	DB	00H
	DB	00H
	DB	040H
	DB	027H
	DB	00H
	DB	00H
	DB	00H
	DB	00H
	DB	00H
	DB	00H
	DB	00H
	DB	0b8H
	DB	00H
	DB	00H
	DB	00H
	DB	00H
	DB	0fdH
	DB	0bH
	DB	00H
	DB	040H
	DB	00H
	DB	019H
	DB	01cH
	DB	00H
	DB	080H
	DB	0fH
	DB	08H
	DB	039H
	DB	04H
	DB	080H
	DB	0f5H
	DB	0efH
	DB	07fH
	DB	010H
	DB	080H
	DB	040H
	DB	0ffH
	DB	01aH
	DB	010H
	DB	00H
	DB	01bH
	DB	020H
	DB	00H
	DB	080H
	DB	00H
	DB	0f4H
	DB	02fH
	DB	00H
	DB	00H
	DB	06H
	DB	00H
	DB	0e4H
	DB	00H
	DB	00H
	DB	078H
	DB	00H
	DB	0e4H
	DB	01H
	DB	00H
	DB	0d0H
	DB	0abH
	DB	0bfH
	DB	01H
	DB	00H
	DB	00H
	DB	0f9H
	DB	06bH
	DB	00H
	DB	00H
	DB	00H
	DB	00H
	DB	00H
	DB	00H
	DB	00H
	DB	00H
	DB	00H
	DB	040H
	DB	00H
	DB	00H
	DB	00H
	DB	00H
	DB	0a0H
	DB	0bH
	DB	00H
	DB	00H
	DB	00H
	DB	0d0H
	DB	0aH
	DB	00H
	DB	00H
	DB	00H
	DB	00H
	DB	00H
	DB	00H
	DB	00H
	DB	01H
	DB	00H
	DB	00H
	DB	080H
	DB	0cH
	DB	00H
	DB	040H
	DB	042H
	DB	02bH
	DB	00H
	DB	0f4H
	DB	0ffH
	DB	0baH
	DB	00H
	DB	0e0H
	DB	0d6H
	DB	03H
	DB	00H
	DB	040H
	DB	02H
	DB	00H
	DB	00H
	DB	00H
	DB	05H
	DB	00H
	DB	00H
	DB	00H
	DB	08H
	DB	00H
	DB	00H
	DB	00H
	DB	01dH
	DB	00H
	DB	00H
	DB	0a4H
	DB	01eH
	DB	00H
	DB	00H
	DB	00H
	DB	015H
	DB	00H
	DB	00H
	DB	00H
	DB	00H
	DB	00H
	DB	00H
	DB	00H
	DB	0b9H
	DB	00H
	DB	00H
	DB	00H
	DB	00H
	DB	0fdH
	DB	07H
	DB	00H
	DB	00H
	DB	00H
	DB	09H
	DB	01dH
	DB	00H
	DB	00H
	DB	09H
	DB	049H
	DB	02eH
	DB	00H
	DB	0d0H
	DB	0ffH
	DB	0eeH
	DB	02fH
	DB	00H
	DB	080H
	DB	05bH
	DB	0ffH
	DB	01aH
	DB	00H
	DB	00H
	DB	09H
	DB	020H
	DB	00H
	DB	00H
	DB	00H
	DB	014H
	DB	00H
	DB	00H
	DB	00H
	DB	00H
	DB	020H
	DB	00H
	DB	00H
	DB	00H
	DB	00H
	DB	074H
	DB	00H
	DB	00H
	DB	00H
	DB	090H
	DB	07aH
	DB	00H
	DB	00H
	DB	00H
	DB	00H
	DB	054H
	DB	00H
	DB	00H
	DB	00H
	DB	00H
	DB	00H
	DB	00H
	DB	0e0H
	DB	07H
	DB	00H
	DB	00H
	DB	0f8H
	DB	0fH
	DB	00H
	DB	00H
	DB	0e4H
	DB	0bH
	DB	00H
	DB	00H
	DB	0f9H
	DB	02fH
	DB	05H
	DB	0c0H
	DB	01bH
	DB	078H
	DB	01H
	DB	0c0H
	DB	02fH
	DB	00H
	DB	02H
	DB	040H
	DB	079H
	DB	00H
	DB	03H
	DB	00H
	DB	034H
	DB	00H
	DB	01eH
	DB	040H
	DB	01fH
	DB	00H
	DB	0fdH
	DB	0feH
	DB	02H
	DB	00H
	DB	0f4H
	DB	06fH
	DB	00H
	DB	00H
	DB	00H
	DB	00H
	DB	00H
	DB	00H
	DB	00H
	DB	010H
	DB	00H
	DB	00H
	DB	00H
	DB	07aH
	DB	00H
	DB	00H
	DB	040H
	DB	02bH
	DB	00H
	DB	00H
	DB	00H
	DB	00H
	DB	040H
	DB	00H
	DB	00H
	DB	00H
	DB	0e0H
	DB	01H
	DB	00H
	DB	00H
	DB	090H
	DB	00H
	DB	00H
	DB	00H
	DB	00H
	DB	00H
	DB	00H
	DB	00H
	DB	00H
	DB	00H
	DB	00H
	DB	00H
	DB	0e0H
	DB	07H
	DB	00H
	DB	00H
	DB	0f8H
	DB	0fH
	DB	00H
	DB	00H
	DB	0e4H
	DB	0bH
	DB	00H
	DB	00H
	DB	0f9H
	DB	02fH
	DB	05H
	DB	0c0H
	DB	01bH
	DB	078H
	DB	01H
	DB	0c0H
	DB	02fH
	DB	00H
	DB	02H
	DB	040H
	DB	079H
	DB	00H
	DB	03H
	DB	00H
	DB	034H
	DB	00H
	DB	01eH
	DB	040H
	DB	01fH
	DB	00H
	DB	0fdH
	DB	0feH
	DB	02H
	DB	00H
	DB	0f4H
	DB	06fH
	DB	00H
	DB	00H
	DB	00H
	DB	00H
	DB	00H
	DB	00H
	DB	00H
	DB	010H
	DB	00H
	DB	00H
	DB	00H
	DB	07aH
	DB	00H
	DB	00H
	DB	040H
	DB	02bH
	DB	00H
	DB	00H
	DB	00H
	DB	00H
	DB	04H
	DB	010H
	DB	04H
	DB	00H
	DB	00H
	DB	03eH
	DB	020H
	DB	0dH
	DB	04H
	DB	080H
	DB	0f5H
	DB	0bfH
	DB	03aH
	DB	04H
	DB	020H
	DB	0d0H
	DB	0e7H
	DB	075H
	DB	01H
	DB	0b0H
	DB	01H
	DB	00H
	DB	00H
	DB	02H
	DB	0d0H
	DB	0bfH
	DB	00H
	DB	00H
	DB	06H
	DB	00H
	DB	0e4H
	DB	00H
	DB	00H
	DB	01eH
	DB	00H
	DB	079H
	DB	00H
	DB	00H
	DB	0bdH
	DB	0faH
	DB	01bH
	DB	00H
	DB	00H
	DB	0e4H
	DB	0afH
	DB	01H
	DB	00H
	DB	00H
	DB	00H
	DB	00H
	DB	00H
	DB	00H
	DB	00H
	DB	00H
	DB	010H
	DB	00H
	DB	00H
	DB	00H
	DB	00H
	DB	0baH
	DB	00H
	DB	00H
	DB	00H
	DB	040H
	DB	02bH
	DB	00H
	DB	00H
	DB	00H
	DB	00H
	DB	00H
	DB	040H
	DB	01H
	DB	00H
	DB	00H
	DB	00H
	DB	0c0H
	DB	0bfH
	DB	05H
	DB	00H
	DB	00H
	DB	00H
	DB	091H
	DB	0ffH
	DB	01fH
	DB	00H
	DB	00H
	DB	080H
	DB	0afH
	DB	02aH
	DB	04H
	DB	00H
	DB	0fdH
	DB	06H
	DB	0b8H
	DB	016H
	DB	00H
	DB	0beH
	DB	01H
	DB	090H
	DB	01bH
	DB	00H
	DB	01dH
	DB	00H
	DB	00H
	DB	080H
	DB	00H
	DB	0f4H
	DB	0bH
	DB	00H
	DB	00H
	DB	02H
	DB	040H
	DB	035H
	DB	00H
	DB	00H
	DB	028H
	DB	00H
	DB	0b4H
	DB	00H
	DB	00H
	DB	0d0H
	DB	0abH
	DB	07fH
	DB	00H
	DB	00H
	DB	00H
	DB	0f9H
	DB	02bH
	DB	00H
	DB	00H
	DB	00H
	DB	00H
	DB	00H
	DB	00H
	DB	00H
	DB	00H
	DB	00H
	DB	040H
	DB	00H
	DB	00H
	DB	00H
	DB	00H
	DB	0a0H
	DB	0bH
	DB	00H
	DB	00H
	DB	00H
	DB	0d0H
	DB	0aH
	DB	00H
	DB	00H
	DB	00H
	DB	00H
	DB	00H
	DB	00H
	DB	0e0H
	DB	01H
	DB	00H
	DB	00H
	DB	00H
	DB	040H
	DB	02H
	DB	00H
	DB	00H
	DB	00H
	DB	00H
	DB	00H
	DB	00H
	DB	00H
	DB	00H
	DB	050H
	DB	00H
	DB	00H
	DB	00H
	DB	00H
	DB	0f0H
	DB	06fH
	DB	01H
	DB	00H
	DB	00H
	DB	040H
	DB	0e4H
	DB	0ffH
	DB	07H
	DB	00H
	DB	00H
	DB	0e0H
	DB	0abH
	DB	0aH
	DB	01H
	DB	040H
	DB	0bfH
	DB	01H
	DB	0aeH
	DB	05H
	DB	080H
	DB	06fH
	DB	00H
	DB	0e4H
	DB	06H
	DB	040H
	DB	07H
	DB	00H
	DB	00H
	DB	020H
	DB	00H
	DB	0fdH
	DB	02H
	DB	00H
	DB	080H
	DB	00H
	DB	050H
	DB	0dH
	DB	00H
	DB	00H
	DB	0aH
	DB	00H
	DB	02dH
	DB	00H
	DB	00H
	DB	0f4H
	DB	0eaH
	DB	01fH
	DB	00H
	DB	00H
	DB	040H
	DB	0feH
	DB	0aH
	DB	00H
	DB	00H
	DB	00H
	DB	00H
	DB	00H
	DB	00H
	DB	00H
	DB	00H
	DB	00H
	DB	010H
	DB	00H
	DB	00H
	DB	00H
	DB	00H
	DB	0e8H
	DB	02H
	DB	00H
	DB	00H
	DB	00H
	DB	0b4H
	DB	02H
	DB	00H
	DB	00H
	DB	00H
	DB	00H
	DB	00H
	DB	00H
	DB	00H
	DB	068H
	DB	00H
	DB	00H
	DB	00H
	DB	00H
	DB	0f4H
	DB	01fH
	DB	00H
	DB	00H
	DB	04H
	DB	090H
	DB	0d1H
	DB	01H
	DB	00H
	DB	0e0H
	DB	043H
	DB	042H
	DB	0aH
	DB	04H
	DB	080H
	DB	0f5H
	DB	0afH
	DB	0bfH
	DB	046H
	DB	00H
	DB	02H
	DB	0fdH
	DB	0afH
	DB	0beH
	DB	01H
	DB	0b0H
	DB	01H
	DB	02H
	DB	00H
	DB	020H
	DB	00H
	DB	0fdH
	DB	0bH
	DB	00H
	DB	00H
	DB	06H
	DB	00H
	DB	0e4H
	DB	00H
	DB	00H
	DB	0e0H
	DB	01H
	DB	090H
	DB	07H
	DB	00H
	DB	00H
	DB	0bdH
	DB	0faH
	DB	01bH
	DB	00H
	DB	00H
	DB	040H
	DB	0feH
	DB	01aH
	DB	00H
	DB	00H
	DB	00H
	DB	00H
	DB	00H
	DB	00H
	DB	00H
	DB	00H
	DB	00H
	DB	00H
	DB	01H
	DB	00H
	DB	00H
	DB	00H
	DB	00H
	DB	0baH
	DB	00H
	DB	00H
	DB	00H
	DB	00H
	DB	0b4H
	DB	02H
	DB	00H
	DB	00H
	DB	00H
	DB	00H
	DB	00H
	DB	00H
	DB	010H
	DB	04H
	DB	00H
	DB	00H
	DB	09H
	DB	048H
	DB	02H
	DB	00H
	DB	0fdH
	DB	0efH
	DB	0ebH
	DB	02H
	DB	080H
	DB	05bH
	DB	09fH
	DB	0d7H
	DB	00H
	DB	090H
	DB	00H
	DB	00H
	DB	00H
	DB	00H
	DB	014H
	DB	00H
	DB	00H
	DB	00H
	DB	00H
	DB	02H
	DB	00H
	DB	00H
	DB	00H
	DB	074H
	DB	00H
	DB	00H
	DB	00H
	DB	0a9H
	DB	07H
	DB	00H
	DB	00H
	DB	00H
	DB	054H
	DB	00H
	DB	00H
	DB	00H
	DB	00H
	DB	00H
	DB	00H
	DB	00H
	DB	00H
	DB	069H
	DB	00H
	DB	00H
	DB	00H
	DB	00H
	DB	0f8H
	DB	0fH
	DB	00H
	DB	00H
	DB	00H
	DB	0a0H
	DB	0e5H
	DB	00H
	DB	00H
	DB	040H
	DB	082H
	DB	041H
	DB	0aH
	DB	00H
	DB	0d0H
	DB	0ffH
	DB	0aeH
	DB	0bfH
	DB	06H
	DB	00H
	DB	06eH
	DB	0fdH
	DB	0abH
	DB	07eH
	DB	00H
	DB	090H
	DB	00H
	DB	01H
	DB	00H
	DB	00H
	DB	00H
	DB	05H
	DB	00H
	DB	00H
	DB	00H
	DB	00H
	DB	020H
	DB	00H
	DB	00H
	DB	00H
	DB	00H
	DB	0d0H
	DB	01H
	DB	00H
	DB	00H
	DB	00H
	DB	0a9H
	DB	07H
	DB	00H
	DB	00H
	DB	00H
	DB	00H
	DB	015H
	DB	00H
	DB	00H
	DB	00H
	DB	00H
	DB	050H
	DB	01H
	DB	00H
	DB	00H
	DB	00H
	DB	00H
	DB	0fdH
	DB	01bH
	DB	00H
	DB	00H
	DB	00H
	DB	040H
	DB	0d4H
	DB	0ffH
	DB	0bH
	DB	040H
	DB	010H
	DB	00H
	DB	0f9H
	DB	0baH
	DB	081H
	DB	020H
	DB	0dH
	DB	0f9H
	DB	02H
	DB	0ecH
	DB	0ffH
	DB	0bfH
	DB	05eH
	DB	0bH
	DB	00H
	DB	0feH
	DB	07dH
	DB	01eH
	DB	06H
	DB	00H
	DB	010H
	DB	00H
	DB	00H
	DB	00H
	DB	00H
	DB	00H
	DB	02cH
	DB	00H
	DB	00H
	DB	00H
	DB	00H
	DB	00H
	DB	06H
	DB	00H
	DB	00H
	DB	00H
	DB	00H
	DB	00H
	DB	00H
	DB	00H
	DB	00H
	DB	00H
	DB	050H
	DB	01H
	DB	00H
	DB	00H
	DB	00H
	DB	00H
	DB	0fdH
	DB	01bH
	DB	00H
	DB	00H
	DB	00H
	DB	040H
	DB	0d4H
	DB	0ffH
	DB	0bH
	DB	040H
	DB	010H
	DB	00H
	DB	0f9H
	DB	0baH
	DB	081H
	DB	020H
	DB	0dH
	DB	0f9H
	DB	02H
	DB	0ecH
	DB	0ffH
	DB	0bfH
	DB	05eH
	DB	0bH
	DB	00H
	DB	0feH
	DB	07dH
	DB	01eH
	DB	06H
	DB	00H
	DB	00H
	DB	084H
	DB	01H
	DB	00H
	DB	0c0H
	DB	02fH
	DB	00H
	DB	00H
	DB	014H
	DB	00H
	DB	00H
	DB	00H
	DB	00H
	DB	00H
	DB	00H
	DB	0a0H
	DB	00H
	DB	00H
	DB	080H
	DB	0fH
	DB	00H
	DB	040H
	DB	086H
	DB	00H
	DB	0e0H
	DB	0bH
	DB	04H
	DB	080H
	DB	0bfH
	DB	01H
	DB	00H
	DB	094H
	DB	0feH
	DB	05aH
	DB	00H
	DB	0eaH
	DB	0feH
	DB	03H
	DB	0f8H
	DB	00H
	DB	00H
	DB	0d0H
	DB	01aH
	DB	00H
	DB	090H
	DB	0faH
	DB	01H
	DB	00H
	DB	09H
	DB	04H
	DB	00H
	DB	00H
	DB	00H
	DB	00H
	DB	084H
	DB	01H
	DB	00H
	DB	0c0H
	DB	02fH
	DB	00H
	DB	00H
	DB	014H
	DB	00H
	DB	078H
	DB	00H
	DB	00H
	DB	040H
	DB	02H
	DB	0a0H
	DB	00H
	DB	00H
	DB	080H
	DB	0fH
	DB	00H
	DB	040H
	DB	086H
	DB	00H
	DB	0e0H
	DB	0bH
	DB	04H
	DB	080H
	DB	0bfH
	DB	01H
	DB	00H
	DB	094H
	DB	0feH
	DB	05aH
	DB	00H
	DB	0eaH
	DB	0feH
	DB	03H
	DB	0f8H
	DB	00H
	DB	00H
	DB	0d0H
	DB	01aH
	DB	00H
	DB	090H
	DB	0faH
	DB	01H
	DB	00H
	DB	09H
	DB	04H
	DB	00H
	DB	00H
	DB	00H
	DB	050H
	DB	06H
	DB	00H
	DB	0f0H
	DB	0bH
	DB	00H
	DB	050H
	DB	00H
	DB	00H
	DB	00H
	DB	00H
	DB	00H
	DB	00H
	DB	00H
	DB	00H
	DB	080H
	DB	0fH
	DB	00H
	DB	090H
	DB	0eH
	DB	00H
	DB	020H
	DB	00H
	DB	00H
	DB	030H
	DB	00H
	DB	00H
	DB	0b0H
	DB	00H
	DB	00H
	DB	0f4H
	DB	07H
	DB	040H
	DB	0abH
	DB	0bH
	DB	0f4H
	DB	02H
	DB	00H
	DB	0a4H
	DB	0bfH
	DB	056H
	DB	00H
	DB	0fdH
	DB	07fH
	DB	0f9H
	DB	05bH
	DB	00H
	DB	06dH
	DB	00H
	DB	00H
	DB	00H
	DB	050H
	DB	06H
	DB	00H
	DB	0f0H
	DB	0bH
	DB	00H
	DB	050H
	DB	00H
	DB	00H
	DB	00H
	DB	00H
	DB	00H
	DB	00H
	DB	00H
	DB	00H
	DB	080H
	DB	0fH
	DB	060H
	DB	090H
	DB	0eH
	DB	074H
	DB	020H
	DB	00H
	DB	010H
	DB	030H
	DB	00H
	DB	00H
	DB	0b0H
	DB	00H
	DB	00H
	DB	0f4H
	DB	07H
	DB	040H
	DB	0abH
	DB	0bH
	DB	0f4H
	DB	02H
	DB	00H
	DB	0a4H
	DB	0bfH
	DB	056H
	DB	00H
	DB	0fdH
	DB	07fH
	DB	0f9H
	DB	05bH
	DB	00H
	DB	06dH
	DB	00H
	DB	00H
	DB	00H
	DB	00H
	DB	00H
	DB	00H
	DB	090H
	DB	01bH
	DB	00H
	DB	00H
	DB	00H
	DB	00H
	DB	040H
	DB	00H
	DB	0faH
	DB	0afH
	DB	015H
	DB	00H
	DB	00H
	DB	00H
	DB	01eH
	DB	00H
	DB	0f4H
	DB	0ffH
	DB	02H
	DB	00H
	DB	00H
	DB	064H
	DB	0bH
	DB	0e4H
	DB	046H
	DB	016H
	DB	04H
	DB	00H
	DB	0adH
	DB	0ffH
	DB	0ffH
	DB	06H
	DB	0f0H
	DB	017H
	DB	00H
	DB	0f8H
	DB	092H
	DB	0e7H
	DB	07H
	DB	00H
	DB	014H
	DB	02H
	DB	0d0H
	DB	02fH
	DB	00H
	DB	00H
	DB	00H
	DB	00H
	DB	020H
	DB	00H
	DB	054H
	DB	03H
	DB	00H
	DB	00H
	DB	00H
	DB	00H
	DB	06H
	DB	00H
	DB	028H
	DB	00H
	DB	00H
	DB	00H
	DB	00H
	DB	0e0H
	DB	01H
	DB	0f9H
	DB	00H
	DB	00H
	DB	00H
	DB	00H
	DB	00H
	DB	0f8H
	DB	0ffH
	DB	02H
	DB	00H
	DB	00H
	DB	00H
	DB	00H
	DB	00H
	DB	0a9H
	DB	01H
	DB	00H
	DB	00H
	DB	00H
	DB	00H
	DB	00H
	DB	00H
	DB	00H
	DB	00H
	DB	00H
	DB	00H
	DB	00H
	DB	00H
	DB	00H
	DB	010H
	DB	02H
	DB	00H
	DB	00H
	DB	00H
	DB	00H
	DB	00H
	DB	040H
	DB	07fH
	DB	00H
	DB	00H
	DB	00H
	DB	00H
	DB	00H
	DB	00H
	DB	060H
	DB	01H
	DB	00H
	DB	00H
	DB	00H
	DB	00H
	DB	00H
	DB	0f8H
	DB	0aaH
	DB	01aH
	DB	010H
	DB	00H
	DB	00H
	DB	00H
	DB	0d0H
	DB	0faH
	DB	0bfH
	DB	080H
	DB	0bH
	DB	00H
	DB	020H
	DB	04H
	DB	040H
	DB	0abH
	DB	00H
	DB	0d9H
	DB	02H
	DB	049H
	DB	0d2H
	DB	00H
	DB	0aH
	DB	0bcH
	DB	0efH
	DB	0ffH
	DB	0ffH
	DB	0ffH
	DB	07eH
	DB	024H
	DB	040H
	DB	07eH
	DB	0e4H
	DB	0f9H
	DB	07dH
	DB	05eH
	DB	087H
	DB	00H
	DB	00H
	DB	00H
	DB	00H
	DB	00H
	DB	00H
	DB	00H
	DB	05H
	DB	00H
	DB	00H
	DB	00H
	DB	00H
	DB	00H
	DB	00H
	DB	020H
	DB	00H
	DB	00H
	DB	00H
	DB	00H
	DB	00H
	DB	00H
	DB	00H
	DB	02H
	DB	00H
	DB	00H
	DB	00H
	DB	00H
	DB	00H
	DB	00H
	DB	060H
	DB	00H
	DB	00H
	DB	00H
	DB	00H
	DB	00H
	DB	00H
	DB	00H
	DB	0aH
	DB	00H
	DB	00H
	DB	00H
	DB	00H
	DB	00H
	DB	00H
	DB	0d0H
	DB	06H
	DB	00H
	DB	00H
	DB	00H
	DB	00H
	DB	00H
	DB	00H
	DB	0f8H
	DB	0aaH
	DB	0baH
	DB	01H
	DB	00H
	DB	00H
	DB	00H
	DB	00H
	DB	0f9H
	DB	0ffH
	DB	01H
	DB	00H
	DB	00H
	DB	00H
	DB	00H
	DB	00H
	DB	00H
	DB	00H
	DB	00H
	DB	00H
	DB	011H
	DB	00H
	DB	00H
	DB	00H
	DB	090H
	DB	042H
	DB	067H
	DB	050H
	DB	01H
	DB	00H
	DB	0b0H
	DB	0ebH
	DB	03fH
	DB	0f4H
	DB	05bH
	DB	00H
	DB	014H
	DB	07dH
	DB	019H
	DB	044H
	DB	0fdH
	DB	0bfH
	DB	024H
	DB	00H
	DB	00H
	DB	040H
	DB	0beH
	DB	06eH
	DB	0b0H
	DB	01H
	DB	00H
	DB	0f9H
	DB	06H
	DB	0acH
	DB	0ffH
	DB	0bH
	DB	00H
	DB	02dH
	DB	00H
	DB	0f8H
	DB	05bH
	DB	0aH
	DB	00H
	DB	00H
	DB	00H
	DB	00H
	DB	01H
	DB	00H
	DB	00H
	DB	00H
	DB	040H
	DB	00H
	DB	080H
	DB	07H
	DB	00H
	DB	020H
	DB	05H
	DB	0e0H
	DB	07H
	DB	0a0H
	DB	01dH
	DB	050H
	DB	024H
	DB	0eH
	DB	0fcH
	DB	0bfH
	DB	0ebH
	DB	0ffH
	DB	0ffH
	DB	0ffH
	DB	07eH
	DB	0caH
	DB	0ebH
	DB	047H
	DB	09eH
	DB	0ebH
	DB	0e6H
	DB	075H
	DB	082H
	DB	07H
	DB	00H
	DB	00H
	DB	00H
	DB	00H
	DB	00H
	DB	042H
	DB	02H
	DB	00H
	DB	00H
	DB	00H
	DB	00H
	DB	00H
	DB	02H
	DB	00H
	DB	00H
	DB	00H
	DB	00H
	DB	00H
	DB	00H
	DB	06H
	DB	00H
	DB	00H
	DB	00H
	DB	00H
	DB	00H
	DB	00H
	DB	06H
	DB	00H
	DB	00H
	DB	00H
	DB	00H
	DB	00H
	DB	00H
	DB	05H
	DB	00H
	DB	00H
	DB	00H
	DB	00H
	DB	00H
	DB	00H
	DB	09H
	DB	00H
	DB	00H
	DB	00H
	DB	00H
	DB	00H
	DB	00H
	DB	08H
	DB	00H
	DB	00H
	DB	00H
	DB	00H
	DB	00H
	DB	00H
	DB	08H
	DB	00H
	DB	00H
	DB	00H
	DB	00H
	DB	00H
	DB	00H
	DB	08H
	DB	00H
	DB	00H
	DB	00H
	DB	00H
	DB	00H
	DB	00H
	DB	00H
	DB	00H
	DB	00H
	DB	00H
	DB	054H
	DB	02H
	DB	00H
	DB	00H
	DB	07cH
	DB	0b4H
	DB	0aH
	DB	00H
	DB	00H
	DB	098H
	DB	0fbH
	DB	01fH
	DB	040H
	DB	00H
	DB	020H
	DB	078H
	DB	014H
	DB	040H
	DB	0fH
	DB	0c0H
	DB	01H
	DB	00H
	DB	00H
	DB	0e7H
	DB	01H
	DB	02eH
	DB	00H
	DB	080H
	DB	0feH
	DB	0efH
	DB	0ffH
	DB	03H
	DB	040H
	DB	083H
	DB	0dbH
	DB	01bH
	DB	09H
	DB	00H
	DB	00H
	DB	00H
	DB	00H
	DB	00H
	DB	00H
	DB	00H
	DB	00H
	DB	040H
	DB	00H
	DB	00H
	DB	00H
	DB	040H
	DB	01H
	DB	00H
	DB	00H
	DB	00H
	DB	0fdH
	DB	081H
	DB	0afH
	DB	0a6H
	DB	0fdH
	DB	01bH
	DB	00H
	DB	00H
	DB	0e0H
	DB	0bfH
	DB	0f4H
	DB	0ffH
	DB	03fH
	DB	091H
	DB	0ffH
	DB	01fH
	DB	00H
	DB	01eH
	DB	01dH
	DB	040H
	DB	0aeH
	DB	00H
	DB	0f8H
	DB	0aaH
	DB	082H
	DB	091H
	DB	090H
	DB	03H
	DB	064H
	DB	0f0H
	DB	0feH
	DB	06H
	DB	0b8H
	DB	0efH
	DB	0aeH
	DB	0ffH
	DB	046H
	DB	02H
	DB	0e4H
	DB	01bH
	DB	00H
	DB	0f9H
	DB	0d2H
	DB	0bfH
	DB	0e5H
	DB	022H
	DB	00H
	DB	00H
	DB	00H
	DB	00H
	DB	00H
	DB	014H
	DB	00H
	DB	00H
	DB	05H
	DB	00H
	DB	00H
	DB	00H
	DB	00H
	DB	00H
	DB	00H
	DB	00H
	DB	080H
	DB	00H
	DB	00H
	DB	00H
	DB	00H
	DB	00H
	DB	00H
	DB	00H
	DB	00H
	DB	020H
	DB	00H
	DB	00H
	DB	00H
	DB	00H
	DB	00H
	DB	00H
	DB	00H
	DB	00H
	DB	01cH
	DB	00H
	DB	00H
	DB	00H
	DB	00H
	DB	00H
	DB	00H
	DB	00H
	DB	00H
	DB	0aH
	DB	00H
	DB	00H
	DB	00H
	DB	00H
	DB	00H
	DB	00H
	DB	00H
	DB	040H
	DB	0bH
	DB	00H
	DB	00H
	DB	00H
	DB	00H
	DB	00H
	DB	00H
	DB	00H
	DB	080H
	DB	06fH
	DB	095H
	DB	01aH
	DB	00H
	DB	00H
	DB	00H
	DB	00H
	DB	00H
	DB	040H
	DB	0ffH
	DB	0bfH
	DB	00H
	DB	00H
	DB	00H
	DB	00H
	DB	00H
	DB	00H
	DB	00H
	DB	054H
	DB	00H
	DB	00H
	DB	00H
	DB	00H
	DB	00H
	DB	00H
	DB	00H
	DB	00H
	DB	00H
	DB	00H
	DB	00H
	DB	00H
	DB	0d0H
	DB	0bH
	DB	00H
	DB	00H
	DB	00H
	DB	00H
	DB	00H
	DB	09aH
	DB	07H
	DB	00H
	DB	00H
	DB	00H
	DB	0c0H
	DB	061H
	DB	0d0H
	DB	00H
	DB	00H
	DB	00H
	DB	00H
	DB	0d8H
	DB	0abH
	DB	01fH
	DB	0a0H
	DB	02H
	DB	00H
	DB	0a4H
	DB	090H
	DB	0afH
	DB	00H
	DB	0feH
	DB	05bH
	DB	080H
	DB	05fH
	DB	00H
	DB	00H
	DB	00H
	DB	0d0H
	DB	0ffH
	DB	09bH
	DB	0feH
	DB	0aaH
	DB	01H
	DB	00H
	DB	0fdH
	DB	0baH
	DB	01H
	DB	0fdH
	DB	07fH
	DB	00H
	DB	0fdH
	DB	02H
	DB	0fcH
	DB	0ffH
	DB	016H
	DB	00H
	DB	040H
	DB	0bH
	DB	00H
	DB	0feH
	DB	06H
	DB	00H
	DB	00H
	DB	00H
	DB	00H
	DB	00H
	DB	00H
	DB	00H
	DB	00H
	DB	00H
	DB	0b8H
	DB	01H
	DB	00H
	DB	00H
	DB	010H
	DB	00H
	DB	00H
	DB	0f4H
	DB	02fH
	DB	040H
	DB	00H
	DB	080H
	DB	07H
	DB	00H
	DB	0d0H
	DB	081H
	DB	02H
	DB	07eH
	DB	00H
	DB	0daH
	DB	01H
	DB	046H
	DB	042H
	DB	0eH
	DB	0fcH
	DB	0bfH
	DB	0ebH
	DB	0ffH
	DB	0efH
	DB	0afH
	DB	0ffH
	DB	0abH
	DB	0bcH
	DB	07eH
	DB	0e4H
	DB	0b9H
	DB	0f4H
	DB	06fH
	DB	0f9H
	DB	082H
	DB	07H
	DB	00H
	DB	00H
	DB	00H
	DB	02H
	DB	00H
	DB	020H
	DB	024H
	DB	00H
	DB	00H
	DB	00H
	DB	010H
	DB	00H
	DB	00H
	DB	02H
	DB	00H
	DB	00H
	DB	00H
	DB	00H
	DB	00H
	DB	00H
	DB	060H
	DB	00H
	DB	00H
	DB	00H
	DB	00H
	DB	00H
	DB	00H
	DB	00H
	DB	06H
	DB	00H
	DB	00H
	DB	00H
	DB	00H
	DB	00H
	DB	00H
	DB	050H
	DB	00H
	DB	00H
	DB	00H
	DB	00H
	DB	00H
	DB	00H
	DB	00H
	DB	09H
	DB	00H
	DB	00H
	DB	00H
	DB	00H
	DB	00H
	DB	00H
	DB	080H
	DB	00H
	DB	00H
	DB	00H
	DB	00H
	DB	00H
	DB	00H
	DB	00H
	DB	08H
	DB	00H
	DB	00H
	DB	00H
	DB	00H
	DB	00H
	DB	00H
	DB	080H
	DB	00H
	DB	00H
	DB	00H
	DB	00H
	DB	00H
	DB	00H
	DB	00H
	DB	00H
	DB	00H
	DB	00H
	DB	01H
	DB	0e0H
	DB	0bH
	DB	040H
	DB	00H
	DB	080H
	DB	07H
	DB	0f8H
	DB	01fH
	DB	0e0H
	DB	07H
	DB	0a0H
	DB	01dH
	DB	0e0H
	DB	0bH
	DB	0fcH
	DB	0bfH
	DB	0ebH
	DB	0ffH
	DB	0bbH
	DB	0aeH
	DB	0caH
	DB	0ebH
	DB	047H
	DB	09eH
	DB	01fH
	DB	0b4H
	DB	082H
	DB	07H
	DB	00H
	DB	00H
	DB	00H
	DB	00H
	DB	042H
	DB	02H
	DB	00H
	DB	00H
	DB	00H
	DB	00H
	DB	02H
	DB	00H
	DB	00H
	DB	00H
	DB	00H
	DB	00H
	DB	06H
	DB	00H
	DB	00H
	DB	00H
	DB	00H
	DB	00H
	DB	06H
	DB	00H
	DB	00H
	DB	00H
	DB	00H
	DB	00H
	DB	05H
	DB	00H
	DB	00H
	DB	00H
	DB	00H
	DB	00H
	DB	09H
	DB	00H
	DB	00H
	DB	00H
	DB	00H
	DB	00H
	DB	08H
	DB	00H
	DB	00H
	DB	00H
	DB	00H
	DB	00H
	DB	08H
	DB	00H
	DB	00H
	DB	00H
	DB	00H
	DB	00H
	DB	08H
	DB	00H
	DB	00H
	DB	00H
	DB	00H
	DB	00H
	DB	00H
	DB	00H
	DB	00H
	DB	00H
	DB	05H
	DB	00H
	DB	00H
	DB	00H
	DB	00H
	DB	0feH
	DB	00H
	DB	00H
	DB	00H
	DB	00H
	DB	09H
	DB	00H
	DB	00H
	DB	00H
	DB	00H
	DB	01cH
	DB	040H
	DB	00H
	DB	00H
	DB	00H
	DB	0f0H
	DB	0e6H
	DB	02H
	DB	00H
	DB	00H
	DB	040H
	DB	0bfH
	DB	01H
	DB	010H
	DB	00H
	DB	0e0H
	DB	01bH
	DB	00H
	DB	0d0H
	DB	03H
	DB	0e0H
	DB	07H
	DB	00H
	DB	0c0H
	DB	079H
	DB	0c0H
	DB	02aH
	DB	00H
	DB	0a0H
	DB	0ffH
	DB	0bfH
	DB	0bdH
	DB	00H
	DB	0d0H
	DB	0e0H
	DB	0f6H
	DB	041H
	DB	00H
	DB	00H
	DB	00H
	DB	00H
	DB	00H
	DB	00H
	DB	090H
	DB	00H
	DB	00H
	DB	00H
	DB	00H
	DB	00H
	DB	0f0H
	DB	00H
	DB	00H
	DB	00H
	DB	00H
	DB	00H
	DB	00H
	DB	00H
	DB	00H
	DB	00H
	DB	00H
	DB	00H
	DB	00H
	DB	00H
	DB	00H
	DB	00H
	DB	00H
	DB	00H
	DB	00H
	DB	00H
	DB	00H
	DB	00H
	DB	00H
	DB	01H
	DB	0e0H
	DB	0bH
	DB	040H
	DB	00H
	DB	080H
	DB	07H
	DB	0f8H
	DB	01fH
	DB	0e0H
	DB	07H
	DB	0a0H
	DB	01dH
	DB	0e0H
	DB	0bH
	DB	0fcH
	DB	0bfH
	DB	0ebH
	DB	0ffH
	DB	0bbH
	DB	0aeH
	DB	0caH
	DB	0ebH
	DB	047H
	DB	09eH
	DB	01fH
	DB	0b4H
	DB	082H
	DB	07H
	DB	00H
	DB	00H
	DB	00H
	DB	00H
	DB	042H
	DB	02H
	DB	00H
	DB	00H
	DB	00H
	DB	00H
	DB	02H
	DB	00H
	DB	00H
	DB	00H
	DB	00H
	DB	00H
	DB	06H
	DB	00H
	DB	00H
	DB	00H
	DB	00H
	DB	00H
	DB	06H
	DB	00H
	DB	00H
	DB	00H
	DB	00H
	DB	00H
	DB	05H
	DB	00H
	DB	00H
	DB	00H
	DB	00H
	DB	00H
	DB	09H
	DB	00H
	DB	00H
	DB	00H
	DB	00H
	DB	00H
	DB	08H
	DB	00H
	DB	00H
	DB	00H
	DB	00H
	DB	00H
	DB	08H
	DB	00H
	DB	00H
	DB	00H
	DB	00H
	DB	00H
	DB	08H
	DB	00H
	DB	00H
	DB	00H
	DB	00H
	DB	00H
	DB	00H
	DB	00H
	DB	00H
	DB	00H
	DB	040H
	DB	02H
	DB	00H
	DB	00H
	DB	00H
	DB	00H
	DB	00H
	DB	0eH
	DB	00H
	DB	00H
	DB	00H
	DB	00H
	DB	00H
	DB	010H
	DB	00H
	DB	00H
	DB	00H
	DB	00H
	DB	00H
	DB	00H
	DB	00H
	DB	00H
	DB	00H
	DB	00H
	DB	00H
	DB	00H
	DB	00H
	DB	00H
	DB	00H
	DB	00H
	DB	010H
	DB	00H
	DB	0beH
	DB	00H
	DB	00H
	DB	00H
	DB	0e0H
	DB	01H
	DB	0feH
	DB	07H
	DB	00H
	DB	00H
	DB	090H
	DB	02dH
	DB	0d0H
	DB	0bH
	DB	04H
	DB	00H
	DB	0adH
	DB	0ffH
	DB	0ffH
	DB	0baH
	DB	06H
	DB	00H
	DB	0beH
	DB	0e4H
	DB	0f9H
	DB	041H
	DB	02eH
	DB	00H
	DB	0fdH
	DB	02H
	DB	00H
	DB	00H
	DB	080H
	DB	00H
	DB	050H
	DB	0dH
	DB	00H
	DB	00H
	DB	00H
	DB	06H
	DB	00H
	DB	028H
	DB	00H
	DB	00H
	DB	00H
	DB	078H
	DB	040H
	DB	03eH
	DB	00H
	DB	00H
	DB	00H
	DB	080H
	DB	0ffH
	DB	02fH
	DB	00H
	DB	00H
	DB	00H
	DB	00H
	DB	0a4H
	DB	06H
	DB	00H
	DB	00H
	DB	00H
	DB	00H
	DB	00H
	DB	00H
	DB	00H
	DB	00H
	DB	00H
	DB	00H
	DB	00H
	DB	084H
	DB	00H
	DB	00H
	DB	00H
	DB	00H
	DB	00H
	DB	0f4H
	DB	07H
	DB	00H
	DB	00H
	DB	00H
	DB	00H
	DB	080H
	DB	05H
	DB	00H
	DB	00H
	DB	00H
	DB	00H
	DB	00H
	DB	00H
	DB	00H
	DB	00H
	DB	00H
	DB	0e8H
	DB	01H
	DB	00H
	DB	00H
	DB	00H
	DB	00H
	DB	0d0H
	DB	0eH
	DB	00H
	DB	00H
	DB	00H
	DB	00H
	DB	00H
	DB	04H
	DB	00H
	DB	00H
	DB	00H
	DB	00H
	DB	00H
	DB	00H
	DB	00H
	DB	00H
	DB	00H
	DB	00H
	DB	00H
	DB	00H
	DB	00H
	DB	00H
	DB	00H
	DB	00H
	DB	00H
	DB	00H
	DB	00H
	DB	01cH
	DB	00H
	DB	00H
	DB	00H
	DB	00H
	DB	00H
	DB	0e0H
	DB	082H
	DB	0afH
	DB	0aaH
	DB	01H
	DB	01H
	DB	040H
	DB	024H
	DB	0adH
	DB	0ffH
	DB	0bH
	DB	0b8H
	DB	00H
	DB	048H
	DB	01H
	DB	0b4H
	DB	09H
	DB	090H
	DB	02dH
	DB	0d0H
	DB	0fH
	DB	0a0H
	DB	0c0H
	DB	0ffH
	DB	0feH
	DB	0ffH
	DB	0ffH
	DB	04bH
	DB	02H
	DB	0e4H
	DB	047H
	DB	09eH
	DB	02fH
	DB	0a8H
	DB	08H
	DB	00H
	DB	00H
	DB	00H
	DB	00H
	DB	00H
	DB	050H
	DB	00H
	DB	00H
	DB	00H
	DB	00H
	DB	00H
	DB	00H
	DB	02H
	DB	00H
	DB	00H
	DB	00H
	DB	00H
	DB	00H
	DB	020H
	DB	00H
	DB	00H
	DB	00H
	DB	00H
	DB	00H
	DB	00H
	DB	06H
	DB	00H
	DB	00H
	DB	00H
	DB	00H
	DB	00H
	DB	0e0H
	DB	00H
	DB	00H
	DB	00H
	DB	00H
	DB	00H
	DB	00H
	DB	06dH
	DB	00H
	DB	00H
	DB	00H
	DB	00H
	DB	00H
	DB	080H
	DB	0bfH
	DB	0aaH
	DB	01bH
	DB	00H
	DB	00H
	DB	00H
	DB	090H
	DB	0ffH
	DB	01bH
	DB	00H
	DB	00H
	DB	00H
	DB	00H
	DB	00H
	DB	00H
	DB	00H
	DB	00H
	DB	080H
	DB	01eH
	DB	00H
	DB	00H
	DB	00H
	DB	00H
	DB	0e0H
	DB	0aH
	DB	00H
	DB	00H
	DB	00H
	DB	00H
	DB	040H
	DB	00H
	DB	00H
	DB	00H
	DB	00H
	DB	00H
	DB	00H
	DB	00H
	DB	00H
	DB	00H
	DB	00H
	DB	00H
	DB	00H
	DB	00H
	DB	00H
	DB	00H
	DB	00H
	DB	00H
	DB	00H
	DB	01dH
	DB	00H
	DB	00H
	DB	00H
	DB	00H
	DB	040H
	DB	02fH
	DB	00H
	DB	00H
	DB	00H
	DB	01H
	DB	040H
	DB	024H
	DB	040H
	DB	00H
	DB	080H
	DB	07H
	DB	090H
	DB	018H
	DB	0e0H
	DB	07H
	DB	0a0H
	DB	01dH
	DB	0d0H
	DB	0fH
	DB	0fcH
	DB	0bfH
	DB	0ebH
	DB	0ffH
	DB	0ffH
	DB	07fH
	DB	0caH
	DB	0ebH
	DB	047H
	DB	09eH
	DB	02fH
	DB	0b9H
	DB	082H
	DB	07H
	DB	00H
	DB	00H
	DB	00H
	DB	00H
	DB	042H
	DB	02H
	DB	00H
	DB	00H
	DB	00H
	DB	00H
	DB	02H
	DB	00H
	DB	00H
	DB	00H
	DB	00H
	DB	00H
	DB	06H
	DB	00H
	DB	00H
	DB	00H
	DB	00H
	DB	00H
	DB	06H
	DB	00H
	DB	00H
	DB	00H
	DB	00H
	DB	00H
	DB	05H
	DB	00H
	DB	00H
	DB	00H
	DB	00H
	DB	00H
	DB	09H
	DB	00H
	DB	00H
	DB	00H
	DB	00H
	DB	00H
	DB	08H
	DB	00H
	DB	00H
	DB	00H
	DB	00H
	DB	00H
	DB	08H
	DB	00H
	DB	00H
	DB	00H
	DB	00H
	DB	00H
	DB	08H
	DB	00H
	DB	00H
	DB	00H
	DB	00H
	DB	00H
	DB	00H
	DB	00H
	DB	00H
	DB	00H
	DB	00H
	DB	02H
	DB	00H
	DB	00H
	DB	00H
	DB	00H
	DB	080H
	DB	01H
	DB	00H
	DB	00H
	DB	00H
	DB	00H
	DB	060H
	DB	00H
	DB	00H
	DB	00H
	DB	00H
	DB	00H
	DB	018H
	DB	00H
	DB	00H
	DB	00H
	DB	00H
	DB	00H
	DB	06H
	DB	00H
	DB	00H
	DB	00H
	DB	00H
	DB	080H
	DB	01H
	DB	00H
	DB	00H
	DB	05H
	DB	00H
	DB	050H
	DB	00H
	DB	00H
	DB	0f0H
	DB	06fH
	DB	00H
	DB	014H
	DB	040H
	DB	00H
	DB	044H
	DB	0feH
	DB	07fH
	DB	09H
	DB	0f8H
	DB	01H
	DB	0e4H
	DB	0abH
	DB	08aH
	DB	0c3H
	DB	0ffH
	DB	0fbH
	DB	01bH
	DB	0e0H
	DB	0aeH
	DB	02aH
	DB	0afH
	DB	06fH
	DB	00H
	DB	0e4H
	DB	087H
	DB	082H
	DB	07H
	DB	00H
	DB	00H
	DB	00H
	DB	080H
	DB	090H
	DB	00H
	DB	00H
	DB	00H
	DB	00H
	DB	020H
	DB	00H
	DB	00H
	DB	00H
	DB	00H
	DB	00H
	DB	018H
	DB	00H
	DB	00H
	DB	00H
	DB	00H
	DB	00H
	DB	06H
	DB	00H
	DB	00H
	DB	00H
	DB	00H
	DB	040H
	DB	01H
	DB	00H
	DB	00H
	DB	00H
	DB	00H
	DB	090H
	DB	00H
	DB	00H
	DB	00H
	DB	00H
	DB	00H
	DB	020H
	DB	00H
	DB	00H
	DB	00H
	DB	00H
	DB	00H
	DB	08H
	DB	00H
	DB	00H
	DB	00H
	DB	00H
	DB	00H
	DB	02H
	DB	00H
	DB	00H
	DB	00H
	DB	00H
	DB	00H
	DB	00H
	DB	00H
	DB	00H
	DB	00H
	DB	00H
	DB	014H
	DB	00H
	DB	00H
	DB	00H
	DB	00H
	DB	00H
	DB	060H
	DB	00H
	DB	00H
	DB	00H
	DB	00H
	DB	00H
	DB	040H
	DB	01H
	DB	00H
	DB	00H
	DB	00H
	DB	00H
	DB	00H
	DB	05H
	DB	00H
	DB	00H
	DB	00H
	DB	00H
	DB	00H
	DB	014H
	DB	00H
	DB	00H
	DB	00H
	DB	00H
	DB	00H
	DB	050H
	DB	00H
	DB	00H
	DB	00H
	DB	014H
	DB	00H
	DB	040H
	DB	02H
	DB	00H
	DB	00H
	DB	0fcH
	DB	05bH
	DB	00H
	DB	09H
	DB	00H
	DB	00H
	DB	010H
	DB	0f9H
	DB	0ffH
	DB	025H
	DB	00H
	DB	00H
	DB	00H
	DB	0f8H
	DB	0aaH
	DB	0d2H
	DB	040H
	DB	00H
	DB	0d0H
	DB	06fH
	DB	080H
	DB	0fbH
	DB	04dH
	DB	01H
	DB	0e0H
	DB	01bH
	DB	00H
	DB	0f9H
	DB	061H
	DB	01H
	DB	0d0H
	DB	01H
	DB	00H
	DB	00H
	DB	00H
	DB	08H
	DB	040H
	DB	0bfH
	DB	00H
	DB	00H
	DB	00H
	DB	020H
	DB	00H
	DB	054H
	DB	03H
	DB	00H
	DB	00H
	DB	080H
	DB	02H
	DB	040H
	DB	0bH
	DB	00H
	DB	00H
	DB	00H
	DB	0bdH
	DB	0faH
	DB	07H
	DB	00H
	DB	00H
	DB	00H
	DB	090H
	DB	0bfH
	DB	02H
	DB	00H
	DB	00H
	DB	00H
	DB	00H
	DB	00H
	DB	00H
	DB	00H
	DB	00H
	DB	00H
	DB	00H
	DB	00H
	DB	04H
	DB	00H
	DB	00H
	DB	00H
	DB	00H
	DB	00H
	DB	0baH
	DB	00H
	DB	00H
	DB	00H
	DB	00H
	DB	00H
	DB	0adH
	DB	00H
	DB	00H
	DB	00H
	DB	00H
	DB	00H
	DB	00H
	DB	00H
	DB	00H
	DB	00H
	DB	00H
	DB	02H
	DB	00H
	DB	00H
	DB	00H
	DB	00H
	DB	080H
	DB	01H
	DB	00H
	DB	00H
	DB	00H
	DB	00H
	DB	060H
	DB	00H
	DB	00H
	DB	00H
	DB	0e0H
	DB	00H
	DB	018H
	DB	00H
	DB	00H
	DB	00H
	DB	024H
	DB	00H
	DB	06H
	DB	00H
	DB	00H
	DB	00H
	DB	00H
	DB	080H
	DB	01H
	DB	00H
	DB	00H
	DB	05H
	DB	00H
	DB	050H
	DB	00H
	DB	00H
	DB	0f0H
	DB	06fH
	DB	00H
	DB	014H
	DB	040H
	DB	00H
	DB	044H
	DB	0feH
	DB	07fH
	DB	09H
	DB	0f8H
	DB	01H
	DB	0e4H
	DB	0abH
	DB	08aH
	DB	0c3H
	DB	0ffH
	DB	0fbH
	DB	01bH
	DB	0e0H
	DB	0aeH
	DB	02aH
	DB	0afH
	DB	06fH
	DB	00H
	DB	0e4H
	DB	087H
	DB	082H
	DB	07H
	DB	00H
	DB	00H
	DB	00H
	DB	080H
	DB	090H
	DB	00H
	DB	00H
	DB	00H
	DB	00H
	DB	020H
	DB	00H
	DB	00H
	DB	00H
	DB	00H
	DB	00H
	DB	018H
	DB	00H
	DB	00H
	DB	00H
	DB	00H
	DB	00H
	DB	06H
	DB	00H
	DB	00H
	DB	00H
	DB	00H
	DB	040H
	DB	01H
	DB	00H
	DB	00H
	DB	00H
	DB	00H
	DB	090H
	DB	00H
	DB	00H
	DB	00H
	DB	00H
	DB	00H
	DB	020H
	DB	00H
	DB	00H
	DB	00H
	DB	00H
	DB	00H
	DB	08H
	DB	00H
	DB	00H
	DB	00H
	DB	00H
	DB	00H
	DB	02H
	DB	00H
	DB	00H
	DB	00H
	DB	00H
	DB	00H
	DB	00H
	DB	08H
	DB	00H
	DB	00H
	DB	01cH
	DB	00H
	DB	00H
	DB	08H
	DB	014H
	DB	00H
	DB	08H
	DB	038H
	DB	00H
	DB	014H
	DB	010H
	DB	00H
	DB	014H
	DB	00H
	DB	0c0H
	DB	06fH
	DB	00H
	DB	050H
	DB	0f9H
	DB	05bH
	DB	00H
	DB	0a9H
	DB	07aH
	DB	0c0H
	DB	02H
	DB	00H
	DB	0e0H
	DB	07H
	DB	00H
	DB	058H
	DB	0bH
	DB	00H
	DB	09H
	DB	04H
	DB	00H
	DB	00H
	DB	00H
	DB	00H
	DB	00H
	DB	02H
	DB	00H
	DB	00H
	DB	00H
	DB	080H
	DB	01H
	DB	00H
	DB	00H
	DB	00H
	DB	060H
	DB	00H
	DB	00H
	DB	00H
	DB	00H
	DB	018H
	DB	00H
	DB	00H
	DB	00H
	DB	00H
	DB	05H
	DB	00H
	DB	00H
	DB	00H
	DB	040H
	DB	02H
	DB	00H
	DB	00H
	DB	00H
	DB	090H
	DB	0e0H
	DB	0abH
	DB	069H
	DB	00H
	DB	030H
	DB	0fdH
	DB	0ffH
	DB	0fH
	DB	00H
	DB	0cH
	DB	080H
	DB	02bH
	DB	080H
	DB	09bH
	DB	07H
	DB	019H
	DB	0bcH
	DB	0efH
	DB	06fH
	DB	093H
	DB	00H
	DB	0f9H
	DB	0e2H
	DB	083H
	DB	08H
	DB	00H
	DB	00H
	DB	0f0H
	DB	040H
	DB	01H
	DB	00H
	DB	00H
	DB	010H
	DB	020H
	DB	00H
	DB	00H
	DB	00H
	DB	00H
	DB	08H
	DB	00H
	DB	00H
	DB	00H
	DB	00H
	DB	07H
	DB	00H
	DB	00H
	DB	00H
	DB	080H
	DB	02H
	DB	00H
	DB	00H
	DB	00H
	DB	0d0H
	DB	02H
	DB	00H
	DB	00H
	DB	00H
	DB	0e0H
	DB	05bH
	DB	0a5H
	DB	06H
	DB	00H
	DB	0d0H
	DB	0ffH
	DB	02fH
	DB	00H
	DB	00H
	DB	00H
	DB	055H
	DB	00H
	DB	00H
	DB	00H
	DB	00H
	DB	040H
	DB	00H
	DB	00H
	DB	090H
	DB	00H
	DB	00H
	DB	090H
	DB	00H
	DB	00H
	DB	080H
	DB	00H
	DB	00H
	DB	080H
	DB	00H
	DB	00H
	DB	080H
	DB	00H
	DB	00H
	DB	080H
	DB	02H
	DB	00H
	DB	0f9H
	DB	0fH
	DB	080H
	DB	06H
	DB	0dH
	DB	0f4H
	DB	01H
	DB	00H
	DB	0a4H
	DB	0bfH
	DB	056H
	DB	00H
	DB	0fdH
	DB	07fH
	DB	0f9H
	DB	05bH
	DB	00H
	DB	06dH
	DB	00H
	DB	00H
	DB	00H
	DB	00H
	DB	02cH
	DB	00H
	DB	00H
	DB	0e0H
	DB	0bH
	DB	00H
	DB	00H
	DB	07eH
	DB	00H
	DB	040H
	DB	0aaH
	DB	01H
	DB	040H
	DB	01fH
	DB	00H
	DB	00H
	DB	0fcH
	DB	06fH
	DB	00H
	DB	00H
	DB	0e4H
	DB	0ffH
	DB	06H
	DB	0e0H
	DB	0abH
	DB	03eH
	DB	080H
	DB	0fH
	DB	00H
	DB	00H
	DB	0adH
	DB	01H
	DB	00H
	DB	0a9H
	DB	01fH
	DB	00H
	DB	090H
	DB	040H
	DB	00H
	DB	00H
	DB	00H
	DB	00H
	DB	0d0H
	DB	01bH
	DB	00H
	DB	00H
	DB	00H
	DB	00H
	DB	00H
	DB	0c0H
	DB	0feH
	DB	06bH
	DB	05H
	DB	04H
	DB	00H
	DB	00H
	DB	00H
	DB	080H
	DB	0ffH
	DB	01fH
	DB	078H
	DB	00H
	DB	00H
	DB	00H
	DB	090H
	DB	01bH
	DB	05aH
	DB	064H
	DB	0bH
	DB	04H
	DB	00H
	DB	0fdH
	DB	02H
	DB	0f4H
	DB	0ebH
	DB	0ffH
	DB	06H
	DB	00H
	DB	0beH
	DB	01H
	DB	040H
	DB	02dH
	DB	079H
	DB	02eH
	DB	00H
	DB	0fdH
	DB	02H
	DB	00H
	DB	00H
	DB	00H
	DB	080H
	DB	00H
	DB	050H
	DB	0dH
	DB	00H
	DB	00H
	DB	00H
	DB	00H
	DB	06H
	DB	00H
	DB	028H
	DB	00H
	DB	00H
	DB	00H
	DB	00H
	DB	078H
	DB	040H
	DB	03eH
	DB	00H
	DB	00H
	DB	00H
	DB	00H
	DB	080H
	DB	0ffH
	DB	02fH
	DB	00H
	DB	00H
	DB	00H
	DB	00H
	DB	00H
	DB	0a4H
	DB	06H
	DB	00H
	DB	00H
	DB	00H
	DB	00H
	DB	00H
	DB	00H
	DB	00H
	DB	00H
	DB	00H
	DB	00H
	DB	00H
	DB	00H
	DB	00H
	DB	084H
	DB	00H
	DB	00H
	DB	00H
	DB	00H
	DB	00H
	DB	00H
	DB	0f4H
	DB	07H
	DB	00H
	DB	00H
	DB	00H
	DB	00H
	DB	00H
	DB	080H
	DB	05H
	DB	00H
	DB	00H
	DB	00H
	DB	00H
	DB	00H
	DB	00H
	DB	04H
	DB	00H
	DB	00H
	DB	0e0H
	DB	0c0H
	DB	02H
	DB	00H
	DB	05H
	DB	0beH
	DB	00H
	DB	00H
	DB	0e0H
	DB	07H
	DB	00H
	DB	0a4H
	DB	01aH
	DB	00H
	DB	0f4H
	DB	01H
	DB	00H
	DB	0c0H
	DB	0ffH
	DB	06H
	DB	00H
	DB	040H
	DB	0feH
	DB	06fH
	DB	00H
	DB	0beH
	DB	0eaH
	DB	03H
	DB	0f8H
	DB	00H
	DB	00H
	DB	0d0H
	DB	01aH
	DB	00H
	DB	090H
	DB	0faH
	DB	01H
	DB	00H
	DB	09H
	DB	04H
	DB	00H
	DB	00H
	DB	00H
	DB	00H
	DB	010H
	DB	00H
	DB	00H
	DB	00H
	DB	0fH
	DB	00H
	DB	00H
	DB	050H
	DB	00H
	DB	00H
	DB	00H
	DB	00H
	DB	00H
	DB	00H
	DB	0a0H
	DB	00H
	DB	00H
	DB	080H
	DB	0fH
	DB	00H
	DB	040H
	DB	086H
	DB	00H
	DB	0e0H
	DB	0bH
	DB	04H
	DB	080H
	DB	0bfH
	DB	01H
	DB	00H
	DB	094H
	DB	0feH
	DB	05aH
	DB	00H
	DB	0eaH
	DB	0feH
	DB	03H
	DB	0f8H
	DB	00H
	DB	00H
	DB	0d0H
	DB	01aH
	DB	00H
	DB	090H
	DB	0faH
	DB	01H
	DB	00H
	DB	09H
	DB	04H
	DB	00H
	DB	00H
	DB	00H
	DB	00H
	DB	00H
	DB	00H
	DB	080H
	DB	03H
	DB	00H
	DB	00H
	DB	00H
	DB	00H
	DB	0a0H
	DB	00H
	DB	00H
	DB	00H
	DB	00H
	DB	00H
	DB	00H
	DB	00H
	DB	00H
	DB	00H
	DB	00H
	DB	00H
	DB	00H
	DB	00H
	DB	00H
	DB	00H
	DB	04H
	DB	00H
	DB	00H
	DB	00H
	DB	00H
	DB	080H
	DB	07H
	DB	040H
	DB	00H
	DB	00H
	DB	00H
	DB	064H
	DB	0bH
	DB	074H
	DB	010H
	DB	00H
	DB	0b4H
	DB	0feH
	DB	0ffH
	DB	0bfH
	DB	01H
	DB	080H
	DB	02fH
	DB	079H
	DB	0beH
	DB	0a9H
	DB	00H
	DB	0f4H
	DB	0bH
	DB	00H
	DB	00H
	DB	020H
	DB	00H
	DB	054H
	DB	03H
	DB	00H
	DB	00H
	DB	018H
	DB	00H
	DB	0a0H
	DB	00H
	DB	00H
	DB	00H
	DB	01eH
	DB	090H
	DB	0fH
	DB	00H
	DB	00H
	DB	00H
	DB	0feH
	DB	0bfH
	DB	00H
	DB	00H
	DB	00H
	DB	00H
	DB	0a9H
	DB	01H
	DB	00H
	DB	00H
	DB	00H
	DB	00H
	DB	00H
	DB	00H
	DB	00H
	DB	00H
	DB	00H
	DB	00H
	DB	021H
	DB	00H
	DB	00H
	DB	00H
	DB	00H
	DB	0d0H
	DB	01fH
	DB	00H
	DB	00H
	DB	00H
	DB	00H
	DB	060H
	DB	01H
	DB	00H
	DB	00H
	DB	00H
	DB	00H
	DB	00H
	DB	00H
	DB	00H
	DB	01H
	DB	00H
	DB	00H
	DB	04H
	DB	00H
	DB	078H
	DB	00H
	DB	04H
	DB	0e0H
	DB	07H
	DB	0a0H
	DB	01dH
	DB	0d0H
	DB	0c1H
	DB	0ffH
	DB	0bbH
	DB	0feH
	DB	0ffH
	DB	07fH
	DB	0caH
	DB	0ebH
	DB	047H
	DB	09eH
	DB	06fH
	DB	027H
	DB	078H
	DB	00H
	DB	00H
	DB	00H
	DB	00H
	DB	042H
	DB	02H
	DB	00H
	DB	00H
	DB	0a4H
	DB	023H
	DB	00H
	DB	00H
	DB	00H
	DB	080H
	DB	02bH
	DB	06H
	DB	00H
	DB	00H
	DB	00H
	DB	010H
	DB	060H
	DB	00H
	DB	00H
	DB	00H
	DB	00H
	DB	00H
	DB	05H
	DB	00H
	DB	00H
	DB	00H
	DB	00H
	DB	090H
	DB	00H
	DB	00H
	DB	00H
	DB	00H
	DB	00H
	DB	08H
	DB	00H
	DB	00H
	DB	00H
	DB	00H
	DB	080H
	DB	00H
	DB	00H
	DB	00H
	DB	00H
	DB	00H
	DB	08H
	DB	00H
	DB	00H
	DB	00H
	DB	00H
	DB	00H
	DB	00H
	DB	00H
	DB	00H
	DB	024H
	DB	00H
	DB	00H
	DB	00H
	DB	0f8H
	DB	03H
	DB	00H
	DB	00H
	DB	064H
	DB	05H
	DB	00H
	DB	00H
	DB	020H
	DB	00H
	DB	00H
	DB	01H
	DB	0c0H
	DB	00H
	DB	00H
	DB	03dH
	DB	00H
	DB	07H
	DB	00H
	DB	09cH
	DB	07H
	DB	078H
	DB	00H
	DB	0faH
	DB	0bfH
	DB	0ffH
	DB	0fH
	DB	0dH
	DB	06eH
	DB	06fH
	DB	029H
	DB	00H
	DB	00H
	DB	00H
	DB	00H
	DB	00H
	DB	00H
	DB	00H
	DB	00H
	DB	024H
	DB	00H
	DB	00H
	DB	00H
	DB	0feH
	DB	00H
	DB	00H
	DB	00H
	DB	024H
	DB	01H
	DB	00H
	DB	00H
	DB	00H
	DB	0e0H
	DB	01H
	DB	00H
	DB	00H
	DB	00H
	DB	00H
	DB	040H
	DB	02H
	DB	00H
	DB	00H
	DB	00H
	DB	00H
	DB	00H
	DB	00H
	DB	00H
	DB	00H
	DB	00H
	DB	00H
	DB	050H
	DB	00H
	DB	00H
	DB	00H
	DB	00H
	DB	00H
	DB	0f0H
	DB	06fH
	DB	01H
	DB	00H
	DB	00H
	DB	00H
	DB	040H
	DB	0e4H
	DB	0ffH
	DB	07H
	DB	00H
	DB	00H
	DB	00H
	DB	0e0H
	DB	0abH
	DB	0aH
	DB	09H
	DB	01H
	DB	040H
	DB	0bfH
	DB	01H
	DB	0eeH
	DB	0feH
	DB	05H
	DB	080H
	DB	06fH
	DB	00H
	DB	0e4H
	DB	05fH
	DB	07H
	DB	040H
	DB	07H
	DB	00H
	DB	00H
	DB	00H
	DB	020H
	DB	00H
	DB	0fdH
	DB	02H
	DB	00H
	DB	00H
	DB	080H
	DB	00H
	DB	050H
	DB	0dH
	DB	00H
	DB	00H
	DB	018H
	DB	0aH
	DB	00H
	DB	02dH
	DB	00H
	DB	00H
	DB	0b0H
	DB	0f4H
	DB	0eaH
	DB	01fH
	DB	00H
	DB	00H
	DB	00H
	DB	040H
	DB	0feH
	DB	0aH
	DB	00H
	DB	00H
	DB	00H
	DB	00H
	DB	00H
	DB	00H
	DB	00H
	DB	00H
	DB	00H
	DB	00H
	DB	00H
	DB	010H
	DB	00H
	DB	00H
	DB	00H
	DB	00H
	DB	00H
	DB	0e8H
	DB	02H
	DB	00H
	DB	00H
	DB	00H
	DB	00H
	DB	0b4H
	DB	02H
	DB	00H
	DB	00H
	DB	00H
	DB	00H
	DB	00H
	DB	00H
	DB	00H
	DB	0e0H
	DB	01H
	DB	00H
	DB	00H
	DB	00H
	DB	00H
	DB	040H
	DB	02H
	DB	050H
	DB	06H
	DB	00H
	DB	00H
	DB	00H
	DB	00H
	DB	0d0H
	DB	01fH
	DB	00H
	DB	00H
	DB	050H
	DB	00H
	DB	00H
	DB	012H
	DB	00H
	DB	00H
	DB	0f0H
	DB	06fH
	DB	01H
	DB	00H
	DB	00H
	DB	00H
	DB	040H
	DB	0e4H
	DB	0ffH
	DB	07H
	DB	00H
	DB	00H
	DB	00H
	DB	0e0H
	DB	0abH
	DB	0aH
	DB	09H
	DB	01H
	DB	040H
	DB	0bfH
	DB	01H
	DB	0eeH
	DB	0feH
	DB	05H
	DB	080H
	DB	06fH
	DB	00H
	DB	0e4H
	DB	05fH
	DB	07H
	DB	040H
	DB	07H
	DB	00H
	DB	00H
	DB	00H
	DB	020H
	DB	00H
	DB	0fdH
	DB	02H
	DB	00H
	DB	00H
	DB	080H
	DB	00H
	DB	050H
	DB	0dH
	DB	00H
	DB	00H
	DB	00H
	DB	0aH
	DB	00H
	DB	02dH
	DB	00H
	DB	00H
	DB	00H
	DB	0f4H
	DB	0eaH
	DB	01fH
	DB	00H
	DB	00H
	DB	00H
	DB	040H
	DB	0feH
	DB	0aH
	DB	00H
	DB	00H
	DB	00H
	DB	00H
	DB	00H
	DB	00H
	DB	00H
	DB	00H
	DB	00H
	DB	00H
	DB	00H
	DB	010H
	DB	00H
	DB	00H
	DB	00H
	DB	00H
	DB	00H
	DB	0e8H
	DB	02H
	DB	00H
	DB	00H
	DB	00H
	DB	00H
	DB	0b4H
	DB	02H
	DB	00H
	DB	00H
	DB	00H
	DB	00H
	DB	00H
	DB	00H
	DB	00H
	DB	00H
	DB	00H
	DB	01H
	DB	00H
	DB	00H
	DB	00H
	DB	00H
	DB	0e8H
	DB	02H
	DB	00H
	DB	00H
	DB	00H
	DB	00H
	DB	05aH
	DB	00H
	DB	00H
	DB	00H
	DB	00H
	DB	00H
	DB	00H
	DB	00H
	DB	00H
	DB	00H
	DB	04H
	DB	00H
	DB	00H
	DB	00H
	DB	00H
	DB	080H
	DB	07H
	DB	040H
	DB	00H
	DB	00H
	DB	00H
	DB	064H
	DB	0bH
	DB	074H
	DB	010H
	DB	00H
	DB	0b4H
	DB	0feH
	DB	0ffH
	DB	0bfH
	DB	01H
	DB	080H
	DB	02fH
	DB	079H
	DB	0beH
	DB	0a9H
	DB	00H
	DB	0f4H
	DB	0bH
	DB	00H
	DB	00H
	DB	020H
	DB	00H
	DB	054H
	DB	03H
	DB	00H
	DB	00H
	DB	018H
	DB	00H
	DB	0a0H
	DB	00H
	DB	00H
	DB	00H
	DB	01eH
	DB	090H
	DB	0fH
	DB	00H
	DB	00H
	DB	00H
	DB	0feH
	DB	0bfH
	DB	00H
	DB	00H
	DB	00H
	DB	00H
	DB	0a9H
	DB	01H
	DB	00H
	DB	00H
	DB	00H
	DB	00H
	DB	00H
	DB	00H
	DB	00H
	DB	00H
	DB	00H
	DB	00H
	DB	021H
	DB	00H
	DB	00H
	DB	00H
	DB	00H
	DB	0d0H
	DB	01fH
	DB	00H
	DB	00H
	DB	00H
	DB	00H
	DB	060H
	DB	01H
	DB	00H
	DB	00H
	DB	00H
	DB	00H
	DB	00H
	DB	00H
	DB	040H
	DB	01H
	DB	00H
	DB	00H
	DB	00H
	DB	0b8H
	DB	00H
	DB	00H
	DB	00H
	DB	0ffH
	DB	016H
	DB	00H
	DB	00H
	DB	0f4H
	DB	02fH
	DB	00H
	DB	00H
	DB	010H
	DB	0f9H
	DB	0ffH
	DB	01H
	DB	0d0H
	DB	0c1H
	DB	01H
	DB	00H
	DB	00H
	DB	0e0H
	DB	0abH
	DB	0aH
	DB	046H
	DB	042H
	DB	0eH
	DB	04H
	DB	00H
	DB	0fdH
	DB	06H
	DB	0b8H
	DB	0efH
	DB	0aeH
	DB	0ffH
	DB	056H
	DB	00H
	DB	0f8H
	DB	06H
	DB	040H
	DB	0beH
	DB	0f4H
	DB	06fH
	DB	0b9H
	DB	01H
	DB	0d0H
	DB	01H
	DB	00H
	DB	00H
	DB	00H
	DB	02H
	DB	00H
	DB	020H
	DB	00H
	DB	0fdH
	DB	02H
	DB	00H
	DB	00H
	DB	00H
	DB	00H
	DB	00H
	DB	02H
	DB	040H
	DB	035H
	DB	00H
	DB	00H
	DB	00H
	DB	00H
	DB	00H
	DB	0a0H
	DB	00H
	DB	0d0H
	DB	02H
	DB	00H
	DB	00H
	DB	00H
	DB	00H
	DB	00H
	DB	0bdH
	DB	0faH
	DB	07H
	DB	00H
	DB	00H
	DB	00H
	DB	00H
	DB	00H
	DB	040H
	DB	0feH
	DB	0aH
	DB	00H
	DB	00H
	DB	00H
	DB	00H
	DB	00H
	DB	00H
	DB	00H
	DB	00H
	DB	00H
	DB	00H
	DB	00H
	DB	00H
	DB	00H
	DB	00H
	DB	00H
	DB	00H
	DB	01H
	DB	00H
	DB	00H
	DB	00H
	DB	00H
	DB	00H
	DB	00H
	DB	00H
	DB	0baH
	DB	00H
	DB	00H
	DB	00H
	DB	00H
	DB	00H
	DB	00H
	DB	00H
	DB	0b4H
	DB	02H
	DB	00H
	DB	00H
	DB	00H
	DB	00H
	DB	00H
	DB	00H
	DB	00H
	DB	00H
	DB	00H
	DB	080H
	DB	00H
	DB	00H
	DB	00H
	DB	00H
	DB	060H
	DB	00H
	DB	00H
	DB	00H
	DB	00H
	DB	018H
	DB	00H
	DB	00H
	DB	00H
	DB	00H
	DB	06H
	DB	00H
	DB	00H
	DB	00H
	DB	040H
	DB	02H
	DB	00H
	DB	00H
	DB	00H
	DB	090H
	DB	00H
	DB	00H
	DB	00H
	DB	00H
	DB	024H
	DB	00H
	DB	00H
	DB	00H
	DB	00H
	DB	0cH
	DB	00H
	DB	00H
	DB	00H
	DB	00H
	DB	03H
	DB	00H
	DB	00H
	DB	0e0H
	DB	0e5H
	DB	041H
	DB	00H
	DB	0d0H
	DB	0fbH
	DB	0dbH
	DB	014H
	DB	00H
	DB	0beH
	DB	0f8H
	DB	060H
	DB	01H
	DB	0d0H
	DB	01H
	DB	03cH
	DB	080H
	DB	00H
	DB	0f4H
	DB	0bH
	DB	04H
	DB	020H
	DB	00H
	DB	054H
	DB	03H
	DB	00H
	DB	028H
	DB	00H
	DB	0b4H
	DB	00H
	DB	00H
	DB	0bdH
	DB	0faH
	DB	07H
	DB	00H
	DB	00H
	DB	0f9H
	DB	02bH
	DB	00H
	DB	00H
	DB	00H
	DB	00H
	DB	00H
	DB	00H
	DB	00H
	DB	00H
	DB	040H
	DB	00H
	DB	00H
	DB	00H
	DB	00H
	DB	0baH
	DB	00H
	DB	00H
	DB	00H
	DB	0d0H
	DB	0aH
	DB	00H
	DB	00H
	DB	00H
	DB	00H
	DB	00H
	DB	040H
	DB	01H
	DB	00H
	DB	00H
	DB	00H
	DB	00H
	DB	0c0H
	DB	0bfH
	DB	05H
	DB	00H
	DB	00H
	DB	00H
	DB	00H
	DB	091H
	DB	0ffH
	DB	01fH
	DB	00H
	DB	00H
	DB	00H
	DB	080H
	DB	0afH
	DB	02aH
	DB	024H
	DB	04H
	DB	00H
	DB	0fdH
	DB	06H
	DB	0b8H
	DB	0fbH
	DB	017H
	DB	00H
	DB	0beH
	DB	01H
	DB	090H
	DB	07fH
	DB	01dH
	DB	00H
	DB	01dH
	DB	00H
	DB	00H
	DB	00H
	DB	080H
	DB	00H
	DB	0f4H
	DB	0bH
	DB	00H
	DB	00H
	DB	010H
	DB	02H
	DB	040H
	DB	035H
	DB	00H
	DB	00H
	DB	0e8H
	DB	02aH
	DB	00H
	DB	0b4H
	DB	00H
	DB	00H
	DB	0a0H
	DB	0d5H
	DB	0abH
	DB	07fH
	DB	00H
	DB	00H
	DB	00H
	DB	00H
	DB	0f9H
	DB	02bH
	DB	00H
	DB	00H
	DB	00H
	DB	00H
	DB	00H
	DB	00H
	DB	00H
	DB	00H
	DB	00H
	DB	00H
	DB	00H
	DB	040H
	DB	00H
	DB	00H
	DB	00H
	DB	00H
	DB	00H
	DB	0a0H
	DB	0bH
	DB	00H
	DB	00H
	DB	00H
	DB	00H
	DB	0d0H
	DB	0aH
	DB	00H
	DB	00H
	DB	00H
	DB	00H
	DB	00H
	DB	00H
	DB	00H
	DB	04H
	DB	00H
	DB	00H
	DB	00H
	DB	00H
	DB	080H
	DB	07H
	DB	040H
	DB	00H
	DB	00H
	DB	00H
	DB	064H
	DB	0bH
	DB	074H
	DB	010H
	DB	00H
	DB	0b4H
	DB	0feH
	DB	0ffH
	DB	0bfH
	DB	01H
	DB	080H
	DB	02fH
	DB	079H
	DB	0beH
	DB	0a9H
	DB	00H
	DB	0f4H
	DB	0bH
	DB	00H
	DB	00H
	DB	020H
	DB	00H
	DB	054H
	DB	03H
	DB	00H
	DB	0e9H
	DB	019H
	DB	00H
	DB	0a0H
	DB	00H
	DB	080H
	DB	027H
	DB	01eH
	DB	090H
	DB	0fH
	DB	00H
	DB	040H
	DB	00H
	DB	0feH
	DB	0bfH
	DB	00H
	DB	00H
	DB	00H
	DB	00H
	DB	0a9H
	DB	01H
	DB	00H
	DB	00H
	DB	00H
	DB	00H
	DB	00H
	DB	00H
	DB	00H
	DB	00H
	DB	00H
	DB	00H
	DB	021H
	DB	00H
	DB	00H
	DB	00H
	DB	00H
	DB	0d0H
	DB	01fH
	DB	00H
	DB	00H
	DB	00H
	DB	00H
	DB	060H
	DB	01H
	DB	00H
	DB	00H
	DB	00H
	DB	00H
	DB	00H
	DB	00H
	DB	00H
	DB	04H
	DB	00H
	DB	04H
	DB	00H
	DB	00H
	DB	00H
	DB	080H
	DB	07H
	DB	040H
	DB	0bH
	DB	00H
	DB	00H
	DB	00H
	DB	064H
	DB	0bH
	DB	070H
	DB	01aH
	DB	010H
	DB	00H
	DB	0b4H
	DB	0feH
	DB	0bfH
	DB	0feH
	DB	06fH
	DB	01H
	DB	080H
	DB	02fH
	DB	079H
	DB	03eH
	DB	0b8H
	DB	0aeH
	DB	00H
	DB	0f4H
	DB	0bH
	DB	00H
	DB	00H
	DB	00H
	DB	020H
	DB	00H
	DB	054H
	DB	03H
	DB	00H
	DB	00H
	DB	00H
	DB	018H
	DB	00H
	DB	0a0H
	DB	00H
	DB	00H
	DB	00H
	DB	00H
	DB	01eH
	DB	090H
	DB	0fH
	DB	00H
	DB	00H
	DB	00H
	DB	00H
	DB	0feH
	DB	0bfH
	DB	00H
	DB	00H
	DB	00H
	DB	00H
	DB	00H
	DB	0a9H
	DB	01H
	DB	00H
	DB	00H
	DB	00H
	DB	00H
	DB	00H
	DB	00H
	DB	00H
	DB	00H
	DB	00H
	DB	00H
	DB	00H
	DB	00H
	DB	021H
	DB	00H
	DB	00H
	DB	00H
	DB	00H
	DB	00H
	DB	0d0H
	DB	01fH
	DB	00H
	DB	00H
	DB	00H
	DB	00H
	DB	00H
	DB	060H
	DB	01H
	DB	00H
	DB	00H
	DB	00H
	DB	00H
	DB	00H
	DB	00H
	DB	00H
	DB	00H
	DB	00H
	DB	00H
	DB	076H
	DB	00H
	DB	00H
	DB	00H
	DB	00H
	DB	00H
	DB	0edH
	DB	00H
	DB	00H
	DB	00H
	DB	00H
	DB	00H
	DB	010H
	DB	00H
	DB	00H
	DB	00H
	DB	00H
	DB	00H
	DB	00H
	DB	00H
	DB	00H
	DB	00H
	DB	00H
	DB	00H
	DB	00H
	DB	00H
	DB	00H
	DB	00H
	DB	00H
	DB	00H
	DB	00H
	DB	080H
	DB	01H
	DB	00H
	DB	00H
	DB	00H
	DB	00H
	DB	080H
	DB	0bH
	DB	00H
	DB	00H
	DB	00H
	DB	01H
	DB	040H
	DB	024H
	DB	00H
	DB	00H
	DB	00H
	DB	01eH
	DB	00H
	DB	052H
	DB	00H
	DB	00H
	DB	00H
	DB	0d9H
	DB	02H
	DB	0fdH
	DB	040H
	DB	00H
	DB	0d0H
	DB	0faH
	DB	0ffH
	DB	0ffH
	DB	06fH
	DB	00H
	DB	0e0H
	DB	04bH
	DB	09eH
	DB	06fH
	DB	0f9H
	DB	02H
	DB	0d0H
	DB	02fH
	DB	00H
	DB	00H
	DB	00H
	DB	08H
	DB	00H
	DB	0d5H
	DB	00H
	DB	00H
	DB	00H
	DB	060H
	DB	00H
	DB	080H
	DB	02H
	DB	00H
	DB	00H
	DB	080H
	DB	07H
	DB	0e4H
	DB	03H
	DB	00H
	DB	00H
	DB	00H
	DB	0f8H
	DB	0ffH
	DB	02H
	DB	00H
	DB	00H
	DB	00H
	DB	040H
	DB	06aH
	DB	00H
	DB	00H
	DB	00H
	DB	00H
	DB	00H
	DB	00H
	DB	00H
	DB	00H
	DB	00H
	DB	00H
	DB	00H
	DB	040H
	DB	08H
	DB	00H
	DB	00H
	DB	00H
	DB	00H
	DB	040H
	DB	07fH
	DB	00H
	DB	00H
	DB	00H
	DB	00H
	DB	00H
	DB	058H
	DB	00H
	DB	00H
	DB	00H
	DB	00H
	DB	00H
	DB	00H
	DB	00H
	DB	00H
	DB	00H
	DB	00H
	DB	010H
	DB	00H
	DB	00H
	DB	00H
	DB	00H
	DB	00H
	DB	0d0H
	DB	02H
	DB	00H
	DB	00H
	DB	00H
	DB	00H
	DB	00H
	DB	01H
	DB	00H
	DB	00H
	DB	050H
	DB	00H
	DB	00H
	DB	00H
	DB	00H
	DB	00H
	DB	0f0H
	DB	06fH
	DB	01H
	DB	00H
	DB	00H
	DB	00H
	DB	040H
	DB	0e4H
	DB	0ffH
	DB	07H
	DB	00H
	DB	00H
	DB	00H
	DB	0e0H
	DB	0abH
	DB	0aH
	DB	09H
	DB	01H
	DB	040H
	DB	0bfH
	DB	01H
	DB	0eeH
	DB	0feH
	DB	05H
	DB	080H
	DB	06fH
	DB	00H
	DB	0e4H
	DB	05fH
	DB	07H
	DB	040H
	DB	07H
	DB	00H
	DB	00H
	DB	00H
	DB	020H
	DB	00H
	DB	0fdH
	DB	02H
	DB	00H
	DB	00H
	DB	080H
	DB	00H
	DB	050H
	DB	0dH
	DB	00H
	DB	00H
	DB	00H
	DB	0aH
	DB	00H
	DB	02dH
	DB	00H
	DB	00H
	DB	00H
	DB	0f4H
	DB	0eaH
	DB	01fH
	DB	00H
	DB	00H
	DB	00H
	DB	040H
	DB	0feH
	DB	0aH
	DB	00H
	DB	00H
	DB	00H
	DB	00H
	DB	00H
	DB	00H
	DB	00H
	DB	00H
	DB	00H
	DB	00H
	DB	00H
	DB	010H
	DB	00H
	DB	00H
	DB	00H
	DB	00H
	DB	00H
	DB	0e8H
	DB	02H
	DB	00H
	DB	00H
	DB	00H
	DB	00H
	DB	0b4H
	DB	02H
	DB	00H
	DB	00H
	DB	00H
	DB	00H
	DB	00H
	DB	00H
	DB	00H
	DB	050H
	DB	0bH
	DB	00H
	DB	00H
	DB	00H
	DB	06bH
	DB	00H
	DB	00H
	DB	00H
	DB	00H
	DB	00H
	DB	00H
	DB	00H
	DB	00H
	DB	00H
	DB	00H
	DB	00H
	DB	00H
	DB	080H
	DB	02H
	DB	00H
	DB	00H
	DB	00H
	DB	07eH
	DB	00H
	DB	00H
	DB	00H
	DB	060H
	DB	0bH
	DB	00H
	DB	00H
	DB	00H
	DB	0feH
	DB	090H
	DB	01H
	DB	00H
	DB	090H
	DB	049H
	DB	0ffH
	DB	06H
	DB	00H
	DB	0a8H
	DB	04H
	DB	0fdH
	DB	0bfH
	DB	0e0H
	DB	03H
	DB	0e4H
	DB	0ebH
	DB	046H
	DB	06bH
	DB	0f9H
	DB	06H
	DB	0ecH
	DB	0ebH
	DB	0d7H
	DB	02H
	DB	080H
	DB	03fH
	DB	010H
	DB	00H
	DB	08H
	DB	00H
	DB	00H
	DB	01cH
	DB	00H
	DB	00H
	DB	08H
	DB	00H
	DB	00H
	DB	08H
	DB	00H
	DB	00H
	DB	014H
	DB	00H
	DB	00H
	DB	014H
	DB	00H
	DB	0c0H
	DB	06fH
	DB	00H
	DB	050H
	DB	0f9H
	DB	05bH
	DB	00H
	DB	0a9H
	DB	07aH
	DB	0c0H
	DB	02H
	DB	00H
	DB	0e0H
	DB	07H
	DB	00H
	DB	058H
	DB	0bH
	DB	00H
	DB	09H
	DB	04H
	DB	00H
	DB	00H
	DB	00H
	DB	00H
	DB	04H
	DB	080H
	DB	02fH
	DB	00H
	DB	00H
	DB	00H
	DB	078H
	DB	080H
	DB	0ffH
	DB	01H
	DB	00H
	DB	00H
	DB	064H
	DB	0bH
	DB	0f4H
	DB	02H
	DB	01H
	DB	040H
	DB	0ebH
	DB	0ffH
	DB	0bfH
	DB	0aeH
	DB	01H
	DB	080H
	DB	02fH
	DB	079H
	DB	07eH
	DB	090H
	DB	0bH
	DB	040H
	DB	0bfH
	DB	00H
	DB	00H
	DB	00H
	DB	020H
	DB	00H
	DB	054H
	DB	03H
	DB	00H
	DB	00H
	DB	080H
	DB	01H
	DB	00H
	DB	0aH
	DB	00H
	DB	00H
	DB	00H
	DB	01eH
	DB	090H
	DB	0fH
	DB	00H
	DB	00H
	DB	00H
	DB	0e0H
	DB	0ffH
	DB	0bH
	DB	00H
	DB	00H
	DB	00H
	DB	00H
	DB	0a9H
	DB	01H
	DB	00H
	DB	00H
	DB	00H
	DB	00H
	DB	00H
	DB	00H
	DB	00H
	DB	00H
	DB	00H
	DB	00H
	DB	00H
	DB	021H
	DB	00H
	DB	00H
	DB	00H
	DB	00H
	DB	00H
	DB	0fdH
	DB	01H
	DB	00H
	DB	00H
	DB	00H
	DB	00H
	DB	060H
	DB	01H
	DB	00H
	DB	00H
	DB	00H
	DB	00H
	DB	00H
	DB	00H
	DB	00H
	DB	00H
	DB	00H
	DB	050H
	DB	00H
	DB	00H
	DB	00H
	DB	00H
	DB	090H
	DB	0beH
	DB	00H
	DB	00H
	DB	00H
	DB	090H
	DB	0ffH
	DB	01aH
	DB	00H
	DB	00H
	DB	00H
	DB	0feH
	DB	06H
	DB	00H
	DB	00H
	DB	00H
	DB	0c0H
	DB	01bH
	DB	00H
	DB	00H
	DB	00H
	DB	00H
	DB	090H
	DB	00H
	DB	00H
	DB	00H
	DB	00H
	DB	00H
	DB	0d0H
	DB	07H
	DB	00H
	DB	00H
	DB	00H
	DB	00H
	DB	040H
	DB	02fH
	DB	00H
	DB	00H
	DB	00H
	DB	00H
	DB	00H
	DB	0fcH
	DB	01H
	DB	00H
	DB	00H
	DB	00H
	DB	00H
	DB	0b0H
	DB	07H
	DB	00H
	DB	00H
	DB	00H
	DB	00H
	DB	050H
	DB	01dH
	DB	00H
	DB	00H
	DB	00H
	DB	00H
	DB	069H
	DB	074H
	DB	00H
	DB	00H
	DB	00H
	DB	040H
	DB	03fH
	DB	0d0H
	DB	02H
	DB	00H
	DB	00H
	DB	080H
	DB	03aH
	DB	040H
	DB	0bH
	DB	04H
	DB	00H
	DB	06dH
	DB	03fH
	DB	00H
	DB	0bdH
	DB	05H
	DB	080H
	DB	01fH
	DB	00H
	DB	00H
	DB	0e0H
	DB	01H
	DB	0d0H
	DB	01H
	DB	00H
	DB	00H
	DB	00H
	DB	02H
	DB	0d0H
	DB	02fH
	DB	00H
	DB	00H
	DB	00H
	DB	02H
	DB	040H
	DB	035H
	DB	00H
	DB	00H
	DB	00H
	DB	0aH
	DB	00H
	DB	02dH
	DB	00H
	DB	00H
	DB	00H
	DB	0bdH
	DB	0faH
	DB	07H
	DB	00H
	DB	00H
	DB	00H
	DB	0e4H
	DB	0afH
	DB	00H
	DB	00H
	DB	00H
	DB	00H
	DB	00H
	DB	00H
	DB	00H
	DB	00H
	DB	00H
	DB	00H
	DB	00H
	DB	010H
	DB	00H
	DB	00H
	DB	00H
	DB	00H
	DB	00H
	DB	0baH
	DB	00H
	DB	00H
	DB	00H
	DB	00H
	DB	040H
	DB	02bH
	DB	00H
	DB	00H
	DB	00H
	DB	00H
	DB	00H
	DB	00H
	DB	00H
	DB	090H
	DB	00H
	DB	00H
	DB	00H
	DB	00H
	DB	00H
	DB	00H
	DB	080H
	DB	03H
	DB	00H
	DB	00H
	DB	00H
	DB	00H
	DB	00H
	DB	00H
	DB	04H
	DB	00H
	DB	00H
	DB	00H
	DB	00H
	DB	00H
	DB	00H
	DB	00H
	DB	00H
	DB	00H
	DB	00H
	DB	00H
	DB	00H
	DB	0d0H
	DB	01bH
	DB	00H
	DB	00H
	DB	00H
	DB	00H
	DB	00H
	DB	0c0H
	DB	0feH
	DB	06bH
	DB	05H
	DB	04H
	DB	00H
	DB	00H
	DB	00H
	DB	080H
	DB	0ffH
	DB	01fH
	DB	078H
	DB	00H
	DB	00H
	DB	00H
	DB	090H
	DB	01bH
	DB	05aH
	DB	064H
	DB	0bH
	DB	04H
	DB	00H
	DB	0fdH
	DB	02H
	DB	0f4H
	DB	0ebH
	DB	0ffH
	DB	06H
	DB	00H
	DB	0beH
	DB	01H
	DB	040H
	DB	02dH
	DB	079H
	DB	02eH
	DB	00H
	DB	0fdH
	DB	02H
	DB	00H
	DB	00H
	DB	00H
	DB	080H
	DB	00H
	DB	050H
	DB	0dH
	DB	00H
	DB	00H
	DB	00H
	DB	00H
	DB	06H
	DB	00H
	DB	028H
	DB	00H
	DB	00H
	DB	00H
	DB	00H
	DB	078H
	DB	040H
	DB	03eH
	DB	00H
	DB	00H
	DB	00H
	DB	00H
	DB	080H
	DB	0ffH
	DB	02fH
	DB	00H
	DB	00H
	DB	00H
	DB	00H
	DB	00H
	DB	0a4H
	DB	06H
	DB	00H
	DB	00H
	DB	00H
	DB	00H
	DB	00H
	DB	00H
	DB	00H
	DB	00H
	DB	00H
	DB	00H
	DB	00H
	DB	00H
	DB	00H
	DB	084H
	DB	00H
	DB	00H
	DB	00H
	DB	00H
	DB	00H
	DB	00H
	DB	0f4H
	DB	07H
	DB	00H
	DB	00H
	DB	00H
	DB	00H
	DB	00H
	DB	080H
	DB	05H
	DB	00H
	DB	00H
	DB	00H
	DB	00H
	DB	00H
	DB	00H
	DB	00H
	DB	00H
	DB	00H
	DB	00H
	DB	014H
	DB	00H
	DB	00H
	DB	00H
	DB	00H
	DB	0f9H
	DB	07H
	DB	00H
	DB	00H
	DB	040H
	DB	0feH
	DB	05bH
	DB	00H
	DB	00H
	DB	00H
	DB	0feH
	DB	06H
	DB	00H
	DB	00H
	DB	00H
	DB	0b0H
	DB	01H
	DB	00H
	DB	00H
	DB	00H
	DB	00H
	DB	09H
	DB	00H
	DB	00H
	DB	00H
	DB	00H
	DB	040H
	DB	01fH
	DB	00H
	DB	00H
	DB	00H
	DB	00H
	DB	040H
	DB	02fH
	DB	00H
	DB	00H
	DB	00H
	DB	00H
	DB	040H
	DB	03fH
	DB	00H
	DB	00H
	DB	00H
	DB	00H
	DB	040H
	DB	07bH
	DB	00H
	DB	00H
	DB	00H
	DB	00H
	DB	040H
	DB	075H
	DB	00H
	DB	00H
	DB	00H
	DB	00H
	DB	029H
	DB	074H
	DB	00H
	DB	040H
	DB	00H
	DB	0d0H
	DB	0bH
	DB	074H
	DB	00H
	DB	0f8H
	DB	01H
	DB	0acH
	DB	03H
	DB	0b4H
	DB	0c0H
	DB	0ffH
	DB	0bbH
	DB	0bdH
	DB	00H
	DB	0f4H
	DB	02aH
	DB	0afH
	DB	01fH
	DB	04H
	DB	00H
	DB	0a0H
	DB	082H
	DB	07H
	DB	00H
	DB	00H
	DB	00H
	DB	080H
	DB	090H
	DB	00H
	DB	00H
	DB	00H
	DB	00H
	DB	020H
	DB	00H
	DB	00H
	DB	00H
	DB	00H
	DB	00H
	DB	018H
	DB	00H
	DB	00H
	DB	00H
	DB	00H
	DB	00H
	DB	06H
	DB	00H
	DB	00H
	DB	00H
	DB	00H
	DB	040H
	DB	01H
	DB	00H
	DB	00H
	DB	00H
	DB	00H
	DB	090H
	DB	00H
	DB	00H
	DB	00H
	DB	00H
	DB	00H
	DB	020H
	DB	00H
	DB	00H
	DB	00H
	DB	00H
	DB	00H
	DB	08H
	DB	00H
	DB	00H
	DB	00H
	DB	00H
	DB	00H
	DB	02H
	DB	00H
	DB	00H
	DB	00H
	DB	00H
	DB	00H
	DB	00H
	DB	00H
	DB	040H
	DB	01H
	DB	00H
	DB	00H
	DB	00H
	DB	00H
	DB	0c0H
	DB	0bfH
	DB	05H
	DB	00H
	DB	00H
	DB	00H
	DB	00H
	DB	091H
	DB	0ffH
	DB	01fH
	DB	00H
	DB	00H
	DB	00H
	DB	080H
	DB	0afH
	DB	02aH
	DB	024H
	DB	04H
	DB	00H
	DB	0fdH
	DB	06H
	DB	0b8H
	DB	0fbH
	DB	017H
	DB	00H
	DB	0beH
	DB	01H
	DB	090H
	DB	07fH
	DB	01dH
	DB	00H
	DB	01dH
	DB	00H
	DB	00H
	DB	00H
	DB	080H
	DB	00H
	DB	0f4H
	DB	0bH
	DB	00H
	DB	00H
	DB	00H
	DB	02H
	DB	040H
	DB	035H
	DB	00H
	DB	00H
	DB	060H
	DB	028H
	DB	00H
	DB	0b4H
	DB	00H
	DB	00H
	DB	0c0H
	DB	0d2H
	DB	0abH
	DB	07fH
	DB	00H
	DB	00H
	DB	00H
	DB	00H
	DB	0f9H
	DB	02bH
	DB	00H
	DB	00H
	DB	00H
	DB	00H
	DB	00H
	DB	00H
	DB	00H
	DB	00H
	DB	00H
	DB	00H
	DB	00H
	DB	040H
	DB	00H
	DB	00H
	DB	00H
	DB	00H
	DB	00H
	DB	0a0H
	DB	0bH
	DB	00H
	DB	00H
	DB	00H
	DB	00H
	DB	0d0H
	DB	0aH
	DB	00H
	DB	00H
	DB	00H
	DB	00H
	DB	00H
	DB	00H
	DB	00H
	DB	00H
	DB	050H
	DB	0aH
	DB	00H
	DB	00H
	DB	00H
	DB	0e4H
	DB	06fH
	DB	00H
	DB	00H
	DB	00H
	DB	0bdH
	DB	06H
	DB	00H
	DB	00H
	DB	00H
	DB	068H
	DB	00H
	DB	00H
	DB	00H
	DB	00H
	DB	0d0H
	DB	00H
	DB	00H
	DB	00H
	DB	00H
	DB	00H
	DB	03eH
	DB	00H
	DB	00H
	DB	00H
	DB	00H
	DB	0c0H
	DB	0bH
	DB	00H
	DB	00H
	DB	00H
	DB	00H
	DB	0c0H
	DB	01H
	DB	00H
	DB	00H
	DB	00H
	DB	00H
	DB	034H
	DB	00H
	DB	00H
	DB	00H
	DB	00H
	DB	00H
	DB	02H
	DB	00H
	DB	00H
	DB	01H
	DB	00H
	DB	02aH
	DB	00H
	DB	00H
	DB	0f4H
	DB	00H
	DB	0e4H
	DB	02H
	DB	00H
	DB	0c0H
	DB	079H
	DB	0c0H
	DB	02aH
	DB	00H
	DB	080H
	DB	0feH
	DB	0ffH
	DB	0e6H
	DB	02H
	DB	00H
	DB	09H
	DB	06eH
	DB	01fH
	DB	00H
	DB	00H
	DB	00H
	DB	00H
	DB	00H
	DB	00H
	DB	00H
	DB	080H
	DB	0bH
	DB	00H
	DB	00H
	DB	00H
	DB	00H
	DB	0acH
	DB	0bH
	DB	00H
	DB	00H
	DB	0e0H
	DB	080H
	DB	040H
	DB	02H
	DB	00H
	DB	00H
	DB	0fdH
	DB	05aH
	DB	07eH
	DB	00H
	DB	00H
	DB	080H
	DB	0f4H
	DB	0ffH
	DB	07H
	DB	040H
	DB	00H
	DB	020H
	DB	054H
	DB	015H
	DB	00H
	DB	0f4H
	DB	00H
	DB	01cH
	DB	00H
	DB	00H
	DB	00H
	DB	0e7H
	DB	01H
	DB	06eH
	DB	00H
	DB	00H
	DB	0e8H
	DB	0ffH
	DB	0feH
	DB	03eH
	DB	00H
	DB	040H
	DB	082H
	DB	09bH
	DB	0bH
	DB	04H
	DB	00H
	DB	00H
	DB	00H
	DB	00H
	DB	00H
	DB	0e0H
	DB	01H
	DB	00H
	DB	00H
	DB	00H
	DB	00H
	DB	00H
	DB	00H
	DB	024H
	DB	00H
	DB	00H
	DB	00H
	DB	00H
	DB	00H
	DB	00H
	DB	00H
	DB	00H
	DB	00H
	DB	00H
	DB	00H
	DB	00H
	DB	00H
	DB	00H
	DB	05H
	DB	00H
	DB	00H
	DB	00H
	DB	00H
	DB	00H
	DB	00H
	DB	0f0H
	DB	06fH
	DB	01H
	DB	00H
	DB	00H
	DB	00H
	DB	00H
	DB	00H
	DB	044H
	DB	0feH
	DB	07fH
	DB	00H
	DB	044H
	DB	00H
	DB	00H
	DB	00H
	DB	0e0H
	DB	0abH
	DB	0aH
	DB	046H
	DB	0a1H
	DB	010H
	DB	00H
	DB	0f4H
	DB	01bH
	DB	0e0H
	DB	0feH
	DB	0ffH
	DB	0baH
	DB	05H
	DB	080H
	DB	06fH
	DB	00H
	DB	0e4H
	DB	0ebH
	DB	0f6H
	DB	074H
	DB	00H
	DB	074H
	DB	00H
	DB	00H
	DB	00H
	DB	00H
	DB	00H
	DB	020H
	DB	00H
	DB	0fdH
	DB	02H
	DB	00H
	DB	00H
	DB	00H
	DB	00H
	DB	08H
	DB	00H
	DB	0d5H
	DB	00H
	DB	00H
	DB	00H
	DB	00H
	DB	00H
	DB	0aH
	DB	00H
	DB	02dH
	DB	00H
	DB	00H
	DB	00H
	DB	00H
	DB	040H
	DB	0afH
	DB	0feH
	DB	01H
	DB	00H
	DB	00H
	DB	00H
	DB	00H
	DB	040H
	DB	0feH
	DB	0aH
	DB	00H
	DB	00H
	DB	00H
	DB	00H
	DB	00H
	DB	00H
	DB	00H
	DB	00H
	DB	00H
	DB	00H
	DB	00H
	DB	00H
	DB	00H
	DB	00H
	DB	010H
	DB	00H
	DB	00H
	DB	00H
	DB	00H
	DB	00H
	DB	00H
	DB	080H
	DB	02eH
	DB	00H
	DB	00H
	DB	00H
	DB	00H
	DB	00H
	DB	00H
	DB	0b4H
	DB	02H
	DB	00H
	DB	00H
	DB	00H
	DB	00H
	DB	00H
	DB	00H
	DB	00H
	DB	00H
	DB	00H
	DB	00H
	DB	00H
	DB	04H
	DB	00H
	DB	00H
	DB	00H
	DB	00H
	DB	00H
	DB	07dH
	DB	00H
	DB	00H
	DB	00H
	DB	00H
	DB	040H
	DB	0feH
	DB	02H
	DB	02H
	DB	00H
	DB	00H
	DB	00H
	DB	0beH
	DB	01H
	DB	030H
	DB	00H
	DB	00H
	DB	00H
	DB	07dH
	DB	00H
	DB	00H
	DB	03H
	DB	00H
	DB	00H
	DB	074H
	DB	00H
	DB	00H
	DB	070H
	DB	00H
	DB	00H
	DB	040H
	DB	01H
	DB	00H
	DB	00H
	DB	06H
	DB	00H
	DB	00H
	DB	0b4H
	DB	00H
	DB	00H
	DB	060H
	DB	00H
	DB	00H
	DB	04H
	DB	02dH
	DB	00H
	DB	00H
	DB	06H
	DB	00H
	DB	090H
	DB	00H
	DB	06H
	DB	00H
	DB	090H
	DB	00H
	DB	0b8H
	DB	0bH
	DB	080H
	DB	00H
	DB	00H
	DB	09H
	DB	080H
	DB	09fH
	DB	00H
	DB	08H
	DB	00H
	DB	090H
	DB	00H
	DB	034H
	DB	0b8H
	DB	0baH
	DB	00H
	DB	00H
	DB	05H
	DB	00H
	DB	042H
	DB	0ffH
	DB	02H
	DB	00H
	DB	040H
	DB	00H
	DB	018H
	DB	00H
	DB	00H
	DB	00H
	DB	00H
	DB	00H
	DB	0e0H
	DB	00H
	DB	00H
	DB	00H
	DB	00H
	DB	00H
	DB	0e5H
	DB	03H
	DB	06H
	DB	00H
	DB	00H
	DB	00H
	DB	040H
	DB	0aH
	DB	0b4H
	DB	00H
	DB	00H
	DB	00H
	DB	00H
	DB	00H
	DB	00H
	DB	01H
	DB	00H
	DB	00H
	DB	00H
	DB	00H
	DB	00H
	DB	00H
	DB	00H
	DB	080H
	DB	06H
	DB	00H
	DB	00H
	DB	00H
	DB	0c0H
	DB	0fH
	DB	00H
	DB	00H
	DB	00H
	DB	0d0H
	DB	0bH
	DB	00H
	DB	08H
	DB	040H
	DB	0aeH
	DB	01H
	DB	00H
	DB	0cH
	DB	0f0H
	DB	02H
	DB	00H
	DB	00H
	DB	0cH
	DB	0f4H
	DB	06fH
	DB	00H
	DB	00H
	DB	018H
	DB	040H
	DB	0fdH
	DB	0afH
	DB	00H
	DB	018H
	DB	090H
	DB	0afH
	DB	07eH
	DB	00H
	DB	028H
	DB	0f4H
	DB	01H
	DB	00H
	DB	02H
	DB	03dH
	DB	0acH
	DB	03H
	DB	00H
	DB	0feH
	DB	0f7H
	DB	0faH
	DB	03H
	DB	00H
	DB	0beH
	DB	0d1H
	DB	041H
	DB	01H
	DB	00H
	DB	00H
	DB	00H
	DB	00H
	DB	00H
	DB	01H
	DB	00H
	DB	00H
	DB	00H
	DB	00H
	DB	00H
	DB	00H
	DB	020H
	DB	00H
	DB	00H
	DB	00H
	DB	00H
	DB	00H
	DB	00H
	DB	00H
	DB	02H
	DB	00H
	DB	00H
	DB	00H
	DB	00H
	DB	00H
	DB	00H
	DB	030H
	DB	00H
	DB	00H
	DB	00H
	DB	00H
	DB	00H
	DB	00H
	DB	00H
	DB	03H
	DB	00H
	DB	00H
	DB	00H
	DB	00H
	DB	00H
	DB	00H
	DB	030H
	DB	00H
	DB	00H
	DB	00H
	DB	00H
	DB	00H
	DB	00H
	DB	00H
	DB	03H
	DB	00H
	DB	00H
	DB	00H
	DB	00H
	DB	00H
	DB	04H
	DB	030H
	DB	00H
	DB	00H
	DB	014H
	DB	00H
	DB	00H
	DB	0f4H
	DB	0bH
	DB	03H
	DB	00H
	DB	0f4H
	DB	0bH
	DB	04H
	DB	0c0H
	DB	0ffH
	DB	060H
	DB	010H
	DB	0d0H
	DB	0feH
	DB	0e0H
	DB	07H
	DB	0e0H
	DB	07H
	DB	04bH
	DB	047H
	DB	06H
	DB	0caH
	DB	0ffH
	DB	0fbH
	DB	0f7H
	DB	0dfH
	DB	0ffH
	DB	05fH
	DB	03aH
	DB	0caH
	DB	0ebH
	DB	0bH
	DB	0f8H
	DB	074H
	DB	0f8H
	DB	06fH
	DB	020H
	DB	078H
	DB	00H
	DB	00H
	DB	00H
	DB	040H
	DB	01H
	DB	00H
	DB	042H
	DB	02H
	DB	00H
	DB	00H
	DB	00H
	DB	04H
	DB	00H
	DB	020H
	DB	00H
	DB	00H
	DB	00H
	DB	00H
	DB	00H
	DB	00H
	DB	00H
	DB	06H
	DB	00H
	DB	00H
	DB	00H
	DB	00H
	DB	00H
	DB	00H
	DB	060H
	DB	00H
	DB	00H
	DB	00H
	DB	00H
	DB	00H
	DB	00H
	DB	00H
	DB	05H
	DB	00H
	DB	00H
	DB	00H
	DB	00H
	DB	00H
	DB	00H
	DB	090H
	DB	00H
	DB	00H
	DB	00H
	DB	00H
	DB	00H
	DB	00H
	DB	00H
	DB	08H
	DB	00H
	DB	00H
	DB	00H
	DB	00H
	DB	00H
	DB	00H
	DB	080H
	DB	00H
	DB	00H
	DB	00H
	DB	00H
	DB	00H
	DB	00H
	DB	00H
	DB	08H
	DB	00H
	DB	00H
	DB	00H
	DB	00H
	DB	00H
	DB	00H
	DB	00H
	DB	02H
	DB	07H
	DB	06H
	DB	06H
	DB	0aH
	DB	09H
	DB	09H
	DB	09H
	DB	08H
	DB	08H
	DB	08H
	DB	04H
	DB	014H
	DB	02dH
	DB	06H
	DB	0beH
	DB	06H
	DB	04H
	DB	024H
	DB	0c0H
	DB	00H
	DB	03H
	DB	08H
	DB	020H
	DB	080H
	DB	00H
	DB	06H
	DB	018H
	DB	050H
	DB	040H
	DB	02H
	DB	06dH
	DB	0e0H
	DB	01H
	DB	080H
	DB	043H
	DB	05H
	DB	06aH
	DB	0b4H
	DB	011H
	DB	00H
	DB	072H
	DB	066H
	DB	09aH
	DB	099H
	DB	088H
	DB	048H
	DB	04H
	DB	024H
	DB	0c0H
	DB	00H
	DB	03H
	DB	08H
	DB	020H
	DB	080H
	DB	00H
	DB	06H
	DB	018H
	DB	050H
	DB	040H
	DB	02H
	DB	06dH
	DB	0e0H
	DB	01H
	DB	00H
	DB	00H
	DB	00H
	DB	08H
	DB	01H
	DB	00H
	DB	00H
	DB	027H
	DB	00H
	DB	00H
	DB	080H
	DB	01aH
	DB	00H
	DB	00H
	DB	050H
	DB	02eH
	DB	00H
	DB	090H
	DB	01fH
	DB	0ffH
	DB	0eaH
	DB	0ffH
	DB	01H
	DB	0f9H
	DB	0bfH
	DB	06H
	DB	00H
	DB	00H
	DB	00H
	DB	00H
	DB	00H
	DB	00H
	DB	00H
	DB	00H
	DB	00H
	DB	050H
	DB	00H
	DB	00H
	DB	00H
	DB	02dH
	DB	00H
	DB	00H
	DB	00H
	DB	01H
	DB	00H
	DB	05H
	DB	00H
	DB	00H
	DB	00H
	DB	02H
	DB	00H
	DB	00H
	DB	08H
	DB	06H
	DB	00H
	DB	00H
	DB	02eH
	DB	06eH
	DB	00H
	DB	0e5H
	DB	07bH
	DB	0fcH
	DB	0ffH
	DB	0bfH
	DB	00H
	DB	090H
	DB	0aaH
	DB	05H
	DB	00H
	DB	00H
	DB	00H
	DB	00H
	DB	00H
	DB	00H
	DB	050H
	DB	00H
	DB	00H
	DB	00H
	DB	0b0H
	DB	00H
	DB	00H
	DB	00H
	DB	040H
	DB	00H
	DB	00H
	DB	020H
	DB	070H
	DB	060H
	DB	039H
	DB	01dH
	DB	00H
	DB	00H
	DB	070H
	DB	074H
	DB	080H
	DB	091H
	DB	07fH
	DB	02dH
	DB	0aH
	DB	00H
	DB	00H
	DB	00H
	DB	019H
	DB	0e0H
	DB	00H
	DB	040H
	DB	0f4H
	DB	0e3H
	DB	05H
	DB	00H
	DB	00H
	DB	040H
	DB	040H
	DB	07H
	DB	07fH
	DB	0d6H
	DB	019H
	DB	0e6H
	DB	04fH
	DB	01fH
	DB	040H
	DB	00H
	DB	07bH
	DB	0d0H
	DB	09H
	DB	00H
	DB	00H
	DB	00H
	DB	02H
	DB	080H
	DB	00H
	DB	078H
	DB	080H
	DB	019H
	DB	0a8H
	DB	06H
	DB	0beH
	DB	02H
	DB	0c0H
	DB	03H
	DB	090H
	DB	00H
	DB	0a4H
	DB	07H
	DB	00H
	DB	00H
	DB	0aeH
	DB	00H
	DB	00H
	DB	00H
	DB	01H
	DB	080H
	DB	010H
	DB	00H
	DB	00H
	DB	070H
	DB	02H
	DB	00H
	DB	00H
	DB	0a8H
	DB	01H
	DB	00H
	DB	00H
	DB	0e5H
	DB	02H
	DB	00H
	DB	0f9H
	DB	0f1H
	DB	0afH
	DB	0feH
	DB	01fH
	DB	090H
	DB	0ffH
	DB	06bH
	DB	00H
	DB	00H
	DB	0a0H
	DB	03H
	DB	00H
	DB	00H
	DB	0b8H
	DB	03H
	DB	00H
	DB	00H
	DB	010H
	DB	00H
	DB	00H
	DB	00H
	DB	00H
	DB	00H
	DB	00H
	DB	00H
	DB	00H
	DB	00H
	DB	00H
	DB	05H
	DB	00H
	DB	00H
	DB	00H
	DB	02H
	DB	00H
	DB	00H
	DB	08H
	DB	06H
	DB	00H
	DB	00H
	DB	02eH
	DB	06eH
	DB	00H
	DB	0e5H
	DB	07bH
	DB	0fcH
	DB	0ffH
	DB	0bfH
	DB	00H
	DB	090H
	DB	0aaH
	DB	05H
	DB	00H
	DB	040H
	DB	0b4H
	DB	0d7H
	DB	09H
	DB	00H
	DB	020H
	DB	0c0H
	DB	01H
	DB	046H
	DB	0eH
	DB	01dH
	DB	00H
	DB	094H
	DB	0c2H
	DB	02bH
	DB	014H
	DB	00H
	DB	00H
	DB	00H
	DB	00H
	DB	018H
	DB	0f9H
	DB	0d7H
	DB	0a2H
	DB	0f8H
	DB	0aaH
	DB	01aH
	DB	0a8H
	DB	0ffH
	DB	0bH
	DB	040H
	DB	01bH
	DB	00H
	DB	0a0H
	DB	00H
	DB	00H
	DB	014H
	DB	00H
	DB	00H
	DB	08H
	DB	00H
	DB	00H
	DB	01H
	DB	00H
	DB	00H
	DB	02H
	DB	00H
	DB	00H
	DB	03H
	DB	00H
	DB	00H
	DB	06H
	DB	00H
	DB	00H
	DB	01eH
	DB	00H
	DB	00H
	DB	0bcH
	DB	01H
	DB	00H
	DB	0e0H
	DB	0ffH
	DB	0bfH
	DB	00H
	DB	0a9H
	DB	06H
	DB	0f8H
	DB	0aaH
	DB	01aH
	DB	0b4H
	DB	0feH
	DB	02fH
	DB	00H
	DB	0b4H
	DB	0aH
	DB	00H
	DB	028H
	DB	0f0H
	DB	0aH
	DB	024H
	DB	040H
	DB	02eH
	DB	020H
	DB	00H
	DB	00H
	DB	050H
	DB	00H
	DB	00H
	DB	080H
	DB	00H
	DB	00H
	DB	00H
	DB	02H
	DB	00H
	DB	00H
	DB	018H
	DB	00H
	DB	00H
	DB	0a0H
	DB	00H
	DB	00H
	DB	040H
	DB	0bH
	DB	00H
	DB	00H
	DB	0f8H
	DB	0aaH
	DB	0aaH
	DB	041H
	DB	0feH
	DB	07fH
	DB	00H
	DB	050H
	DB	01H
	DB	00H
	DB	0f8H
	DB	06fH
	DB	01H
	DB	04H
	DB	0f9H
	DB	07fH
	DB	040H
	DB	0beH
	DB	02aH
	DB	0f8H
	DB	06H
	DB	00H
	DB	06dH
	DB	00H
	DB	00H
	DB	050H
	DB	01H
	DB	00H
	DB	0d0H
	DB	0bfH
	DB	01H
	DB	040H
	DB	0d4H
	DB	0ffH
	DB	0bH
	DB	090H
	DB	0afH
	DB	01bH
	DB	0f9H
	DB	02H
	DB	0acH
	DB	0b5H
	DB	00H
	DB	0e0H
	DB	07H
	DB	00H
	DB	0eH
	DB	00H
	DB	00H
	DB	09H
	DB	00H
	DB	00H
	DB	00H
	DB	00H
	DB	00H
	DB	00H
	DB	00H
	DB	0f8H
	DB	0aaH
	DB	01aH
	DB	0a8H
	DB	0ffH
	DB	0bH
	DB	040H
	DB	01bH
	DB	00H
	DB	0a0H
	DB	00H
	DB	00H
	DB	014H
	DB	00H
	DB	00H
	DB	08H
	DB	00H
	DB	00H
	DB	01H
	DB	00H
	DB	00H
	DB	02H
	DB	00H
	DB	00H
	DB	03H
	DB	00H
	DB	00H
	DB	06H
	DB	00H
	DB	00H
	DB	01eH
	DB	00H
	DB	00H
	DB	0bcH
	DB	01H
	DB	00H
	DB	0e0H
	DB	0ffH
	DB	0bfH
	DB	00H
	DB	0a9H
	DB	06H
	DB	00H
	DB	0eH
	DB	00H
	DB	00H
	DB	024H
	DB	00H
	DB	00H
	DB	00H
	DB	00H
	DB	00H
	DB	00H
	DB	00H
	DB	00H
	DB	0f8H
	DB	0aaH
	DB	01aH
	DB	0b4H
	DB	0feH
	DB	02fH
	DB	00H
	DB	0b4H
	DB	0aH
	DB	00H
	DB	028H
	DB	0f0H
	DB	0aH
	DB	024H
	DB	040H
	DB	02eH
	DB	020H
	DB	00H
	DB	00H
	DB	050H
	DB	00H
	DB	00H
	DB	080H
	DB	00H
	DB	00H
	DB	00H
	DB	02H
	DB	00H
	DB	00H
	DB	018H
	DB	00H
	DB	00H
	DB	0a0H
	DB	00H
	DB	00H
	DB	040H
	DB	0bH
	DB	00H
	DB	00H
	DB	0f8H
	DB	0aaH
	DB	0aaH
	DB	041H
	DB	0feH
	DB	07fH
	DB	00H
	DB	00H
	DB	074H
	DB	00H
	DB	00H
	DB	024H
	DB	00H
	DB	00H
	DB	00H
	DB	00H
	DB	050H
	DB	01H
	DB	00H
	DB	0f8H
	DB	06fH
	DB	01H
	DB	04H
	DB	0f9H
	DB	07fH
	DB	040H
	DB	0beH
	DB	02aH
	DB	0f8H
	DB	06H
	DB	00H
	DB	06dH
	DB	00H
	DB	00H
	DB	00H
	DB	010H
	DB	00H
	DB	00H
	DB	0c0H
	DB	02H
	DB	00H
	DB	00H
	DB	06H
	DB	00H
	DB	00H
	DB	00H
	DB	00H
	DB	050H
	DB	01H
	DB	00H
	DB	0d0H
	DB	0bfH
	DB	01H
	DB	040H
	DB	0d4H
	DB	0ffH
	DB	0bH
	DB	090H
	DB	0afH
	DB	01bH
	DB	0f9H
	DB	02H
	DB	0acH
	DB	0b5H
	DB	00H
	DB	0e0H
	DB	07H
	DB	0a0H
	DB	00H
	DB	02eH
	DB	00H
	DB	06H
	DB	080H
	DB	00H
	DB	099H
	DB	0beH
	DB	0bdH
	DB	01H
	DB	00H
	DB	04H
	DB	00H
	DB	0cH
	DB	00H
	DB	0cH
	DB	00H
	DB	0cH
	DB	00H
	DB	018H
	DB	00H
	DB	018H
	DB	01H
	DB	028H
	DB	0aaH
	DB	077H
	DB	0beH
	DB	091H
	DB	00H
	DB	08H
	DB	00H
	DB	0bH
	DB	080H
	DB	03H
	DB	0c0H
	DB	00H
	DB	020H
	DB	00H
	DB	09H
	DB	0d0H
	DB	041H
	DB	02eH
	DB	0f9H
	DB	01H
	DB	00H
	DB	04H
	DB	00H
	DB	078H
	DB	00H
	DB	0b8H
	DB	00H
	DB	010H
	DB	00H
	DB	018H
	DB	00H
	DB	09H
	DB	090H
	DB	07H
	DB	0feH
	DB	01H
	DB	00H
	DB	00H
	DB	00H
	DB	080H
	DB	00H
	DB	00H
	DB	00H
	DB	095H
	DB	00H
	DB	00H
	DB	08H
	DB	0beH
	DB	00H
	DB	00H
	DB	0fcH
	DB	07fH
	DB	04H
	DB	00H
	DB	0b8H
	DB	00H
	DB	01H
	DB	00H
	DB	018H
	DB	00H
	DB	02H
	DB	00H
	DB	08H
	DB	00H
	DB	02H
	DB	00H
	DB	0dH
	DB	00H
	DB	01eH
	DB	090H
	DB	07H
	DB	00H
	DB	0fdH
	DB	0ffH
	DB	01H
	DB	00H
	DB	0e4H
	DB	02bH
	DB	00H
	DB	00H
	DB	00H
	DB	00H
	DB	00H
	DB	00H
	DB	01H
	DB	00H
	DB	00H
	DB	01H
	DB	0d2H
	DB	00H
	DB	00H
	DB	0c0H
	DB	0e5H
	DB	0dbH
	DB	011H
	DB	00H
	DB	0f0H
	DB	0ebH
	DB	0a1H
	DB	01H
	DB	00H
	DB	018H
	DB	00H
	DB	080H
	DB	00H
	DB	00H
	DB	01H
	DB	00H
	DB	020H
	DB	00H
	DB	080H
	DB	00H
	DB	00H
	DB	078H
	DB	00H
	DB	01dH
	DB	00H
	DB	00H
	DB	0fdH
	DB	0feH
	DB	01H
	DB	00H
	DB	00H
	DB	0f9H
	DB	0bH
	DB	00H
	DB	00H
	DB	00H
	DB	00H
	DB	040H
	DB	08H
	DB	00H
	DB	088H
	DB	080H
	DB	0e0H
	DB	08bH
	DB	0feH
	DB	055H
	DB	09H
	DB	01H
	DB	00H
	DB	00H
	DB	010H
	DB	04H
	DB	080H
	DB	020H
	DB	0dH
	DB	0f9H
	DB	0bfH
	DB	07aH
	DB	0edH
	DB	0e7H
	DB	061H
	DB	00H
	DB	00H
	DB	00H
	DB	00H
	DB	02eH
	DB	00H
	DB	00H
	DB	00H
	DB	0d0H
	DB	0baH
	DB	00H
	DB	00H
	DB	08H
	DB	018H
	DB	064H
	DB	04H
	DB	00H
	DB	0adH
	DB	0aaH
	DB	02fH
	DB	04H
	DB	00H
	DB	0fcH
	DB	0ffH
	DB	07H
	DB	05H
	DB	00H
	DB	058H
	DB	015H
	DB	00H
	DB	06H
	DB	00H
	DB	08H
	DB	00H
	DB	00H
	DB	07H
	DB	00H
	DB	08H
	DB	00H
	DB	00H
	DB	01eH
	DB	090H
	DB	07H
	DB	00H
	DB	00H
	DB	0fdH
	DB	0ffH
	DB	02H
	DB	00H
	DB	00H
	DB	0e4H
	DB	06fH
	DB	00H
	DB	00H
	DB	00H
	DB	00H
	DB	00H
	DB	00H
	DB	00H
	DB	02eH
	DB	00H
	DB	00H
	DB	00H
	DB	040H
	DB	0ffH
	DB	01H
	DB	00H
	DB	040H
	DB	040H
	DB	096H
	DB	07H
	DB	00H
	DB	040H
	DB	047H
	DB	042H
	DB	0eH
	DB	04H
	DB	00H
	DB	0fdH
	DB	0ffH
	DB	06fH
	DB	04H
	DB	00H
	DB	0b0H
	DB	0feH
	DB	0f6H
	DB	017H
	DB	00H
	DB	080H
	DB	00H
	DB	00H
	DB	095H
	DB	00H
	DB	00H
	DB	02H
	DB	00H
	DB	00H
	DB	0aH
	DB	040H
	DB	06H
	DB	00H
	DB	00H
	DB	0f4H
	DB	0eaH
	DB	0bH
	DB	00H
	DB	00H
	DB	080H
	DB	0ffH
	DB	06H
	DB	00H
	DB	00H
	DB	00H
	DB	050H
	DB	00H
	DB	00H
	DB	00H
	DB	00H
	DB	00H
	DB	00H
	DB	014H
	DB	00H
	DB	00H
	DB	0f8H
	DB	03H
	DB	00H
	DB	0bcH
	DB	01fH
	DB	03cH
	DB	018H
	DB	030H
	DB	0edH
	DB	0afH
	DB	07aH
	DB	024H
	DB	0fdH
	DB	06fH
	DB	00H
	DB	020H
	DB	00H
	DB	00H
	DB	040H
	DB	00H
	DB	00H
	DB	00H
	DB	00H
	DB	050H
	DB	00H
	DB	00H
	DB	040H
	DB	0bfH
	DB	00H
	DB	00H
	DB	0b4H
	DB	03eH
	DB	00H
	DB	040H
	DB	02H
	DB	0aH
	DB	0e0H
	DB	025H
	DB	0f9H
	DB	041H
	DB	0ebH
	DB	0ffH
	DB	0fbH
	DB	047H
	DB	060H
	DB	01aH
	DB	090H
	DB	00H
	DB	08H
	DB	00H
	DB	00H
	DB	0e0H
	DB	02H
	DB	00H
	DB	028H
	DB	00H
	DB	00H
	DB	05H
	DB	050H
	DB	00H
	DB	01dH
	DB	039H
	DB	00H
	DB	0f8H
	DB	07H
	DB	00H
	DB	0a0H
	DB	00H
	DB	00H
	DB	024H
	DB	00H
	DB	00H
	DB	08H
	DB	00H
	DB	00H
	DB	05H
	DB	00H
	DB	00H
	DB	01H
	DB	00H
	DB	00H
	DB	01H
	DB	00H
	DB	00H
	DB	02H
	DB	00H
	DB	00H
	DB	02H
	DB	00H
	DB	00H
	DB	0aH
	DB	00H
	DB	00H
	DB	0bdH
	DB	01H
	DB	050H
	DB	0f4H
	DB	0ffH
	DB	06fH
	DB	040H
	DB	0aaH
	DB	06H
	DB	080H
	DB	02fH
	DB	00H
	DB	0e0H
	DB	07fH
	DB	00H
	DB	080H
	DB	01fH
	DB	00H
	DB	0d0H
	DB	0bdH
	DB	01H
	DB	024H
	DB	0e0H
	DB	01H
	DB	08H
	DB	00H
	DB	00H
	DB	05H
	DB	00H
	DB	00H
	DB	02H
	DB	00H
	DB	00H
	DB	02H
	DB	00H
	DB	00H
	DB	02H
	DB	00H
	DB	00H
	DB	02H
	DB	00H
	DB	00H
	DB	0aH
	DB	00H
	DB	00H
	DB	06cH
	DB	00H
	DB	00H
	DB	0f4H
	DB	0abH
	DB	0aaH
	DB	040H
	DB	0faH
	DB	01bH
	DB	080H
	DB	01fH
	DB	080H
	DB	056H
	DB	00H
	DB	02H
	DB	014H
	DB	06dH
	DB	079H
	DB	0f0H
	DB	06fH
	DB	0e4H
	DB	07H
	DB	090H
	DB	01H
	DB	00H
	DB	00H
	DB	01H
	DB	0e0H
	DB	0bH
	DB	0f4H
	DB	02fH
	DB	0d0H
	DB	0bH
	DB	0b9H
	DB	0adH
	DB	01dH
	DB	0e4H
	DB	024H
	DB	00H
	DB	00H
	DB	078H
	DB	00H
	DB	00H
	DB	010H
	DB	00H
	DB	00H
	DB	00H
	DB	00H
	DB	00H
	DB	0e0H
	DB	02H
	DB	00H
	DB	028H
	DB	00H
	DB	00H
	DB	05H
	DB	050H
	DB	00H
	DB	01dH
	DB	039H
	DB	00H
	DB	0f8H
	DB	07H
	DB	00H
	DB	0a0H
	DB	00H
	DB	00H
	DB	024H
	DB	00H
	DB	00H
	DB	08H
	DB	00H
	DB	00H
	DB	05H
	DB	00H
	DB	00H
	DB	01H
	DB	00H
	DB	00H
	DB	01H
	DB	00H
	DB	00H
	DB	02H
	DB	00H
	DB	00H
	DB	02H
	DB	00H
	DB	00H
	DB	0aH
	DB	00H
	DB	00H
	DB	0bdH
	DB	01H
	DB	050H
	DB	0f4H
	DB	0ffH
	DB	06fH
	DB	040H
	DB	0aaH
	DB	06H
	DB	00H
	DB	01H
	DB	00H
	DB	080H
	DB	07H
	DB	00H
	DB	040H
	DB	02H
	DB	00H
	DB	00H
	DB	00H
	DB	00H
	DB	00H
	DB	00H
	DB	00H
	DB	080H
	DB	02fH
	DB	00H
	DB	0e0H
	DB	07fH
	DB	00H
	DB	080H
	DB	01fH
	DB	00H
	DB	0d0H
	DB	0bdH
	DB	01H
	DB	024H
	DB	0e0H
	DB	01H
	DB	08H
	DB	00H
	DB	00H
	DB	05H
	DB	00H
	DB	00H
	DB	02H
	DB	00H
	DB	00H
	DB	02H
	DB	00H
	DB	00H
	DB	02H
	DB	00H
	DB	00H
	DB	02H
	DB	00H
	DB	00H
	DB	0aH
	DB	00H
	DB	00H
	DB	06cH
	DB	00H
	DB	00H
	DB	0f4H
	DB	0abH
	DB	0aaH
	DB	040H
	DB	0faH
	DB	01bH
	DB	080H
	DB	01H
	DB	040H
	DB	0bH
	DB	00H
	DB	04H
	DB	00H
	DB	00H
	DB	00H
	DB	080H
	DB	01fH
	DB	080H
	DB	056H
	DB	00H
	DB	02H
	DB	014H
	DB	06dH
	DB	079H
	DB	0f0H
	DB	06fH
	DB	0e4H
	DB	07H
	DB	090H
	DB	01H
	DB	00H
	DB	090H
	DB	00H
	DB	0e0H
	DB	00H
	DB	00H
	DB	00H
	DB	00H
	DB	00H
	DB	00H
	DB	01H
	DB	0e0H
	DB	0bH
	DB	0f4H
	DB	02fH
	DB	0d0H
	DB	0bH
	DB	0b9H
	DB	0adH
	DB	01dH
	DB	0e4H
	DB	00H
	DB	060H
	DB	07H
	DB	00H
	DB	0edH
	DB	00H
	DB	00H
	DB	01H
	DB	00H
	DB	00H
	DB	00H
	DB	00H
	DB	080H
	DB	02H
	DB	00H
	DB	0f4H
	DB	041H
	DB	00H
	DB	0faH
	DB	010H
	DB	0c0H
	DB	03fH
	DB	01H
	DB	090H
	DB	095H
	DB	00H
	DB	00H
	DB	061H
	DB	00H
	DB	0d0H
	DB	078H
	DB	040H
	DB	01eH
	DB	0fdH
	DB	0ffH
	DB	01H
	DB	0f9H
	DB	0bH
	DB	00H
	DB	00H
	DB	060H
	DB	07H
	DB	00H
	DB	0eeH
	DB	00H
	DB	00H
	DB	01H
	DB	00H
	DB	00H
	DB	00H
	DB	00H
	DB	080H
	DB	01H
	DB	00H
	DB	0e4H
	DB	040H
	DB	00H
	DB	0beH
	DB	04H
	DB	040H
	DB	07fH
	DB	02H
	DB	00H
	DB	081H
	DB	00H
	DB	080H
	DB	0e0H
	DB	041H
	DB	01eH
	DB	0f4H
	DB	0ffH
	DB	01H
	DB	090H
	DB	06H
	DB	00H
	DB	0a4H
	DB	0f2H
	DB	0aH
	DB	01H
	DB	00H
	DB	0a0H
	DB	0d0H
	DB	08bH
	DB	03dH
	DB	0feH
	DB	050H
	DB	0e7H
	DB	0d7H
	DB	06H
	DB	080H
	DB	01dH
	DB	0d0H
	DB	01eH
	DB	040H
	DB	00H
	DB	00H
	DB	00H
	DB	00H
	DB	00H
	DB	00H
	DB	028H
	DB	00H
	DB	02eH
	DB	040H
	DB	025H
	DB	080H
	DB	020H
	DB	0c0H
	DB	01aH
	DB	0f8H
	DB	0afH
	DB	06dH
	DB	0f9H
	DB	00H
	DB	080H
	DB	01H
	DB	00H
	DB	028H
	DB	00H
	DB	040H
	DB	01H
	DB	00H
	DB	024H
	DB	080H
	DB	01H
	DB	03H
	DB	05H
	DB	030H
	DB	0e0H
	DB	02H
	DB	06H
	DB	029H
	DB	060H
	DB	0a8H
	DB	00H
	DB	09H
	DB	00H
	DB	090H
	DB	00H
	DB	00H
	DB	08H
	DB	00H
	DB	090H
	DB	0aaH
	DB	0faH
	DB	0e7H
	DB	0ffH
	DB	01bH
	DB	00H
	DB	00H
	DB	080H
	DB	00H
	DB	00H
	DB	00H
	DB	024H
	DB	00H
	DB	00H
	DB	01H
	DB	0dH
	DB	00H
	DB	090H
	DB	040H
	DB	03H
	DB	00H
	DB	01cH
	DB	0c0H
	DB	00H
	DB	00H
	DB	01eH
	DB	030H
	DB	00H
	DB	0a4H
	DB	02H
	DB	01cH
	DB	010H
	DB	010H
	DB	00H
	DB	07H
	DB	01H
	DB	00H
	DB	0c0H
	DB	081H
	DB	00H
	DB	00H
	DB	0b4H
	DB	0a0H
	DB	00H
	DB	090H
	DB	077H
	DB	0f4H
	DB	0eaH
	DB	07fH
	DB	078H
	DB	0e4H
	DB	0bfH
	DB	01H
	DB	0dH
	DB	00H
	DB	00H
	DB	0a4H
	DB	00H
	DB	080H
	DB	07fH
	DB	00H
	DB	0f9H
	DB	06H
	DB	080H
	DB	06fH
	DB	00H
	DB	0e0H
	DB	01H
	DB	00H
	DB	024H
	DB	00H
	DB	00H
	DB	064H
	DB	00H
	DB	00H
	DB	0e0H
	DB	01H
	DB	00H
	DB	040H
	DB	07H
	DB	00H
	DB	00H
	DB	09H
	DB	00H
	DB	00H
	DB	08H
	DB	00H
	DB	00H
	DB	0eH
	DB	00H
	DB	0fdH
	DB	07H
	DB	00H
	DB	0a9H
	DB	01H
	DB	00H
	DB	00H
	DB	00H
	DB	010H
	DB	00H
	DB	00H
	DB	03eH
	DB	00H
	DB	0e0H
	DB	01bH
	DB	00H
	DB	0bdH
	DB	01H
	DB	080H
	DB	01fH
	DB	00H
	DB	0e0H
	DB	02H
	DB	00H
	DB	074H
	DB	00H
	DB	00H
	DB	024H
	DB	00H
	DB	00H
	DB	0f4H
	DB	01H
	DB	00H
	DB	080H
	DB	0bH
	DB	00H
	DB	00H
	DB	07dH
	DB	00H
	DB	00H
	DB	0d8H
	DB	01H
	DB	00H
	DB	048H
	DB	0bH
	DB	0a9H
	DB	0bH
	DB	0bdH
	DB	0bdH
	DB	01H
	DB	0e0H
	DB	00H
	DB	080H
	DB	00H
	DB	00H
	DB	07H
	DB	00H
	DB	0cH
	DB	00H
	DB	030H
	DB	00H
	DB	080H
	DB	01H
	DB	00H
	DB	06H
	DB	00H
	DB	018H
	DB	00H
	DB	090H
	DB	04H
	DB	040H
	DB	016H
	DB	00H
	DB	029H
	DB	00H
	DB	0e0H
	DB	01H
	DB	090H
	DB	01eH
	DB	0d0H
	DB	0f5H
	DB	0ffH
	DB	042H
	DB	0aeH
	DB	00H
	DB	00H
	DB	040H
	DB	00H
	DB	00H
	DB	020H
	DB	00H
	DB	00H
	DB	08H
	DB	00H
	DB	00H
	DB	06H
	DB	00H
	DB	080H
	DB	01H
	DB	00H
	DB	060H
	DB	00H
	DB	00H
	DB	028H
	DB	00H
	DB	00H
	DB	09H
	DB	00H
	DB	040H
	DB	03H
	DB	00H
	DB	0d0H
	DB	02H
	DB	00H
	DB	0f4H
	DB	012H
	DB	00H
	DB	0e8H
	DB	04H
	DB	00H
	DB	042H
	DB	00H
	DB	080H
	DB	020H
	DB	00H
	DB	020H
	DB	01cH
	DB	00H
	DB	05H
	DB	01eH
	DB	0e0H
	DB	040H
	DB	0ffH
	DB	01fH
	DB	040H
	DB	06eH
	DB	00H
	DB	00H
	DB	08H
	DB	08aH
	DB	051H
	DB	024H
	DB	08H
	DB	0c3H
	DB	020H
	DB	08H
	DB	076H
	DB	09H
	DB	020H
	DB	080H
	DB	00H
	DB	03H
	DB	0cH
	DB	030H
	DB	0c0H
	DB	00H
	DB	03H
	DB	0cH
	DB	060H
	DB	0c0H
	DB	0d2H
	DB	06dH
	DB	093H
	DB	0a0H
	DB	041H
	DB	07fH
	DB	0d8H
	DB	0cfH
	DB	0bfH
	DB	05eH
	DB	025H
	DB	00H
	DB	02H
	DB	060H
	DB	00H
	DB	05H
	DB	090H
	DB	00H
	DB	08H
	DB	080H
	DB	00H
	DB	018H
	DB	040H
	DB	01H
	DB	014H
	DB	00H
	DB	040H
	DB	00H
	DB	080H
	DB	01fH
	DB	0c0H
	DB	0ffH
	DB	09bH
	DB	0f2H
	DB	0baH
	DB	082H
	DB	07H
	DB	08H
	DB	09H
	DB	020H
	DB	00H
	DB	080H
	DB	01H
	DB	00H
	DB	06H
	DB	00H
	DB	014H
	DB	00H
	DB	090H
	DB	00H
	DB	00H
	DB	02H
	DB	00H
	DB	08H
	DB	00H
	DB	020H
	DB	00H
	DB	00H
	DB	00H
	DB	05H
	DB	0d0H
	DB	07H
	DB	098H
	DB	082H
	DB	0bfH
	DB	029H
	DB	04eH
	DB	02H
	DB	00H
	DB	00H
	DB	01H
	DB	00H
	DB	0f4H
	DB	00H
	DB	0c0H
	DB	079H
	DB	080H
	DB	0feH
	DB	06fH
	DB	0dH
	DB	06eH
	DB	0bH
	DB	0c0H
	DB	02H
	DB	080H
	DB	01H
	DB	00H
	DB	010H
	DB	00H
	DB	060H
	DB	00H
	DB	0a0H
	DB	04H
	DB	0c0H
	DB	01H
	DB	080H
	DB	02H
	DB	040H
	DB	02H
	DB	080H
	DB	01aH
	DB	0a4H
	DB	0fdH
	DB	03fH
	DB	0e4H
	DB	06H
	DB	00H
	DB	05H
	DB	00H
	DB	0c0H
	DB	03H
	DB	00H
	DB	050H
	DB	00H
	DB	00H
	DB	00H
	DB	00H
	DB	00H
	DB	00H
	DB	01H
	DB	00H
	DB	0c0H
	DB	046H
	DB	00H
	DB	0e0H
	DB	015H
	DB	00H
	DB	018H
	DB	02H
	DB	00H
	DB	086H
	DB	01H
	DB	080H
	DB	0a0H
	DB	01H
	DB	019H
	DB	0f4H
	DB	0ffH
	DB	02H
	DB	0e4H
	DB	01bH
	DB	00H
	DB	070H
	DB	074H
	DB	00H
	DB	00H
	DB	020H
	DB	070H
	DB	060H
	DB	039H
	DB	01dH
	DB	090H
	DB	00H
	DB	0eH
	DB	040H
	DB	00H
	DB	00H
	DB	00H
	DB	00H
	DB	00H
	DB	080H
	DB	091H
	DB	07fH
	DB	02dH
	DB	0aH
	DB	00H
	DB	00H
	DB	078H
	DB	00H
	DB	00H
	DB	0bfH
	DB	00H
	DB	0c0H
	DB	02H
	DB	04H
	DB	050H
	DB	00H
	DB	04H
	DB	020H
	DB	00H
	DB	01H
	DB	070H
	DB	00H
	DB	02H
	DB	0e0H
	DB	02fH
	DB	07H
	DB	00H
	DB	074H
	DB	01eH
	DB	00H
	DB	02dH
	DB	0fdH
	DB	0faH
	DB	0bH
	DB	0e4H
	DB	06fH
	DB	00H
	DB	00H
	DB	00H
	DB	00H
	DB	00H
	DB	010H
	DB	00H
	DB	040H
	DB	07bH
	DB	00H
	DB	040H
	DB	027H
	DB	00H
	DB	04H
	DB	00H
	DB	049H
	DB	01H
	DB	0e0H
	DB	013H
	DB	00H
	DB	01dH
	DB	08H
	DB	040H
	DB	0bfH
	DB	02H
	DB	040H
	DB	0b5H
	DB	02H
	DB	040H
	DB	0dbH
	DB	0abH
	DB	07fH
	DB	090H
	DB	0bfH
	DB	02H
	DB	00H
	DB	00H
	DB	00H
	DB	00H
	DB	04H
	DB	00H
	DB	0a0H
	DB	0bH
	DB	00H
	DB	0adH
	DB	00H
	DB	020H
	DB	0c0H
	DB	01H
	DB	046H
	DB	0eH
	DB	01dH
	DB	00H
	DB	00H
	DB	00H
	DB	0a5H
	DB	0fcH
	DB	052H
	DB	00H
	DB	080H
	DB	091H
	DB	07fH
	DB	02dH
	DB	0aH
	DB	00H
	DB	050H
	DB	042H
	DB	07fH
	DB	020H
	DB	01H
	DB	06H
	DB	00H
	DB	0e6H
	DB	00H
	DB	0a0H
	DB	02eH
	DB	00H
	DB	082H
	DB	0bH
	DB	020H
	DB	0c0H
	DB	01H
	DB	02H
	DB	034H
	DB	020H
	DB	00H
	DB	0aH
	DB	02H
	DB	0c0H
	DB	021H
	DB	00H
	DB	064H
	DB	01H
	DB	00H
	DB	0eH
	DB	00H
	DB	0d0H
	DB	00H
	DB	040H
	DB	0aH
	DB	040H
	DB	0efH
	DB	00H
	DB	0f4H
	DB	0bH
	DB	00H
	DB	00H
	DB	00H
	DB	00H
	DB	00H
	DB	0d0H
	DB	02H
	DB	00H
	DB	016H
	DB	00H
	DB	0b0H
	DB	06H
	DB	00H
	DB	06eH
	DB	00H
	DB	010H
	DB	00H
	DB	00H
	DB	00H
	DB	00H
	DB	08H
	DB	060H
	DB	00H
	DB	070H
	DB	0c0H
	DB	0bH
	DB	0c0H
	DB	01H
	DB	0feH
	DB	01H
	DB	07H
	DB	0e0H
	DB	01fH
	DB	01cH
	DB	00H
	DB	0e1H
	DB	0a0H
	DB	00H
	DB	00H
	DB	05aH
	DB	02H
	DB	00H
	DB	0b0H
	DB	0cH
	DB	00H
	DB	040H
	DB	033H
	DB	00H
	DB	00H
	DB	089H
	DB	02H
	DB	00H
	DB	0dH
	DB	01dH
	DB	040H
	DB	01eH
	DB	0a0H
	DB	090H
	DB	0aH
	DB	00H
	DB	00H
	DB	00H
	DB	00H
	DB	0c0H
	DB	02H
	DB	00H
	DB	080H
	DB	05H
	DB	00H
	DB	00H
	DB	06bH
	DB	00H
	DB	00H
	DB	0b8H
	DB	01H
	DB	00H
	DB	010H
	DB	00H
	DB	00H
	DB	00H
	DB	06H
	DB	00H
	DB	0e6H
	DB	00H
	DB	0a0H
	DB	02eH
	DB	00H
	DB	082H
	DB	0bH
	DB	020H
	DB	0c0H
	DB	01H
	DB	02H
	DB	034H
	DB	020H
	DB	00H
	DB	0aH
	DB	02H
	DB	0c0H
	DB	021H
	DB	00H
	DB	064H
	DB	01H
	DB	00H
	DB	0eH
	DB	00H
	DB	0d0H
	DB	00H
	DB	040H
	DB	0aH
	DB	040H
	DB	0efH
	DB	00H
	DB	0f4H
	DB	0bH
	DB	00H
	DB	00H
	DB	02H
	DB	06H
	DB	00H
	DB	07H
	DB	02fH
	DB	00H
	DB	07H
	DB	0feH
	DB	01H
	DB	07H
	DB	0f8H
	DB	07H
	DB	07H
	DB	010H
	DB	0eH
	DB	0aH
	DB	00H
	DB	068H
	DB	09H
	DB	00H
	DB	0b0H
	DB	0cH
	DB	00H
	DB	0d0H
	DB	0cH
	DB	00H
	DB	090H
	DB	028H
	DB	00H
	DB	034H
	DB	074H
	DB	040H
	DB	01eH
	DB	0a0H
	DB	0a4H
	DB	02H
	DB	00H
CONST	ENDS
PUBLIC	__JustMyCode_Default
; Function compile flags: /Odt
;	COMDAT __JustMyCode_Default
_TEXT	SEGMENT
__JustMyCode_Default PROC				; COMDAT
	push	ebp
	mov	ebp, esp
	pop	ebp
	ret	0
__JustMyCode_Default ENDP
_TEXT	ENDS
END
