; Listing generated by Microsoft (R) Optimizing Compiler Version 19.30.30705.0 

	TITLE	D:\学习\毕业设计\方案1_GFX+底板\官方例程\DISPLAY\TouchGFX\build\Debug\obj\Font_verdana_14_4bpp_0.obj
	.686P
	.XMM
	include listing.inc
	.model	flat

INCLUDELIB MSVCRTD
INCLUDELIB OLDNAMES

PUBLIC	?unicodes_verdana_14_4bpp_0@@3QBEB		; unicodes_verdana_14_4bpp_0
msvcjmc	SEGMENT
__692521D7_concurrencysal@h DB 01H
__A324AF7F_sal@h DB 01H
__3FA7CF14_vadefs@h DB 01H
__4DFECF8D_vcruntime@h DB 01H
__6569C2CA_corecrt@h DB 01H
__C3DF3361_assert@h DB 01H
__47AAA172_stdint@h DB 01H
__BA83647B_Config@hpp DB 01H
__AA120D12_Types@hpp DB 01H
__13E82527_Font_verdana_14_4bpp_0@cpp DB 01H
msvcjmc	ENDS
CONST	SEGMENT
?unicodes_verdana_14_4bpp_0@@3QBEB DB 011H		; unicodes_verdana_14_4bpp_0
	DB	011H
	DB	00H
	DB	0feH
	DB	0ffH
	DB	05H
	DB	033H
	DB	033H
	DB	01H
	DB	00H
	DB	0d7H
	DB	0dfH
	DB	06H
	DB	050H
	DB	07fH
	DB	083H
	DB	04fH
	DB	0b0H
	DB	09H
	DB	00H
	DB	0abH
	DB	0e0H
	DB	06H
	DB	00H
	DB	0d7H
	DB	0f1H
	DB	05H
	DB	00H
	DB	0e6H
	DB	0f1H
	DB	05H
	DB	00H
	DB	0e7H
	DB	0e0H
	DB	06H
	DB	00H
	DB	0d8H
	DB	0b0H
	DB	09H
	DB	00H
	DB	0abH
	DB	050H
	DB	07fH
	DB	083H
	DB	04fH
	DB	00H
	DB	0d7H
	DB	0dfH
	DB	06H
	DB	0b5H
	DB	0eeH
	DB	05cH
	DB	00H
	DB	099H
	DB	045H
	DB	0f9H
	DB	04H
	DB	00H
	DB	00H
	DB	0d0H
	DB	08H
	DB	00H
	DB	00H
	DB	0e0H
	DB	06H
	DB	00H
	DB	00H
	DB	0e7H
	DB	01H
	DB	00H
	DB	050H
	DB	04eH
	DB	00H
	DB	00H
	DB	0e6H
	DB	04H
	DB	00H
	DB	090H
	DB	03dH
	DB	00H
	DB	00H
	DB	0ebH
	DB	034H
	DB	033H
	DB	03H
	DB	0feH
	DB	0ffH
	DB	0ffH
	DB	0fH
	DB	0d9H
	DB	0dfH
	DB	019H
	DB	069H
	DB	064H
	DB	09eH
	DB	00H
	DB	00H
	DB	0c9H
	DB	00H
	DB	00H
	DB	09cH
	DB	00H
	DB	0a1H
	DB	01dH
	DB	020H
	DB	09eH
	DB	01H
	DB	020H
	DB	01fH
	DB	00H
	DB	010H
	DB	05H
	DB	00H
	DB	020H
	DB	017H
	DB	00H
	DB	030H
	DB	03fH
	DB	00H
	DB	0f9H
	DB	0ffH
	DB	0ceH
	DB	04H
	DB	0c9H
	DB	033H
	DB	0b4H
	DB	0eH
	DB	0b9H
	DB	00H
	DB	040H
	DB	02fH
	DB	0b9H
	DB	00H
	DB	0a1H
	DB	0aH
	DB	0f9H
	DB	0ffH
	DB	0ffH
	DB	06H
	DB	0c9H
	DB	033H
	DB	063H
	DB	09eH
	DB	0b9H
	DB	00H
	DB	00H
	DB	0f7H
	DB	0b9H
	DB	00H
	DB	00H
	DB	0e7H
	DB	0c9H
	DB	033H
	DB	073H
	DB	08eH
	DB	0f9H
	DB	0ffH
	DB	0dfH
	DB	06H
	DB	00H
	DB	081H
	DB	0fdH
	DB	0beH
	DB	06H
	DB	020H
	DB	0ddH
	DB	036H
	DB	084H
	DB	04eH
	DB	0a0H
	DB	01dH
	DB	00H
	DB	00H
	DB	011H
	DB	0f1H
	DB	06H
	DB	00H
	DB	00H
	DB	00H
	DB	0f3H
	DB	03H
	DB	00H
	DB	00H
	DB	00H
	DB	0f3H
	DB	03H
	DB	00H
	DB	00H
	DB	00H
	DB	0f1H
	DB	06H
	DB	00H
	DB	00H
	DB	00H
	DB	0a0H
	DB	01eH
	DB	00H
	DB	00H
	DB	011H
	DB	020H
	DB	0deH
	DB	036H
	DB	084H
	DB	04eH
	DB	00H
	DB	092H
	DB	0fdH
	DB	0beH
	DB	06H
	DB	0f9H
	DB	0ffH
	DB	0beH
	DB	05H
	DB	00H
	DB	0c9H
	DB	033H
	DB	095H
	DB	09fH
	DB	00H
	DB	0b9H
	DB	00H
	DB	00H
	DB	0f4H
	DB	05H
	DB	0b9H
	DB	00H
	DB	00H
	DB	0b0H
	DB	0bH
	DB	0b9H
	DB	00H
	DB	00H
	DB	080H
	DB	0eH
	DB	0b9H
	DB	00H
	DB	00H
	DB	080H
	DB	0eH
	DB	0b9H
	DB	00H
	DB	00H
	DB	0a0H
	DB	0bH
	DB	0b9H
	DB	00H
	DB	00H
	DB	0f4H
	DB	05H
	DB	0c9H
	DB	033H
	DB	0a5H
	DB	08fH
	DB	00H
	DB	0f9H
	DB	0ffH
	DB	0aeH
	DB	04H
	DB	00H
	DB	0f9H
	DB	0ffH
	DB	0ffH
	DB	01fH
	DB	0c9H
	DB	033H
	DB	033H
	DB	03H
	DB	0b9H
	DB	00H
	DB	00H
	DB	00H
	DB	0b9H
	DB	00H
	DB	00H
	DB	00H
	DB	0f9H
	DB	0ffH
	DB	0ffH
	DB	01fH
	DB	0c9H
	DB	033H
	DB	033H
	DB	03H
	DB	0b9H
	DB	00H
	DB	00H
	DB	00H
	DB	0b9H
	DB	00H
	DB	00H
	DB	00H
	DB	0c9H
	DB	044H
	DB	044H
	DB	04H
	DB	0f9H
	DB	0ffH
	DB	0ffH
	DB	01fH
	DB	0f9H
	DB	0ffH
	DB	0ffH
	DB	0dH
	DB	0c9H
	DB	033H
	DB	033H
	DB	03H
	DB	0b9H
	DB	00H
	DB	00H
	DB	00H
	DB	0b9H
	DB	00H
	DB	00H
	DB	00H
	DB	0f9H
	DB	0ffH
	DB	0ffH
	DB	02H
	DB	0c9H
	DB	033H
	DB	033H
	DB	00H
	DB	0b9H
	DB	00H
	DB	00H
	DB	00H
	DB	0b9H
	DB	00H
	DB	00H
	DB	00H
	DB	0b9H
	DB	00H
	DB	00H
	DB	00H
	DB	0b9H
	DB	00H
	DB	00H
	DB	00H
	DB	0b9H
	DB	00H
	DB	00H
	DB	0f3H
	DB	02H
	DB	0b9H
	DB	00H
	DB	00H
	DB	0f3H
	DB	02H
	DB	0b9H
	DB	00H
	DB	00H
	DB	0f3H
	DB	02H
	DB	0b9H
	DB	00H
	DB	00H
	DB	0f3H
	DB	02H
	DB	0f9H
	DB	0ffH
	DB	0ffH
	DB	0ffH
	DB	02H
	DB	0c9H
	DB	033H
	DB	033H
	DB	0f5H
	DB	02H
	DB	0b9H
	DB	00H
	DB	00H
	DB	0f3H
	DB	02H
	DB	0b9H
	DB	00H
	DB	00H
	DB	0f3H
	DB	02H
	DB	0b9H
	DB	00H
	DB	00H
	DB	0f3H
	DB	02H
	DB	0b9H
	DB	00H
	DB	00H
	DB	0f3H
	DB	02H
	DB	0f1H
	DB	0ffH
	DB	0eH
	DB	010H
	DB	0abH
	DB	01H
	DB	00H
	DB	09bH
	DB	00H
	DB	00H
	DB	09bH
	DB	00H
	DB	00H
	DB	09bH
	DB	00H
	DB	00H
	DB	09bH
	DB	00H
	DB	00H
	DB	09bH
	DB	00H
	DB	00H
	DB	09bH
	DB	00H
	DB	010H
	DB	0abH
	DB	01H
	DB	0f1H
	DB	0ffH
	DB	0eH
	DB	060H
	DB	0ffH
	DB	01fH
	DB	010H
	DB	051H
	DB	01fH
	DB	00H
	DB	040H
	DB	01fH
	DB	00H
	DB	040H
	DB	01fH
	DB	00H
	DB	040H
	DB	01fH
	DB	00H
	DB	040H
	DB	01fH
	DB	00H
	DB	040H
	DB	01fH
	DB	00H
	DB	050H
	DB	01fH
	DB	034H
	DB	0c4H
	DB	0cH
	DB	0f9H
	DB	0beH
	DB	02H
	DB	0b9H
	DB	00H
	DB	00H
	DB	0cbH
	DB	01H
	DB	0b9H
	DB	00H
	DB	0b0H
	DB	01cH
	DB	00H
	DB	0b9H
	DB	00H
	DB	0daH
	DB	01H
	DB	00H
	DB	0b9H
	DB	090H
	DB	02dH
	DB	00H
	DB	00H
	DB	0b9H
	DB	0e8H
	DB	02H
	DB	00H
	DB	00H
	DB	0f9H
	DB	0fcH
	DB	08H
	DB	00H
	DB	00H
	DB	0d9H
	DB	061H
	DB	06fH
	DB	00H
	DB	00H
	DB	0b9H
	DB	00H
	DB	0f7H
	DB	05H
	DB	00H
	DB	0b9H
	DB	00H
	DB	080H
	DB	03fH
	DB	00H
	DB	0b9H
	DB	00H
	DB	00H
	DB	0eaH
	DB	02H
	DB	0f9H
	DB	07H
	DB	00H
	DB	0a0H
	DB	07fH
	DB	0e9H
	DB	01eH
	DB	00H
	DB	0e2H
	DB	07eH
	DB	099H
	DB	06dH
	DB	00H
	DB	08aH
	DB	07eH
	DB	099H
	DB	0d5H
	DB	020H
	DB	01eH
	DB	07eH
	DB	099H
	DB	0d0H
	DB	096H
	DB	09H
	DB	07eH
	DB	099H
	DB	060H
	DB	0edH
	DB	02H
	DB	07eH
	DB	099H
	DB	00H
	DB	09dH
	DB	00H
	DB	07eH
	DB	099H
	DB	00H
	DB	012H
	DB	00H
	DB	07eH
	DB	099H
	DB	00H
	DB	00H
	DB	00H
	DB	07eH
	DB	099H
	DB	00H
	DB	00H
	DB	00H
	DB	07eH
	DB	0f9H
	DB	0bH
	DB	00H
	DB	0f2H
	DB	02H
	DB	0c9H
	DB	04fH
	DB	00H
	DB	0f2H
	DB	02H
	DB	099H
	DB	0c9H
	DB	00H
	DB	0f2H
	DB	02H
	DB	099H
	DB	0e1H
	DB	05H
	DB	0f2H
	DB	02H
	DB	099H
	DB	080H
	DB	0dH
	DB	0f2H
	DB	02H
	DB	099H
	DB	010H
	DB	07eH
	DB	0f2H
	DB	02H
	DB	099H
	DB	00H
	DB	0e7H
	DB	0f3H
	DB	02H
	DB	099H
	DB	00H
	DB	0d0H
	DB	0faH
	DB	02H
	DB	099H
	DB	00H
	DB	050H
	DB	0ffH
	DB	02H
	DB	099H
	DB	00H
	DB	00H
	DB	0fcH
	DB	02H
	DB	00H
	DB	092H
	DB	0fdH
	DB	09dH
	DB	02H
	DB	00H
	DB	020H
	DB	0deH
	DB	036H
	DB	0d6H
	DB	02eH
	DB	00H
	DB	0b0H
	DB	01dH
	DB	00H
	DB	010H
	DB	0bdH
	DB	00H
	DB	0f1H
	DB	06H
	DB	00H
	DB	00H
	DB	0f6H
	DB	01H
	DB	0f3H
	DB	04H
	DB	00H
	DB	00H
	DB	0f4H
	DB	03H
	DB	0f3H
	DB	04H
	DB	00H
	DB	00H
	DB	0f4H
	DB	03H
	DB	0f1H
	DB	06H
	DB	00H
	DB	00H
	DB	0f6H
	DB	01H
	DB	0b0H
	DB	01dH
	DB	00H
	DB	010H
	DB	0bdH
	DB	00H
	DB	020H
	DB	0deH
	DB	036H
	DB	0d6H
	DB	02eH
	DB	00H
	DB	00H
	DB	092H
	DB	0fdH
	DB	09eH
	DB	02H
	DB	00H
	DB	0f9H
	DB	0ffH
	DB	08dH
	DB	00H
	DB	0c9H
	DB	033H
	DB	0e6H
	DB	09H
	DB	0b9H
	DB	00H
	DB	070H
	DB	0fH
	DB	0b9H
	DB	00H
	DB	070H
	DB	0eH
	DB	0b9H
	DB	00H
	DB	0e4H
	DB	08H
	DB	0f9H
	DB	0ffH
	DB	09fH
	DB	00H
	DB	0c9H
	DB	023H
	DB	00H
	DB	00H
	DB	0b9H
	DB	00H
	DB	00H
	DB	00H
	DB	0b9H
	DB	00H
	DB	00H
	DB	00H
	DB	0b9H
	DB	00H
	DB	00H
	DB	00H
	DB	0f9H
	DB	0ffH
	DB	09eH
	DB	01H
	DB	00H
	DB	0c9H
	DB	033H
	DB	0e6H
	DB	0bH
	DB	00H
	DB	0b9H
	DB	00H
	DB	070H
	DB	0fH
	DB	00H
	DB	0b9H
	DB	00H
	DB	070H
	DB	0eH
	DB	00H
	DB	0b9H
	DB	00H
	DB	0e4H
	DB	08H
	DB	00H
	DB	0f9H
	DB	0ffH
	DB	07fH
	DB	00H
	DB	00H
	DB	0c9H
	DB	043H
	DB	09eH
	DB	00H
	DB	00H
	DB	0b9H
	DB	00H
	DB	0f3H
	DB	08H
	DB	00H
	DB	0b9H
	DB	00H
	DB	050H
	DB	07fH
	DB	00H
	DB	0b9H
	DB	00H
	DB	00H
	DB	0f6H
	DB	05H
	DB	00H
	DB	0c7H
	DB	0eeH
	DB	08cH
	DB	02H
	DB	090H
	DB	06eH
	DB	043H
	DB	0c7H
	DB	05H
	DB	0f0H
	DB	07H
	DB	00H
	DB	00H
	DB	01H
	DB	0d0H
	DB	0aH
	DB	00H
	DB	00H
	DB	00H
	DB	040H
	DB	0eeH
	DB	08bH
	DB	015H
	DB	00H
	DB	00H
	DB	051H
	DB	0a7H
	DB	0eeH
	DB	03H
	DB	00H
	DB	00H
	DB	00H
	DB	0d1H
	DB	0aH
	DB	020H
	DB	00H
	DB	00H
	DB	0b0H
	DB	0aH
	DB	0f1H
	DB	05aH
	DB	043H
	DB	0f9H
	DB	04H
	DB	060H
	DB	0dbH
	DB	0efH
	DB	03bH
	DB	00H
	DB	0ffH
	DB	0ffH
	DB	0ffH
	DB	0ffH
	DB	09H
	DB	033H
	DB	073H
	DB	03fH
	DB	033H
	DB	02H
	DB	00H
	DB	050H
	DB	0fH
	DB	00H
	DB	00H
	DB	00H
	DB	050H
	DB	0fH
	DB	00H
	DB	00H
	DB	00H
	DB	050H
	DB	0fH
	DB	00H
	DB	00H
	DB	00H
	DB	050H
	DB	0fH
	DB	00H
	DB	00H
	DB	00H
	DB	050H
	DB	0fH
	DB	00H
	DB	00H
	DB	00H
	DB	050H
	DB	0fH
	DB	00H
	DB	00H
	DB	00H
	DB	050H
	DB	0fH
	DB	00H
	DB	00H
	DB	00H
	DB	050H
	DB	0fH
	DB	00H
	DB	00H
	DB	09cH
	DB	00H
	DB	00H
	DB	0f5H
	DB	09cH
	DB	00H
	DB	00H
	DB	0f5H
	DB	09cH
	DB	00H
	DB	00H
	DB	0f5H
	DB	09cH
	DB	00H
	DB	00H
	DB	0f5H
	DB	09cH
	DB	00H
	DB	00H
	DB	0f5H
	DB	09cH
	DB	00H
	DB	00H
	DB	0f5H
	DB	09bH
	DB	00H
	DB	00H
	DB	0f6H
	DB	0d9H
	DB	00H
	DB	00H
	DB	0c9H
	DB	0f3H
	DB	04aH
	DB	084H
	DB	06fH
	DB	030H
	DB	0ebH
	DB	0ceH
	DB	06H
	DB	0caH
	DB	00H
	DB	00H
	DB	030H
	DB	03fH
	DB	0f4H
	DB	02H
	DB	00H
	DB	080H
	DB	0dH
	DB	0d0H
	DB	08H
	DB	00H
	DB	0d0H
	DB	07H
	DB	080H
	DB	0dH
	DB	00H
	DB	0f4H
	DB	02H
	DB	020H
	DB	04fH
	DB	00H
	DB	0b9H
	DB	00H
	DB	00H
	DB	09cH
	DB	010H
	DB	05eH
	DB	00H
	DB	00H
	DB	0e6H
	DB	050H
	DB	01eH
	DB	00H
	DB	00H
	DB	0f1H
	DB	0b5H
	DB	09H
	DB	00H
	DB	00H
	DB	0a0H
	DB	0fcH
	DB	04H
	DB	00H
	DB	00H
	DB	040H
	DB	0dfH
	DB	00H
	DB	00H
	DB	0ddH
	DB	0ddH
	DB	0ddH
	DB	0ddH
	DB	0cH
	DB	060H
	DB	0edH
	DB	0beH
	DB	03H
	DB	060H
	DB	036H
	DB	0a3H
	DB	0eH
	DB	00H
	DB	00H
	DB	020H
	DB	02fH
	DB	020H
	DB	0c8H
	DB	0edH
	DB	03fH
	DB	0d1H
	DB	05bH
	DB	033H
	DB	03fH
	DB	0f4H
	DB	01H
	DB	010H
	DB	03fH
	DB	0f2H
	DB	048H
	DB	0c6H
	DB	03fH
	DB	050H
	DB	0fdH
	DB	05cH
	DB	03fH
	DB	08bH
	DB	00H
	DB	00H
	DB	00H
	DB	08bH
	DB	00H
	DB	00H
	DB	00H
	DB	08bH
	DB	00H
	DB	00H
	DB	00H
	DB	09bH
	DB	0e8H
	DB	09eH
	DB	00H
	DB	0fbH
	DB	059H
	DB	0f7H
	DB	06H
	DB	08bH
	DB	00H
	DB	090H
	DB	0cH
	DB	08bH
	DB	00H
	DB	060H
	DB	0eH
	DB	08bH
	DB	00H
	DB	060H
	DB	0eH
	DB	08bH
	DB	00H
	DB	0a0H
	DB	0bH
	DB	0cbH
	DB	035H
	DB	0f8H
	DB	03H
	DB	0cbH
	DB	0fdH
	DB	05dH
	DB	00H
	DB	00H
	DB	0d7H
	DB	0cfH
	DB	07H
	DB	080H
	DB	05eH
	DB	063H
	DB	0cH
	DB	0f1H
	DB	05H
	DB	00H
	DB	00H
	DB	0f4H
	DB	02H
	DB	00H
	DB	00H
	DB	0f4H
	DB	02H
	DB	00H
	DB	00H
	DB	0f1H
	DB	05H
	DB	00H
	DB	00H
	DB	090H
	DB	05eH
	DB	053H
	DB	0bH
	DB	00H
	DB	0d7H
	DB	0deH
	DB	07H
	DB	00H
	DB	00H
	DB	00H
	DB	07cH
	DB	00H
	DB	00H
	DB	00H
	DB	07cH
	DB	00H
	DB	00H
	DB	00H
	DB	07cH
	DB	00H
	DB	0e7H
	DB	0beH
	DB	07eH
	DB	070H
	DB	06eH
	DB	063H
	DB	07eH
	DB	0e1H
	DB	06H
	DB	00H
	DB	07cH
	DB	0f3H
	DB	02H
	DB	00H
	DB	07cH
	DB	0f3H
	DB	02H
	DB	00H
	DB	07cH
	DB	0f1H
	DB	05H
	DB	00H
	DB	07dH
	DB	0a0H
	DB	05dH
	DB	0b5H
	DB	07fH
	DB	010H
	DB	0fbH
	DB	07dH
	DB	07dH
	DB	00H
	DB	0d7H
	DB	0cfH
	DB	05H
	DB	080H
	DB	04cH
	DB	052H
	DB	03fH
	DB	0f1H
	DB	03H
	DB	00H
	DB	08aH
	DB	0f4H
	DB	0ffH
	DB	0ffH
	DB	0afH
	DB	0f4H
	DB	02H
	DB	00H
	DB	00H
	DB	0f1H
	DB	06H
	DB	00H
	DB	00H
	DB	090H
	DB	07eH
	DB	043H
	DB	079H
	DB	00H
	DB	0d7H
	DB	0efH
	DB	03aH
	DB	00H
	DB	0e9H
	DB	05eH
	DB	060H
	DB	04eH
	DB	023H
	DB	090H
	DB	09H
	DB	00H
	DB	0f8H
	DB	0ffH
	DB	0dH
	DB	0b1H
	DB	01aH
	DB	01H
	DB	0a0H
	DB	09H
	DB	00H
	DB	0a0H
	DB	09H
	DB	00H
	DB	0a0H
	DB	09H
	DB	00H
	DB	0a0H
	DB	09H
	DB	00H
	DB	0a0H
	DB	09H
	DB	00H
	DB	0a0H
	DB	09H
	DB	00H
	DB	00H
	DB	0e7H
	DB	0ceH
	DB	07eH
	DB	070H
	DB	06eH
	DB	063H
	DB	07eH
	DB	0e1H
	DB	06H
	DB	00H
	DB	07cH
	DB	0f3H
	DB	02H
	DB	00H
	DB	07cH
	DB	0f3H
	DB	02H
	DB	00H
	DB	07cH
	DB	0f1H
	DB	04H
	DB	00H
	DB	07cH
	DB	0b0H
	DB	05dH
	DB	0a4H
	DB	07fH
	DB	020H
	DB	0fbH
	DB	07eH
	DB	06dH
	DB	00H
	DB	00H
	DB	00H
	DB	04eH
	DB	040H
	DB	046H
	DB	0a4H
	DB	0dH
	DB	050H
	DB	0fdH
	DB	0aeH
	DB	02H
	DB	08bH
	DB	00H
	DB	00H
	DB	00H
	DB	08bH
	DB	00H
	DB	00H
	DB	00H
	DB	08bH
	DB	00H
	DB	00H
	DB	00H
	DB	09bH
	DB	0e8H
	DB	09eH
	DB	00H
	DB	0fbH
	DB	049H
	DB	0f7H
	DB	06H
	DB	09bH
	DB	00H
	DB	0b0H
	DB	09H
	DB	08bH
	DB	00H
	DB	0a0H
	DB	0aH
	DB	08bH
	DB	00H
	DB	0a0H
	DB	0aH
	DB	08bH
	DB	00H
	DB	0a0H
	DB	0aH
	DB	08bH
	DB	00H
	DB	0a0H
	DB	0aH
	DB	08bH
	DB	00H
	DB	0a0H
	DB	0aH
	DB	0acH
	DB	034H
	DB	08bH
	DB	08bH
	DB	08bH
	DB	08bH
	DB	08bH
	DB	08bH
	DB	08bH
	DB	08bH
	DB	00H
	DB	0c0H
	DB	0aH
	DB	00H
	DB	040H
	DB	03H
	DB	050H
	DB	0ffH
	DB	08H
	DB	00H
	DB	0b1H
	DB	08H
	DB	00H
	DB	0b0H
	DB	08H
	DB	00H
	DB	0b0H
	DB	08H
	DB	00H
	DB	0b0H
	DB	08H
	DB	00H
	DB	0b0H
	DB	08H
	DB	00H
	DB	0b0H
	DB	08H
	DB	00H
	DB	0b0H
	DB	08H
	DB	00H
	DB	0c0H
	DB	08H
	DB	032H
	DB	0f6H
	DB	04H
	DB	0e5H
	DB	08eH
	DB	00H
	DB	09aH
	DB	00H
	DB	00H
	DB	00H
	DB	09aH
	DB	00H
	DB	00H
	DB	00H
	DB	09aH
	DB	00H
	DB	00H
	DB	00H
	DB	09aH
	DB	00H
	DB	0e3H
	DB	07H
	DB	09aH
	DB	020H
	DB	07eH
	DB	00H
	DB	09aH
	DB	0d2H
	DB	08H
	DB	00H
	DB	0aaH
	DB	0adH
	DB	00H
	DB	00H
	DB	0faH
	DB	0ecH
	DB	02H
	DB	00H
	DB	0aaH
	DB	0a0H
	DB	01dH
	DB	00H
	DB	09aH
	DB	010H
	DB	0ccH
	DB	01H
	DB	09aH
	DB	00H
	DB	0d1H
	DB	0bH
	DB	08bH
	DB	08bH
	DB	08bH
	DB	08bH
	DB	08bH
	DB	08bH
	DB	08bH
	DB	08bH
	DB	08bH
	DB	08bH
	DB	08bH
	DB	09bH
	DB	0e8H
	DB	07eH
	DB	0a1H
	DB	0eeH
	DB	07H
	DB	0fbH
	DB	049H
	DB	0f7H
	DB	08eH
	DB	084H
	DB	02fH
	DB	09bH
	DB	00H
	DB	0d0H
	DB	07H
	DB	00H
	DB	05eH
	DB	08bH
	DB	00H
	DB	0c0H
	DB	07H
	DB	00H
	DB	06dH
	DB	08bH
	DB	00H
	DB	0c0H
	DB	07H
	DB	00H
	DB	06dH
	DB	08bH
	DB	00H
	DB	0c0H
	DB	07H
	DB	00H
	DB	06dH
	DB	08bH
	DB	00H
	DB	0c0H
	DB	07H
	DB	00H
	DB	06dH
	DB	08bH
	DB	00H
	DB	0c0H
	DB	07H
	DB	00H
	DB	06dH
	DB	09bH
	DB	0e8H
	DB	09eH
	DB	00H
	DB	0fbH
	DB	049H
	DB	0f7H
	DB	06H
	DB	09bH
	DB	00H
	DB	0b0H
	DB	09H
	DB	08bH
	DB	00H
	DB	0a0H
	DB	0aH
	DB	08bH
	DB	00H
	DB	0a0H
	DB	0aH
	DB	08bH
	DB	00H
	DB	0a0H
	DB	0aH
	DB	08bH
	DB	00H
	DB	0a0H
	DB	0aH
	DB	08bH
	DB	00H
	DB	0a0H
	DB	0aH
	DB	00H
	DB	0e8H
	DB	0cfH
	DB	03H
	DB	080H
	DB	05dH
	DB	093H
	DB	01eH
	DB	0f1H
	DB	05H
	DB	00H
	DB	08cH
	DB	0f3H
	DB	02H
	DB	00H
	DB	0a9H
	DB	0f3H
	DB	02H
	DB	00H
	DB	0a9H
	DB	0f1H
	DB	05H
	DB	00H
	DB	08cH
	DB	090H
	DB	05dH
	DB	093H
	DB	02eH
	DB	00H
	DB	0e8H
	DB	0cfH
	DB	03H
	DB	09bH
	DB	0e9H
	DB	09eH
	DB	00H
	DB	0fbH
	DB	059H
	DB	0f7H
	DB	06H
	DB	08bH
	DB	00H
	DB	090H
	DB	0cH
	DB	08bH
	DB	00H
	DB	060H
	DB	0eH
	DB	08bH
	DB	00H
	DB	060H
	DB	0eH
	DB	08bH
	DB	00H
	DB	0a0H
	DB	0bH
	DB	0cbH
	DB	034H
	DB	0f8H
	DB	03H
	DB	0cbH
	DB	0fcH
	DB	04dH
	DB	00H
	DB	08bH
	DB	00H
	DB	00H
	DB	00H
	DB	08bH
	DB	00H
	DB	00H
	DB	00H
	DB	08bH
	DB	00H
	DB	00H
	DB	00H
	DB	09bH
	DB	0e8H
	DB	0fH
	DB	0fbH
	DB	05aH
	DB	05H
	DB	09bH
	DB	00H
	DB	00H
	DB	08bH
	DB	00H
	DB	00H
	DB	08bH
	DB	00H
	DB	00H
	DB	08bH
	DB	00H
	DB	00H
	DB	08bH
	DB	00H
	DB	00H
	DB	08bH
	DB	00H
	DB	00H
	DB	030H
	DB	0ebH
	DB	0beH
	DB	03H
	DB	0e1H
	DB	028H
	DB	083H
	DB	06H
	DB	0f3H
	DB	03H
	DB	00H
	DB	00H
	DB	0c0H
	DB	0beH
	DB	037H
	DB	00H
	DB	00H
	DB	085H
	DB	0fcH
	DB	05H
	DB	00H
	DB	00H
	DB	0a0H
	DB	0aH
	DB	0b4H
	DB	024H
	DB	0d4H
	DB	07H
	DB	091H
	DB	0fdH
	DB	08dH
	DB	00H
	DB	0b0H
	DB	09H
	DB	00H
	DB	0b0H
	DB	09H
	DB	00H
	DB	0f9H
	DB	0ffH
	DB	04fH
	DB	0b1H
	DB	019H
	DB	01H
	DB	0b0H
	DB	09H
	DB	00H
	DB	0b0H
	DB	09H
	DB	00H
	DB	0b0H
	DB	09H
	DB	00H
	DB	0a0H
	DB	09H
	DB	00H
	DB	080H
	DB	04eH
	DB	014H
	DB	010H
	DB	0ebH
	DB	03eH
	DB	08cH
	DB	00H
	DB	0a0H
	DB	09H
	DB	08cH
	DB	00H
	DB	0a0H
	DB	09H
	DB	08cH
	DB	00H
	DB	0a0H
	DB	09H
	DB	08cH
	DB	00H
	DB	0a0H
	DB	09H
	DB	08cH
	DB	00H
	DB	0a0H
	DB	09H
	DB	09bH
	DB	00H
	DB	0b0H
	DB	09H
	DB	0e8H
	DB	056H
	DB	0fbH
	DB	09H
	DB	0a1H
	DB	0deH
	DB	0b7H
	DB	09H
	DB	0e6H
	DB	01H
	DB	00H
	DB	0aaH
	DB	0e1H
	DB	05H
	DB	010H
	DB	04fH
	DB	090H
	DB	0bH
	DB	060H
	DB	0dH
	DB	040H
	DB	02fH
	DB	0c0H
	DB	08H
	DB	00H
	DB	07dH
	DB	0f2H
	DB	02H
	DB	00H
	DB	0d7H
	DB	0b8H
	DB	00H
	DB	00H
	DB	0f2H
	DB	05eH
	DB	00H
	DB	00H
	DB	0b0H
	DB	01eH
	DB	00H
	DB	0e6H
	DB	01H
	DB	00H
	DB	0aaH
	DB	0e1H
	DB	06H
	DB	010H
	DB	04fH
	DB	090H
	DB	0cH
	DB	070H
	DB	0dH
	DB	030H
	DB	03fH
	DB	0d0H
	DB	07H
	DB	00H
	DB	09cH
	DB	0f4H
	DB	01H
	DB	00H
	DB	0e6H
	DB	0abH
	DB	00H
	DB	00H
	DB	0e1H
	DB	04fH
	DB	00H
	DB	00H
	DB	0a0H
	DB	0cH
	DB	00H
	DB	00H
	DB	0d0H
	DB	06H
	DB	00H
	DB	00H
	DB	0e5H
	DB	01H
	DB	00H
	DB	00H
	DB	09bH
	DB	00H
	DB	00H
	DB	00H
	DB	0d4H
	DB	07dH
	DB	00H
	DB	010H
	DB	03eH
	DB	0c1H
	DB	04H
	DB	030H
	DB	0cH
	DB	070H
	DB	07H
	DB	010H
	DB	03eH
	DB	0c1H
	DB	04H
	DB	00H
	DB	0d4H
	DB	07dH
	DB	00H
	DB	00H
	DB	00H
	DB	00H
	DB	00H
	DB	060H
	DB	0edH
	DB	0beH
	DB	03H
	DB	060H
	DB	036H
	DB	0a3H
	DB	0eH
	DB	00H
	DB	00H
	DB	020H
	DB	02fH
	DB	020H
	DB	0c8H
	DB	0edH
	DB	03fH
	DB	0d1H
	DB	05bH
	DB	033H
	DB	03fH
	DB	0f4H
	DB	01H
	DB	010H
	DB	03fH
	DB	0f2H
	DB	048H
	DB	0c6H
	DB	03fH
	DB	050H
	DB	0fdH
	DB	05cH
	DB	03fH
	DB	00H
	DB	0d7H
	DB	0cfH
	DB	07H
	DB	080H
	DB	05eH
	DB	063H
	DB	0cH
	DB	0f1H
	DB	05H
	DB	00H
	DB	00H
	DB	0f4H
	DB	02H
	DB	00H
	DB	00H
	DB	0f4H
	DB	02H
	DB	00H
	DB	00H
	DB	0f1H
	DB	05H
	DB	00H
	DB	00H
	DB	090H
	DB	05eH
	DB	053H
	DB	0bH
	DB	00H
	DB	0d7H
	DB	0ffH
	DB	07H
	DB	00H
	DB	00H
	DB	0f1H
	DB	00H
	DB	00H
	DB	012H
	DB	0c5H
	DB	00H
	DB	00H
	DB	0f8H
	DB	03dH
	DB	00H
CONST	ENDS
PUBLIC	__JustMyCode_Default
; Function compile flags: /Odt
;	COMDAT __JustMyCode_Default
_TEXT	SEGMENT
__JustMyCode_Default PROC				; COMDAT
	push	ebp
	mov	ebp, esp
	pop	ebp
	ret	0
__JustMyCode_Default ENDP
_TEXT	ENDS
END
