; Listing generated by Microsoft (R) Optimizing Compiler Version 19.30.30705.0 

	TITLE	D:\学习\毕业设计\方案1_GFX+底板\官方例程\DISPLAY\TouchGFX\build\Debug\obj\Font_NanumGothic_14_4bpp_24.obj
	.686P
	.XMM
	include listing.inc
	.model	flat

INCLUDELIB MSVCRTD
INCLUDELIB OLDNAMES

PUBLIC	?unicodes_NanumGothic_14_4bpp_24@@3QBEB		; unicodes_NanumGothic_14_4bpp_24
msvcjmc	SEGMENT
__692521D7_concurrencysal@h DB 01H
__A324AF7F_sal@h DB 01H
__3FA7CF14_vadefs@h DB 01H
__4DFECF8D_vcruntime@h DB 01H
__6569C2CA_corecrt@h DB 01H
__C3DF3361_assert@h DB 01H
__47AAA172_stdint@h DB 01H
__BA83647B_Config@hpp DB 01H
__AA120D12_Types@hpp DB 01H
__C4551032_Font_NanumGothic_14_4bpp_24@cpp DB 01H
msvcjmc	ENDS
CONST	SEGMENT
?unicodes_NanumGothic_14_4bpp_24@@3QBEB DB 00H		; unicodes_NanumGothic_14_4bpp_24
	DB	00H
	DB	00H
	DB	00H
	DB	010H
	DB	0dH
	DB	00H
	DB	00H
	DB	00H
	DB	0eH
	DB	00H
	DB	010H
	DB	0dH
	DB	00H
	DB	00H
	DB	010H
	DB	0eH
	DB	00H
	DB	010H
	DB	0dH
	DB	00H
	DB	00H
	DB	030H
	DB	0cH
	DB	00H
	DB	010H
	DB	0dH
	DB	00H
	DB	00H
	DB	060H
	DB	0cH
	DB	00H
	DB	010H
	DB	0dH
	DB	00H
	DB	00H
	DB	0b0H
	DB	03eH
	DB	00H
	DB	010H
	DB	0dfH
	DB	0dH
	DB	00H
	DB	0d3H
	DB	0b5H
	DB	00H
	DB	010H
	DB	0dH
	DB	00H
	DB	00H
	DB	06bH
	DB	0a0H
	DB	07H
	DB	010H
	DB	0dH
	DB	00H
	DB	080H
	DB	0aH
	DB	010H
	DB	06cH
	DB	010H
	DB	0dH
	DB	00H
	DB	0c3H
	DB	01H
	DB	00H
	DB	061H
	DB	010H
	DB	0dH
	DB	00H
	DB	00H
	DB	00H
	DB	00H
	DB	00H
	DB	010H
	DB	0dH
	DB	00H
	DB	00H
	DB	00H
	DB	00H
	DB	00H
	DB	010H
	DB	0dH
	DB	00H
	DB	00H
	DB	00H
	DB	00H
	DB	00H
	DB	010H
	DB	0dH
	DB	00H
	DB	00H
	DB	00H
	DB	00H
	DB	00H
	DB	0dH
	DB	0d0H
	DB	00H
	DB	040H
	DB	0aH
	DB	00H
	DB	0eH
	DB	0e0H
	DB	00H
	DB	070H
	DB	08H
	DB	00H
	DB	0eH
	DB	0e0H
	DB	00H
	DB	0c0H
	DB	0cH
	DB	00H
	DB	0aeH
	DB	0eaH
	DB	00H
	DB	086H
	DB	096H
	DB	00H
	DB	03eH
	DB	0e3H
	DB	050H
	DB	01bH
	DB	090H
	DB	01aH
	DB	0eH
	DB	0e0H
	DB	0a1H
	DB	01H
	DB	00H
	DB	015H
	DB	0eH
	DB	0e0H
	DB	00H
	DB	00H
	DB	00H
	DB	00H
	DB	02H
	DB	080H
	DB	00H
	DB	080H
	DB	0ccH
	DB	0ccH
	DB	0ccH
	DB	09cH
	DB	00H
	DB	00H
	DB	00H
	DB	00H
	DB	00H
	DB	0e1H
	DB	00H
	DB	00H
	DB	00H
	DB	00H
	DB	00H
	DB	0e1H
	DB	00H
	DB	00H
	DB	00H
	DB	00H
	DB	00H
	DB	0e1H
	DB	00H
	DB	00H
	DB	00H
	DB	00H
	DB	00H
	DB	0b0H
	DB	00H
	DB	00H
	DB	00H
	DB	00H
	DB	0dH
	DB	0b2H
	DB	00H
	DB	0a0H
	DB	04H
	DB	00H
	DB	0eH
	DB	0c2H
	DB	00H
	DB	0b0H
	DB	04H
	DB	00H
	DB	0eH
	DB	0c2H
	DB	00H
	DB	0c0H
	DB	03H
	DB	00H
	DB	0eH
	DB	0c2H
	DB	00H
	DB	0e0H
	DB	02H
	DB	00H
	DB	0eH
	DB	0c2H
	DB	00H
	DB	0f3H
	DB	026H
	DB	0ccH
	DB	0fH
	DB	0c2H
	DB	00H
	DB	0b8H
	DB	0cH
	DB	00H
	DB	0eH
	DB	0c2H
	DB	010H
	DB	02eH
	DB	06aH
	DB	00H
	DB	0eH
	DB	0c2H
	DB	0a0H
	DB	08H
	DB	0d2H
	DB	03H
	DB	0eH
	DB	0c2H
	DB	0b5H
	DB	00H
	DB	040H
	DB	06H
	DB	0eH
	DB	0c2H
	DB	00H
	DB	00H
	DB	00H
	DB	00H
	DB	0eH
	DB	0c2H
	DB	00H
	DB	00H
	DB	00H
	DB	00H
	DB	0dH
	DB	0c2H
	DB	00H
	DB	00H
	DB	00H
	DB	00H
	DB	00H
	DB	0b2H
	DB	00H
	DB	00H
	DB	00H
	DB	0dH
	DB	00H
	DB	00H
	DB	00H
	DB	00H
	DB	00H
	DB	040H
	DB	03fH
	DB	00H
	DB	00H
	DB	00H
	DB	00H
	DB	00H
	DB	0c0H
	DB	0c8H
	DB	00H
	DB	00H
	DB	00H
	DB	00H
	DB	00H
	DB	099H
	DB	080H
	DB	0aH
	DB	00H
	DB	00H
	DB	00H
	DB	0a2H
	DB	0aH
	DB	00H
	DB	0c8H
	DB	03H
	DB	00H
	DB	060H
	DB	06dH
	DB	00H
	DB	00H
	DB	040H
	DB	09cH
	DB	00H
	DB	010H
	DB	01H
	DB	00H
	DB	00H
	DB	00H
	DB	010H
	DB	00H
	DB	00H
	DB	00H
	DB	00H
	DB	00H
	DB	00H
	DB	00H
	DB	00H
	DB	00H
	DB	00H
	DB	00H
	DB	00H
	DB	00H
	DB	00H
	DB	00H
	DB	0d7H
	DB	0ddH
	DB	0ddH
	DB	0ddH
	DB	0ddH
	DB	0ddH
	DB	09H
	DB	00H
	DB	00H
	DB	00H
	DB	00H
	DB	0d0H
	DB	01H
	DB	050H
	DB	0ecH
	DB	03cH
	DB	00H
	DB	0d0H
	DB	01H
	DB	0e2H
	DB	03H
	DB	0e4H
	DB	01H
	DB	0d0H
	DB	01H
	DB	078H
	DB	00H
	DB	090H
	DB	07H
	DB	0d0H
	DB	01H
	DB	03bH
	DB	00H
	DB	040H
	DB	0bH
	DB	0d0H
	DB	01H
	DB	02dH
	DB	00H
	DB	030H
	DB	0dfH
	DB	0fdH
	DB	01H
	DB	04bH
	DB	00H
	DB	050H
	DB	0aH
	DB	0d0H
	DB	01H
	DB	088H
	DB	00H
	DB	0a0H
	DB	06H
	DB	0d0H
	DB	01H
	DB	0d2H
	DB	015H
	DB	0d6H
	DB	01H
	DB	0d0H
	DB	01H
	DB	030H
	DB	0dbH
	DB	02aH
	DB	00H
	DB	0d0H
	DB	01H
	DB	00H
	DB	00H
	DB	00H
	DB	00H
	DB	0d0H
	DB	01H
	DB	00H
	DB	00H
	DB	00H
	DB	00H
	DB	0d0H
	DB	01H
	DB	00H
	DB	00H
	DB	00H
	DB	00H
	DB	0d0H
	DB	01H
	DB	00H
	DB	00H
	DB	00H
	DB	00H
	DB	0d0H
	DB	01H
	DB	050H
	DB	0ecH
	DB	03cH
	DB	00H
	DB	0d0H
	DB	01H
	DB	0e2H
	DB	03H
	DB	0e4H
	DB	01H
	DB	0d0H
	DB	01H
	DB	078H
	DB	00H
	DB	090H
	DB	0ceH
	DB	0fcH
	DB	01H
	DB	03bH
	DB	00H
	DB	040H
	DB	0aH
	DB	0d0H
	DB	01H
	DB	02dH
	DB	00H
	DB	030H
	DB	0cH
	DB	0d0H
	DB	01H
	DB	04bH
	DB	00H
	DB	050H
	DB	0aH
	DB	0d0H
	DB	01H
	DB	088H
	DB	00H
	DB	0a0H
	DB	0cdH
	DB	0fcH
	DB	01H
	DB	0d2H
	DB	015H
	DB	0d6H
	DB	01H
	DB	0d0H
	DB	01H
	DB	030H
	DB	0dbH
	DB	02aH
	DB	00H
	DB	0d0H
	DB	01H
	DB	00H
	DB	00H
	DB	00H
	DB	00H
	DB	0d0H
	DB	01H
	DB	00H
	DB	00H
	DB	00H
	DB	00H
	DB	0d0H
	DB	01H
	DB	00H
	DB	00H
	DB	00H
	DB	00H
	DB	0d0H
	DB	01H
	DB	00H
	DB	040H
	DB	0daH
	DB	0ddH
	DB	05bH
	DB	00H
	DB	00H
	DB	00H
	DB	0d6H
	DB	04H
	DB	00H
	DB	0c3H
	DB	08H
	DB	00H
	DB	00H
	DB	03cH
	DB	00H
	DB	00H
	DB	010H
	DB	0fH
	DB	00H
	DB	00H
	DB	05cH
	DB	00H
	DB	00H
	DB	020H
	DB	0eH
	DB	00H
	DB	00H
	DB	0d3H
	DB	048H
	DB	032H
	DB	0d7H
	DB	05H
	DB	00H
	DB	00H
	DB	010H
	DB	0a6H
	DB	0abH
	DB	027H
	DB	00H
	DB	00H
	DB	00H
	DB	050H
	DB	06H
	DB	00H
	DB	074H
	DB	00H
	DB	00H
	DB	00H
	DB	070H
	DB	08H
	DB	00H
	DB	095H
	DB	00H
	DB	00H
	DB	00H
	DB	070H
	DB	08H
	DB	00H
	DB	095H
	DB	00H
	DB	00H
	DB	0d7H
	DB	0ddH
	DB	0ddH
	DB	0ddH
	DB	0ddH
	DB	0ddH
	DB	09H
	DB	00H
	DB	040H
	DB	0daH
	DB	0ddH
	DB	05bH
	DB	00H
	DB	00H
	DB	00H
	DB	0c6H
	DB	03H
	DB	00H
	DB	0a2H
	DB	09H
	DB	00H
	DB	00H
	DB	05aH
	DB	00H
	DB	00H
	DB	020H
	DB	0eH
	DB	00H
	DB	00H
	DB	0d5H
	DB	015H
	DB	010H
	DB	0b4H
	DB	08H
	DB	00H
	DB	00H
	DB	040H
	DB	0ceH
	DB	0cdH
	DB	07dH
	DB	00H
	DB	00H
	DB	00H
	DB	020H
	DB	0cH
	DB	00H
	DB	059H
	DB	00H
	DB	00H
	DB	073H
	DB	087H
	DB	07dH
	DB	077H
	DB	0acH
	DB	077H
	DB	05H
	DB	053H
	DB	055H
	DB	055H
	DB	055H
	DB	055H
	DB	055H
	DB	04H
	DB	00H
	DB	020H
	DB	0a7H
	DB	0abH
	DB	038H
	DB	00H
	DB	00H
	DB	00H
	DB	0d4H
	DB	037H
	DB	032H
	DB	0d6H
	DB	07H
	DB	00H
	DB	00H
	DB	05bH
	DB	00H
	DB	00H
	DB	020H
	DB	0dH
	DB	00H
	DB	00H
	DB	0b7H
	DB	02H
	DB	00H
	DB	091H
	DB	0aH
	DB	00H
	DB	00H
	DB	060H
	DB	0dcH
	DB	0ddH
	DB	07cH
	DB	00H
	DB	00H
	DB	00H
	DB	050H
	DB	0dbH
	DB	0ddH
	DB	06bH
	DB	00H
	DB	00H
	DB	00H
	DB	0c6H
	DB	03H
	DB	00H
	DB	0a2H
	DB	09H
	DB	00H
	DB	00H
	DB	05aH
	DB	00H
	DB	00H
	DB	030H
	DB	0cH
	DB	00H
	DB	00H
	DB	0d5H
	DB	015H
	DB	010H
	DB	0c4H
	DB	07H
	DB	00H
	DB	00H
	DB	030H
	DB	0c9H
	DB	0cdH
	DB	049H
	DB	00H
	DB	00H
	DB	063H
	DB	066H
	DB	066H
	DB	066H
	DB	066H
	DB	066H
	DB	04H
	DB	053H
	DB	055H
	DB	055H
	DB	055H
	DB	055H
	DB	055H
	DB	04H
	DB	00H
	DB	0a6H
	DB	0aaH
	DB	0aaH
	DB	0aaH
	DB	05H
	DB	00H
	DB	00H
	DB	021H
	DB	022H
	DB	022H
	DB	052H
	DB	0bH
	DB	00H
	DB	00H
	DB	00H
	DB	00H
	DB	00H
	DB	030H
	DB	0bH
	DB	00H
	DB	00H
	DB	0d7H
	DB	0ccH
	DB	0ccH
	DB	0ccH
	DB	06H
	DB	00H
	DB	00H
	DB	059H
	DB	00H
	DB	00H
	DB	00H
	DB	00H
	DB	00H
	DB	00H
	DB	0d7H
	DB	0ccH
	DB	0ccH
	DB	0ccH
	DB	01cH
	DB	00H
	DB	00H
	DB	00H
	DB	00H
	DB	00H
	DB	0d0H
	DB	01H
	DB	040H
	DB	0dcH
	DB	04cH
	DB	00H
	DB	0d0H
	DB	01H
	DB	0e1H
	DB	03H
	DB	0d2H
	DB	02H
	DB	0d0H
	DB	01H
	DB	087H
	DB	00H
	DB	070H
	DB	08H
	DB	0d0H
	DB	01H
	DB	05aH
	DB	00H
	DB	030H
	DB	0cH
	DB	0d0H
	DB	01H
	DB	04bH
	DB	00H
	DB	020H
	DB	0dH
	DB	0d0H
	DB	01H
	DB	05aH
	DB	00H
	DB	030H
	DB	0cH
	DB	0d0H
	DB	01H
	DB	096H
	DB	00H
	DB	080H
	DB	07H
	DB	0d0H
	DB	01H
	DB	0d1H
	DB	05H
	DB	0d4H
	DB	01H
	DB	0d0H
	DB	01H
	DB	020H
	DB	0caH
	DB	02aH
	DB	00H
	DB	0d0H
	DB	01H
	DB	00H
	DB	00H
	DB	00H
	DB	00H
	DB	0d0H
	DB	01H
	DB	00H
	DB	00H
	DB	00H
	DB	00H
	DB	0d0H
	DB	01H
	DB	00H
	DB	00H
	DB	00H
	DB	00H
	DB	0d0H
	DB	01H
CONST	ENDS
PUBLIC	__JustMyCode_Default
; Function compile flags: /Odt
;	COMDAT __JustMyCode_Default
_TEXT	SEGMENT
__JustMyCode_Default PROC				; COMDAT
	push	ebp
	mov	ebp, esp
	pop	ebp
	ret	0
__JustMyCode_Default ENDP
_TEXT	ENDS
END
