; Listing generated by Microsoft (R) Optimizing Compiler Version 19.30.30705.0 

	TITLE	D:\学习\毕业设计\方案1_GFX+底板\官方例程\DISPLAY\TouchGFX\build\Debug\obj\image_subDemoIcon_Info.obj
	.686P
	.XMM
	include listing.inc
	.model	flat

INCLUDELIB MSVCRTD
INCLUDELIB OLDNAMES

PUBLIC	?image_subdemoicon_info@@3QBEB			; image_subdemoicon_info
msvcjmc	SEGMENT
__BA83647B_Config@hpp DB 01H
__33A253F8_image_subDemoIcon_Info@cpp DB 01H
msvcjmc	ENDS
CONST	SEGMENT
?image_subdemoicon_info@@3QBEB DB 0ffH			; image_subdemoicon_info
	DB	0ffH
	DB	0ffH
	DB	0ffH
	DB	0dfH
	DB	0ffH
	DB	0ffH
	DB	0ffH
	DB	0dfH
	DB	0ffH
	DB	0dfH
	DB	0ffH
	DB	0ffH
	DB	0ffH
	DB	0dfH
	DB	0ffH
	DB	0dfH
	DB	0ffH
	DB	0ffH
	DB	0ffH
	DB	0dfH
	DB	0ffH
	DB	0dfH
	DB	0ffH
	DB	0ffH
	DB	0ffH
	DB	0dfH
	DB	0ffH
	DB	0dfH
	DB	0ffH
	DB	0ffH
	DB	0ffH
	DB	0dfH
	DB	0ffH
	DB	0ffH
	DB	0ffH
	DB	0dfH
	DB	0ffH
	DB	0dfH
	DB	0ffH
	DB	0ffH
	DB	0ffH
	DB	0dfH
	DB	0ffH
	DB	0dfH
	DB	0ffH
	DB	0ffH
	DB	0ffH
	DB	0dfH
	DB	0ffH
	DB	0dfH
	DB	0ffH
	DB	0ffH
	DB	0ffH
	DB	0dfH
	DB	0ffH
	DB	0dfH
	DB	0ffH
	DB	0dfH
	DB	0ffH
	DB	03dH
	DB	0cfH
	DB	07bH
	DB	09eH
	DB	0f9H
	DB	075H
	DB	058H
	DB	055H
	DB	0f7H
	DB	034H
	DB	0b6H
	DB	024H
	DB	075H
	DB	014H
	DB	075H
	DB	014H
	DB	075H
	DB	014H
	DB	075H
	DB	014H
	DB	0b6H
	DB	024H
	DB	0f7H
	DB	034H
	DB	058H
	DB	055H
	DB	0d9H
	DB	075H
	DB	07bH
	DB	09eH
	DB	03dH
	DB	0cfH
	DB	0dfH
	DB	0f7H
	DB	0ffH
	DB	0ffH
	DB	0dfH
	DB	0ffH
	DB	0dfH
	DB	0ffH
	DB	0ffH
	DB	0ffH
	DB	0dfH
	DB	0ffH
	DB	0dfH
	DB	0ffH
	DB	0ffH
	DB	0ffH
	DB	0dfH
	DB	0ffH
	DB	0dfH
	DB	0ffH
	DB	0ffH
	DB	0ffH
	DB	0dfH
	DB	0ffH
	DB	0dfH
	DB	0ffH
	DB	0ffH
	DB	0ffH
	DB	0dfH
	DB	0ffH
	DB	0dfH
	DB	0ffH
	DB	0ffH
	DB	0ffH
	DB	0dfH
	DB	0ffH
	DB	0dfH
	DB	0ffH
	DB	0ffH
	DB	0ffH
	DB	0dfH
	DB	0ffH
	DB	0dfH
	DB	0ffH
	DB	0ffH
	DB	0ffH
	DB	0dfH
	DB	0ffH
	DB	0dfH
	DB	0ffH
	DB	0ffH
	DB	0ffH
	DB	0dfH
	DB	0ffH
	DB	0dfH
	DB	0ffH
	DB	0ffH
	DB	0ffH
	DB	0ffH
	DB	0ffH
	DB	0dfH
	DB	0ffH
	DB	0ffH
	DB	0ffH
	DB	0ffH
	DB	0ffH
	DB	0dfH
	DB	0ffH
	DB	0ffH
	DB	0ffH
	DB	0ffH
	DB	0ffH
	DB	0dfH
	DB	0ffH
	DB	0ffH
	DB	0ffH
	DB	0ffH
	DB	0ffH
	DB	0dfH
	DB	0ffH
	DB	0ffH
	DB	0ffH
	DB	0ffH
	DB	0ffH
	DB	0dfH
	DB	0ffH
	DB	0ffH
	DB	0ffH
	DB	0ffH
	DB	0ffH
	DB	0ffH
	DB	0ffH
	DB	0dfH
	DB	0ffH
	DB	0ffH
	DB	0ffH
	DB	0ffH
	DB	0ffH
	DB	0dfH
	DB	0ffH
	DB	0ffH
	DB	0ffH
	DB	0ffH
	DB	0ffH
	DB	0dfH
	DB	0ffH
	DB	0ffH
	DB	0ffH
	DB	07eH
	DB	0dfH
	DB	05bH
	DB	096H
	DB	058H
	DB	04dH
	DB	075H
	DB	014H
	DB	075H
	DB	014H
	DB	075H
	DB	014H
	DB	075H
	DB	014H
	DB	075H
	DB	014H
	DB	075H
	DB	014H
	DB	075H
	DB	014H
	DB	075H
	DB	014H
	DB	075H
	DB	014H
	DB	075H
	DB	014H
	DB	075H
	DB	014H
	DB	075H
	DB	014H
	DB	075H
	DB	014H
	DB	075H
	DB	014H
	DB	075H
	DB	014H
	DB	075H
	DB	014H
	DB	075H
	DB	014H
	DB	075H
	DB	014H
	DB	058H
	DB	04dH
	DB	05bH
	DB	096H
	DB	07eH
	DB	0dfH
	DB	0ffH
	DB	0ffH
	DB	0dfH
	DB	0ffH
	DB	0ffH
	DB	0ffH
	DB	0ffH
	DB	0ffH
	DB	0dfH
	DB	0ffH
	DB	0ffH
	DB	0ffH
	DB	0ffH
	DB	0ffH
	DB	0dfH
	DB	0ffH
	DB	0ffH
	DB	0ffH
	DB	0ffH
	DB	0ffH
	DB	0dfH
	DB	0ffH
	DB	0ffH
	DB	0ffH
	DB	0ffH
	DB	0ffH
	DB	0dfH
	DB	0ffH
	DB	0ffH
	DB	0ffH
	DB	0ffH
	DB	0ffH
	DB	0dfH
	DB	0ffH
	DB	0ffH
	DB	0ffH
	DB	0ffH
	DB	0ffH
	DB	0dfH
	DB	0ffH
	DB	0ffH
	DB	0ffH
	DB	0ffH
	DB	0ffH
	DB	0dfH
	DB	0ffH
	DB	0ffH
	DB	0ffH
	DB	0dfH
	DB	0ffH
	DB	0ffH
	DB	0ffH
	DB	0beH
	DB	0f7H
	DB	0dfH
	DB	0ffH
	DB	0dfH
	DB	0ffH
	DB	0beH
	DB	0f7H
	DB	0dfH
	DB	0ffH
	DB	0ffH
	DB	0ffH
	DB	0beH
	DB	0f7H
	DB	0dfH
	DB	0ffH
	DB	0dfH
	DB	0ffH
	DB	0beH
	DB	0f7H
	DB	0dfH
	DB	0ffH
	DB	0dfH
	DB	0ffH
	DB	0beH
	DB	0f7H
	DB	0ffH
	DB	0ffH
	DB	0beH
	DB	0f7H
	DB	0dfH
	DB	0ffH
	DB	0dfH
	DB	0ffH
	DB	0dfH
	DB	0ffH
	DB	0dfH
	DB	0ffH
	DB	0dfH
	DB	0ffH
	DB	0dfH
	DB	0ffH
	DB	0beH
	DB	0f7H
	DB	09bH
	DB	0a6H
	DB	037H
	DB	045H
	DB	055H
	DB	014H
	DB	075H
	DB	014H
	DB	0d6H
	DB	01cH
	DB	018H
	DB	025H
	DB	059H
	DB	02dH
	DB	09aH
	DB	035H
	DB	0baH
	DB	03dH
	DB	0dbH
	DB	03dH
	DB	0fbH
	DB	045H
	DB	0fbH
	DB	045H
	DB	0fbH
	DB	045H
	DB	0fbH
	DB	045H
	DB	0dbH
	DB	03dH
	DB	0baH
	DB	03dH
	DB	09aH
	DB	035H
	DB	059H
	DB	02dH
	DB	018H
	DB	025H
	DB	0d6H
	DB	01cH
	DB	075H
	DB	014H
	DB	075H
	DB	014H
	DB	055H
	DB	014H
	DB	055H
	DB	0cH
	DB	075H
	DB	014H
	DB	055H
	DB	014H
	DB	037H
	DB	045H
	DB	09bH
	DB	0a6H
	DB	0beH
	DB	0efH
	DB	0dfH
	DB	0ffH
	DB	0dfH
	DB	0ffH
	DB	0beH
	DB	0f7H
	DB	0dfH
	DB	0ffH
	DB	0dfH
	DB	0ffH
	DB	0beH
	DB	0f7H
	DB	0dfH
	DB	0ffH
	DB	0dfH
	DB	0ffH
	DB	0beH
	DB	0f7H
	DB	0dfH
	DB	0ffH
	DB	0dfH
	DB	0ffH
	DB	0beH
	DB	0f7H
	DB	0dfH
	DB	0ffH
	DB	0dfH
	DB	0ffH
	DB	0beH
	DB	0f7H
	DB	0dfH
	DB	0ffH
	DB	0dfH
	DB	0ffH
	DB	0beH
	DB	0f7H
	DB	0dfH
	DB	0ffH
	DB	0dfH
	DB	0ffH
	DB	0dfH
	DB	0ffH
	DB	0dfH
	DB	0ffH
	DB	0ffH
	DB	0ffH
	DB	0dfH
	DB	0ffH
	DB	0dfH
	DB	0ffH
	DB	0dfH
	DB	0ffH
	DB	0dfH
	DB	0ffH
	DB	0dfH
	DB	0ffH
	DB	0dfH
	DB	0ffH
	DB	0dfH
	DB	0ffH
	DB	0dfH
	DB	0ffH
	DB	0dfH
	DB	0ffH
	DB	0dfH
	DB	0ffH
	DB	0dfH
	DB	0ffH
	DB	0dfH
	DB	0ffH
	DB	0dfH
	DB	0ffH
	DB	0ffH
	DB	0ffH
	DB	0beH
	DB	0f7H
	DB	0ffH
	DB	0ffH
	DB	0dfH
	DB	0ffH
	DB	0beH
	DB	0f7H
	DB	0ffH
	DB	0ffH
	DB	0bfH
	DB	0efH
	DB	01aH
	DB	086H
	DB	0b6H
	DB	024H
	DB	0b6H
	DB	01cH
	DB	038H
	DB	02dH
	DB	09aH
	DB	035H
	DB	0fbH
	DB	03dH
	DB	0fbH
	DB	045H
	DB	0fbH
	DB	045H
	DB	0fbH
	DB	045H
	DB	0fbH
	DB	045H
	DB	0fbH
	DB	045H
	DB	0fbH
	DB	045H
	DB	0fbH
	DB	045H
	DB	0fbH
	DB	045H
	DB	0fbH
	DB	045H
	DB	0fbH
	DB	045H
	DB	0fbH
	DB	045H
	DB	0fbH
	DB	045H
	DB	0fbH
	DB	045H
	DB	0fbH
	DB	045H
	DB	0fbH
	DB	045H
	DB	0fbH
	DB	045H
	DB	0fbH
	DB	03dH
	DB	09aH
	DB	035H
	DB	038H
	DB	02dH
	DB	0b6H
	DB	01cH
	DB	075H
	DB	014H
	DB	055H
	DB	014H
	DB	075H
	DB	014H
	DB	075H
	DB	014H
	DB	095H
	DB	01cH
	DB	03aH
	DB	086H
	DB	0bfH
	DB	0efH
	DB	0beH
	DB	0f7H
	DB	0ffH
	DB	0ffH
	DB	0dfH
	DB	0ffH
	DB	0beH
	DB	0f7H
	DB	0ffH
	DB	0ffH
	DB	0dfH
	DB	0ffH
	DB	0beH
	DB	0f7H
	DB	0ffH
	DB	0ffH
	DB	0dfH
	DB	0ffH
	DB	0beH
	DB	0f7H
	DB	0ffH
	DB	0ffH
	DB	0dfH
	DB	0ffH
	DB	0beH
	DB	0f7H
	DB	0ffH
	DB	0ffH
	DB	0dfH
	DB	0ffH
	DB	0beH
	DB	0f7H
	DB	0ffH
	DB	0ffH
	DB	0dfH
	DB	0ffH
	DB	0dfH
	DB	0ffH
	DB	0dfH
	DB	0ffH
	DB	0ffH
	DB	0ffH
	DB	0beH
	DB	0f7H
	DB	0dfH
	DB	0ffH
	DB	0ffH
	DB	0ffH
	DB	0dfH
	DB	0ffH
	DB	0dfH
	DB	0ffH
	DB	0ffH
	DB	0ffH
	DB	0beH
	DB	0f7H
	DB	0dfH
	DB	0ffH
	DB	0ffH
	DB	0ffH
	DB	0beH
	DB	0f7H
	DB	0dfH
	DB	0ffH
	DB	0ffH
	DB	0ffH
	DB	0beH
	DB	0f7H
	DB	0ffH
	DB	0ffH
	DB	0dfH
	DB	0ffH
	DB	0ffH
	DB	0ffH
	DB	0dfH
	DB	0ffH
	DB	0bfH
	DB	0f7H
	DB	05bH
	DB	08eH
	DB	096H
	DB	01cH
	DB	017H
	DB	025H
	DB	09aH
	DB	035H
	DB	0fbH
	DB	045H
	DB	0fbH
	DB	045H
	DB	0fbH
	DB	045H
	DB	0fbH
	DB	045H
	DB	0fbH
	DB	045H
	DB	0fbH
	DB	045H
	DB	0fbH
	DB	045H
	DB	0fbH
	DB	045H
	DB	0fbH
	DB	045H
	DB	0fbH
	DB	045H
	DB	0fbH
	DB	045H
	DB	0fbH
	DB	045H
	DB	0fbH
	DB	045H
	DB	0fbH
	DB	045H
	DB	0fbH
	DB	045H
	DB	0fbH
	DB	045H
	DB	0fbH
	DB	045H
	DB	0fbH
	DB	045H
	DB	0fbH
	DB	045H
	DB	0fbH
	DB	045H
	DB	0fbH
	DB	045H
	DB	0fbH
	DB	045H
	DB	0fbH
	DB	045H
	DB	0fbH
	DB	045H
	DB	09aH
	DB	035H
	DB	017H
	DB	025H
	DB	095H
	DB	014H
	DB	075H
	DB	014H
	DB	055H
	DB	0cH
	DB	055H
	DB	0cH
	DB	095H
	DB	01cH
	DB	03aH
	DB	08eH
	DB	0bfH
	DB	0f7H
	DB	0dfH
	DB	0ffH
	DB	0dfH
	DB	0ffH
	DB	0dfH
	DB	0ffH
	DB	0dfH
	DB	0ffH
	DB	0dfH
	DB	0ffH
	DB	0dfH
	DB	0ffH
	DB	0dfH
	DB	0ffH
	DB	0dfH
	DB	0ffH
	DB	0dfH
	DB	0ffH
	DB	0dfH
	DB	0ffH
	DB	0dfH
	DB	0ffH
	DB	0dfH
	DB	0ffH
	DB	0dfH
	DB	0ffH
	DB	0dfH
	DB	0ffH
	DB	0dfH
	DB	0ffH
	DB	0dfH
	DB	0ffH
	DB	0ffH
	DB	0ffH
	DB	0dfH
	DB	0ffH
	DB	0ffH
	DB	0ffH
	DB	0beH
	DB	0f7H
	DB	0dfH
	DB	0ffH
	DB	0dfH
	DB	0ffH
	DB	0beH
	DB	0f7H
	DB	0dfH
	DB	0ffH
	DB	0ffH
	DB	0ffH
	DB	0beH
	DB	0f7H
	DB	0dfH
	DB	0ffH
	DB	0dfH
	DB	0ffH
	DB	0beH
	DB	0f7H
	DB	0dfH
	DB	0ffH
	DB	0dfH
	DB	0ffH
	DB	0beH
	DB	0f7H
	DB	0ffH
	DB	0ffH
	DB	0beH
	DB	0f7H
	DB	0dfH
	DB	0ffH
	DB	0fcH
	DB	0beH
	DB	0f7H
	DB	034H
	DB	038H
	DB	02dH
	DB	0dbH
	DB	03dH
	DB	0fbH
	DB	045H
	DB	0fbH
	DB	045H
	DB	0fbH
	DB	045H
	DB	0fbH
	DB	045H
	DB	0fbH
	DB	045H
	DB	0fbH
	DB	045H
	DB	0fbH
	DB	045H
	DB	0fbH
	DB	045H
	DB	0fbH
	DB	045H
	DB	0fbH
	DB	045H
	DB	0fbH
	DB	045H
	DB	0fbH
	DB	045H
	DB	0fbH
	DB	045H
	DB	0fbH
	DB	045H
	DB	0fbH
	DB	045H
	DB	0fbH
	DB	045H
	DB	0fbH
	DB	045H
	DB	0fbH
	DB	045H
	DB	0fbH
	DB	045H
	DB	0fbH
	DB	045H
	DB	0fbH
	DB	045H
	DB	0fbH
	DB	045H
	DB	0fbH
	DB	045H
	DB	0fbH
	DB	045H
	DB	0fbH
	DB	045H
	DB	0fbH
	DB	045H
	DB	0fbH
	DB	045H
	DB	0fbH
	DB	045H
	DB	0dbH
	DB	03dH
	DB	038H
	DB	02dH
	DB	096H
	DB	014H
	DB	055H
	DB	0cH
	DB	075H
	DB	014H
	DB	055H
	DB	014H
	DB	0d6H
	DB	02cH
	DB	0fcH
	DB	0beH
	DB	0beH
	DB	0f7H
	DB	0dfH
	DB	0ffH
	DB	0dfH
	DB	0ffH
	DB	0beH
	DB	0f7H
	DB	0dfH
	DB	0ffH
	DB	0dfH
	DB	0ffH
	DB	0beH
	DB	0f7H
	DB	0dfH
	DB	0ffH
	DB	0dfH
	DB	0ffH
	DB	0beH
	DB	0f7H
	DB	0dfH
	DB	0ffH
	DB	0dfH
	DB	0ffH
	DB	0beH
	DB	0f7H
	DB	0dfH
	DB	0ffH
	DB	0dfH
	DB	0ffH
	DB	0dfH
	DB	0ffH
	DB	0dfH
	DB	0ffH
	DB	0ffH
	DB	0ffH
	DB	0dfH
	DB	0ffH
	DB	0dfH
	DB	0ffH
	DB	0dfH
	DB	0ffH
	DB	0dfH
	DB	0ffH
	DB	0dfH
	DB	0ffH
	DB	0dfH
	DB	0ffH
	DB	0dfH
	DB	0ffH
	DB	0dfH
	DB	0ffH
	DB	0dfH
	DB	0ffH
	DB	0dfH
	DB	0ffH
	DB	0dfH
	DB	0ffH
	DB	0dfH
	DB	0ffH
	DB	0dfH
	DB	0ffH
	DB	0ffH
	DB	0ffH
	DB	0beH
	DB	0efH
	DB	0d9H
	DB	06dH
	DB	038H
	DB	02dH
	DB	0dbH
	DB	03dH
	DB	0fbH
	DB	045H
	DB	0fbH
	DB	045H
	DB	0fbH
	DB	045H
	DB	0fbH
	DB	045H
	DB	0fbH
	DB	045H
	DB	0fbH
	DB	045H
	DB	0fbH
	DB	045H
	DB	0fbH
	DB	045H
	DB	0fbH
	DB	045H
	DB	0fbH
	DB	045H
	DB	0fbH
	DB	045H
	DB	0fbH
	DB	045H
	DB	0fbH
	DB	045H
	DB	0fbH
	DB	045H
	DB	0fbH
	DB	045H
	DB	0fbH
	DB	045H
	DB	0fbH
	DB	045H
	DB	0fbH
	DB	045H
	DB	0fbH
	DB	045H
	DB	0fbH
	DB	045H
	DB	0fbH
	DB	045H
	DB	0fbH
	DB	045H
	DB	0fbH
	DB	045H
	DB	0fbH
	DB	045H
	DB	0fbH
	DB	045H
	DB	0fbH
	DB	045H
	DB	0fbH
	DB	045H
	DB	0fbH
	DB	045H
	DB	0fbH
	DB	045H
	DB	0fbH
	DB	045H
	DB	0fbH
	DB	045H
	DB	0fbH
	DB	045H
	DB	0dbH
	DB	03dH
	DB	038H
	DB	02dH
	DB	075H
	DB	014H
	DB	055H
	DB	014H
	DB	075H
	DB	014H
	DB	075H
	DB	014H
	DB	0b9H
	DB	06dH
	DB	0dfH
	DB	0f7H
	DB	0dfH
	DB	0ffH
	DB	0beH
	DB	0f7H
	DB	0ffH
	DB	0ffH
	DB	0dfH
	DB	0ffH
	DB	0beH
	DB	0f7H
	DB	0ffH
	DB	0ffH
	DB	0dfH
	DB	0ffH
	DB	0beH
	DB	0f7H
	DB	0ffH
	DB	0ffH
	DB	0dfH
	DB	0ffH
	DB	0beH
	DB	0f7H
	DB	0ffH
	DB	0ffH
	DB	0dfH
	DB	0ffH
	DB	0dfH
	DB	0ffH
	DB	0dfH
	DB	0ffH
	DB	0ffH
	DB	0ffH
	DB	0beH
	DB	0f7H
	DB	0dfH
	DB	0ffH
	DB	0ffH
	DB	0ffH
	DB	0dfH
	DB	0ffH
	DB	0dfH
	DB	0ffH
	DB	0ffH
	DB	0ffH
	DB	0beH
	DB	0f7H
	DB	0dfH
	DB	0ffH
	DB	0ffH
	DB	0ffH
	DB	0beH
	DB	0f7H
	DB	0dfH
	DB	0ffH
	DB	0ffH
	DB	0ffH
	DB	0beH
	DB	0f7H
	DB	07eH
	DB	0dfH
	DB	058H
	DB	03dH
	DB	0baH
	DB	03dH
	DB	0fbH
	DB	045H
	DB	0fbH
	DB	045H
	DB	0fbH
	DB	045H
	DB	0fbH
	DB	045H
	DB	0fbH
	DB	045H
	DB	0fbH
	DB	045H
	DB	0fbH
	DB	045H
	DB	0fbH
	DB	045H
	DB	0fbH
	DB	045H
	DB	0fbH
	DB	045H
	DB	0fbH
	DB	045H
	DB	0fbH
	DB	045H
	DB	0fbH
	DB	045H
	DB	0fbH
	DB	045H
	DB	0fbH
	DB	045H
	DB	0fbH
	DB	045H
	DB	0fbH
	DB	045H
	DB	0fbH
	DB	045H
	DB	0fbH
	DB	045H
	DB	0fbH
	DB	045H
	DB	0fbH
	DB	045H
	DB	0fbH
	DB	045H
	DB	0fbH
	DB	045H
	DB	0fbH
	DB	045H
	DB	0fbH
	DB	045H
	DB	0fbH
	DB	045H
	DB	0fbH
	DB	045H
	DB	0fbH
	DB	045H
	DB	0fbH
	DB	045H
	DB	0fbH
	DB	045H
	DB	0fbH
	DB	045H
	DB	0fbH
	DB	045H
	DB	0fbH
	DB	045H
	DB	0fbH
	DB	045H
	DB	0fbH
	DB	045H
	DB	0fbH
	DB	045H
	DB	0baH
	DB	03dH
	DB	0d7H
	DB	01cH
	DB	055H
	DB	0cH
	DB	075H
	DB	014H
	DB	055H
	DB	0cH
	DB	0f6H
	DB	034H
	DB	07eH
	DB	0d7H
	DB	0dfH
	DB	0ffH
	DB	0dfH
	DB	0ffH
	DB	0dfH
	DB	0ffH
	DB	0dfH
	DB	0ffH
	DB	0dfH
	DB	0ffH
	DB	0dfH
	DB	0ffH
	DB	0dfH
	DB	0ffH
	DB	0dfH
	DB	0ffH
	DB	0dfH
	DB	0ffH
	DB	0dfH
	DB	0ffH
	DB	0dfH
	DB	0ffH
	DB	0dfH
	DB	0ffH
	DB	0ffH
	DB	0ffH
	DB	0dfH
	DB	0ffH
	DB	0ffH
	DB	0ffH
	DB	0beH
	DB	0f7H
	DB	0dfH
	DB	0ffH
	DB	0dfH
	DB	0ffH
	DB	0beH
	DB	0f7H
	DB	0dfH
	DB	0ffH
	DB	0ffH
	DB	0ffH
	DB	0beH
	DB	0f7H
	DB	0dfH
	DB	0ffH
	DB	0dfH
	DB	0ffH
	DB	0beH
	DB	0f7H
	DB	0dfH
	DB	0ffH
	DB	0dfH
	DB	0ffH
	DB	0dcH
	DB	0b6H
	DB	079H
	DB	035H
	DB	0fbH
	DB	045H
	DB	0fbH
	DB	045H
	DB	0fbH
	DB	045H
	DB	0fbH
	DB	045H
	DB	0fbH
	DB	045H
	DB	0fbH
	DB	045H
	DB	0fbH
	DB	045H
	DB	0fbH
	DB	045H
	DB	0fbH
	DB	045H
	DB	0fbH
	DB	045H
	DB	0fbH
	DB	045H
	DB	0fbH
	DB	045H
	DB	01bH
	DB	04eH
	DB	07cH
	DB	076H
	DB	0ddH
	DB	09eH
	DB	03eH
	DB	0bfH
	DB	09eH
	DB	0d7H
	DB	09eH
	DB	0e7H
	DB	0dfH
	DB	0f7H
	DB	0ffH
	DB	0ffH
	DB	0dfH
	DB	0ffH
	DB	0dfH
	DB	0f7H
	DB	0bfH
	DB	0efH
	DB	07eH
	DB	0d7H
	DB	03dH
	DB	0b7H
	DB	0fdH
	DB	09eH
	DB	07cH
	DB	076H
	DB	01bH
	DB	04eH
	DB	0fbH
	DB	045H
	DB	0fbH
	DB	045H
	DB	0fbH
	DB	045H
	DB	0fbH
	DB	045H
	DB	0fbH
	DB	045H
	DB	0fbH
	DB	045H
	DB	0fbH
	DB	045H
	DB	0fbH
	DB	045H
	DB	0fbH
	DB	045H
	DB	0fbH
	DB	045H
	DB	0fbH
	DB	045H
	DB	0fbH
	DB	045H
	DB	059H
	DB	02dH
	DB	075H
	DB	014H
	DB	055H
	DB	014H
	DB	055H
	DB	0cH
	DB	095H
	DB	01cH
	DB	0dcH
	DB	0b6H
	DB	0dfH
	DB	0ffH
	DB	0dfH
	DB	0ffH
	DB	0beH
	DB	0f7H
	DB	0dfH
	DB	0ffH
	DB	0dfH
	DB	0ffH
	DB	0beH
	DB	0f7H
	DB	0dfH
	DB	0ffH
	DB	0dfH
	DB	0ffH
	DB	0beH
	DB	0f7H
	DB	0dfH
	DB	0ffH
	DB	0dfH
	DB	0ffH
	DB	0dfH
	DB	0ffH
	DB	0dfH
	DB	0ffH
	DB	0ffH
	DB	0ffH
	DB	0dfH
	DB	0ffH
	DB	0dfH
	DB	0ffH
	DB	0dfH
	DB	0ffH
	DB	0dfH
	DB	0ffH
	DB	0dfH
	DB	0ffH
	DB	0dfH
	DB	0ffH
	DB	0dfH
	DB	0ffH
	DB	0dfH
	DB	0ffH
	DB	0dfH
	DB	0ffH
	DB	0dfH
	DB	0ffH
	DB	0dfH
	DB	0ffH
	DB	07bH
	DB	096H
	DB	0baH
	DB	03dH
	DB	0fbH
	DB	045H
	DB	0fbH
	DB	045H
	DB	0fbH
	DB	045H
	DB	0fbH
	DB	045H
	DB	0fbH
	DB	045H
	DB	0fbH
	DB	045H
	DB	0fbH
	DB	045H
	DB	0fbH
	DB	045H
	DB	0fbH
	DB	045H
	DB	0fbH
	DB	045H
	DB	03cH
	DB	056H
	DB	0ddH
	DB	096H
	DB	07eH
	DB	0cfH
	DB	0dfH
	DB	0f7H
	DB	0ffH
	DB	0ffH
	DB	0dfH
	DB	0ffH
	DB	0beH
	DB	0f7H
	DB	0ffH
	DB	0ffH
	DB	0dfH
	DB	0ffH
	DB	0beH
	DB	0f7H
	DB	0ffH
	DB	0ffH
	DB	0dfH
	DB	0ffH
	DB	0beH
	DB	0f7H
	DB	0ffH
	DB	0ffH
	DB	0dfH
	DB	0ffH
	DB	0beH
	DB	0f7H
	DB	0ffH
	DB	0ffH
	DB	0dfH
	DB	0ffH
	DB	0dfH
	DB	0f7H
	DB	07eH
	DB	0d7H
	DB	0ddH
	DB	096H
	DB	03cH
	DB	056H
	DB	0fbH
	DB	045H
	DB	0fbH
	DB	045H
	DB	0fbH
	DB	045H
	DB	0fbH
	DB	045H
	DB	0fbH
	DB	045H
	DB	0fbH
	DB	045H
	DB	0fbH
	DB	045H
	DB	0fbH
	DB	045H
	DB	0fbH
	DB	045H
	DB	0fbH
	DB	045H
	DB	0baH
	DB	03dH
	DB	0b6H
	DB	01cH
	DB	075H
	DB	014H
	DB	075H
	DB	014H
	DB	055H
	DB	014H
	DB	09bH
	DB	0a6H
	DB	0dfH
	DB	0ffH
	DB	0beH
	DB	0f7H
	DB	0ffH
	DB	0ffH
	DB	0dfH
	DB	0ffH
	DB	0beH
	DB	0f7H
	DB	0ffH
	DB	0ffH
	DB	0dfH
	DB	0ffH
	DB	0beH
	DB	0f7H
	DB	0ffH
	DB	0ffH
	DB	0dfH
	DB	0ffH
	DB	0dfH
	DB	0ffH
	DB	0dfH
	DB	0ffH
	DB	0ffH
	DB	0ffH
	DB	0beH
	DB	0f7H
	DB	0dfH
	DB	0ffH
	DB	0ffH
	DB	0ffH
	DB	0dfH
	DB	0ffH
	DB	0dfH
	DB	0ffH
	DB	0ffH
	DB	0ffH
	DB	0beH
	DB	0f7H
	DB	0dfH
	DB	0ffH
	DB	0ffH
	DB	0ffH
	DB	0beH
	DB	0f7H
	DB	05bH
	DB	086H
	DB	0dbH
	DB	03dH
	DB	0fbH
	DB	045H
	DB	0fbH
	DB	045H
	DB	0fbH
	DB	045H
	DB	0fbH
	DB	045H
	DB	0fbH
	DB	045H
	DB	0fbH
	DB	045H
	DB	0fbH
	DB	045H
	DB	0fbH
	DB	045H
	DB	0fbH
	DB	045H
	DB	07cH
	DB	076H
	DB	05eH
	DB	0c7H
	DB	0ffH
	DB	0ffH
	DB	0ffH
	DB	0ffH
	DB	0dfH
	DB	0ffH
	DB	0dfH
	DB	0ffH
	DB	0ffH
	DB	0ffH
	DB	0dfH
	DB	0ffH
	DB	0dfH
	DB	0ffH
	DB	0dfH
	DB	0ffH
	DB	0dfH
	DB	0ffH
	DB	0dfH
	DB	0ffH
	DB	0dfH
	DB	0ffH
	DB	0dfH
	DB	0ffH
	DB	0dfH
	DB	0ffH
	DB	0dfH
	DB	0ffH
	DB	0dfH
	DB	0ffH
	DB	0dfH
	DB	0ffH
	DB	0dfH
	DB	0ffH
	DB	0dfH
	DB	0ffH
	DB	0dfH
	DB	0ffH
	DB	0dfH
	DB	0ffH
	DB	0dfH
	DB	0ffH
	DB	0ffH
	DB	0ffH
	DB	05eH
	DB	0c7H
	DB	07cH
	DB	06eH
	DB	0fbH
	DB	045H
	DB	0fbH
	DB	045H
	DB	0fbH
	DB	045H
	DB	0fbH
	DB	045H
	DB	0fbH
	DB	045H
	DB	0fbH
	DB	045H
	DB	0fbH
	DB	045H
	DB	0fbH
	DB	045H
	DB	0fbH
	DB	045H
	DB	0fbH
	DB	03dH
	DB	0f7H
	DB	01cH
	DB	075H
	DB	014H
	DB	055H
	DB	0cH
	DB	055H
	DB	014H
	DB	07bH
	DB	09eH
	DB	0dfH
	DB	0ffH
	DB	0dfH
	DB	0ffH
	DB	0dfH
	DB	0ffH
	DB	0dfH
	DB	0ffH
	DB	0dfH
	DB	0ffH
	DB	0dfH
	DB	0ffH
	DB	0dfH
	DB	0ffH
	DB	0dfH
	DB	0ffH
	DB	0dfH
	DB	0ffH
	DB	0ffH
	DB	0ffH
	DB	0dfH
	DB	0ffH
	DB	0ffH
	DB	0ffH
	DB	0beH
	DB	0f7H
	DB	0dfH
	DB	0ffH
	DB	0dfH
	DB	0ffH
	DB	0beH
	DB	0f7H
	DB	0dfH
	DB	0ffH
	DB	0dfH
	DB	0ffH
	DB	0beH
	DB	0f7H
	DB	0dfH
	DB	0ffH
	DB	0dfH
	DB	0ffH
	DB	05bH
	DB	07eH
	DB	0fbH
	DB	045H
	DB	0fbH
	DB	045H
	DB	0fbH
	DB	045H
	DB	0fbH
	DB	045H
	DB	0fbH
	DB	045H
	DB	0fbH
	DB	045H
	DB	0fbH
	DB	045H
	DB	0fbH
	DB	045H
	DB	0fbH
	DB	045H
	DB	05cH
	DB	06eH
	DB	07eH
	DB	0d7H
	DB	0dfH
	DB	0ffH
	DB	0dfH
	DB	0ffH
	DB	0beH
	DB	0f7H
	DB	0dfH
	DB	0ffH
	DB	0dfH
	DB	0ffH
	DB	0beH
	DB	0f7H
	DB	0dfH
	DB	0ffH
	DB	0dfH
	DB	0ffH
	DB	0beH
	DB	0f7H
	DB	0dfH
	DB	0ffH
	DB	0dfH
	DB	0ffH
	DB	0beH
	DB	0f7H
	DB	0dfH
	DB	0ffH
	DB	0dfH
	DB	0ffH
	DB	0beH
	DB	0f7H
	DB	0dfH
	DB	0ffH
	DB	0dfH
	DB	0ffH
	DB	0beH
	DB	0f7H
	DB	0dfH
	DB	0ffH
	DB	0dfH
	DB	0ffH
	DB	0beH
	DB	0f7H
	DB	0dfH
	DB	0ffH
	DB	0dfH
	DB	0ffH
	DB	0beH
	DB	0f7H
	DB	0dfH
	DB	0ffH
	DB	0dfH
	DB	0ffH
	DB	07eH
	DB	0d7H
	DB	07cH
	DB	06eH
	DB	0fbH
	DB	045H
	DB	0fbH
	DB	045H
	DB	0fbH
	DB	045H
	DB	0fbH
	DB	045H
	DB	0fbH
	DB	045H
	DB	0fbH
	DB	045H
	DB	0fbH
	DB	045H
	DB	0fbH
	DB	045H
	DB	0fbH
	DB	045H
	DB	017H
	DB	025H
	DB	055H
	DB	014H
	DB	055H
	DB	0cH
	DB	075H
	DB	014H
	DB	09bH
	DB	0a6H
	DB	0dfH
	DB	0ffH
	DB	0dfH
	DB	0ffH
	DB	0dfH
	DB	0ffH
	DB	0dfH
	DB	0ffH
	DB	0dfH
	DB	0ffH
	DB	0dfH
	DB	0ffH
	DB	0dfH
	DB	0ffH
	DB	0dfH
	DB	0ffH
	DB	0ffH
	DB	0ffH
	DB	0dfH
	DB	0ffH
	DB	0ffH
	DB	0ffH
	DB	0dfH
	DB	0ffH
	DB	0dfH
	DB	0ffH
	DB	0dfH
	DB	0ffH
	DB	0dfH
	DB	0ffH
	DB	0dfH
	DB	0ffH
	DB	0dfH
	DB	0ffH
	DB	0dfH
	DB	0ffH
	DB	0dfH
	DB	0ffH
	DB	09cH
	DB	086H
	DB	0fbH
	DB	045H
	DB	0fbH
	DB	045H
	DB	0fbH
	DB	045H
	DB	0fbH
	DB	045H
	DB	0fbH
	DB	045H
	DB	0fbH
	DB	045H
	DB	0fbH
	DB	045H
	DB	0fbH
	DB	045H
	DB	0fbH
	DB	04dH
	DB	05eH
	DB	0bfH
	DB	0dfH
	DB	0ffH
	DB	0beH
	DB	0f7H
	DB	0ffH
	DB	0ffH
	DB	0dfH
	DB	0ffH
	DB	0beH
	DB	0f7H
	DB	0ffH
	DB	0ffH
	DB	0dfH
	DB	0ffH
	DB	0beH
	DB	0f7H
	DB	0ffH
	DB	0ffH
	DB	0dfH
	DB	0ffH
	DB	0beH
	DB	0f7H
	DB	0ffH
	DB	0ffH
	DB	0dfH
	DB	0ffH
	DB	0beH
	DB	0f7H
	DB	0ffH
	DB	0ffH
	DB	0dfH
	DB	0ffH
	DB	0beH
	DB	0f7H
	DB	0ffH
	DB	0ffH
	DB	0dfH
	DB	0ffH
	DB	0beH
	DB	0f7H
	DB	0ffH
	DB	0ffH
	DB	0dfH
	DB	0ffH
	DB	0beH
	DB	0f7H
	DB	0ffH
	DB	0ffH
	DB	0dfH
	DB	0ffH
	DB	0beH
	DB	0f7H
	DB	0ffH
	DB	0ffH
	DB	0dfH
	DB	0ffH
	DB	0beH
	DB	0f7H
	DB	0ffH
	DB	0ffH
	DB	03eH
	DB	0bfH
	DB	01cH
	DB	056H
	DB	0fbH
	DB	045H
	DB	0fbH
	DB	045H
	DB	0fbH
	DB	045H
	DB	0fbH
	DB	045H
	DB	0fbH
	DB	045H
	DB	0fbH
	DB	045H
	DB	0fbH
	DB	045H
	DB	0fbH
	DB	045H
	DB	018H
	DB	025H
	DB	075H
	DB	014H
	DB	075H
	DB	014H
	DB	055H
	DB	014H
	DB	0fcH
	DB	0beH
	DB	0dfH
	DB	0ffH
	DB	0beH
	DB	0f7H
	DB	0ffH
	DB	0ffH
	DB	0dfH
	DB	0ffH
	DB	0beH
	DB	0f7H
	DB	0ffH
	DB	0ffH
	DB	0dfH
	DB	0ffH
	DB	0dfH
	DB	0ffH
	DB	0dfH
	DB	0ffH
	DB	0ffH
	DB	0ffH
	DB	0beH
	DB	0f7H
	DB	0dfH
	DB	0ffH
	DB	0ffH
	DB	0ffH
	DB	0beH
	DB	0f7H
	DB	0dfH
	DB	0ffH
	DB	0ffH
	DB	0ffH
	DB	0beH
	DB	0f7H
	DB	0ddH
	DB	09eH
	DB	0fbH
	DB	045H
	DB	0fbH
	DB	045H
	DB	0fbH
	DB	045H
	DB	0fbH
	DB	045H
	DB	0fbH
	DB	045H
	DB	0fbH
	DB	045H
	DB	0fbH
	DB	045H
	DB	0fbH
	DB	045H
	DB	05cH
	DB	06eH
	DB	0dfH
	DB	0f7H
	DB	0dfH
	DB	0ffH
	DB	0dfH
	DB	0ffH
	DB	0dfH
	DB	0ffH
	DB	0dfH
	DB	0ffH
	DB	0dfH
	DB	0ffH
	DB	0dfH
	DB	0ffH
	DB	0dfH
	DB	0ffH
	DB	0dfH
	DB	0ffH
	DB	0dfH
	DB	0ffH
	DB	0dfH
	DB	0ffH
	DB	0dfH
	DB	0ffH
	DB	0dfH
	DB	0ffH
	DB	0dfH
	DB	0ffH
	DB	0dfH
	DB	0ffH
	DB	0dfH
	DB	0ffH
	DB	0dfH
	DB	0ffH
	DB	0dfH
	DB	0ffH
	DB	0dfH
	DB	0ffH
	DB	0dfH
	DB	0ffH
	DB	0dfH
	DB	0ffH
	DB	0dfH
	DB	0ffH
	DB	0dfH
	DB	0ffH
	DB	0dfH
	DB	0ffH
	DB	0dfH
	DB	0ffH
	DB	0dfH
	DB	0ffH
	DB	0dfH
	DB	0ffH
	DB	0dfH
	DB	0ffH
	DB	0dfH
	DB	0ffH
	DB	0dfH
	DB	0ffH
	DB	0dfH
	DB	0ffH
	DB	0dfH
	DB	0ffH
	DB	0dfH
	DB	0ffH
	DB	0dfH
	DB	0f7H
	DB	0bdH
	DB	086H
	DB	0fbH
	DB	045H
	DB	0fbH
	DB	045H
	DB	0fbH
	DB	045H
	DB	0fbH
	DB	045H
	DB	0fbH
	DB	045H
	DB	0fbH
	DB	045H
	DB	0fbH
	DB	045H
	DB	0fbH
	DB	045H
	DB	017H
	DB	025H
	DB	075H
	DB	014H
	DB	055H
	DB	0cH
	DB	095H
	DB	01cH
	DB	07eH
	DB	0d7H
	DB	0dfH
	DB	0ffH
	DB	0ffH
	DB	0ffH
	DB	0dfH
	DB	0ffH
	DB	0dfH
	DB	0ffH
	DB	0ffH
	DB	0ffH
	DB	0dfH
	DB	0ffH
	DB	0ffH
	DB	0ffH
	DB	0dfH
	DB	0ffH
	DB	0ffH
	DB	0ffH
	DB	0beH
	DB	0f7H
	DB	0dfH
	DB	0ffH
	DB	0dfH
	DB	0ffH
	DB	0beH
	DB	0f7H
	DB	0dfH
	DB	0ffH
	DB	0dfH
	DB	0ffH
	DB	03eH
	DB	0bfH
	DB	0fbH
	DB	045H
	DB	0fbH
	DB	045H
	DB	0fbH
	DB	045H
	DB	0fbH
	DB	045H
	DB	0fbH
	DB	045H
	DB	0fbH
	DB	045H
	DB	0fbH
	DB	045H
	DB	0fbH
	DB	03dH
	DB	0bcH
	DB	096H
	DB	0dfH
	DB	0ffH
	DB	0beH
	DB	0f7H
	DB	0dfH
	DB	0ffH
	DB	0dfH
	DB	0ffH
	DB	0beH
	DB	0f7H
	DB	0dfH
	DB	0ffH
	DB	0dfH
	DB	0ffH
	DB	0beH
	DB	0f7H
	DB	0dfH
	DB	0ffH
	DB	0dfH
	DB	0ffH
	DB	0beH
	DB	0f7H
	DB	0dfH
	DB	0ffH
	DB	0dfH
	DB	0ffH
	DB	0beH
	DB	0f7H
	DB	0dfH
	DB	0ffH
	DB	0dfH
	DB	0ffH
	DB	0beH
	DB	0f7H
	DB	0dfH
	DB	0ffH
	DB	0dfH
	DB	0ffH
	DB	0beH
	DB	0f7H
	DB	0dfH
	DB	0ffH
	DB	0dfH
	DB	0ffH
	DB	0beH
	DB	0f7H
	DB	0dfH
	DB	0ffH
	DB	0dfH
	DB	0ffH
	DB	0beH
	DB	0f7H
	DB	0dfH
	DB	0ffH
	DB	0dfH
	DB	0ffH
	DB	0beH
	DB	0f7H
	DB	0dfH
	DB	0ffH
	DB	0dfH
	DB	0ffH
	DB	0beH
	DB	0f7H
	DB	0dfH
	DB	0ffH
	DB	0dfH
	DB	0ffH
	DB	0beH
	DB	0f7H
	DB	0ffH
	DB	0ffH
	DB	01dH
	DB	0afH
	DB	0fbH
	DB	045H
	DB	0fbH
	DB	045H
	DB	0fbH
	DB	045H
	DB	0fbH
	DB	045H
	DB	0fbH
	DB	045H
	DB	0fbH
	DB	045H
	DB	0fbH
	DB	045H
	DB	0fbH
	DB	045H
	DB	0f7H
	DB	024H
	DB	055H
	DB	0cH
	DB	055H
	DB	0cH
	DB	0f7H
	DB	034H
	DB	0beH
	DB	0f7H
	DB	0dfH
	DB	0ffH
	DB	0dfH
	DB	0ffH
	DB	0dfH
	DB	0ffH
	DB	0dfH
	DB	0ffH
	DB	0dfH
	DB	0ffH
	DB	0ffH
	DB	0ffH
	DB	0dfH
	DB	0ffH
	DB	0ffH
	DB	0ffH
	DB	0dfH
	DB	0ffH
	DB	0dfH
	DB	0ffH
	DB	0dfH
	DB	0ffH
	DB	0dfH
	DB	0ffH
	DB	0dfH
	DB	0ffH
	DB	09eH
	DB	0dfH
	DB	0fbH
	DB	045H
	DB	0fbH
	DB	045H
	DB	0fbH
	DB	045H
	DB	0fbH
	DB	045H
	DB	0fbH
	DB	045H
	DB	0fbH
	DB	045H
	DB	0fbH
	DB	045H
	DB	0dbH
	DB	03dH
	DB	0fdH
	DB	0aeH
	DB	0ffH
	DB	0ffH
	DB	0dfH
	DB	0ffH
	DB	0beH
	DB	0f7H
	DB	0ffH
	DB	0ffH
	DB	0dfH
	DB	0ffH
	DB	0beH
	DB	0f7H
	DB	0ffH
	DB	0ffH
	DB	0dfH
	DB	0ffH
	DB	0beH
	DB	0f7H
	DB	0ffH
	DB	0ffH
	DB	0dfH
	DB	0ffH
	DB	0beH
	DB	0f7H
	DB	0ffH
	DB	0ffH
	DB	0dfH
	DB	0ffH
	DB	0beH
	DB	0f7H
	DB	0ffH
	DB	0ffH
	DB	0dfH
	DB	0ffH
	DB	0beH
	DB	0f7H
	DB	0ffH
	DB	0ffH
	DB	0dfH
	DB	0ffH
	DB	0beH
	DB	0f7H
	DB	0ffH
	DB	0ffH
	DB	0dfH
	DB	0ffH
	DB	0beH
	DB	0f7H
	DB	0ffH
	DB	0ffH
	DB	0dfH
	DB	0ffH
	DB	0beH
	DB	0f7H
	DB	0ffH
	DB	0ffH
	DB	0dfH
	DB	0ffH
	DB	0beH
	DB	0f7H
	DB	0ffH
	DB	0ffH
	DB	0dfH
	DB	0ffH
	DB	0beH
	DB	0f7H
	DB	0ffH
	DB	0ffH
	DB	0dfH
	DB	0ffH
	DB	0beH
	DB	0f7H
	DB	0ffH
	DB	0ffH
	DB	0dfH
	DB	0ffH
	DB	05eH
	DB	0cfH
	DB	01bH
	DB	04eH
	DB	0fbH
	DB	045H
	DB	0fbH
	DB	045H
	DB	0fbH
	DB	045H
	DB	0fbH
	DB	045H
	DB	0fbH
	DB	045H
	DB	0fbH
	DB	045H
	DB	0dbH
	DB	03dH
	DB	0b6H
	DB	01cH
	DB	075H
	DB	014H
	DB	075H
	DB	014H
	DB	0b9H
	DB	06dH
	DB	0ffH
	DB	0ffH
	DB	0dfH
	DB	0ffH
	DB	0beH
	DB	0f7H
	DB	0ffH
	DB	0ffH
	DB	0dfH
	DB	0ffH
	DB	0dfH
	DB	0ffH
	DB	0dfH
	DB	0ffH
	DB	0ffH
	DB	0ffH
	DB	0beH
	DB	0f7H
	DB	0dfH
	DB	0ffH
	DB	0ffH
	DB	0ffH
	DB	0beH
	DB	0f7H
	DB	0dfH
	DB	0f7H
	DB	01bH
	DB	056H
	DB	0fbH
	DB	045H
	DB	0fbH
	DB	045H
	DB	0fbH
	DB	045H
	DB	0fbH
	DB	045H
	DB	0fbH
	DB	045H
	DB	0fbH
	DB	045H
	DB	0dbH
	DB	03dH
	DB	0dcH
	DB	0aeH
	DB	0dfH
	DB	0ffH
	DB	0dfH
	DB	0ffH
	DB	0dfH
	DB	0ffH
	DB	0dfH
	DB	0ffH
	DB	0dfH
	DB	0ffH
	DB	0dfH
	DB	0ffH
	DB	0dfH
	DB	0ffH
	DB	0dfH
	DB	0ffH
	DB	0dfH
	DB	0ffH
	DB	0dfH
	DB	0ffH
	DB	0dfH
	DB	0ffH
	DB	0dfH
	DB	0ffH
	DB	0dfH
	DB	0ffH
	DB	0dfH
	DB	0ffH
	DB	0dfH
	DB	0ffH
	DB	0dfH
	DB	0ffH
	DB	0dfH
	DB	0ffH
	DB	0dfH
	DB	0ffH
	DB	0dfH
	DB	0ffH
	DB	0dfH
	DB	0ffH
	DB	0dfH
	DB	0ffH
	DB	0dfH
	DB	0ffH
	DB	0dfH
	DB	0ffH
	DB	0dfH
	DB	0ffH
	DB	0dfH
	DB	0ffH
	DB	0dfH
	DB	0ffH
	DB	0dfH
	DB	0ffH
	DB	0dfH
	DB	0ffH
	DB	0dfH
	DB	0ffH
	DB	0dfH
	DB	0ffH
	DB	0dfH
	DB	0ffH
	DB	0dfH
	DB	0ffH
	DB	0dfH
	DB	0ffH
	DB	0dfH
	DB	0ffH
	DB	0dfH
	DB	0ffH
	DB	0dfH
	DB	0ffH
	DB	0dfH
	DB	0ffH
	DB	0dfH
	DB	0ffH
	DB	0dfH
	DB	0ffH
	DB	0dfH
	DB	0ffH
	DB	09fH
	DB	0dfH
	DB	01cH
	DB	04eH
	DB	0fbH
	DB	045H
	DB	0fbH
	DB	045H
	DB	0fbH
	DB	045H
	DB	0fbH
	DB	045H
	DB	0fbH
	DB	045H
	DB	0fbH
	DB	045H
	DB	0baH
	DB	03dH
	DB	075H
	DB	014H
	DB	075H
	DB	014H
	DB	055H
	DB	014H
	DB	0fdH
	DB	0beH
	DB	0dfH
	DB	0ffH
	DB	0dfH
	DB	0ffH
	DB	0ffH
	DB	0ffH
	DB	0dfH
	DB	0ffH
	DB	0ffH
	DB	0ffH
	DB	0dfH
	DB	0ffH
	DB	0ffH
	DB	0ffH
	DB	0beH
	DB	0f7H
	DB	0dfH
	DB	0ffH
	DB	0dfH
	DB	0ffH
	DB	0beH
	DB	0f7H
	DB	0bdH
	DB	086H
	DB	0fbH
	DB	045H
	DB	0fbH
	DB	045H
	DB	0fbH
	DB	045H
	DB	0fbH
	DB	045H
	DB	0fbH
	DB	045H
	DB	0fbH
	DB	045H
	DB	0dbH
	DB	03dH
	DB	07bH
	DB	08eH
	DB	0ffH
	DB	0ffH
	DB	0beH
	DB	0f7H
	DB	0dfH
	DB	0ffH
	DB	0dfH
	DB	0ffH
	DB	0beH
	DB	0f7H
	DB	0dfH
	DB	0ffH
	DB	0dfH
	DB	0ffH
	DB	0beH
	DB	0f7H
	DB	0dfH
	DB	0ffH
	DB	0dfH
	DB	0ffH
	DB	0beH
	DB	0f7H
	DB	0dfH
	DB	0ffH
	DB	0dfH
	DB	0ffH
	DB	0beH
	DB	0f7H
	DB	0dfH
	DB	0ffH
	DB	0dfH
	DB	0ffH
	DB	0beH
	DB	0f7H
	DB	0dfH
	DB	0ffH
	DB	0dfH
	DB	0ffH
	DB	0beH
	DB	0f7H
	DB	0dfH
	DB	0ffH
	DB	0dfH
	DB	0ffH
	DB	0beH
	DB	0f7H
	DB	0dfH
	DB	0ffH
	DB	0dfH
	DB	0ffH
	DB	0beH
	DB	0f7H
	DB	0dfH
	DB	0ffH
	DB	0dfH
	DB	0ffH
	DB	0beH
	DB	0f7H
	DB	0dfH
	DB	0ffH
	DB	0dfH
	DB	0ffH
	DB	0beH
	DB	0f7H
	DB	0dfH
	DB	0ffH
	DB	0dfH
	DB	0ffH
	DB	0beH
	DB	0f7H
	DB	0dfH
	DB	0ffH
	DB	0dfH
	DB	0ffH
	DB	0beH
	DB	0f7H
	DB	0dfH
	DB	0ffH
	DB	0dfH
	DB	0ffH
	DB	0beH
	DB	0f7H
	DB	0dfH
	DB	0ffH
	DB	07eH
	DB	0d7H
	DB	01bH
	DB	04eH
	DB	0fbH
	DB	045H
	DB	0fbH
	DB	045H
	DB	0fbH
	DB	045H
	DB	0fbH
	DB	045H
	DB	0fbH
	DB	045H
	DB	0fbH
	DB	045H
	DB	059H
	DB	02dH
	DB	075H
	DB	014H
	DB	055H
	DB	0cH
	DB	0d6H
	DB	02cH
	DB	0dfH
	DB	0f7H
	DB	0dfH
	DB	0ffH
	DB	0dfH
	DB	0ffH
	DB	0dfH
	DB	0ffH
	DB	0ffH
	DB	0ffH
	DB	0dfH
	DB	0ffH
	DB	0ffH
	DB	0ffH
	DB	0dfH
	DB	0ffH
	DB	0dfH
	DB	0ffH
	DB	0dfH
	DB	0ffH
	DB	05eH
	DB	0c7H
	DB	0fbH
	DB	045H
	DB	0fbH
	DB	045H
	DB	0fbH
	DB	045H
	DB	0fbH
	DB	045H
	DB	0fbH
	DB	045H
	DB	0fbH
	DB	045H
	DB	0fbH
	DB	03dH
	DB	0b9H
	DB	05dH
	DB	0ffH
	DB	0ffH
	DB	0ffH
	DB	0ffH
	DB	0beH
	DB	0f7H
	DB	0ffH
	DB	0ffH
	DB	0dfH
	DB	0ffH
	DB	0beH
	DB	0f7H
	DB	0ffH
	DB	0ffH
	DB	0dfH
	DB	0ffH
	DB	0beH
	DB	0f7H
	DB	0ffH
	DB	0ffH
	DB	0dfH
	DB	0ffH
	DB	0beH
	DB	0f7H
	DB	0ffH
	DB	0ffH
	DB	0dfH
	DB	0ffH
	DB	0beH
	DB	0f7H
	DB	0ffH
	DB	0ffH
	DB	0dfH
	DB	0ffH
	DB	0beH
	DB	0f7H
	DB	0ffH
	DB	0ffH
	DB	0dfH
	DB	0ffH
	DB	0beH
	DB	0f7H
	DB	0ffH
	DB	0ffH
	DB	0dfH
	DB	0ffH
	DB	0beH
	DB	0f7H
	DB	0ffH
	DB	0ffH
	DB	0dfH
	DB	0ffH
	DB	0beH
	DB	0f7H
	DB	0ffH
	DB	0ffH
	DB	0dfH
	DB	0ffH
	DB	0beH
	DB	0f7H
	DB	0ffH
	DB	0ffH
	DB	0dfH
	DB	0ffH
	DB	0beH
	DB	0f7H
	DB	0ffH
	DB	0ffH
	DB	0dfH
	DB	0ffH
	DB	0beH
	DB	0f7H
	DB	0ffH
	DB	0ffH
	DB	0dfH
	DB	0ffH
	DB	0beH
	DB	0f7H
	DB	0ffH
	DB	0ffH
	DB	0dfH
	DB	0ffH
	DB	0beH
	DB	0f7H
	DB	0ffH
	DB	0ffH
	DB	0dfH
	DB	0ffH
	DB	05eH
	DB	0cfH
	DB	0fbH
	DB	045H
	DB	0fbH
	DB	045H
	DB	0fbH
	DB	045H
	DB	0fbH
	DB	045H
	DB	0fbH
	DB	045H
	DB	0fbH
	DB	045H
	DB	0fbH
	DB	045H
	DB	0d7H
	DB	01cH
	DB	055H
	DB	014H
	DB	075H
	DB	014H
	DB	05aH
	DB	08eH
	DB	0beH
	DB	0f7H
	DB	0ffH
	DB	0ffH
	DB	0dfH
	DB	0ffH
	DB	0dfH
	DB	0ffH
	DB	0dfH
	DB	0ffH
	DB	0ffH
	DB	0ffH
	DB	0beH
	DB	0f7H
	DB	0dfH
	DB	0ffH
	DB	0ffH
	DB	0ffH
	DB	03cH
	DB	056H
	DB	0fbH
	DB	045H
	DB	0fbH
	DB	045H
	DB	0fbH
	DB	045H
	DB	0fbH
	DB	045H
	DB	0fbH
	DB	045H
	DB	0fbH
	DB	045H
	DB	058H
	DB	035H
	DB	0bfH
	DB	0efH
	DB	0beH
	DB	0f7H
	DB	0ffH
	DB	0ffH
	DB	0dfH
	DB	0ffH
	DB	0dfH
	DB	0ffH
	DB	0dfH
	DB	0ffH
	DB	0dfH
	DB	0ffH
	DB	0dfH
	DB	0ffH
	DB	0dfH
	DB	0ffH
	DB	0dfH
	DB	0ffH
	DB	0dfH
	DB	0ffH
	DB	0dfH
	DB	0ffH
	DB	0dfH
	DB	0ffH
	DB	0dfH
	DB	0ffH
	DB	0dfH
	DB	0ffH
	DB	0dfH
	DB	0ffH
	DB	0dfH
	DB	0ffH
	DB	0dfH
	DB	0ffH
	DB	0dfH
	DB	0ffH
	DB	0dfH
	DB	0ffH
	DB	0dfH
	DB	0ffH
	DB	0dfH
	DB	0ffH
	DB	0dfH
	DB	0ffH
	DB	0dfH
	DB	0ffH
	DB	0dfH
	DB	0ffH
	DB	0dfH
	DB	0ffH
	DB	0dfH
	DB	0ffH
	DB	0dfH
	DB	0ffH
	DB	0dfH
	DB	0ffH
	DB	0dfH
	DB	0ffH
	DB	0dfH
	DB	0ffH
	DB	0dfH
	DB	0ffH
	DB	0dfH
	DB	0ffH
	DB	0dfH
	DB	0ffH
	DB	0dfH
	DB	0ffH
	DB	0dfH
	DB	0ffH
	DB	0dfH
	DB	0ffH
	DB	0dfH
	DB	0ffH
	DB	0dfH
	DB	0ffH
	DB	0dfH
	DB	0ffH
	DB	0dfH
	DB	0ffH
	DB	0dfH
	DB	0ffH
	DB	0dfH
	DB	0ffH
	DB	0dfH
	DB	0ffH
	DB	0dfH
	DB	0ffH
	DB	0dfH
	DB	0ffH
	DB	01eH
	DB	0afH
	DB	0fbH
	DB	045H
	DB	0fbH
	DB	045H
	DB	0fbH
	DB	045H
	DB	0fbH
	DB	045H
	DB	0fbH
	DB	045H
	DB	0fbH
	DB	045H
	DB	0baH
	DB	03dH
	DB	075H
	DB	014H
	DB	075H
	DB	014H
	DB	095H
	DB	01cH
	DB	09eH
	DB	0efH
	DB	0ffH
	DB	0ffH
	DB	0dfH
	DB	0ffH
	DB	0ffH
	DB	0ffH
	DB	0dfH
	DB	0ffH
	DB	0ffH
	DB	0ffH
	DB	0beH
	DB	0f7H
	DB	0dfH
	DB	0ffH
	DB	0fdH
	DB	0a6H
	DB	0fbH
	DB	045H
	DB	0fbH
	DB	045H
	DB	0fbH
	DB	045H
	DB	0fbH
	DB	045H
	DB	0fbH
	DB	045H
	DB	0fbH
	DB	045H
	DB	079H
	DB	035H
	DB	0dcH
	DB	0aeH
	DB	0dfH
	DB	0ffH
	DB	0beH
	DB	0f7H
	DB	0ffH
	DB	0ffH
	DB	0beH
	DB	0f7H
	DB	0dfH
	DB	0ffH
	DB	0dfH
	DB	0ffH
	DB	0beH
	DB	0f7H
	DB	0dfH
	DB	0ffH
	DB	0dfH
	DB	0ffH
	DB	0beH
	DB	0f7H
	DB	0dfH
	DB	0ffH
	DB	0dfH
	DB	0ffH
	DB	0beH
	DB	0f7H
	DB	0dfH
	DB	0ffH
	DB	0dfH
	DB	0ffH
	DB	0beH
	DB	0f7H
	DB	0dfH
	DB	0ffH
	DB	0dfH
	DB	0ffH
	DB	0beH
	DB	0f7H
	DB	0dfH
	DB	0ffH
	DB	0dfH
	DB	0ffH
	DB	0beH
	DB	0f7H
	DB	0dfH
	DB	0ffH
	DB	0dfH
	DB	0ffH
	DB	0beH
	DB	0f7H
	DB	0dfH
	DB	0ffH
	DB	0dfH
	DB	0ffH
	DB	0beH
	DB	0f7H
	DB	0dfH
	DB	0ffH
	DB	0dfH
	DB	0ffH
	DB	0beH
	DB	0f7H
	DB	0dfH
	DB	0ffH
	DB	0dfH
	DB	0ffH
	DB	0beH
	DB	0f7H
	DB	0dfH
	DB	0ffH
	DB	0dfH
	DB	0ffH
	DB	0beH
	DB	0f7H
	DB	0dfH
	DB	0ffH
	DB	0dfH
	DB	0ffH
	DB	0beH
	DB	0f7H
	DB	0dfH
	DB	0ffH
	DB	0dfH
	DB	0ffH
	DB	0beH
	DB	0f7H
	DB	0dfH
	DB	0ffH
	DB	0dfH
	DB	0ffH
	DB	0beH
	DB	0f7H
	DB	0ffH
	DB	0ffH
	DB	09cH
	DB	086H
	DB	0fbH
	DB	045H
	DB	0fbH
	DB	045H
	DB	0fbH
	DB	045H
	DB	0fbH
	DB	045H
	DB	0fbH
	DB	045H
	DB	0fbH
	DB	045H
	DB	038H
	DB	02dH
	DB	055H
	DB	0cH
	DB	075H
	DB	014H
	DB	01aH
	DB	086H
	DB	0dfH
	DB	0ffH
	DB	0dfH
	DB	0ffH
	DB	0ffH
	DB	0ffH
	DB	0dfH
	DB	0ffH
	DB	0ffH
	DB	0ffH
	DB	0dfH
	DB	0ffH
	DB	0dfH
	DB	0efH
	DB	01bH
	DB	04eH
	DB	0fbH
	DB	045H
	DB	0fbH
	DB	045H
	DB	0fbH
	DB	045H
	DB	0fbH
	DB	045H
	DB	0fbH
	DB	045H
	DB	0dbH
	DB	03dH
	DB	058H
	DB	04dH
	DB	0dfH
	DB	0ffH
	DB	0dfH
	DB	0ffH
	DB	0dfH
	DB	0ffH
	DB	0ffH
	DB	0ffH
	DB	0beH
	DB	0f7H
	DB	0ffH
	DB	0ffH
	DB	0dfH
	DB	0ffH
	DB	0beH
	DB	0f7H
	DB	0ffH
	DB	0ffH
	DB	0dfH
	DB	0ffH
	DB	0beH
	DB	0f7H
	DB	0ffH
	DB	0ffH
	DB	0dfH
	DB	0ffH
	DB	0beH
	DB	0f7H
	DB	0ffH
	DB	0ffH
	DB	0dfH
	DB	0ffH
	DB	0beH
	DB	0f7H
	DB	0ffH
	DB	0ffH
	DB	0dfH
	DB	0ffH
	DB	0beH
	DB	0f7H
	DB	0ffH
	DB	0ffH
	DB	0dfH
	DB	0ffH
	DB	0beH
	DB	0f7H
	DB	0ffH
	DB	0ffH
	DB	0dfH
	DB	0ffH
	DB	0beH
	DB	0f7H
	DB	0ffH
	DB	0ffH
	DB	0dfH
	DB	0ffH
	DB	0beH
	DB	0f7H
	DB	0ffH
	DB	0ffH
	DB	0dfH
	DB	0ffH
	DB	0beH
	DB	0f7H
	DB	0ffH
	DB	0ffH
	DB	0dfH
	DB	0ffH
	DB	0beH
	DB	0f7H
	DB	0ffH
	DB	0ffH
	DB	0dfH
	DB	0ffH
	DB	0beH
	DB	0f7H
	DB	0ffH
	DB	0ffH
	DB	0dfH
	DB	0ffH
	DB	0beH
	DB	0f7H
	DB	0ffH
	DB	0ffH
	DB	0dfH
	DB	0ffH
	DB	0beH
	DB	0f7H
	DB	0ffH
	DB	0ffH
	DB	0dfH
	DB	0ffH
	DB	0beH
	DB	0f7H
	DB	0ffH
	DB	0ffH
	DB	0bfH
	DB	0efH
	DB	01cH
	DB	056H
	DB	0fbH
	DB	045H
	DB	0fbH
	DB	045H
	DB	0fbH
	DB	045H
	DB	0fbH
	DB	045H
	DB	0fbH
	DB	045H
	DB	0dbH
	DB	03dH
	DB	095H
	DB	014H
	DB	075H
	DB	014H
	DB	095H
	DB	01cH
	DB	0dfH
	DB	0f7H
	DB	0dfH
	DB	0ffH
	DB	0dfH
	DB	0ffH
	DB	0dfH
	DB	0ffH
	DB	0ffH
	DB	0ffH
	DB	0beH
	DB	0f7H
	DB	0fdH
	DB	09eH
	DB	0fbH
	DB	045H
	DB	0fbH
	DB	045H
	DB	0fbH
	DB	045H
	DB	0fbH
	DB	045H
	DB	0fbH
	DB	045H
	DB	0fbH
	DB	045H
	DB	0f7H
	DB	024H
	DB	01dH
	DB	0c7H
	DB	0dfH
	DB	0ffH
	DB	0ffH
	DB	0ffH
	DB	0beH
	DB	0f7H
	DB	0ffH
	DB	0ffH
	DB	0dfH
	DB	0ffH
	DB	0dfH
	DB	0ffH
	DB	0dfH
	DB	0ffH
	DB	0dfH
	DB	0ffH
	DB	0dfH
	DB	0ffH
	DB	0dfH
	DB	0ffH
	DB	0dfH
	DB	0ffH
	DB	0dfH
	DB	0ffH
	DB	0dfH
	DB	0ffH
	DB	0dfH
	DB	0ffH
	DB	0dfH
	DB	0ffH
	DB	0dfH
	DB	0ffH
	DB	0dfH
	DB	0ffH
	DB	0dfH
	DB	0ffH
	DB	0dfH
	DB	0ffH
	DB	0dfH
	DB	0ffH
	DB	0dfH
	DB	0ffH
	DB	0dfH
	DB	0ffH
	DB	0dfH
	DB	0ffH
	DB	0dfH
	DB	0ffH
	DB	0dfH
	DB	0ffH
	DB	0dfH
	DB	0ffH
	DB	0dfH
	DB	0ffH
	DB	0dfH
	DB	0ffH
	DB	0dfH
	DB	0ffH
	DB	0dfH
	DB	0ffH
	DB	0dfH
	DB	0ffH
	DB	0dfH
	DB	0ffH
	DB	0dfH
	DB	0ffH
	DB	0dfH
	DB	0ffH
	DB	0dfH
	DB	0ffH
	DB	0dfH
	DB	0ffH
	DB	0dfH
	DB	0ffH
	DB	0dfH
	DB	0ffH
	DB	0dfH
	DB	0ffH
	DB	0dfH
	DB	0ffH
	DB	0dfH
	DB	0ffH
	DB	0dfH
	DB	0ffH
	DB	0dfH
	DB	0ffH
	DB	0dfH
	DB	0ffH
	DB	0dfH
	DB	0ffH
	DB	0dfH
	DB	0ffH
	DB	0dfH
	DB	0ffH
	DB	0dfH
	DB	0ffH
	DB	0dfH
	DB	0ffH
	DB	05eH
	DB	0bfH
	DB	0fbH
	DB	045H
	DB	0fbH
	DB	045H
	DB	0fbH
	DB	045H
	DB	0fbH
	DB	045H
	DB	0fbH
	DB	045H
	DB	0fbH
	DB	045H
	DB	038H
	DB	02dH
	DB	075H
	DB	014H
	DB	055H
	DB	0cH
	DB	09bH
	DB	0a6H
	DB	0dfH
	DB	0ffH
	DB	0ffH
	DB	0ffH
	DB	0dfH
	DB	0ffH
	DB	0ffH
	DB	0ffH
	DB	0bfH
	DB	0f7H
	DB	01cH
	DB	04eH
	DB	0fbH
	DB	045H
	DB	0fbH
	DB	045H
	DB	0fbH
	DB	045H
	DB	0fbH
	DB	045H
	DB	0fbH
	DB	045H
	DB	09aH
	DB	035H
	DB	058H
	DB	04dH
	DB	0beH
	DB	0f7H
	DB	0dfH
	DB	0ffH
	DB	0dfH
	DB	0ffH
	DB	0beH
	DB	0f7H
	DB	0ffH
	DB	0ffH
	DB	0beH
	DB	0f7H
	DB	0dfH
	DB	0ffH
	DB	0dfH
	DB	0ffH
	DB	0beH
	DB	0f7H
	DB	0dfH
	DB	0ffH
	DB	0dfH
	DB	0ffH
	DB	0beH
	DB	0f7H
	DB	0dfH
	DB	0ffH
	DB	0dfH
	DB	0ffH
	DB	0beH
	DB	0f7H
	DB	0dfH
	DB	0ffH
	DB	0dfH
	DB	0ffH
	DB	0beH
	DB	0f7H
	DB	0dfH
	DB	0ffH
	DB	0dfH
	DB	0ffH
	DB	0beH
	DB	0f7H
	DB	0dfH
	DB	0ffH
	DB	0dfH
	DB	0ffH
	DB	0beH
	DB	0f7H
	DB	0dfH
	DB	0ffH
	DB	0dfH
	DB	0ffH
	DB	0beH
	DB	0f7H
	DB	0dfH
	DB	0ffH
	DB	0dfH
	DB	0ffH
	DB	0beH
	DB	0f7H
	DB	0dfH
	DB	0ffH
	DB	0dfH
	DB	0ffH
	DB	0beH
	DB	0f7H
	DB	0dfH
	DB	0ffH
	DB	0dfH
	DB	0ffH
	DB	0beH
	DB	0f7H
	DB	0dfH
	DB	0ffH
	DB	0dfH
	DB	0ffH
	DB	0beH
	DB	0f7H
	DB	0dfH
	DB	0ffH
	DB	0dfH
	DB	0ffH
	DB	0beH
	DB	0f7H
	DB	0dfH
	DB	0ffH
	DB	0dfH
	DB	0ffH
	DB	0beH
	DB	0f7H
	DB	0dfH
	DB	0ffH
	DB	0dfH
	DB	0ffH
	DB	0beH
	DB	0f7H
	DB	0dfH
	DB	0ffH
	DB	0dfH
	DB	0ffH
	DB	0dfH
	DB	0ffH
	DB	07cH
	DB	06eH
	DB	0fbH
	DB	045H
	DB	0fbH
	DB	045H
	DB	0fbH
	DB	045H
	DB	0fbH
	DB	045H
	DB	0fbH
	DB	045H
	DB	0dbH
	DB	03dH
	DB	075H
	DB	014H
	DB	055H
	DB	0cH
	DB	037H
	DB	045H
	DB	0dfH
	DB	0ffH
	DB	0ffH
	DB	0ffH
	DB	0dfH
	DB	0ffH
	DB	0ffH
	DB	0ffH
	DB	01dH
	DB	0b7H
	DB	0fbH
	DB	045H
	DB	0fbH
	DB	045H
	DB	0fbH
	DB	045H
	DB	0fbH
	DB	045H
	DB	0fbH
	DB	045H
	DB	0fbH
	DB	045H
	DB	0d6H
	DB	01cH
	DB	0fcH
	DB	0b6H
	DB	0dfH
	DB	0ffH
	DB	0dfH
	DB	0ffH
	DB	0dfH
	DB	0ffH
	DB	0dfH
	DB	0ffH
	DB	0ffH
	DB	0ffH
	DB	0beH
	DB	0f7H
	DB	0ffH
	DB	0ffH
	DB	0dfH
	DB	0ffH
	DB	0beH
	DB	0f7H
	DB	0ffH
	DB	0ffH
	DB	0dfH
	DB	0ffH
	DB	0beH
	DB	0f7H
	DB	0ffH
	DB	0ffH
	DB	0dfH
	DB	0ffH
	DB	0beH
	DB	0f7H
	DB	0ffH
	DB	0ffH
	DB	0dfH
	DB	0ffH
	DB	0beH
	DB	0f7H
	DB	0ffH
	DB	0ffH
	DB	0dfH
	DB	0ffH
	DB	0beH
	DB	0f7H
	DB	0ffH
	DB	0ffH
	DB	0dfH
	DB	0ffH
	DB	0beH
	DB	0f7H
	DB	0ffH
	DB	0ffH
	DB	0dfH
	DB	0ffH
	DB	0beH
	DB	0f7H
	DB	0ffH
	DB	0ffH
	DB	0dfH
	DB	0ffH
	DB	0beH
	DB	0f7H
	DB	0ffH
	DB	0ffH
	DB	0dfH
	DB	0ffH
	DB	0beH
	DB	0f7H
	DB	0ffH
	DB	0ffH
	DB	0dfH
	DB	0ffH
	DB	0beH
	DB	0f7H
	DB	0ffH
	DB	0ffH
	DB	0dfH
	DB	0ffH
	DB	0beH
	DB	0f7H
	DB	0ffH
	DB	0ffH
	DB	0dfH
	DB	0ffH
	DB	0beH
	DB	0f7H
	DB	0ffH
	DB	0ffH
	DB	0dfH
	DB	0ffH
	DB	0beH
	DB	0f7H
	DB	0ffH
	DB	0ffH
	DB	0dfH
	DB	0ffH
	DB	0beH
	DB	0f7H
	DB	0ffH
	DB	0ffH
	DB	0dfH
	DB	0ffH
	DB	0beH
	DB	0f7H
	DB	09eH
	DB	0d7H
	DB	0fbH
	DB	045H
	DB	0fbH
	DB	045H
	DB	0fbH
	DB	045H
	DB	0fbH
	DB	045H
	DB	0fbH
	DB	045H
	DB	0fbH
	DB	045H
	DB	017H
	DB	025H
	DB	055H
	DB	014H
	DB	075H
	DB	014H
	DB	07eH
	DB	0dfH
	DB	0dfH
	DB	0ffH
	DB	0dfH
	DB	0ffH
	DB	0ffH
	DB	0ffH
	DB	05cH
	DB	066H
	DB	0fbH
	DB	045H
	DB	0fbH
	DB	045H
	DB	0fbH
	DB	045H
	DB	0fbH
	DB	045H
	DB	0fbH
	DB	045H
	DB	09aH
	DB	035H
	DB	0b6H
	DB	02cH
	DB	0ffH
	DB	0ffH
	DB	0beH
	DB	0f7H
	DB	0dfH
	DB	0ffH
	DB	0ffH
	DB	0ffH
	DB	0beH
	DB	0f7H
	DB	0ffH
	DB	0ffH
	DB	0dfH
	DB	0ffH
	DB	0dfH
	DB	0ffH
	DB	0dfH
	DB	0ffH
	DB	0dfH
	DB	0ffH
	DB	0dfH
	DB	0ffH
	DB	0dfH
	DB	0ffH
	DB	0dfH
	DB	0ffH
	DB	0dfH
	DB	0ffH
	DB	0dfH
	DB	0ffH
	DB	0dfH
	DB	0ffH
	DB	0dfH
	DB	0ffH
	DB	0dfH
	DB	0ffH
	DB	0dfH
	DB	0ffH
	DB	0dfH
	DB	0ffH
	DB	0dfH
	DB	0ffH
	DB	0dfH
	DB	0ffH
	DB	0dfH
	DB	0ffH
	DB	0dfH
	DB	0ffH
	DB	0dfH
	DB	0ffH
	DB	0dfH
	DB	0ffH
	DB	0dfH
	DB	0ffH
	DB	0dfH
	DB	0ffH
	DB	0dfH
	DB	0ffH
	DB	0dfH
	DB	0ffH
	DB	0dfH
	DB	0ffH
	DB	0dfH
	DB	0ffH
	DB	0dfH
	DB	0ffH
	DB	0dfH
	DB	0ffH
	DB	0dfH
	DB	0ffH
	DB	0dfH
	DB	0ffH
	DB	0dfH
	DB	0ffH
	DB	0dfH
	DB	0ffH
	DB	0dfH
	DB	0ffH
	DB	0dfH
	DB	0ffH
	DB	0dfH
	DB	0ffH
	DB	0dfH
	DB	0ffH
	DB	0dfH
	DB	0ffH
	DB	0dfH
	DB	0ffH
	DB	0dfH
	DB	0ffH
	DB	0dfH
	DB	0ffH
	DB	0dfH
	DB	0ffH
	DB	0dfH
	DB	0ffH
	DB	0dfH
	DB	0ffH
	DB	0dfH
	DB	0ffH
	DB	0dfH
	DB	0ffH
	DB	0dfH
	DB	0ffH
	DB	0ffH
	DB	0ffH
	DB	07cH
	DB	06eH
	DB	0fbH
	DB	045H
	DB	0fbH
	DB	045H
	DB	0fbH
	DB	045H
	DB	0fbH
	DB	045H
	DB	0fbH
	DB	045H
	DB	09aH
	DB	035H
	DB	055H
	DB	0cH
	DB	075H
	DB	014H
	DB	05bH
	DB	096H
	DB	0ffH
	DB	0ffH
	DB	0dfH
	DB	0ffH
	DB	0bfH
	DB	0e7H
	DB	0fbH
	DB	045H
	DB	0fbH
	DB	045H
	DB	0fbH
	DB	045H
	DB	0fbH
	DB	045H
	DB	0fbH
	DB	045H
	DB	0fbH
	DB	045H
	DB	0f7H
	DB	024H
	DB	0f9H
	DB	07dH
	DB	0dfH
	DB	0ffH
	DB	0beH
	DB	0f7H
	DB	0dfH
	DB	0ffH
	DB	0dfH
	DB	0ffH
	DB	0beH
	DB	0f7H
	DB	0ffH
	DB	0ffH
	DB	0beH
	DB	0f7H
	DB	0dfH
	DB	0ffH
	DB	0dfH
	DB	0ffH
	DB	0beH
	DB	0f7H
	DB	0dfH
	DB	0ffH
	DB	03dH
	DB	0c7H
	DB	03aH
	DB	08eH
	DB	09bH
	DB	0a6H
	DB	0bfH
	DB	0efH
	DB	0beH
	DB	0f7H
	DB	0dfH
	DB	0ffH
	DB	0dfH
	DB	0ffH
	DB	0beH
	DB	0f7H
	DB	0dfH
	DB	0ffH
	DB	0dfH
	DB	0ffH
	DB	0beH
	DB	0f7H
	DB	0dfH
	DB	0ffH
	DB	0dfH
	DB	0ffH
	DB	0beH
	DB	0f7H
	DB	0dfH
	DB	0ffH
	DB	0dfH
	DB	0ffH
	DB	0beH
	DB	0f7H
	DB	0dfH
	DB	0ffH
	DB	0dfH
	DB	0ffH
	DB	0beH
	DB	0f7H
	DB	0dfH
	DB	0ffH
	DB	0dfH
	DB	0ffH
	DB	0beH
	DB	0f7H
	DB	0dfH
	DB	0ffH
	DB	0dfH
	DB	0ffH
	DB	0beH
	DB	0f7H
	DB	0dfH
	DB	0ffH
	DB	0dfH
	DB	0ffH
	DB	0beH
	DB	0f7H
	DB	0dfH
	DB	0ffH
	DB	0dfH
	DB	0ffH
	DB	0beH
	DB	0f7H
	DB	0dfH
	DB	0ffH
	DB	0dfH
	DB	0ffH
	DB	0beH
	DB	0f7H
	DB	0dfH
	DB	0ffH
	DB	0dfH
	DB	0ffH
	DB	0beH
	DB	0f7H
	DB	0dfH
	DB	0ffH
	DB	0dfH
	DB	0ffH
	DB	0beH
	DB	0f7H
	DB	0dfH
	DB	0ffH
	DB	05eH
	DB	0c7H
	DB	0fbH
	DB	045H
	DB	0fbH
	DB	045H
	DB	0fbH
	DB	045H
	DB	0fbH
	DB	045H
	DB	0fbH
	DB	045H
	DB	0fbH
	DB	045H
	DB	0b6H
	DB	01cH
	DB	055H
	DB	0cH
	DB	058H
	DB	04dH
	DB	0ffH
	DB	0ffH
	DB	0dfH
	DB	0ffH
	DB	01dH
	DB	0afH
	DB	0fbH
	DB	045H
	DB	0fbH
	DB	045H
	DB	0fbH
	DB	045H
	DB	0fbH
	DB	045H
	DB	0fbH
	DB	045H
	DB	0dbH
	DB	03dH
	DB	075H
	DB	014H
	DB	01cH
	DB	0c7H
	DB	0dfH
	DB	0ffH
	DB	0dfH
	DB	0ffH
	DB	0dfH
	DB	0ffH
	DB	0dfH
	DB	0ffH
	DB	0dfH
	DB	0ffH
	DB	0ffH
	DB	0ffH
	DB	0beH
	DB	0f7H
	DB	0ffH
	DB	0ffH
	DB	0dfH
	DB	0ffH
	DB	0beH
	DB	0f7H
	DB	01aH
	DB	07eH
	DB	075H
	DB	014H
	DB	055H
	DB	014H
	DB	075H
	DB	014H
	DB	0b6H
	DB	024H
	DB	01dH
	DB	0c7H
	DB	0ffH
	DB	0ffH
	DB	0dfH
	DB	0ffH
	DB	0beH
	DB	0f7H
	DB	0ffH
	DB	0ffH
	DB	0dfH
	DB	0ffH
	DB	0beH
	DB	0f7H
	DB	0ffH
	DB	0ffH
	DB	0dfH
	DB	0ffH
	DB	0beH
	DB	0f7H
	DB	0ffH
	DB	0ffH
	DB	0dfH
	DB	0ffH
	DB	0beH
	DB	0f7H
	DB	0ffH
	DB	0ffH
	DB	0dfH
	DB	0ffH
	DB	0beH
	DB	0f7H
	DB	0ffH
	DB	0ffH
	DB	0dfH
	DB	0ffH
	DB	0beH
	DB	0f7H
	DB	0ffH
	DB	0ffH
	DB	0dfH
	DB	0ffH
	DB	0beH
	DB	0f7H
	DB	0ffH
	DB	0ffH
	DB	0dfH
	DB	0ffH
	DB	0beH
	DB	0f7H
	DB	0ffH
	DB	0ffH
	DB	0dfH
	DB	0ffH
	DB	0beH
	DB	0f7H
	DB	0ffH
	DB	0ffH
	DB	0dfH
	DB	0ffH
	DB	0beH
	DB	0f7H
	DB	0ffH
	DB	0ffH
	DB	0dfH
	DB	0ffH
	DB	0beH
	DB	0f7H
	DB	0ffH
	DB	0ffH
	DB	0dfH
	DB	0ffH
	DB	0beH
	DB	0f7H
	DB	0ffH
	DB	0ffH
	DB	0dfH
	DB	0ffH
	DB	03cH
	DB	056H
	DB	0fbH
	DB	045H
	DB	0fbH
	DB	045H
	DB	0fbH
	DB	045H
	DB	0fbH
	DB	045H
	DB	0fbH
	DB	045H
	DB	038H
	DB	02dH
	DB	075H
	DB	014H
	DB	075H
	DB	014H
	DB	0dfH
	DB	0f7H
	DB	0dfH
	DB	0ffH
	DB	07cH
	DB	076H
	DB	0fbH
	DB	045H
	DB	0fbH
	DB	045H
	DB	0fbH
	DB	045H
	DB	0fbH
	DB	045H
	DB	0fbH
	DB	045H
	DB	059H
	DB	02dH
	DB	075H
	DB	01cH
	DB	0dfH
	DB	0f7H
	DB	0ffH
	DB	0ffH
	DB	0beH
	DB	0f7H
	DB	0dfH
	DB	0ffH
	DB	0ffH
	DB	0ffH
	DB	0beH
	DB	0f7H
	DB	0ffH
	DB	0ffH
	DB	0dfH
	DB	0ffH
	DB	0dfH
	DB	0ffH
	DB	0dfH
	DB	0ffH
	DB	0fdH
	DB	0aeH
	DB	038H
	DB	02dH
	DB	017H
	DB	025H
	DB	095H
	DB	014H
	DB	055H
	DB	0cH
	DB	075H
	DB	014H
	DB	0b6H
	DB	024H
	DB	0beH
	DB	0efH
	DB	0dfH
	DB	0ffH
	DB	0dfH
	DB	0ffH
	DB	0dfH
	DB	0ffH
	DB	0dfH
	DB	0ffH
	DB	0dfH
	DB	0ffH
	DB	0dfH
	DB	0ffH
	DB	0dfH
	DB	0ffH
	DB	0dfH
	DB	0ffH
	DB	0dfH
	DB	0ffH
	DB	0dfH
	DB	0ffH
	DB	0dfH
	DB	0ffH
	DB	0dfH
	DB	0ffH
	DB	0dfH
	DB	0ffH
	DB	0dfH
	DB	0ffH
	DB	0dfH
	DB	0ffH
	DB	0dfH
	DB	0ffH
	DB	0dfH
	DB	0ffH
	DB	0dfH
	DB	0ffH
	DB	0dfH
	DB	0ffH
	DB	0dfH
	DB	0ffH
	DB	0dfH
	DB	0ffH
	DB	0dfH
	DB	0ffH
	DB	0dfH
	DB	0ffH
	DB	0bfH
	DB	0f7H
	DB	0dfH
	DB	0ffH
	DB	0dfH
	DB	0ffH
	DB	0dfH
	DB	0ffH
	DB	0dfH
	DB	0ffH
	DB	0dfH
	DB	0ffH
	DB	0dfH
	DB	0ffH
	DB	0dfH
	DB	0ffH
	DB	0dfH
	DB	0ffH
	DB	0dfH
	DB	0ffH
	DB	0dfH
	DB	0ffH
	DB	0dfH
	DB	0ffH
	DB	0ffH
	DB	0ffH
	DB	0dfH
	DB	0ffH
	DB	0ddH
	DB	096H
	DB	0fbH
	DB	045H
	DB	0fbH
	DB	045H
	DB	0fbH
	DB	045H
	DB	0fbH
	DB	045H
	DB	0fbH
	DB	045H
	DB	09aH
	DB	035H
	DB	075H
	DB	014H
	DB	075H
	DB	014H
	DB	03dH
	DB	0cfH
	DB	0ffH
	DB	0ffH
	DB	0fbH
	DB	045H
	DB	0fbH
	DB	045H
	DB	0fbH
	DB	045H
	DB	0fbH
	DB	045H
	DB	0fbH
	DB	045H
	DB	0fbH
	DB	045H
	DB	0d6H
	DB	01cH
	DB	057H
	DB	055H
	DB	0dfH
	DB	0ffH
	DB	0dfH
	DB	0ffH
	DB	0beH
	DB	0f7H
	DB	0dfH
	DB	0ffH
	DB	0dfH
	DB	0ffH
	DB	0beH
	DB	0f7H
	DB	0ffH
	DB	0ffH
	DB	0beH
	DB	0f7H
	DB	0dfH
	DB	0ffH
	DB	0ddH
	DB	096H
	DB	0fbH
	DB	045H
	DB	0fbH
	DB	045H
	DB	0fbH
	DB	045H
	DB	0dbH
	DB	03dH
	DB	0d6H
	DB	01cH
	DB	075H
	DB	014H
	DB	055H
	DB	014H
	DB	09bH
	DB	0a6H
	DB	0dfH
	DB	0ffH
	DB	0beH
	DB	0f7H
	DB	0dfH
	DB	0ffH
	DB	0dfH
	DB	0ffH
	DB	0beH
	DB	0f7H
	DB	0dfH
	DB	0f7H
	DB	05eH
	DB	0d7H
	DB	03dH
	DB	0cfH
	DB	0beH
	DB	0f7H
	DB	0dfH
	DB	0ffH
	DB	0beH
	DB	0f7H
	DB	0dfH
	DB	0ffH
	DB	0dfH
	DB	0ffH
	DB	0beH
	DB	0f7H
	DB	0dfH
	DB	0ffH
	DB	0dfH
	DB	0ffH
	DB	0beH
	DB	0f7H
	DB	0dfH
	DB	0ffH
	DB	0dfH
	DB	0ffH
	DB	0beH
	DB	0f7H
	DB	0dfH
	DB	0ffH
	DB	0bfH
	DB	0efH
	DB	0b9H
	DB	06dH
	DB	0b6H
	DB	024H
	DB	07eH
	DB	0dfH
	DB	0beH
	DB	0f7H
	DB	0dfH
	DB	0ffH
	DB	0dfH
	DB	0ffH
	DB	0beH
	DB	0f7H
	DB	0dfH
	DB	0ffH
	DB	0dfH
	DB	0ffH
	DB	0beH
	DB	0f7H
	DB	0dfH
	DB	0ffH
	DB	0dfH
	DB	0ffH
	DB	0beH
	DB	0f7H
	DB	0dfH
	DB	0ffH
	DB	0dfH
	DB	0ffH
	DB	07eH
	DB	0d7H
	DB	0fbH
	DB	045H
	DB	0fbH
	DB	045H
	DB	0fbH
	DB	045H
	DB	0fbH
	DB	045H
	DB	0fbH
	DB	045H
	DB	0fbH
	DB	03dH
	DB	075H
	DB	014H
	DB	075H
	DB	014H
	DB	07bH
	DB	09eH
	DB	09eH
	DB	0d7H
	DB	0fbH
	DB	045H
	DB	0fbH
	DB	045H
	DB	0fbH
	DB	045H
	DB	0fbH
	DB	045H
	DB	0fbH
	DB	045H
	DB	0dbH
	DB	03dH
	DB	075H
	DB	014H
	DB	01aH
	DB	086H
	DB	0dfH
	DB	0ffH
	DB	0dfH
	DB	0ffH
	DB	0dfH
	DB	0ffH
	DB	0dfH
	DB	0ffH
	DB	0dfH
	DB	0ffH
	DB	0dfH
	DB	0ffH
	DB	0ffH
	DB	0ffH
	DB	0beH
	DB	0f7H
	DB	09eH
	DB	0d7H
	DB	0fbH
	DB	045H
	DB	0fbH
	DB	045H
	DB	0fbH
	DB	045H
	DB	0fbH
	DB	045H
	DB	0fbH
	DB	045H
	DB	0dbH
	DB	03dH
	DB	075H
	DB	014H
	DB	055H
	DB	014H
	DB	01aH
	DB	086H
	DB	0dfH
	DB	0ffH
	DB	0beH
	DB	0f7H
	DB	0ffH
	DB	0ffH
	DB	0dfH
	DB	0ffH
	DB	03dH
	DB	0cfH
	DB	0f6H
	DB	02cH
	DB	075H
	DB	014H
	DB	055H
	DB	014H
	DB	075H
	DB	014H
	DB	078H
	DB	055H
	DB	0bbH
	DB	0aeH
	DB	0ffH
	DB	0ffH
	DB	0dfH
	DB	0ffH
	DB	0beH
	DB	0f7H
	DB	0ffH
	DB	0ffH
	DB	0dfH
	DB	0ffH
	DB	0beH
	DB	0f7H
	DB	0ffH
	DB	0ffH
	DB	0dfH
	DB	0ffH
	DB	0beH
	DB	0f7H
	DB	0ffH
	DB	0ffH
	DB	0bfH
	DB	0efH
	DB	0f6H
	DB	034H
	DB	075H
	DB	014H
	DB	0f6H
	DB	034H
	DB	09eH
	DB	0efH
	DB	0ffH
	DB	0ffH
	DB	0dfH
	DB	0ffH
	DB	0beH
	DB	0f7H
	DB	0ffH
	DB	0ffH
	DB	0dfH
	DB	0ffH
	DB	0beH
	DB	0f7H
	DB	0ffH
	DB	0ffH
	DB	0dfH
	DB	0ffH
	DB	0beH
	DB	0f7H
	DB	0ffH
	DB	0ffH
	DB	0dfH
	DB	0ffH
	DB	0dfH
	DB	0f7H
	DB	01bH
	DB	04eH
	DB	0fbH
	DB	045H
	DB	0fbH
	DB	045H
	DB	0fbH
	DB	045H
	DB	0fbH
	DB	045H
	DB	0fbH
	DB	045H
	DB	0d6H
	DB	01cH
	DB	075H
	DB	014H
	DB	0d9H
	DB	075H
	DB	01eH
	DB	0afH
	DB	0fbH
	DB	045H
	DB	0fbH
	DB	045H
	DB	0fbH
	DB	045H
	DB	0fbH
	DB	045H
	DB	0fbH
	DB	045H
	DB	09aH
	DB	035H
	DB	075H
	DB	014H
	DB	09bH
	DB	0a6H
	DB	0dfH
	DB	0ffH
	DB	0ffH
	DB	0ffH
	DB	0beH
	DB	0f7H
	DB	0dfH
	DB	0ffH
	DB	0ffH
	DB	0ffH
	DB	0beH
	DB	0f7H
	DB	0ffH
	DB	0ffH
	DB	0dfH
	DB	0ffH
	DB	0fdH
	DB	09eH
	DB	0fbH
	DB	045H
	DB	0fbH
	DB	045H
	DB	0fbH
	DB	045H
	DB	0fbH
	DB	045H
	DB	0fbH
	DB	045H
	DB	0fbH
	DB	045H
	DB	017H
	DB	025H
	DB	055H
	DB	0cH
	DB	07bH
	DB	09eH
	DB	0dfH
	DB	0ffH
	DB	0dfH
	DB	0ffH
	DB	0dfH
	DB	0ffH
	DB	0ffH
	DB	0ffH
	DB	038H
	DB	03dH
	DB	0b6H
	DB	01cH
	DB	075H
	DB	014H
	DB	055H
	DB	0cH
	DB	055H
	DB	0cH
	DB	075H
	DB	014H
	DB	055H
	DB	0cH
	DB	0b6H
	DB	02cH
	DB	03aH
	DB	08eH
	DB	09eH
	DB	0e7H
	DB	0dfH
	DB	0ffH
	DB	0dfH
	DB	0ffH
	DB	0dfH
	DB	0ffH
	DB	0dfH
	DB	0ffH
	DB	0dfH
	DB	0ffH
	DB	0dfH
	DB	0efH
	DB	0bdH
	DB	08eH
	DB	03cH
	DB	056H
	DB	05eH
	DB	0c7H
	DB	095H
	DB	01cH
	DB	075H
	DB	014H
	DB	078H
	DB	055H
	DB	0dfH
	DB	0ffH
	DB	0dfH
	DB	0ffH
	DB	0dfH
	DB	0ffH
	DB	0dfH
	DB	0ffH
	DB	0dfH
	DB	0ffH
	DB	0dfH
	DB	0ffH
	DB	0dfH
	DB	0ffH
	DB	0dfH
	DB	0ffH
	DB	0dfH
	DB	0ffH
	DB	0ffH
	DB	0ffH
	DB	0dfH
	DB	0ffH
	DB	0dfH
	DB	0ffH
	DB	07cH
	DB	076H
	DB	0fbH
	DB	045H
	DB	0fbH
	DB	045H
	DB	0fbH
	DB	045H
	DB	0fbH
	DB	045H
	DB	0fbH
	DB	045H
	DB	018H
	DB	025H
	DB	075H
	DB	014H
	DB	078H
	DB	055H
	DB	0ddH
	DB	08eH
	DB	0fbH
	DB	045H
	DB	0fbH
	DB	045H
	DB	0fbH
	DB	045H
	DB	0fbH
	DB	045H
	DB	0fbH
	DB	045H
	DB	038H
	DB	02dH
	DB	075H
	DB	014H
	DB	01dH
	DB	0c7H
	DB	0dfH
	DB	0ffH
	DB	0dfH
	DB	0ffH
	DB	0beH
	DB	0f7H
	DB	0dfH
	DB	0ffH
	DB	0dfH
	DB	0ffH
	DB	0beH
	DB	0f7H
	DB	0ffH
	DB	0ffH
	DB	0beH
	DB	0f7H
	DB	0fdH
	DB	0a6H
	DB	0fbH
	DB	045H
	DB	0fbH
	DB	045H
	DB	0fbH
	DB	045H
	DB	0fbH
	DB	045H
	DB	0fbH
	DB	045H
	DB	0fbH
	DB	045H
	DB	038H
	DB	02dH
	DB	095H
	DB	024H
	DB	09eH
	DB	0efH
	DB	0dfH
	DB	0ffH
	DB	0beH
	DB	0f7H
	DB	09fH
	DB	0dfH
	DB	03cH
	DB	056H
	DB	0fbH
	DB	045H
	DB	0fbH
	DB	045H
	DB	0fbH
	DB	03dH
	DB	09aH
	DB	035H
	DB	0f7H
	DB	024H
	DB	075H
	DB	014H
	DB	055H
	DB	014H
	DB	055H
	DB	0cH
	DB	075H
	DB	014H
	DB	055H
	DB	014H
	DB	098H
	DB	065H
	DB	01dH
	DB	0c7H
	DB	0dfH
	DB	0ffH
	DB	0dfH
	DB	0ffH
	DB	0dfH
	DB	0ffH
	DB	0bfH
	DB	0efH
	DB	05cH
	DB	05eH
	DB	0fbH
	DB	045H
	DB	03cH
	DB	05eH
	DB	0bcH
	DB	0a6H
	DB	075H
	DB	014H
	DB	055H
	DB	014H
	DB	07bH
	DB	09eH
	DB	0dfH
	DB	0ffH
	DB	0beH
	DB	0f7H
	DB	0dfH
	DB	0ffH
	DB	0dfH
	DB	0ffH
	DB	0beH
	DB	0f7H
	DB	0dfH
	DB	0ffH
	DB	0dfH
	DB	0ffH
	DB	0beH
	DB	0f7H
	DB	0dfH
	DB	0ffH
	DB	0dfH
	DB	0ffH
	DB	0dfH
	DB	0ffH
	DB	0fdH
	DB	09eH
	DB	0fbH
	DB	045H
	DB	0fbH
	DB	045H
	DB	0fbH
	DB	045H
	DB	0fbH
	DB	045H
	DB	0fbH
	DB	045H
	DB	059H
	DB	02dH
	DB	075H
	DB	014H
	DB	0f7H
	DB	034H
	DB	07cH
	DB	076H
	DB	0fbH
	DB	045H
	DB	0fbH
	DB	045H
	DB	0fbH
	DB	045H
	DB	0fbH
	DB	045H
	DB	0fbH
	DB	045H
	DB	0f7H
	DB	024H
	DB	075H
	DB	014H
	DB	09eH
	DB	0e7H
	DB	0dfH
	DB	0ffH
	DB	0dfH
	DB	0ffH
	DB	0dfH
	DB	0ffH
	DB	0dfH
	DB	0ffH
	DB	0dfH
	DB	0ffH
	DB	0dfH
	DB	0ffH
	DB	0ffH
	DB	0ffH
	DB	0beH
	DB	0f7H
	DB	09eH
	DB	0d7H
	DB	0fbH
	DB	045H
	DB	0fbH
	DB	045H
	DB	0fbH
	DB	045H
	DB	0fbH
	DB	045H
	DB	0fbH
	DB	045H
	DB	0fbH
	DB	045H
	DB	079H
	DB	045H
	DB	03dH
	DB	0d7H
	DB	0ffH
	DB	0ffH
	DB	0dfH
	DB	0ffH
	DB	0dfH
	DB	0ffH
	DB	05cH
	DB	066H
	DB	0fbH
	DB	045H
	DB	0fbH
	DB	045H
	DB	0fbH
	DB	045H
	DB	0fbH
	DB	045H
	DB	0fbH
	DB	045H
	DB	0fbH
	DB	045H
	DB	0dbH
	DB	03dH
	DB	038H
	DB	02dH
	DB	096H
	DB	014H
	DB	075H
	DB	014H
	DB	055H
	DB	014H
	DB	075H
	DB	014H
	DB	075H
	DB	014H
	DB	0f6H
	DB	034H
	DB	09bH
	DB	09eH
	DB	0dfH
	DB	0f7H
	DB	0beH
	DB	0f7H
	DB	0bfH
	DB	0e7H
	DB	01cH
	DB	04eH
	DB	0fbH
	DB	045H
	DB	09cH
	DB	07eH
	DB	058H
	DB	04dH
	DB	055H
	DB	014H
	DB	096H
	DB	01cH
	DB	0beH
	DB	0e7H
	DB	0beH
	DB	0f7H
	DB	0ffH
	DB	0ffH
	DB	0dfH
	DB	0ffH
	DB	0beH
	DB	0f7H
	DB	0ffH
	DB	0ffH
	DB	0dfH
	DB	0ffH
	DB	0beH
	DB	0f7H
	DB	0ffH
	DB	0ffH
	DB	0dfH
	DB	0ffH
	DB	0beH
	DB	0f7H
	DB	05eH
	DB	0bfH
	DB	0fbH
	DB	045H
	DB	0fbH
	DB	045H
	DB	0fbH
	DB	045H
	DB	0fbH
	DB	045H
	DB	0fbH
	DB	045H
	DB	09aH
	DB	035H
	DB	075H
	DB	014H
	DB	0b6H
	DB	024H
	DB	03cH
	DB	05eH
	DB	0fbH
	DB	045H
	DB	0fbH
	DB	045H
	DB	0fbH
	DB	045H
	DB	0fbH
	DB	045H
	DB	0fbH
	DB	045H
	DB	0d6H
	DB	01cH
	DB	075H
	DB	014H
	DB	0beH
	DB	0efH
	DB	0dfH
	DB	0ffH
	DB	0ffH
	DB	0ffH
	DB	0beH
	DB	0f7H
	DB	0dfH
	DB	0ffH
	DB	0ffH
	DB	0ffH
	DB	0beH
	DB	0f7H
	DB	0ffH
	DB	0ffH
	DB	0dfH
	DB	0ffH
	DB	0dfH
	DB	0ffH
	DB	09cH
	DB	086H
	DB	0fbH
	DB	045H
	DB	0fbH
	DB	045H
	DB	0fbH
	DB	045H
	DB	0fbH
	DB	045H
	DB	01cH
	DB	04eH
	DB	0bfH
	DB	0efH
	DB	0dfH
	DB	0ffH
	DB	0dfH
	DB	0ffH
	DB	0dfH
	DB	0ffH
	DB	0bfH
	DB	0e7H
	DB	0fbH
	DB	045H
	DB	0fbH
	DB	045H
	DB	0fbH
	DB	045H
	DB	0fbH
	DB	045H
	DB	0fbH
	DB	045H
	DB	0fbH
	DB	045H
	DB	0fbH
	DB	045H
	DB	0fbH
	DB	045H
	DB	0fbH
	DB	045H
	DB	0fbH
	DB	03dH
	DB	079H
	DB	035H
	DB	0d7H
	DB	01cH
	DB	075H
	DB	014H
	DB	075H
	DB	014H
	DB	055H
	DB	0cH
	DB	055H
	DB	0cH
	DB	095H
	DB	01cH
	DB	0b9H
	DB	06dH
	DB	01dH
	DB	0c7H
	DB	05eH
	DB	0bfH
	DB	0fbH
	DB	045H
	DB	0fbH
	DB	045H
	DB	07cH
	DB	086H
	DB	055H
	DB	0cH
	DB	055H
	DB	0cH
	DB	0d9H
	DB	075H
	DB	0dfH
	DB	0ffH
	DB	0dfH
	DB	0ffH
	DB	0dfH
	DB	0ffH
	DB	0dfH
	DB	0ffH
	DB	0dfH
	DB	0ffH
	DB	0dfH
	DB	0ffH
	DB	0dfH
	DB	0ffH
	DB	0ffH
	DB	0ffH
	DB	0dfH
	DB	0ffH
	DB	0dfH
	DB	0ffH
	DB	09eH
	DB	0d7H
	DB	0fbH
	DB	045H
	DB	0fbH
	DB	045H
	DB	0fbH
	DB	045H
	DB	0fbH
	DB	045H
	DB	0fbH
	DB	045H
	DB	0baH
	DB	03dH
	DB	075H
	DB	014H
	DB	075H
	DB	014H
	DB	01cH
	DB	04eH
	DB	0fbH
	DB	045H
	DB	0fbH
	DB	045H
	DB	0fbH
	DB	045H
	DB	0fbH
	DB	045H
	DB	0fbH
	DB	045H
	DB	096H
	DB	014H
	DB	075H
	DB	014H
	DB	0dfH
	DB	0f7H
	DB	0dfH
	DB	0ffH
	DB	0dfH
	DB	0ffH
	DB	0beH
	DB	0f7H
	DB	0dfH
	DB	0ffH
	DB	0dfH
	DB	0ffH
	DB	0beH
	DB	0f7H
	DB	0ffH
	DB	0ffH
	DB	0beH
	DB	0f7H
	DB	0dfH
	DB	0ffH
	DB	0dfH
	DB	0f7H
	DB	0ddH
	DB	09eH
	DB	01cH
	DB	04eH
	DB	0fbH
	DB	045H
	DB	05cH
	DB	066H
	DB	09fH
	DB	0dfH
	DB	0dfH
	DB	0ffH
	DB	0beH
	DB	0f7H
	DB	0dfH
	DB	0ffH
	DB	0dfH
	DB	0ffH
	DB	07eH
	DB	0d7H
	DB	0fbH
	DB	045H
	DB	0fbH
	DB	045H
	DB	0fbH
	DB	045H
	DB	0fbH
	DB	045H
	DB	0fbH
	DB	045H
	DB	0fbH
	DB	045H
	DB	0fbH
	DB	045H
	DB	0fbH
	DB	045H
	DB	0fbH
	DB	045H
	DB	0fbH
	DB	045H
	DB	0fbH
	DB	045H
	DB	0fbH
	DB	045H
	DB	0baH
	DB	03dH
	DB	018H
	DB	025H
	DB	095H
	DB	014H
	DB	055H
	DB	0cH
	DB	075H
	DB	014H
	DB	055H
	DB	014H
	DB	055H
	DB	0cH
	DB	0f6H
	DB	034H
	DB	0fbH
	DB	055H
	DB	0fbH
	DB	045H
	DB	0fbH
	DB	045H
	DB	096H
	DB	014H
	DB	055H
	DB	0cH
	DB	075H
	DB	014H
	DB	09eH
	DB	0e7H
	DB	0dfH
	DB	0ffH
	DB	0dfH
	DB	0ffH
	DB	0beH
	DB	0f7H
	DB	0dfH
	DB	0ffH
	DB	0dfH
	DB	0ffH
	DB	0beH
	DB	0f7H
	DB	0dfH
	DB	0ffH
	DB	0dfH
	DB	0ffH
	DB	0dfH
	DB	0ffH
	DB	0bfH
	DB	0efH
	DB	0fbH
	DB	045H
	DB	0fbH
	DB	045H
	DB	0fbH
	DB	045H
	DB	0fbH
	DB	045H
	DB	0fbH
	DB	045H
	DB	0dbH
	DB	03dH
	DB	075H
	DB	014H
	DB	075H
	DB	014H
	DB	0fbH
	DB	045H
	DB	0fbH
	DB	045H
	DB	0fbH
	DB	045H
	DB	0fbH
	DB	045H
	DB	0fbH
	DB	045H
	DB	0fbH
	DB	045H
	DB	095H
	DB	014H
	DB	075H
	DB	014H
	DB	0ffH
	DB	0ffH
	DB	0dfH
	DB	0ffH
	DB	0dfH
	DB	0ffH
	DB	0dfH
	DB	0ffH
	DB	0dfH
	DB	0ffH
	DB	0dfH
	DB	0ffH
	DB	0dfH
	DB	0ffH
	DB	0ffH
	DB	0ffH
	DB	0beH
	DB	0f7H
	DB	0ffH
	DB	0ffH
	DB	0dfH
	DB	0ffH
	DB	0beH
	DB	0f7H
	DB	0ffH
	DB	0ffH
	DB	0dfH
	DB	0ffH
	DB	0beH
	DB	0f7H
	DB	0ffH
	DB	0ffH
	DB	0dfH
	DB	0ffH
	DB	0beH
	DB	0f7H
	DB	0ffH
	DB	0ffH
	DB	0dfH
	DB	0ffH
	DB	09eH
	DB	0dfH
	DB	0fbH
	DB	045H
	DB	0fbH
	DB	045H
	DB	0fbH
	DB	045H
	DB	0fbH
	DB	045H
	DB	0fbH
	DB	045H
	DB	0fbH
	DB	045H
	DB	0fbH
	DB	045H
	DB	0fbH
	DB	045H
	DB	0fbH
	DB	045H
	DB	0fbH
	DB	045H
	DB	0fbH
	DB	045H
	DB	0fbH
	DB	045H
	DB	0fbH
	DB	045H
	DB	0fbH
	DB	045H
	DB	0fbH
	DB	03dH
	DB	059H
	DB	02dH
	DB	0d6H
	DB	01cH
	DB	075H
	DB	014H
	DB	075H
	DB	014H
	DB	075H
	DB	014H
	DB	0f7H
	DB	024H
	DB	0fbH
	DB	045H
	DB	0fbH
	DB	045H
	DB	059H
	DB	02dH
	DB	075H
	DB	014H
	DB	075H
	DB	014H
	DB	03aH
	DB	08eH
	DB	0ffH
	DB	0ffH
	DB	0dfH
	DB	0ffH
	DB	0beH
	DB	0f7H
	DB	0ffH
	DB	0ffH
	DB	0dfH
	DB	0ffH
	DB	0beH
	DB	0f7H
	DB	0ffH
	DB	0ffH
	DB	0dfH
	DB	0ffH
	DB	0beH
	DB	0f7H
	DB	0ffH
	DB	0f7H
	DB	0fbH
	DB	045H
	DB	0fbH
	DB	045H
	DB	0fbH
	DB	045H
	DB	0fbH
	DB	045H
	DB	0fbH
	DB	045H
	DB	0fbH
	DB	045H
	DB	075H
	DB	014H
	DB	075H
	DB	014H
	DB	0fbH
	DB	045H
	DB	0fbH
	DB	045H
	DB	0fbH
	DB	045H
	DB	0fbH
	DB	045H
	DB	0fbH
	DB	045H
	DB	0fbH
	DB	045H
	DB	075H
	DB	014H
	DB	075H
	DB	014H
	DB	0beH
	DB	0efH
	DB	0dfH
	DB	0ffH
	DB	0ffH
	DB	0ffH
	DB	0beH
	DB	0f7H
	DB	0dfH
	DB	0ffH
	DB	0ffH
	DB	0ffH
	DB	0beH
	DB	0f7H
	DB	0ffH
	DB	0ffH
	DB	0dfH
	DB	0ffH
	DB	0dfH
	DB	0ffH
	DB	0dfH
	DB	0ffH
	DB	0dfH
	DB	0ffH
	DB	0dfH
	DB	0ffH
	DB	0dfH
	DB	0ffH
	DB	0dfH
	DB	0ffH
	DB	0dfH
	DB	0ffH
	DB	0dfH
	DB	0ffH
	DB	0dfH
	DB	0ffH
	DB	0dfH
	DB	0ffH
	DB	0dfH
	DB	0ffH
	DB	0ffH
	DB	0ffH
	DB	0fbH
	DB	045H
	DB	0fbH
	DB	045H
	DB	0fbH
	DB	045H
	DB	0fbH
	DB	045H
	DB	0fbH
	DB	045H
	DB	0fbH
	DB	045H
	DB	0fbH
	DB	045H
	DB	0fbH
	DB	045H
	DB	0fbH
	DB	045H
	DB	0fbH
	DB	045H
	DB	0fbH
	DB	045H
	DB	0fbH
	DB	045H
	DB	0fbH
	DB	045H
	DB	0fbH
	DB	045H
	DB	0fbH
	DB	045H
	DB	0fbH
	DB	045H
	DB	0fbH
	DB	045H
	DB	0baH
	DB	03dH
	DB	058H
	DB	02dH
	DB	0f7H
	DB	024H
	DB	079H
	DB	02dH
	DB	0fbH
	DB	045H
	DB	0fbH
	DB	045H
	DB	0fbH
	DB	03dH
	DB	096H
	DB	014H
	DB	075H
	DB	014H
	DB	037H
	DB	04dH
	DB	0dfH
	DB	0ffH
	DB	0dfH
	DB	0ffH
	DB	0dfH
	DB	0ffH
	DB	0dfH
	DB	0ffH
	DB	0dfH
	DB	0ffH
	DB	0dfH
	DB	0ffH
	DB	0ffH
	DB	0ffH
	DB	0dfH
	DB	0ffH
	DB	0dfH
	DB	0ffH
	DB	0ffH
	DB	0ffH
	DB	0fbH
	DB	045H
	DB	0fbH
	DB	045H
	DB	0fbH
	DB	045H
	DB	0fbH
	DB	045H
	DB	0fbH
	DB	045H
	DB	0fbH
	DB	045H
	DB	075H
	DB	014H
	DB	075H
	DB	014H
	DB	0fbH
	DB	045H
	DB	0fbH
	DB	045H
	DB	0fbH
	DB	045H
	DB	0fbH
	DB	045H
	DB	0fbH
	DB	045H
	DB	0fbH
	DB	045H
	DB	075H
	DB	014H
	DB	075H
	DB	014H
	DB	07eH
	DB	0dfH
	DB	0dfH
	DB	0ffH
	DB	0dfH
	DB	0ffH
	DB	0beH
	DB	0f7H
	DB	0dfH
	DB	0ffH
	DB	0dfH
	DB	0ffH
	DB	0beH
	DB	0f7H
	DB	0ffH
	DB	0ffH
	DB	0beH
	DB	0f7H
	DB	0dfH
	DB	0ffH
	DB	0dfH
	DB	0ffH
	DB	0beH
	DB	0f7H
	DB	0dfH
	DB	0ffH
	DB	0dfH
	DB	0ffH
	DB	0beH
	DB	0f7H
	DB	0dfH
	DB	0ffH
	DB	0dfH
	DB	0ffH
	DB	0beH
	DB	0f7H
	DB	0dfH
	DB	0ffH
	DB	0dfH
	DB	0ffH
	DB	0beH
	DB	0f7H
	DB	07cH
	DB	076H
	DB	0fbH
	DB	045H
	DB	0fbH
	DB	045H
	DB	0dbH
	DB	03dH
	DB	018H
	DB	025H
	DB	099H
	DB	03dH
	DB	01bH
	DB	046H
	DB	0fbH
	DB	045H
	DB	0fbH
	DB	045H
	DB	0fbH
	DB	045H
	DB	0fbH
	DB	045H
	DB	0fbH
	DB	045H
	DB	0fbH
	DB	045H
	DB	0fbH
	DB	045H
	DB	0fbH
	DB	045H
	DB	0fbH
	DB	045H
	DB	0fbH
	DB	045H
	DB	0fbH
	DB	045H
	DB	0fbH
	DB	045H
	DB	0fbH
	DB	045H
	DB	0fbH
	DB	045H
	DB	0fbH
	DB	045H
	DB	0fbH
	DB	045H
	DB	0fbH
	DB	045H
	DB	038H
	DB	02dH
	DB	075H
	DB	014H
	DB	075H
	DB	01cH
	DB	0dfH
	DB	0ffH
	DB	0dfH
	DB	0ffH
	DB	0beH
	DB	0f7H
	DB	0dfH
	DB	0ffH
	DB	0dfH
	DB	0ffH
	DB	0beH
	DB	0f7H
	DB	0dfH
	DB	0ffH
	DB	0dfH
	DB	0ffH
	DB	0dfH
	DB	0ffH
	DB	0ffH
	DB	0ffH
	DB	0fbH
	DB	045H
	DB	0fbH
	DB	045H
	DB	0fbH
	DB	045H
	DB	0fbH
	DB	045H
	DB	0fbH
	DB	045H
	DB	0fbH
	DB	045H
	DB	075H
	DB	014H
	DB	0b6H
	DB	024H
	DB	0fbH
	DB	045H
	DB	0fbH
	DB	045H
	DB	0fbH
	DB	045H
	DB	0fbH
	DB	045H
	DB	0fbH
	DB	045H
	DB	0fbH
	DB	045H
	DB	095H
	DB	014H
	DB	075H
	DB	014H
	DB	03dH
	DB	0cfH
	DB	0dfH
	DB	0ffH
	DB	0dfH
	DB	0ffH
	DB	0dfH
	DB	0ffH
	DB	0dfH
	DB	0ffH
	DB	0dfH
	DB	0ffH
	DB	0dfH
	DB	0ffH
	DB	0ffH
	DB	0ffH
	DB	0beH
	DB	0f7H
	DB	0ffH
	DB	0ffH
	DB	0dfH
	DB	0ffH
	DB	0beH
	DB	0f7H
	DB	0ffH
	DB	0ffH
	DB	0dfH
	DB	0ffH
	DB	0beH
	DB	0f7H
	DB	0ffH
	DB	0ffH
	DB	0dfH
	DB	0ffH
	DB	0beH
	DB	0f7H
	DB	0ffH
	DB	0ffH
	DB	0dfH
	DB	0ffH
	DB	0beH
	DB	0f7H
	DB	03eH
	DB	0bfH
	DB	0fbH
	DB	045H
	DB	0fbH
	DB	045H
	DB	03bH
	DB	06eH
	DB	075H
	DB	014H
	DB	055H
	DB	014H
	DB	07bH
	DB	096H
	DB	01dH
	DB	0afH
	DB	03cH
	DB	056H
	DB	0fbH
	DB	045H
	DB	0fbH
	DB	045H
	DB	0fbH
	DB	045H
	DB	0fbH
	DB	045H
	DB	0fbH
	DB	045H
	DB	0fbH
	DB	045H
	DB	0fbH
	DB	045H
	DB	0fbH
	DB	045H
	DB	0fbH
	DB	045H
	DB	0fbH
	DB	045H
	DB	0fbH
	DB	045H
	DB	0fbH
	DB	045H
	DB	0fbH
	DB	045H
	DB	0fbH
	DB	045H
	DB	0fbH
	DB	045H
	DB	09aH
	DB	035H
	DB	075H
	DB	014H
	DB	055H
	DB	014H
	DB	0ffH
	DB	0ffH
	DB	0dfH
	DB	0ffH
	DB	0beH
	DB	0f7H
	DB	0ffH
	DB	0ffH
	DB	0dfH
	DB	0ffH
	DB	0beH
	DB	0f7H
	DB	0ffH
	DB	0ffH
	DB	0dfH
	DB	0ffH
	DB	0beH
	DB	0f7H
	DB	0ffH
	DB	0f7H
	DB	0fbH
	DB	045H
	DB	0fbH
	DB	045H
	DB	0fbH
	DB	045H
	DB	0fbH
	DB	045H
	DB	0fbH
	DB	045H
	DB	0fbH
	DB	045H
	DB	075H
	DB	014H
	DB	0f7H
	DB	034H
	DB	01cH
	DB	04eH
	DB	0fbH
	DB	045H
	DB	0fbH
	DB	045H
	DB	0fbH
	DB	045H
	DB	0fbH
	DB	045H
	DB	0fbH
	DB	045H
	DB	096H
	DB	014H
	DB	075H
	DB	014H
	DB	09bH
	DB	0a6H
	DB	0dfH
	DB	0ffH
	DB	0ffH
	DB	0ffH
	DB	0beH
	DB	0f7H
	DB	0dfH
	DB	0ffH
	DB	0ffH
	DB	0ffH
	DB	0beH
	DB	0f7H
	DB	0ffH
	DB	0ffH
	DB	0dfH
	DB	0ffH
	DB	0dfH
	DB	0ffH
	DB	0dfH
	DB	0ffH
	DB	0dfH
	DB	0ffH
	DB	0dfH
	DB	0ffH
	DB	0dfH
	DB	0ffH
	DB	0dfH
	DB	0ffH
	DB	0dfH
	DB	0ffH
	DB	0dfH
	DB	0ffH
	DB	0dfH
	DB	0ffH
	DB	0dfH
	DB	0ffH
	DB	0dfH
	DB	0ffH
	DB	0dfH
	DB	0ffH
	DB	0ffH
	DB	0ffH
	DB	03cH
	DB	056H
	DB	0fbH
	DB	045H
	DB	03cH
	DB	05eH
	DB	058H
	DB	04dH
	DB	055H
	DB	0cH
	DB	075H
	DB	01cH
	DB	05dH
	DB	0d7H
	DB	0ffH
	DB	0ffH
	DB	05eH
	DB	0bfH
	DB	05cH
	DB	06eH
	DB	0fbH
	DB	045H
	DB	0fbH
	DB	045H
	DB	0fbH
	DB	045H
	DB	0fbH
	DB	045H
	DB	0fbH
	DB	045H
	DB	0fbH
	DB	045H
	DB	0fbH
	DB	045H
	DB	0fbH
	DB	045H
	DB	0fbH
	DB	045H
	DB	0fbH
	DB	045H
	DB	0fbH
	DB	045H
	DB	0fbH
	DB	045H
	DB	0fbH
	DB	045H
	DB	0fbH
	DB	03dH
	DB	075H
	DB	014H
	DB	0d6H
	DB	034H
	DB	0dfH
	DB	0ffH
	DB	0dfH
	DB	0ffH
	DB	0dfH
	DB	0ffH
	DB	0dfH
	DB	0ffH
	DB	0dfH
	DB	0ffH
	DB	0dfH
	DB	0ffH
	DB	0ffH
	DB	0ffH
	DB	0dfH
	DB	0ffH
	DB	0dfH
	DB	0ffH
	DB	0dfH
	DB	0efH
	DB	0fbH
	DB	045H
	DB	0fbH
	DB	045H
	DB	0fbH
	DB	045H
	DB	0fbH
	DB	045H
	DB	0fbH
	DB	045H
	DB	0dbH
	DB	03dH
	DB	075H
	DB	014H
	DB	078H
	DB	055H
	DB	03cH
	DB	05eH
	DB	0fbH
	DB	045H
	DB	0fbH
	DB	045H
	DB	0fbH
	DB	045H
	DB	0fbH
	DB	045H
	DB	0fbH
	DB	045H
	DB	0d6H
	DB	01cH
	DB	075H
	DB	014H
	DB	019H
	DB	07eH
	DB	0dfH
	DB	0ffH
	DB	0dfH
	DB	0ffH
	DB	0beH
	DB	0f7H
	DB	0dfH
	DB	0ffH
	DB	0dfH
	DB	0ffH
	DB	0beH
	DB	0f7H
	DB	0ffH
	DB	0ffH
	DB	0beH
	DB	0f7H
	DB	0dfH
	DB	0ffH
	DB	0dfH
	DB	0ffH
	DB	0beH
	DB	0f7H
	DB	0dfH
	DB	0ffH
	DB	0dfH
	DB	0ffH
	DB	0beH
	DB	0f7H
	DB	0dfH
	DB	0ffH
	DB	0dfH
	DB	0ffH
	DB	0beH
	DB	0f7H
	DB	0dfH
	DB	0ffH
	DB	0dfH
	DB	0ffH
	DB	0beH
	DB	0f7H
	DB	0dfH
	DB	0ffH
	DB	03eH
	DB	0b7H
	DB	0fbH
	DB	045H
	DB	0fbH
	DB	045H
	DB	0fdH
	DB	09eH
	DB	0b6H
	DB	024H
	DB	055H
	DB	0cH
	DB	0d6H
	DB	02cH
	DB	0beH
	DB	0efH
	DB	0dfH
	DB	0ffH
	DB	0dfH
	DB	0ffH
	DB	07eH
	DB	0d7H
	DB	0bdH
	DB	086H
	DB	0fbH
	DB	045H
	DB	0fbH
	DB	045H
	DB	0fbH
	DB	045H
	DB	0fbH
	DB	045H
	DB	0fbH
	DB	045H
	DB	0fbH
	DB	045H
	DB	0fbH
	DB	045H
	DB	0fbH
	DB	045H
	DB	0fbH
	DB	045H
	DB	0fbH
	DB	045H
	DB	0fbH
	DB	045H
	DB	0fbH
	DB	045H
	DB	075H
	DB	014H
	DB	09bH
	DB	0a6H
	DB	0dfH
	DB	0ffH
	DB	0dfH
	DB	0ffH
	DB	0beH
	DB	0f7H
	DB	0dfH
	DB	0ffH
	DB	0dfH
	DB	0ffH
	DB	0beH
	DB	0f7H
	DB	0dfH
	DB	0ffH
	DB	0dfH
	DB	0ffH
	DB	0dfH
	DB	0ffH
	DB	09eH
	DB	0d7H
	DB	0fbH
	DB	045H
	DB	0fbH
	DB	045H
	DB	0fbH
	DB	045H
	DB	0fbH
	DB	045H
	DB	0fbH
	DB	045H
	DB	0baH
	DB	03dH
	DB	075H
	DB	014H
	DB	0f9H
	DB	075H
	DB	07cH
	DB	076H
	DB	0fbH
	DB	045H
	DB	0fbH
	DB	045H
	DB	0fbH
	DB	045H
	DB	0fbH
	DB	045H
	DB	0fbH
	DB	045H
	DB	0f7H
	DB	024H
	DB	075H
	DB	014H
	DB	078H
	DB	055H
	DB	0dfH
	DB	0ffH
	DB	0dfH
	DB	0ffH
	DB	0dfH
	DB	0ffH
	DB	0dfH
	DB	0ffH
	DB	0dfH
	DB	0ffH
	DB	0dfH
	DB	0ffH
	DB	0ffH
	DB	0ffH
	DB	0beH
	DB	0f7H
	DB	0ffH
	DB	0ffH
	DB	0dfH
	DB	0ffH
	DB	0beH
	DB	0f7H
	DB	0ffH
	DB	0ffH
	DB	0dfH
	DB	0ffH
	DB	0beH
	DB	0f7H
	DB	0ffH
	DB	0ffH
	DB	0dfH
	DB	0ffH
	DB	0beH
	DB	0f7H
	DB	0ffH
	DB	0ffH
	DB	0dfH
	DB	0ffH
	DB	0beH
	DB	0f7H
	DB	0ffH
	DB	0ffH
	DB	0dfH
	DB	0ffH
	DB	07cH
	DB	06eH
	DB	0fbH
	DB	045H
	DB	01bH
	DB	046H
	DB	01dH
	DB	0bfH
	DB	078H
	DB	055H
	DB	01dH
	DB	0c7H
	DB	0beH
	DB	0f7H
	DB	0ffH
	DB	0ffH
	DB	0dfH
	DB	0ffH
	DB	0beH
	DB	0f7H
	DB	0ffH
	DB	0ffH
	DB	0bfH
	DB	0efH
	DB	0fdH
	DB	0a6H
	DB	03cH
	DB	05eH
	DB	0fbH
	DB	045H
	DB	0fbH
	DB	045H
	DB	0fbH
	DB	045H
	DB	0fbH
	DB	045H
	DB	0fbH
	DB	045H
	DB	0fbH
	DB	045H
	DB	0fbH
	DB	045H
	DB	0fbH
	DB	045H
	DB	0fbH
	DB	04dH
	DB	03dH
	DB	0cfH
	DB	0beH
	DB	0f7H
	DB	0ffH
	DB	0ffH
	DB	0dfH
	DB	0ffH
	DB	0beH
	DB	0f7H
	DB	0ffH
	DB	0ffH
	DB	0dfH
	DB	0ffH
	DB	0beH
	DB	0f7H
	DB	0ffH
	DB	0ffH
	DB	0dfH
	DB	0ffH
	DB	0beH
	DB	0f7H
	DB	05eH
	DB	0bfH
	DB	0fbH
	DB	045H
	DB	0fbH
	DB	045H
	DB	0fbH
	DB	045H
	DB	0fbH
	DB	045H
	DB	0fbH
	DB	045H
	DB	09aH
	DB	035H
	DB	075H
	DB	014H
	DB	07bH
	DB	09eH
	DB	0ddH
	DB	08eH
	DB	0fbH
	DB	045H
	DB	0fbH
	DB	045H
	DB	0fbH
	DB	045H
	DB	0fbH
	DB	045H
	DB	0fbH
	DB	045H
	DB	038H
	DB	02dH
	DB	075H
	DB	014H
	DB	075H
	DB	01cH
	DB	0dfH
	DB	0f7H
	DB	0ffH
	DB	0ffH
	DB	0beH
	DB	0f7H
	DB	0dfH
	DB	0ffH
	DB	0ffH
	DB	0ffH
	DB	0beH
	DB	0f7H
	DB	0ffH
	DB	0ffH
	DB	0dfH
	DB	0ffH
	DB	0dfH
	DB	0ffH
	DB	0dfH
	DB	0ffH
	DB	0dfH
	DB	0ffH
	DB	0dfH
	DB	0ffH
	DB	0dfH
	DB	0ffH
	DB	0dfH
	DB	0ffH
	DB	0dfH
	DB	0ffH
	DB	0dfH
	DB	0ffH
	DB	0dfH
	DB	0ffH
	DB	0dfH
	DB	0ffH
	DB	0dfH
	DB	0ffH
	DB	0dfH
	DB	0ffH
	DB	0dfH
	DB	0ffH
	DB	0dfH
	DB	0ffH
	DB	0dfH
	DB	0efH
	DB	03cH
	DB	056H
	DB	0fbH
	DB	045H
	DB	03cH
	DB	05eH
	DB	0dfH
	DB	0f7H
	DB	0dfH
	DB	0ffH
	DB	0dfH
	DB	0ffH
	DB	0dfH
	DB	0ffH
	DB	0dfH
	DB	0ffH
	DB	0dfH
	DB	0ffH
	DB	0dfH
	DB	0ffH
	DB	0dfH
	DB	0ffH
	DB	0dfH
	DB	0ffH
	DB	0ffH
	DB	0ffH
	DB	07eH
	DB	0d7H
	DB	0ddH
	DB	08eH
	DB	01cH
	DB	04eH
	DB	0fbH
	DB	045H
	DB	0fbH
	DB	045H
	DB	0fbH
	DB	045H
	DB	0fbH
	DB	045H
	DB	0fbH
	DB	045H
	DB	03eH
	DB	0bfH
	DB	0dfH
	DB	0ffH
	DB	0dfH
	DB	0ffH
	DB	0dfH
	DB	0ffH
	DB	0dfH
	DB	0ffH
	DB	0dfH
	DB	0ffH
	DB	0dfH
	DB	0ffH
	DB	0dfH
	DB	0ffH
	DB	0dfH
	DB	0ffH
	DB	0ffH
	DB	0ffH
	DB	0dfH
	DB	0ffH
	DB	0dfH
	DB	0ffH
	DB	0fdH
	DB	09eH
	DB	0fbH
	DB	045H
	DB	0fbH
	DB	045H
	DB	0fbH
	DB	045H
	DB	0fbH
	DB	045H
	DB	0fbH
	DB	045H
	DB	059H
	DB	02dH
	DB	075H
	DB	014H
	DB	03dH
	DB	0cfH
	DB	01eH
	DB	0afH
	DB	0fbH
	DB	045H
	DB	0fbH
	DB	045H
	DB	0fbH
	DB	045H
	DB	0fbH
	DB	045H
	DB	0fbH
	DB	045H
	DB	09aH
	DB	035H
	DB	075H
	DB	014H
	DB	055H
	DB	014H
	DB	01cH
	DB	0c7H
	DB	0dfH
	DB	0ffH
	DB	0beH
	DB	0f7H
	DB	0dfH
	DB	0ffH
	DB	0dfH
	DB	0ffH
	DB	0beH
	DB	0f7H
	DB	0ffH
	DB	0ffH
	DB	0beH
	DB	0f7H
	DB	0dfH
	DB	0ffH
	DB	0dfH
	DB	0ffH
	DB	0beH
	DB	0f7H
	DB	0dfH
	DB	0ffH
	DB	0dfH
	DB	0ffH
	DB	0beH
	DB	0f7H
	DB	0dfH
	DB	0ffH
	DB	0dfH
	DB	0ffH
	DB	0beH
	DB	0f7H
	DB	0dfH
	DB	0ffH
	DB	0dfH
	DB	0ffH
	DB	0beH
	DB	0f7H
	DB	0dfH
	DB	0ffH
	DB	0dfH
	DB	0ffH
	DB	0beH
	DB	0f7H
	DB	09fH
	DB	0dfH
	DB	07cH
	DB	076H
	DB	05eH
	DB	0cfH
	DB	0dfH
	DB	0ffH
	DB	0dfH
	DB	0ffH
	DB	0beH
	DB	0f7H
	DB	0dfH
	DB	0ffH
	DB	0dfH
	DB	0ffH
	DB	0beH
	DB	0f7H
	DB	0dfH
	DB	0ffH
	DB	0dfH
	DB	0ffH
	DB	0beH
	DB	0f7H
	DB	0dfH
	DB	0ffH
	DB	0dfH
	DB	0ffH
	DB	0beH
	DB	0f7H
	DB	0ffH
	DB	0ffH
	DB	07eH
	DB	0cfH
	DB	0fdH
	DB	0a6H
	DB	0ddH
	DB	08eH
	DB	0ddH
	DB	09eH
	DB	07eH
	DB	0d7H
	DB	0dfH
	DB	0ffH
	DB	0dfH
	DB	0ffH
	DB	0beH
	DB	0f7H
	DB	0dfH
	DB	0ffH
	DB	0dfH
	DB	0ffH
	DB	0beH
	DB	0f7H
	DB	0dfH
	DB	0ffH
	DB	0dfH
	DB	0ffH
	DB	0beH
	DB	0f7H
	DB	0dfH
	DB	0ffH
	DB	0dfH
	DB	0ffH
	DB	0beH
	DB	0f7H
	DB	07cH
	DB	076H
	DB	0fbH
	DB	045H
	DB	0fbH
	DB	045H
	DB	0fbH
	DB	045H
	DB	0fbH
	DB	045H
	DB	0fbH
	DB	045H
	DB	018H
	DB	025H
	DB	075H
	DB	014H
	DB	0dfH
	DB	0f7H
	DB	09eH
	DB	0d7H
	DB	0fbH
	DB	045H
	DB	0fbH
	DB	045H
	DB	0fbH
	DB	045H
	DB	0fbH
	DB	045H
	DB	0fbH
	DB	045H
	DB	0dbH
	DB	03dH
	DB	075H
	DB	014H
	DB	075H
	DB	014H
	DB	0f9H
	DB	07dH
	DB	0dfH
	DB	0ffH
	DB	0dfH
	DB	0ffH
	DB	0dfH
	DB	0ffH
	DB	0dfH
	DB	0ffH
	DB	0dfH
	DB	0ffH
	DB	0ffH
	DB	0ffH
	DB	0beH
	DB	0f7H
	DB	0ffH
	DB	0ffH
	DB	0dfH
	DB	0ffH
	DB	0beH
	DB	0f7H
	DB	0ffH
	DB	0ffH
	DB	0dfH
	DB	0ffH
	DB	0beH
	DB	0f7H
	DB	0ffH
	DB	0ffH
	DB	0dfH
	DB	0ffH
	DB	0beH
	DB	0f7H
	DB	0ffH
	DB	0ffH
	DB	0dfH
	DB	0ffH
	DB	0beH
	DB	0f7H
	DB	0ffH
	DB	0ffH
	DB	0dfH
	DB	0ffH
	DB	0beH
	DB	0f7H
	DB	0ffH
	DB	0ffH
	DB	0dfH
	DB	0ffH
	DB	0beH
	DB	0f7H
	DB	0ffH
	DB	0ffH
	DB	0dfH
	DB	0ffH
	DB	0beH
	DB	0f7H
	DB	0ffH
	DB	0ffH
	DB	0dfH
	DB	0ffH
	DB	0beH
	DB	0f7H
	DB	0ffH
	DB	0ffH
	DB	0dfH
	DB	0ffH
	DB	0beH
	DB	0f7H
	DB	0ffH
	DB	0ffH
	DB	0dfH
	DB	0ffH
	DB	0beH
	DB	0f7H
	DB	0ffH
	DB	0ffH
	DB	0dfH
	DB	0ffH
	DB	0beH
	DB	0f7H
	DB	0ffH
	DB	0ffH
	DB	0dfH
	DB	0ffH
	DB	0beH
	DB	0f7H
	DB	0ffH
	DB	0ffH
	DB	0dfH
	DB	0ffH
	DB	0beH
	DB	0f7H
	DB	0ffH
	DB	0ffH
	DB	0dfH
	DB	0ffH
	DB	0beH
	DB	0f7H
	DB	0ffH
	DB	0ffH
	DB	0dfH
	DB	0ffH
	DB	0beH
	DB	0f7H
	DB	0ffH
	DB	0ffH
	DB	0dfH
	DB	0ffH
	DB	0dfH
	DB	0f7H
	DB	01bH
	DB	04eH
	DB	0fbH
	DB	045H
	DB	0fbH
	DB	045H
	DB	0fbH
	DB	045H
	DB	0fbH
	DB	045H
	DB	0fbH
	DB	045H
	DB	0d6H
	DB	01cH
	DB	058H
	DB	04dH
	DB	0dfH
	DB	0ffH
	DB	0ffH
	DB	0ffH
	DB	0fbH
	DB	045H
	DB	0fbH
	DB	045H
	DB	0fbH
	DB	045H
	DB	0fbH
	DB	045H
	DB	0fbH
	DB	045H
	DB	0fbH
	DB	045H
	DB	0d7H
	DB	01cH
	DB	055H
	DB	014H
	DB	0b6H
	DB	02cH
	DB	0ffH
	DB	0ffH
	DB	0beH
	DB	0f7H
	DB	0dfH
	DB	0ffH
	DB	0ffH
	DB	0ffH
	DB	0beH
	DB	0f7H
	DB	0ffH
	DB	0ffH
	DB	0dfH
	DB	0ffH
	DB	0dfH
	DB	0ffH
	DB	0dfH
	DB	0ffH
	DB	0dfH
	DB	0ffH
	DB	0dfH
	DB	0ffH
	DB	0dfH
	DB	0ffH
	DB	0dfH
	DB	0ffH
	DB	0dfH
	DB	0ffH
	DB	0dfH
	DB	0ffH
	DB	0dfH
	DB	0ffH
	DB	0dfH
	DB	0ffH
	DB	0dfH
	DB	0ffH
	DB	0dfH
	DB	0ffH
	DB	0dfH
	DB	0ffH
	DB	0dfH
	DB	0ffH
	DB	0dfH
	DB	0ffH
	DB	0dfH
	DB	0ffH
	DB	0dfH
	DB	0ffH
	DB	0dfH
	DB	0ffH
	DB	0dfH
	DB	0ffH
	DB	0dfH
	DB	0ffH
	DB	0dfH
	DB	0ffH
	DB	0dfH
	DB	0ffH
	DB	0dfH
	DB	0ffH
	DB	0dfH
	DB	0ffH
	DB	0dfH
	DB	0ffH
	DB	0dfH
	DB	0ffH
	DB	0dfH
	DB	0ffH
	DB	0dfH
	DB	0ffH
	DB	0dfH
	DB	0ffH
	DB	0dfH
	DB	0ffH
	DB	0dfH
	DB	0ffH
	DB	0dfH
	DB	0ffH
	DB	0dfH
	DB	0ffH
	DB	0dfH
	DB	0ffH
	DB	0dfH
	DB	0ffH
	DB	0dfH
	DB	0ffH
	DB	0dfH
	DB	0ffH
	DB	0dfH
	DB	0ffH
	DB	0dfH
	DB	0ffH
	DB	0dfH
	DB	0ffH
	DB	0dfH
	DB	0ffH
	DB	0dfH
	DB	0ffH
	DB	0dfH
	DB	0ffH
	DB	0dfH
	DB	0ffH
	DB	0dfH
	DB	0ffH
	DB	0dfH
	DB	0ffH
	DB	0dfH
	DB	0ffH
	DB	07eH
	DB	0d7H
	DB	0fbH
	DB	045H
	DB	0fbH
	DB	045H
	DB	0fbH
	DB	045H
	DB	0fbH
	DB	045H
	DB	0fbH
	DB	045H
	DB	0fbH
	DB	03dH
	DB	075H
	DB	014H
	DB	05bH
	DB	096H
	DB	0ffH
	DB	0ffH
	DB	0dfH
	DB	0ffH
	DB	07cH
	DB	076H
	DB	0fbH
	DB	045H
	DB	0fbH
	DB	045H
	DB	0fbH
	DB	045H
	DB	0fbH
	DB	045H
	DB	0fbH
	DB	045H
	DB	058H
	DB	02dH
	DB	055H
	DB	014H
	DB	055H
	DB	0cH
	DB	0fcH
	DB	0b6H
	DB	0beH
	DB	0f7H
	DB	0dfH
	DB	0ffH
	DB	0dfH
	DB	0ffH
	DB	0beH
	DB	0f7H
	DB	0ffH
	DB	0ffH
	DB	0beH
	DB	0f7H
	DB	0dfH
	DB	0ffH
	DB	0dfH
	DB	0ffH
	DB	0beH
	DB	0f7H
	DB	0dfH
	DB	0ffH
	DB	0dfH
	DB	0ffH
	DB	0beH
	DB	0f7H
	DB	0dfH
	DB	0ffH
	DB	0dfH
	DB	0ffH
	DB	0beH
	DB	0f7H
	DB	0dfH
	DB	0ffH
	DB	0dfH
	DB	0ffH
	DB	0beH
	DB	0f7H
	DB	0dfH
	DB	0ffH
	DB	0dfH
	DB	0ffH
	DB	0beH
	DB	0f7H
	DB	0dfH
	DB	0ffH
	DB	0dfH
	DB	0ffH
	DB	0beH
	DB	0f7H
	DB	0dfH
	DB	0ffH
	DB	0dfH
	DB	0ffH
	DB	0beH
	DB	0f7H
	DB	0dfH
	DB	0ffH
	DB	0dfH
	DB	0ffH
	DB	0beH
	DB	0f7H
	DB	0dfH
	DB	0ffH
	DB	0dfH
	DB	0ffH
	DB	0beH
	DB	0f7H
	DB	0dfH
	DB	0ffH
	DB	0dfH
	DB	0ffH
	DB	0beH
	DB	0f7H
	DB	0dfH
	DB	0ffH
	DB	0dfH
	DB	0ffH
	DB	0beH
	DB	0f7H
	DB	0dfH
	DB	0ffH
	DB	0dfH
	DB	0ffH
	DB	0beH
	DB	0f7H
	DB	0dfH
	DB	0ffH
	DB	0dfH
	DB	0ffH
	DB	0beH
	DB	0f7H
	DB	0dfH
	DB	0ffH
	DB	0dfH
	DB	0ffH
	DB	0beH
	DB	0f7H
	DB	0dfH
	DB	0ffH
	DB	0dfH
	DB	0ffH
	DB	0beH
	DB	0f7H
	DB	0dfH
	DB	0ffH
	DB	0dfH
	DB	0ffH
	DB	0ddH
	DB	096H
	DB	0fbH
	DB	045H
	DB	0fbH
	DB	045H
	DB	0fbH
	DB	045H
	DB	0fbH
	DB	045H
	DB	0fbH
	DB	045H
	DB	09aH
	DB	035H
	DB	055H
	DB	014H
	DB	07eH
	DB	0dfH
	DB	0dfH
	DB	0ffH
	DB	0dfH
	DB	0ffH
	DB	01dH
	DB	0afH
	DB	0fbH
	DB	045H
	DB	0fbH
	DB	045H
	DB	0fbH
	DB	045H
	DB	0fbH
	DB	045H
	DB	0fbH
	DB	045H
	DB	0dbH
	DB	03dH
	DB	075H
	DB	014H
	DB	055H
	DB	0cH
	DB	058H
	DB	04dH
	DB	0dfH
	DB	0ffH
	DB	0dfH
	DB	0ffH
	DB	0dfH
	DB	0ffH
	DB	0dfH
	DB	0ffH
	DB	0ffH
	DB	0ffH
	DB	0beH
	DB	0f7H
	DB	0ffH
	DB	0ffH
	DB	0dfH
	DB	0ffH
	DB	0beH
	DB	0f7H
	DB	0ffH
	DB	0ffH
	DB	0dfH
	DB	0ffH
	DB	0beH
	DB	0f7H
	DB	0ffH
	DB	0ffH
	DB	0dfH
	DB	0ffH
	DB	0beH
	DB	0f7H
	DB	0ffH
	DB	0ffH
	DB	0dfH
	DB	0ffH
	DB	0beH
	DB	0f7H
	DB	0ffH
	DB	0ffH
	DB	0dfH
	DB	0ffH
	DB	0beH
	DB	0f7H
	DB	0ffH
	DB	0ffH
	DB	0dfH
	DB	0ffH
	DB	0beH
	DB	0f7H
	DB	0ffH
	DB	0ffH
	DB	0dfH
	DB	0ffH
	DB	0beH
	DB	0f7H
	DB	0ffH
	DB	0ffH
	DB	0dfH
	DB	0ffH
	DB	0beH
	DB	0f7H
	DB	0ffH
	DB	0ffH
	DB	0dfH
	DB	0ffH
	DB	0beH
	DB	0f7H
	DB	0ffH
	DB	0ffH
	DB	0dfH
	DB	0ffH
	DB	0beH
	DB	0f7H
	DB	0ffH
	DB	0ffH
	DB	0dfH
	DB	0ffH
	DB	0beH
	DB	0f7H
	DB	0ffH
	DB	0ffH
	DB	0dfH
	DB	0ffH
	DB	0beH
	DB	0f7H
	DB	0ffH
	DB	0ffH
	DB	0dfH
	DB	0ffH
	DB	0beH
	DB	0f7H
	DB	0ffH
	DB	0ffH
	DB	0dfH
	DB	0ffH
	DB	0beH
	DB	0f7H
	DB	0ffH
	DB	0ffH
	DB	0dfH
	DB	0ffH
	DB	0beH
	DB	0f7H
	DB	0ffH
	DB	0ffH
	DB	0dfH
	DB	0ffH
	DB	03cH
	DB	056H
	DB	0fbH
	DB	045H
	DB	0fbH
	DB	045H
	DB	0fbH
	DB	045H
	DB	0fbH
	DB	045H
	DB	0fbH
	DB	045H
	DB	038H
	DB	02dH
	DB	037H
	DB	045H
	DB	0dfH
	DB	0ffH
	DB	0dfH
	DB	0ffH
	DB	0dfH
	DB	0ffH
	DB	0bfH
	DB	0e7H
	DB	0fbH
	DB	045H
	DB	0fbH
	DB	045H
	DB	0fbH
	DB	045H
	DB	0fbH
	DB	045H
	DB	0fbH
	DB	045H
	DB	0fbH
	DB	045H
	DB	0f7H
	DB	024H
	DB	055H
	DB	0cH
	DB	075H
	DB	014H
	DB	01dH
	DB	0c7H
	DB	0dfH
	DB	0ffH
	DB	0ffH
	DB	0ffH
	DB	0beH
	DB	0f7H
	DB	0ffH
	DB	0ffH
	DB	0dfH
	DB	0ffH
	DB	0dfH
	DB	0ffH
	DB	0dfH
	DB	0ffH
	DB	0dfH
	DB	0ffH
	DB	0dfH
	DB	0ffH
	DB	0dfH
	DB	0ffH
	DB	0dfH
	DB	0ffH
	DB	0dfH
	DB	0ffH
	DB	0dfH
	DB	0ffH
	DB	0dfH
	DB	0ffH
	DB	0dfH
	DB	0ffH
	DB	0dfH
	DB	0ffH
	DB	0dfH
	DB	0ffH
	DB	0dfH
	DB	0ffH
	DB	0dfH
	DB	0ffH
	DB	0dfH
	DB	0ffH
	DB	0dfH
	DB	0ffH
	DB	0dfH
	DB	0ffH
	DB	0dfH
	DB	0ffH
	DB	0dfH
	DB	0ffH
	DB	0dfH
	DB	0ffH
	DB	0dfH
	DB	0ffH
	DB	0dfH
	DB	0ffH
	DB	0dfH
	DB	0ffH
	DB	0dfH
	DB	0ffH
	DB	0dfH
	DB	0ffH
	DB	0dfH
	DB	0ffH
	DB	0dfH
	DB	0ffH
	DB	0dfH
	DB	0ffH
	DB	0dfH
	DB	0ffH
	DB	0dfH
	DB	0ffH
	DB	0dfH
	DB	0ffH
	DB	0dfH
	DB	0ffH
	DB	0dfH
	DB	0ffH
	DB	0dfH
	DB	0ffH
	DB	0dfH
	DB	0ffH
	DB	0dfH
	DB	0ffH
	DB	0dfH
	DB	0ffH
	DB	0dfH
	DB	0ffH
	DB	0dfH
	DB	0ffH
	DB	0dfH
	DB	0ffH
	DB	0dfH
	DB	0ffH
	DB	0dfH
	DB	0ffH
	DB	0dfH
	DB	0ffH
	DB	0dfH
	DB	0ffH
	DB	0dfH
	DB	0ffH
	DB	0dfH
	DB	0ffH
	DB	05eH
	DB	0c7H
	DB	0fbH
	DB	045H
	DB	0fbH
	DB	045H
	DB	0fbH
	DB	045H
	DB	0fbH
	DB	045H
	DB	0fbH
	DB	045H
	DB	0fbH
	DB	045H
	DB	0b6H
	DB	01cH
	DB	07bH
	DB	0a6H
	DB	0dfH
	DB	0ffH
	DB	0ffH
	DB	0ffH
	DB	0dfH
	DB	0ffH
	DB	0ffH
	DB	0ffH
	DB	05cH
	DB	066H
	DB	0fbH
	DB	045H
	DB	0fbH
	DB	045H
	DB	0fbH
	DB	045H
	DB	0fbH
	DB	045H
	DB	0fbH
	DB	045H
	DB	09aH
	DB	035H
	DB	055H
	DB	0cH
	DB	075H
	DB	014H
	DB	037H
	DB	04dH
	DB	0dfH
	DB	0ffH
	DB	0dfH
	DB	0ffH
	DB	0beH
	DB	0f7H
	DB	0ffH
	DB	0ffH
	DB	0beH
	DB	0f7H
	DB	0dfH
	DB	0ffH
	DB	0dfH
	DB	0ffH
	DB	0beH
	DB	0f7H
	DB	0dfH
	DB	0ffH
	DB	0dfH
	DB	0ffH
	DB	0beH
	DB	0f7H
	DB	0dfH
	DB	0ffH
	DB	0dfH
	DB	0ffH
	DB	0beH
	DB	0f7H
	DB	0dfH
	DB	0ffH
	DB	0dfH
	DB	0ffH
	DB	0beH
	DB	0f7H
	DB	0dfH
	DB	0ffH
	DB	0dfH
	DB	0ffH
	DB	0beH
	DB	0f7H
	DB	0dfH
	DB	0ffH
	DB	0dfH
	DB	0ffH
	DB	0beH
	DB	0f7H
	DB	0dfH
	DB	0ffH
	DB	0dfH
	DB	0ffH
	DB	0beH
	DB	0f7H
	DB	0dfH
	DB	0ffH
	DB	0dfH
	DB	0ffH
	DB	0beH
	DB	0f7H
	DB	0dfH
	DB	0ffH
	DB	0dfH
	DB	0ffH
	DB	0beH
	DB	0f7H
	DB	0dfH
	DB	0ffH
	DB	0dfH
	DB	0ffH
	DB	0beH
	DB	0f7H
	DB	0dfH
	DB	0ffH
	DB	0dfH
	DB	0ffH
	DB	0beH
	DB	0f7H
	DB	0dfH
	DB	0ffH
	DB	0dfH
	DB	0ffH
	DB	0beH
	DB	0f7H
	DB	0dfH
	DB	0ffH
	DB	0dfH
	DB	0ffH
	DB	0beH
	DB	0f7H
	DB	0dfH
	DB	0ffH
	DB	0dfH
	DB	0ffH
	DB	0beH
	DB	0f7H
	DB	0dfH
	DB	0ffH
	DB	0dfH
	DB	0ffH
	DB	0beH
	DB	0f7H
	DB	0dfH
	DB	0ffH
	DB	07cH
	DB	06eH
	DB	0fbH
	DB	045H
	DB	0fbH
	DB	045H
	DB	0fbH
	DB	045H
	DB	0fbH
	DB	045H
	DB	0fbH
	DB	045H
	DB	09aH
	DB	035H
	DB	095H
	DB	01cH
	DB	0beH
	DB	0f7H
	DB	0dfH
	DB	0ffH
	DB	0dfH
	DB	0ffH
	DB	0dfH
	DB	0ffH
	DB	0ffH
	DB	0ffH
	DB	01dH
	DB	0b7H
	DB	0fbH
	DB	045H
	DB	0fbH
	DB	045H
	DB	0fbH
	DB	045H
	DB	0fbH
	DB	045H
	DB	0fbH
	DB	045H
	DB	0fbH
	DB	045H
	DB	0d6H
	DB	01cH
	DB	075H
	DB	014H
	DB	075H
	DB	014H
	DB	0bbH
	DB	0aeH
	DB	0dfH
	DB	0ffH
	DB	0dfH
	DB	0ffH
	DB	0ffH
	DB	0ffH
	DB	0beH
	DB	0f7H
	DB	0ffH
	DB	0ffH
	DB	0dfH
	DB	0ffH
	DB	0beH
	DB	0f7H
	DB	0ffH
	DB	0ffH
	DB	0dfH
	DB	0ffH
	DB	0beH
	DB	0f7H
	DB	0ffH
	DB	0ffH
	DB	0dfH
	DB	0ffH
	DB	0beH
	DB	0f7H
	DB	0ffH
	DB	0ffH
	DB	0dfH
	DB	0ffH
	DB	0beH
	DB	0f7H
	DB	0ffH
	DB	0ffH
	DB	0dfH
	DB	0ffH
	DB	0beH
	DB	0f7H
	DB	0ffH
	DB	0ffH
	DB	0dfH
	DB	0ffH
	DB	0beH
	DB	0f7H
	DB	0ffH
	DB	0ffH
	DB	0dfH
	DB	0ffH
	DB	0beH
	DB	0f7H
	DB	0ffH
	DB	0ffH
	DB	0dfH
	DB	0ffH
	DB	0beH
	DB	0f7H
	DB	0ffH
	DB	0ffH
	DB	0dfH
	DB	0ffH
	DB	0beH
	DB	0f7H
	DB	0ffH
	DB	0ffH
	DB	0dfH
	DB	0ffH
	DB	0beH
	DB	0f7H
	DB	0ffH
	DB	0ffH
	DB	0dfH
	DB	0ffH
	DB	0beH
	DB	0f7H
	DB	0ffH
	DB	0ffH
	DB	0dfH
	DB	0ffH
	DB	0beH
	DB	0f7H
	DB	0ffH
	DB	0ffH
	DB	0dfH
	DB	0ffH
	DB	0beH
	DB	0f7H
	DB	0ffH
	DB	0ffH
	DB	0dfH
	DB	0ffH
	DB	0beH
	DB	0f7H
	DB	0ffH
	DB	0ffH
	DB	0dfH
	DB	0ffH
	DB	0beH
	DB	0f7H
	DB	09eH
	DB	0d7H
	DB	0fbH
	DB	045H
	DB	0fbH
	DB	045H
	DB	0fbH
	DB	045H
	DB	0fbH
	DB	045H
	DB	0fbH
	DB	045H
	DB	0fbH
	DB	045H
	DB	017H
	DB	025H
	DB	01aH
	DB	086H
	DB	0ffH
	DB	0ffH
	DB	0dfH
	DB	0ffH
	DB	0dfH
	DB	0ffH
	DB	0dfH
	DB	0ffH
	DB	0ffH
	DB	0ffH
	DB	0bfH
	DB	0f7H
	DB	01cH
	DB	04eH
	DB	0fbH
	DB	045H
	DB	0fbH
	DB	045H
	DB	0fbH
	DB	045H
	DB	0fbH
	DB	045H
	DB	0fbH
	DB	045H
	DB	09aH
	DB	035H
	DB	075H
	DB	014H
	DB	055H
	DB	014H
	DB	0b6H
	DB	024H
	DB	0bfH
	DB	0efH
	DB	0beH
	DB	0f7H
	DB	0ffH
	DB	0ffH
	DB	0dfH
	DB	0ffH
	DB	0dfH
	DB	0ffH
	DB	0dfH
	DB	0ffH
	DB	0dfH
	DB	0ffH
	DB	0dfH
	DB	0ffH
	DB	0dfH
	DB	0ffH
	DB	0dfH
	DB	0ffH
	DB	0dfH
	DB	0ffH
	DB	0dfH
	DB	0ffH
	DB	0dfH
	DB	0ffH
	DB	0dfH
	DB	0ffH
	DB	0dfH
	DB	0ffH
	DB	0dfH
	DB	0ffH
	DB	0dfH
	DB	0ffH
	DB	0dfH
	DB	0ffH
	DB	0dfH
	DB	0ffH
	DB	0dfH
	DB	0ffH
	DB	0dfH
	DB	0ffH
	DB	0dfH
	DB	0ffH
	DB	0dfH
	DB	0ffH
	DB	0dfH
	DB	0ffH
	DB	0dfH
	DB	0ffH
	DB	0dfH
	DB	0ffH
	DB	0dfH
	DB	0ffH
	DB	0dfH
	DB	0ffH
	DB	0dfH
	DB	0ffH
	DB	0dfH
	DB	0ffH
	DB	0dfH
	DB	0ffH
	DB	0dfH
	DB	0ffH
	DB	0dfH
	DB	0ffH
	DB	0dfH
	DB	0ffH
	DB	0dfH
	DB	0ffH
	DB	0dfH
	DB	0ffH
	DB	0dfH
	DB	0ffH
	DB	0dfH
	DB	0ffH
	DB	0dfH
	DB	0ffH
	DB	0dfH
	DB	0ffH
	DB	0dfH
	DB	0ffH
	DB	0dfH
	DB	0ffH
	DB	0dfH
	DB	0ffH
	DB	0dfH
	DB	0ffH
	DB	0dfH
	DB	0ffH
	DB	0dfH
	DB	0ffH
	DB	0dfH
	DB	0ffH
	DB	0dfH
	DB	0ffH
	DB	0ffH
	DB	0ffH
	DB	05cH
	DB	06eH
	DB	0fbH
	DB	045H
	DB	0fbH
	DB	045H
	DB	0fbH
	DB	045H
	DB	0fbH
	DB	045H
	DB	0fbH
	DB	045H
	DB	0dbH
	DB	03dH
	DB	096H
	DB	01cH
	DB	09eH
	DB	0efH
	DB	0dfH
	DB	0ffH
	DB	0dfH
	DB	0ffH
	DB	0ffH
	DB	0ffH
	DB	0dfH
	DB	0ffH
	DB	0ffH
	DB	0ffH
	DB	0beH
	DB	0f7H
	DB	0fdH
	DB	09eH
	DB	0fbH
	DB	045H
	DB	0fbH
	DB	045H
	DB	0fbH
	DB	045H
	DB	0fbH
	DB	045H
	DB	0fbH
	DB	045H
	DB	0fbH
	DB	045H
	DB	0f7H
	DB	024H
	DB	055H
	DB	014H
	DB	055H
	DB	0cH
	DB	099H
	DB	065H
	DB	0dfH
	DB	0ffH
	DB	0ffH
	DB	0ffH
	DB	0beH
	DB	0f7H
	DB	0dfH
	DB	0ffH
	DB	0dfH
	DB	0ffH
	DB	0beH
	DB	0f7H
	DB	0dfH
	DB	0ffH
	DB	0dfH
	DB	0ffH
	DB	0beH
	DB	0f7H
	DB	0dfH
	DB	0ffH
	DB	0dfH
	DB	0ffH
	DB	0beH
	DB	0f7H
	DB	0dfH
	DB	0ffH
	DB	0dfH
	DB	0ffH
	DB	0beH
	DB	0f7H
	DB	0dfH
	DB	0ffH
	DB	0dfH
	DB	0ffH
	DB	0beH
	DB	0f7H
	DB	0dfH
	DB	0ffH
	DB	0dfH
	DB	0ffH
	DB	0beH
	DB	0f7H
	DB	0dfH
	DB	0ffH
	DB	0dfH
	DB	0ffH
	DB	0beH
	DB	0f7H
	DB	0dfH
	DB	0ffH
	DB	0dfH
	DB	0ffH
	DB	0beH
	DB	0f7H
	DB	0dfH
	DB	0ffH
	DB	0dfH
	DB	0ffH
	DB	0beH
	DB	0f7H
	DB	0dfH
	DB	0ffH
	DB	0dfH
	DB	0ffH
	DB	0beH
	DB	0f7H
	DB	0dfH
	DB	0ffH
	DB	0dfH
	DB	0ffH
	DB	0beH
	DB	0f7H
	DB	0dfH
	DB	0ffH
	DB	0dfH
	DB	0ffH
	DB	0beH
	DB	0f7H
	DB	0dfH
	DB	0ffH
	DB	0dfH
	DB	0ffH
	DB	0beH
	DB	0f7H
	DB	0dfH
	DB	0ffH
	DB	0dfH
	DB	0ffH
	DB	0beH
	DB	0f7H
	DB	0dfH
	DB	0ffH
	DB	0dfH
	DB	0ffH
	DB	05eH
	DB	0bfH
	DB	0fbH
	DB	045H
	DB	0fbH
	DB	045H
	DB	0fbH
	DB	045H
	DB	0fbH
	DB	045H
	DB	0fbH
	DB	045H
	DB	0fbH
	DB	045H
	DB	038H
	DB	02dH
	DB	05aH
	DB	08eH
	DB	0beH
	DB	0f7H
	DB	0dfH
	DB	0ffH
	DB	0dfH
	DB	0ffH
	DB	0dfH
	DB	0ffH
	DB	0dfH
	DB	0ffH
	DB	0ffH
	DB	0ffH
	DB	0dfH
	DB	0ffH
	DB	0dfH
	DB	0efH
	DB	01bH
	DB	04eH
	DB	0fbH
	DB	045H
	DB	0fbH
	DB	045H
	DB	0fbH
	DB	045H
	DB	0fbH
	DB	045H
	DB	0fbH
	DB	045H
	DB	0dbH
	DB	03dH
	DB	095H
	DB	014H
	DB	055H
	DB	0cH
	DB	075H
	DB	014H
	DB	07bH
	DB	09eH
	DB	0ffH
	DB	0ffH
	DB	0beH
	DB	0f7H
	DB	0ffH
	DB	0ffH
	DB	0dfH
	DB	0ffH
	DB	0beH
	DB	0f7H
	DB	0ffH
	DB	0ffH
	DB	0dfH
	DB	0ffH
	DB	0beH
	DB	0f7H
	DB	0ffH
	DB	0ffH
	DB	0dfH
	DB	0ffH
	DB	0beH
	DB	0f7H
	DB	0ffH
	DB	0ffH
	DB	0dfH
	DB	0ffH
	DB	0beH
	DB	0f7H
	DB	0ffH
	DB	0ffH
	DB	0dfH
	DB	0ffH
	DB	0beH
	DB	0f7H
	DB	0ffH
	DB	0ffH
	DB	0dfH
	DB	0ffH
	DB	0beH
	DB	0f7H
	DB	0ffH
	DB	0ffH
	DB	0dfH
	DB	0ffH
	DB	0beH
	DB	0f7H
	DB	0ffH
	DB	0ffH
	DB	0dfH
	DB	0ffH
	DB	0beH
	DB	0f7H
	DB	0ffH
	DB	0ffH
	DB	0dfH
	DB	0ffH
	DB	0beH
	DB	0f7H
	DB	0ffH
	DB	0ffH
	DB	0dfH
	DB	0ffH
	DB	0beH
	DB	0f7H
	DB	0ffH
	DB	0ffH
	DB	0dfH
	DB	0ffH
	DB	0beH
	DB	0f7H
	DB	0ffH
	DB	0ffH
	DB	0dfH
	DB	0ffH
	DB	0beH
	DB	0f7H
	DB	0ffH
	DB	0ffH
	DB	0dfH
	DB	0ffH
	DB	0beH
	DB	0f7H
	DB	0ffH
	DB	0ffH
	DB	0dfH
	DB	0ffH
	DB	0beH
	DB	0f7H
	DB	0ffH
	DB	0ffH
	DB	0bfH
	DB	0efH
	DB	0fbH
	DB	04dH
	DB	0fbH
	DB	045H
	DB	0fbH
	DB	045H
	DB	0fbH
	DB	045H
	DB	0fbH
	DB	045H
	DB	0fbH
	DB	045H
	DB	0dbH
	DB	03dH
	DB	0f7H
	DB	034H
	DB	0dfH
	DB	0f7H
	DB	0beH
	DB	0f7H
	DB	0ffH
	DB	0ffH
	DB	0dfH
	DB	0ffH
	DB	0dfH
	DB	0ffH
	DB	0dfH
	DB	0ffH
	DB	0ffH
	DB	0ffH
	DB	0beH
	DB	0f7H
	DB	0dfH
	DB	0ffH
	DB	01dH
	DB	0a7H
	DB	0fbH
	DB	045H
	DB	0fbH
	DB	045H
	DB	0fbH
	DB	045H
	DB	0fbH
	DB	045H
	DB	0fbH
	DB	045H
	DB	0fbH
	DB	045H
	DB	079H
	DB	035H
	DB	075H
	DB	014H
	DB	075H
	DB	014H
	DB	055H
	DB	014H
	DB	01dH
	DB	0c7H
	DB	0dfH
	DB	0ffH
	DB	0dfH
	DB	0ffH
	DB	0dfH
	DB	0ffH
	DB	0dfH
	DB	0ffH
	DB	0dfH
	DB	0ffH
	DB	0dfH
	DB	0ffH
	DB	0dfH
	DB	0ffH
	DB	0dfH
	DB	0ffH
	DB	0dfH
	DB	0ffH
	DB	0dfH
	DB	0ffH
	DB	0dfH
	DB	0ffH
	DB	0dfH
	DB	0ffH
	DB	0dfH
	DB	0ffH
	DB	0dfH
	DB	0ffH
	DB	0dfH
	DB	0ffH
	DB	0dfH
	DB	0ffH
	DB	0dfH
	DB	0ffH
	DB	0dfH
	DB	0ffH
	DB	0dfH
	DB	0ffH
	DB	0dfH
	DB	0ffH
	DB	0dfH
	DB	0ffH
	DB	0dfH
	DB	0ffH
	DB	0dfH
	DB	0ffH
	DB	0dfH
	DB	0ffH
	DB	0dfH
	DB	0ffH
	DB	0dfH
	DB	0ffH
	DB	0dfH
	DB	0ffH
	DB	0dfH
	DB	0ffH
	DB	0dfH
	DB	0ffH
	DB	0dfH
	DB	0ffH
	DB	0dfH
	DB	0ffH
	DB	0dfH
	DB	0ffH
	DB	0dfH
	DB	0ffH
	DB	0dfH
	DB	0ffH
	DB	0dfH
	DB	0ffH
	DB	0dfH
	DB	0ffH
	DB	0dfH
	DB	0ffH
	DB	0dfH
	DB	0ffH
	DB	0dfH
	DB	0ffH
	DB	0dfH
	DB	0ffH
	DB	0dfH
	DB	0ffH
	DB	0dfH
	DB	0ffH
	DB	0dfH
	DB	0ffH
	DB	0ffH
	DB	0ffH
	DB	05cH
	DB	06eH
	DB	0fbH
	DB	045H
	DB	0fbH
	DB	045H
	DB	0fbH
	DB	045H
	DB	0fbH
	DB	045H
	DB	0fbH
	DB	045H
	DB	0fbH
	DB	045H
	DB	038H
	DB	02dH
	DB	0fcH
	DB	0beH
	DB	0dfH
	DB	0ffH
	DB	0dfH
	DB	0ffH
	DB	0dfH
	DB	0ffH
	DB	0dfH
	DB	0ffH
	DB	0ffH
	DB	0ffH
	DB	0dfH
	DB	0ffH
	DB	0ffH
	DB	0ffH
	DB	0beH
	DB	0f7H
	DB	0dfH
	DB	0ffH
	DB	0dfH
	DB	0f7H
	DB	03cH
	DB	056H
	DB	0fbH
	DB	045H
	DB	0fbH
	DB	045H
	DB	0fbH
	DB	045H
	DB	0fbH
	DB	045H
	DB	0fbH
	DB	045H
	DB	0fbH
	DB	045H
	DB	018H
	DB	025H
	DB	075H
	DB	014H
	DB	055H
	DB	014H
	DB	096H
	DB	01cH
	DB	03dH
	DB	0cfH
	DB	0dfH
	DB	0ffH
	DB	0dfH
	DB	0ffH
	DB	0beH
	DB	0f7H
	DB	0dfH
	DB	0ffH
	DB	0dfH
	DB	0ffH
	DB	0beH
	DB	0f7H
	DB	0dfH
	DB	0ffH
	DB	0dfH
	DB	0ffH
	DB	0beH
	DB	0f7H
	DB	0dfH
	DB	0ffH
	DB	0dfH
	DB	0ffH
	DB	0beH
	DB	0f7H
	DB	0dfH
	DB	0ffH
	DB	0dfH
	DB	0ffH
	DB	0beH
	DB	0f7H
	DB	0dfH
	DB	0ffH
	DB	0dfH
	DB	0ffH
	DB	0beH
	DB	0f7H
	DB	0dfH
	DB	0ffH
	DB	0dfH
	DB	0ffH
	DB	0beH
	DB	0f7H
	DB	0dfH
	DB	0ffH
	DB	0dfH
	DB	0ffH
	DB	0beH
	DB	0f7H
	DB	0dfH
	DB	0ffH
	DB	0dfH
	DB	0ffH
	DB	0beH
	DB	0f7H
	DB	0dfH
	DB	0ffH
	DB	0dfH
	DB	0ffH
	DB	0beH
	DB	0f7H
	DB	0dfH
	DB	0ffH
	DB	0dfH
	DB	0ffH
	DB	0beH
	DB	0f7H
	DB	0dfH
	DB	0ffH
	DB	0dfH
	DB	0ffH
	DB	0beH
	DB	0f7H
	DB	0dfH
	DB	0ffH
	DB	0dfH
	DB	0ffH
	DB	0beH
	DB	0f7H
	DB	0dfH
	DB	0ffH
	DB	0dfH
	DB	0ffH
	DB	0beH
	DB	0f7H
	DB	0bcH
	DB	096H
	DB	0fbH
	DB	045H
	DB	0fbH
	DB	045H
	DB	0fbH
	DB	045H
	DB	0fbH
	DB	045H
	DB	0fbH
	DB	045H
	DB	0fbH
	DB	045H
	DB	0baH
	DB	03dH
	DB	0d9H
	DB	06dH
	DB	0dfH
	DB	0ffH
	DB	0dfH
	DB	0ffH
	DB	0beH
	DB	0f7H
	DB	0dfH
	DB	0ffH
	DB	0dfH
	DB	0ffH
	DB	0dfH
	DB	0ffH
	DB	0dfH
	DB	0ffH
	DB	0ffH
	DB	0ffH
	DB	0dfH
	DB	0ffH
	DB	0dfH
	DB	0ffH
	DB	0dfH
	DB	0ffH
	DB	05eH
	DB	0c7H
	DB	0fbH
	DB	045H
	DB	0fbH
	DB	045H
	DB	0fbH
	DB	045H
	DB	0fbH
	DB	045H
	DB	0fbH
	DB	045H
	DB	0fbH
	DB	045H
	DB	0fbH
	DB	03dH
	DB	0d7H
	DB	01cH
	DB	075H
	DB	014H
	DB	075H
	DB	014H
	DB	095H
	DB	01cH
	DB	05dH
	DB	0d7H
	DB	0dfH
	DB	0ffH
	DB	0beH
	DB	0f7H
	DB	0ffH
	DB	0ffH
	DB	0dfH
	DB	0ffH
	DB	0beH
	DB	0f7H
	DB	0ffH
	DB	0ffH
	DB	0dfH
	DB	0ffH
	DB	0beH
	DB	0f7H
	DB	0ffH
	DB	0ffH
	DB	0dfH
	DB	0ffH
	DB	0beH
	DB	0f7H
	DB	0ffH
	DB	0ffH
	DB	0dfH
	DB	0ffH
	DB	0beH
	DB	0f7H
	DB	0ffH
	DB	0ffH
	DB	0dfH
	DB	0ffH
	DB	0beH
	DB	0f7H
	DB	0ffH
	DB	0ffH
	DB	0dfH
	DB	0ffH
	DB	0beH
	DB	0f7H
	DB	0ffH
	DB	0ffH
	DB	0dfH
	DB	0ffH
	DB	0beH
	DB	0f7H
	DB	0ffH
	DB	0ffH
	DB	0dfH
	DB	0ffH
	DB	0beH
	DB	0f7H
	DB	0ffH
	DB	0ffH
	DB	0dfH
	DB	0ffH
	DB	0beH
	DB	0f7H
	DB	0ffH
	DB	0ffH
	DB	0dfH
	DB	0ffH
	DB	0beH
	DB	0f7H
	DB	0ffH
	DB	0ffH
	DB	0dfH
	DB	0ffH
	DB	0beH
	DB	0f7H
	DB	0ffH
	DB	0ffH
	DB	0dfH
	DB	0ffH
	DB	0beH
	DB	0f7H
	DB	0ffH
	DB	0ffH
	DB	0dfH
	DB	0ffH
	DB	0fdH
	DB	0aeH
	DB	0fbH
	DB	03dH
	DB	0fbH
	DB	045H
	DB	0fbH
	DB	045H
	DB	0fbH
	DB	045H
	DB	0fbH
	DB	045H
	DB	0fbH
	DB	045H
	DB	0fbH
	DB	045H
	DB	038H
	DB	03dH
	DB	0beH
	DB	0efH
	DB	0ffH
	DB	0ffH
	DB	0dfH
	DB	0ffH
	DB	0beH
	DB	0f7H
	DB	0ffH
	DB	0ffH
	DB	0dfH
	DB	0ffH
	DB	0dfH
	DB	0ffH
	DB	0dfH
	DB	0ffH
	DB	0ffH
	DB	0ffH
	DB	0beH
	DB	0f7H
	DB	0dfH
	DB	0ffH
	DB	0ffH
	DB	0ffH
	DB	0beH
	DB	0f7H
	DB	0bdH
	DB	08eH
	DB	0fbH
	DB	045H
	DB	0fbH
	DB	045H
	DB	0fbH
	DB	045H
	DB	0fbH
	DB	045H
	DB	0fbH
	DB	045H
	DB	0fbH
	DB	045H
	DB	0dbH
	DB	03dH
	DB	0b6H
	DB	01cH
	DB	075H
	DB	014H
	DB	055H
	DB	0cH
	DB	095H
	DB	01cH
	DB	01dH
	DB	0c7H
	DB	0dfH
	DB	0ffH
	DB	0dfH
	DB	0ffH
	DB	0dfH
	DB	0ffH
	DB	0dfH
	DB	0ffH
	DB	0dfH
	DB	0ffH
	DB	0dfH
	DB	0ffH
	DB	0dfH
	DB	0ffH
	DB	0dfH
	DB	0ffH
	DB	0dfH
	DB	0ffH
	DB	0dfH
	DB	0ffH
	DB	0dfH
	DB	0ffH
	DB	0dfH
	DB	0ffH
	DB	0dfH
	DB	0ffH
	DB	0dfH
	DB	0ffH
	DB	0dfH
	DB	0ffH
	DB	0dfH
	DB	0ffH
	DB	0dfH
	DB	0ffH
	DB	0dfH
	DB	0ffH
	DB	0dfH
	DB	0ffH
	DB	0dfH
	DB	0ffH
	DB	0dfH
	DB	0ffH
	DB	0dfH
	DB	0ffH
	DB	0dfH
	DB	0ffH
	DB	0dfH
	DB	0ffH
	DB	0dfH
	DB	0ffH
	DB	0dfH
	DB	0ffH
	DB	0dfH
	DB	0ffH
	DB	0dfH
	DB	0ffH
	DB	0dfH
	DB	0ffH
	DB	0dfH
	DB	0ffH
	DB	0dfH
	DB	0ffH
	DB	0dfH
	DB	0ffH
	DB	0dfH
	DB	0ffH
	DB	0dfH
	DB	0ffH
	DB	0dfH
	DB	0ffH
	DB	0dfH
	DB	0ffH
	DB	0dfH
	DB	0ffH
	DB	0dfH
	DB	0ffH
	DB	0dcH
	DB	0aeH
	DB	0dbH
	DB	03dH
	DB	0fbH
	DB	045H
	DB	0fbH
	DB	045H
	DB	0fbH
	DB	045H
	DB	0fbH
	DB	045H
	DB	0fbH
	DB	045H
	DB	0fbH
	DB	045H
	DB	079H
	DB	035H
	DB	07eH
	DB	0d7H
	DB	0dfH
	DB	0ffH
	DB	0dfH
	DB	0ffH
	DB	0dfH
	DB	0ffH
	DB	0dfH
	DB	0ffH
	DB	0dfH
	DB	0ffH
	DB	0dfH
	DB	0ffH
	DB	0ffH
	DB	0ffH
	DB	0dfH
	DB	0ffH
	DB	0ffH
	DB	0ffH
	DB	0beH
	DB	0f7H
	DB	0dfH
	DB	0ffH
	DB	0dfH
	DB	0ffH
	DB	0beH
	DB	0f7H
	DB	0dfH
	DB	0f7H
	DB	03cH
	DB	05eH
	DB	0fbH
	DB	045H
	DB	0fbH
	DB	045H
	DB	0fbH
	DB	045H
	DB	0fbH
	DB	045H
	DB	0fbH
	DB	045H
	DB	0fbH
	DB	045H
	DB	0dbH
	DB	03dH
	DB	0b6H
	DB	01cH
	DB	055H
	DB	014H
	DB	055H
	DB	0cH
	DB	075H
	DB	014H
	DB	07bH
	DB	09eH
	DB	0dfH
	DB	0ffH
	DB	0dfH
	DB	0ffH
	DB	0beH
	DB	0f7H
	DB	0dfH
	DB	0ffH
	DB	0dfH
	DB	0ffH
	DB	0beH
	DB	0f7H
	DB	0dfH
	DB	0ffH
	DB	0dfH
	DB	0ffH
	DB	0beH
	DB	0f7H
	DB	0dfH
	DB	0ffH
	DB	0dfH
	DB	0ffH
	DB	0beH
	DB	0f7H
	DB	0dfH
	DB	0ffH
	DB	0dfH
	DB	0ffH
	DB	0beH
	DB	0f7H
	DB	0dfH
	DB	0ffH
	DB	0dfH
	DB	0ffH
	DB	0beH
	DB	0f7H
	DB	0dfH
	DB	0ffH
	DB	0dfH
	DB	0ffH
	DB	0beH
	DB	0f7H
	DB	0dfH
	DB	0ffH
	DB	0dfH
	DB	0ffH
	DB	0beH
	DB	0f7H
	DB	0dfH
	DB	0ffH
	DB	0dfH
	DB	0ffH
	DB	0beH
	DB	0f7H
	DB	0dfH
	DB	0ffH
	DB	0dfH
	DB	0ffH
	DB	0beH
	DB	0f7H
	DB	0dfH
	DB	0ffH
	DB	0dfH
	DB	0ffH
	DB	0beH
	DB	0f7H
	DB	0dfH
	DB	0ffH
	DB	0dfH
	DB	0ffH
	DB	0dfH
	DB	0ffH
	DB	07bH
	DB	08eH
	DB	0dbH
	DB	03dH
	DB	0fbH
	DB	045H
	DB	0fbH
	DB	045H
	DB	0fbH
	DB	045H
	DB	0fbH
	DB	045H
	DB	0fbH
	DB	045H
	DB	0fbH
	DB	045H
	DB	0baH
	DB	03dH
	DB	0fcH
	DB	0b6H
	DB	0dfH
	DB	0ffH
	DB	0beH
	DB	0f7H
	DB	0dfH
	DB	0ffH
	DB	0dfH
	DB	0ffH
	DB	0beH
	DB	0f7H
	DB	0dfH
	DB	0ffH
	DB	0dfH
	DB	0ffH
	DB	0dfH
	DB	0ffH
	DB	0dfH
	DB	0ffH
	DB	0ffH
	DB	0ffH
	DB	0dfH
	DB	0ffH
	DB	0dfH
	DB	0ffH
	DB	0dfH
	DB	0ffH
	DB	0dfH
	DB	0ffH
	DB	0dfH
	DB	0ffH
	DB	09eH
	DB	0dfH
	DB	01bH
	DB	04eH
	DB	0fbH
	DB	045H
	DB	0fbH
	DB	045H
	DB	0fbH
	DB	045H
	DB	0fbH
	DB	045H
	DB	0fbH
	DB	045H
	DB	0fbH
	DB	045H
	DB	0dbH
	DB	03dH
	DB	0d7H
	DB	01cH
	DB	075H
	DB	014H
	DB	075H
	DB	014H
	DB	055H
	DB	014H
	DB	0b9H
	DB	065H
	DB	0bfH
	DB	0efH
	DB	0beH
	DB	0f7H
	DB	0ffH
	DB	0ffH
	DB	0dfH
	DB	0ffH
	DB	0beH
	DB	0f7H
	DB	0ffH
	DB	0ffH
	DB	0dfH
	DB	0ffH
	DB	0beH
	DB	0f7H
	DB	0ffH
	DB	0ffH
	DB	0dfH
	DB	0ffH
	DB	0beH
	DB	0f7H
	DB	0ffH
	DB	0ffH
	DB	0dfH
	DB	0ffH
	DB	0beH
	DB	0f7H
	DB	0ffH
	DB	0ffH
	DB	0dfH
	DB	0ffH
	DB	0beH
	DB	0f7H
	DB	0ffH
	DB	0ffH
	DB	0dfH
	DB	0ffH
	DB	0beH
	DB	0f7H
	DB	0ffH
	DB	0ffH
	DB	0dfH
	DB	0ffH
	DB	0beH
	DB	0f7H
	DB	0ffH
	DB	0ffH
	DB	0dfH
	DB	0ffH
	DB	0beH
	DB	0f7H
	DB	0ffH
	DB	0ffH
	DB	0dfH
	DB	0ffH
	DB	0beH
	DB	0f7H
	DB	0ffH
	DB	0ffH
	DB	0dfH
	DB	0ffH
	DB	0beH
	DB	0f7H
	DB	0ffH
	DB	0ffH
	DB	0bfH
	DB	0efH
	DB	0b9H
	DB	05dH
	DB	0dbH
	DB	03dH
	DB	0fbH
	DB	045H
	DB	0fbH
	DB	045H
	DB	0fbH
	DB	045H
	DB	0fbH
	DB	045H
	DB	0fbH
	DB	045H
	DB	0fbH
	DB	045H
	DB	0dbH
	DB	03dH
	DB	07bH
	DB	096H
	DB	0ffH
	DB	0ffH
	DB	0dfH
	DB	0ffH
	DB	0beH
	DB	0f7H
	DB	0ffH
	DB	0ffH
	DB	0dfH
	DB	0ffH
	DB	0beH
	DB	0f7H
	DB	0ffH
	DB	0ffH
	DB	0dfH
	DB	0ffH
	DB	0dfH
	DB	0ffH
	DB	0dfH
	DB	0ffH
	DB	0ffH
	DB	0ffH
	DB	0beH
	DB	0f7H
	DB	0dfH
	DB	0ffH
	DB	0ffH
	DB	0ffH
	DB	0beH
	DB	0f7H
	DB	0dfH
	DB	0ffH
	DB	0ffH
	DB	0ffH
	DB	05eH
	DB	0c7H
	DB	0fbH
	DB	045H
	DB	0fbH
	DB	045H
	DB	0fbH
	DB	045H
	DB	0fbH
	DB	045H
	DB	0fbH
	DB	045H
	DB	0fbH
	DB	045H
	DB	0fbH
	DB	045H
	DB	0fbH
	DB	03dH
	DB	018H
	DB	025H
	DB	075H
	DB	014H
	DB	055H
	DB	0cH
	DB	055H
	DB	0cH
	DB	0b6H
	DB	024H
	DB	0bbH
	DB	0aeH
	DB	0dfH
	DB	0ffH
	DB	0dfH
	DB	0ffH
	DB	0dfH
	DB	0ffH
	DB	0dfH
	DB	0ffH
	DB	0dfH
	DB	0ffH
	DB	0dfH
	DB	0ffH
	DB	0dfH
	DB	0ffH
	DB	0dfH
	DB	0ffH
	DB	0dfH
	DB	0ffH
	DB	0dfH
	DB	0ffH
	DB	0dfH
	DB	0ffH
	DB	0dfH
	DB	0ffH
	DB	0dfH
	DB	0ffH
	DB	0dfH
	DB	0ffH
	DB	0dfH
	DB	0ffH
	DB	0dfH
	DB	0ffH
	DB	0dfH
	DB	0ffH
	DB	0dfH
	DB	0ffH
	DB	0dfH
	DB	0ffH
	DB	0dfH
	DB	0ffH
	DB	0dfH
	DB	0ffH
	DB	0dfH
	DB	0ffH
	DB	0dfH
	DB	0ffH
	DB	0dfH
	DB	0ffH
	DB	0dfH
	DB	0ffH
	DB	0dfH
	DB	0ffH
	DB	0dfH
	DB	0ffH
	DB	0dfH
	DB	0ffH
	DB	0dfH
	DB	0ffH
	DB	0dfH
	DB	0ffH
	DB	0dcH
	DB	0aeH
	DB	038H
	DB	035H
	DB	0fbH
	DB	03dH
	DB	0fbH
	DB	045H
	DB	0fbH
	DB	045H
	DB	0fbH
	DB	045H
	DB	0fbH
	DB	045H
	DB	0fbH
	DB	045H
	DB	0fbH
	DB	045H
	DB	0fbH
	DB	045H
	DB	05bH
	DB	086H
	DB	0dfH
	DB	0ffH
	DB	0dfH
	DB	0ffH
	DB	0dfH
	DB	0ffH
	DB	0dfH
	DB	0ffH
	DB	0dfH
	DB	0ffH
	DB	0dfH
	DB	0ffH
	DB	0dfH
	DB	0ffH
	DB	0dfH
	DB	0ffH
	DB	0dfH
	DB	0ffH
	DB	0ffH
	DB	0ffH
	DB	0dfH
	DB	0ffH
	DB	0ffH
	DB	0ffH
	DB	0beH
	DB	0f7H
	DB	0dfH
	DB	0ffH
	DB	0dfH
	DB	0ffH
	DB	0beH
	DB	0f7H
	DB	0dfH
	DB	0ffH
	DB	0dfH
	DB	0ffH
	DB	0beH
	DB	0f7H
	DB	03eH
	DB	0b7H
	DB	0fbH
	DB	045H
	DB	0fbH
	DB	045H
	DB	0fbH
	DB	045H
	DB	0fbH
	DB	045H
	DB	0fbH
	DB	045H
	DB	0fbH
	DB	045H
	DB	0fbH
	DB	045H
	DB	0fbH
	DB	045H
	DB	079H
	DB	035H
	DB	095H
	DB	014H
	DB	055H
	DB	0cH
	DB	075H
	DB	014H
	DB	055H
	DB	014H
	DB	037H
	DB	04dH
	DB	03dH
	DB	0cfH
	DB	0beH
	DB	0f7H
	DB	0dfH
	DB	0ffH
	DB	0dfH
	DB	0ffH
	DB	0beH
	DB	0f7H
	DB	0dfH
	DB	0ffH
	DB	0dfH
	DB	0ffH
	DB	0beH
	DB	0f7H
	DB	0dfH
	DB	0ffH
	DB	0dfH
	DB	0ffH
	DB	0beH
	DB	0f7H
	DB	0dfH
	DB	0ffH
	DB	0dfH
	DB	0ffH
	DB	0beH
	DB	0f7H
	DB	0dfH
	DB	0ffH
	DB	0dfH
	DB	0ffH
	DB	0beH
	DB	0f7H
	DB	0dfH
	DB	0ffH
	DB	0dfH
	DB	0ffH
	DB	0beH
	DB	0f7H
	DB	0dfH
	DB	0ffH
	DB	0dfH
	DB	0ffH
	DB	0beH
	DB	0f7H
	DB	0dfH
	DB	0ffH
	DB	0dfH
	DB	0ffH
	DB	0beH
	DB	0f7H
	DB	0dfH
	DB	0ffH
	DB	03dH
	DB	0cfH
	DB	058H
	DB	04dH
	DB	079H
	DB	035H
	DB	0fbH
	DB	045H
	DB	0fbH
	DB	045H
	DB	0fbH
	DB	045H
	DB	0fbH
	DB	045H
	DB	0fbH
	DB	045H
	DB	0fbH
	DB	045H
	DB	0fbH
	DB	045H
	DB	0fbH
	DB	045H
	DB	05bH
	DB	07eH
	DB	0dfH
	DB	0ffH
	DB	0beH
	DB	0f7H
	DB	0dfH
	DB	0ffH
	DB	0dfH
	DB	0ffH
	DB	0beH
	DB	0f7H
	DB	0dfH
	DB	0ffH
	DB	0dfH
	DB	0ffH
	DB	0beH
	DB	0f7H
	DB	0dfH
	DB	0ffH
	DB	0dfH
	DB	0ffH
	DB	0dfH
	DB	0ffH
	DB	0dfH
	DB	0ffH
	DB	0ffH
	DB	0ffH
	DB	0dfH
	DB	0ffH
	DB	0dfH
	DB	0ffH
	DB	0dfH
	DB	0ffH
	DB	0dfH
	DB	0ffH
	DB	0dfH
	DB	0ffH
	DB	0dfH
	DB	0ffH
	DB	0dfH
	DB	0ffH
	DB	0dfH
	DB	0ffH
	DB	01dH
	DB	0afH
	DB	0fbH
	DB	045H
	DB	0fbH
	DB	045H
	DB	0fbH
	DB	045H
	DB	0fbH
	DB	045H
	DB	0fbH
	DB	045H
	DB	0fbH
	DB	045H
	DB	0fbH
	DB	045H
	DB	0fbH
	DB	045H
	DB	0dbH
	DB	03dH
	DB	0f7H
	DB	024H
	DB	075H
	DB	014H
	DB	055H
	DB	014H
	DB	075H
	DB	014H
	DB	075H
	DB	014H
	DB	037H
	DB	04dH
	DB	0fcH
	DB	0b6H
	DB	0ffH
	DB	0ffH
	DB	0beH
	DB	0f7H
	DB	0ffH
	DB	0ffH
	DB	0dfH
	DB	0ffH
	DB	0beH
	DB	0f7H
	DB	0ffH
	DB	0ffH
	DB	0dfH
	DB	0ffH
	DB	0beH
	DB	0f7H
	DB	0ffH
	DB	0ffH
	DB	0dfH
	DB	0ffH
	DB	0beH
	DB	0f7H
	DB	0ffH
	DB	0ffH
	DB	0dfH
	DB	0ffH
	DB	0beH
	DB	0f7H
	DB	0ffH
	DB	0ffH
	DB	0dfH
	DB	0ffH
	DB	0beH
	DB	0f7H
	DB	0ffH
	DB	0ffH
	DB	0dfH
	DB	0ffH
	DB	0beH
	DB	0f7H
	DB	0ffH
	DB	0ffH
	DB	0ffH
	DB	0ffH
	DB	0dcH
	DB	0b6H
	DB	058H
	DB	04dH
	DB	0f7H
	DB	024H
	DB	0dbH
	DB	03dH
	DB	0fbH
	DB	045H
	DB	0fbH
	DB	045H
	DB	0fbH
	DB	045H
	DB	0fbH
	DB	045H
	DB	0fbH
	DB	045H
	DB	0fbH
	DB	045H
	DB	0fbH
	DB	045H
	DB	0fbH
	DB	045H
	DB	07cH
	DB	086H
	DB	0ffH
	DB	0ffH
	DB	0dfH
	DB	0ffH
	DB	0beH
	DB	0f7H
	DB	0ffH
	DB	0ffH
	DB	0dfH
	DB	0ffH
	DB	0beH
	DB	0f7H
	DB	0ffH
	DB	0ffH
	DB	0dfH
	DB	0ffH
	DB	0beH
	DB	0f7H
	DB	0ffH
	DB	0ffH
	DB	0dfH
	DB	0ffH
	DB	0dfH
	DB	0ffH
	DB	0dfH
	DB	0ffH
	DB	0ffH
	DB	0ffH
	DB	0beH
	DB	0f7H
	DB	0dfH
	DB	0ffH
	DB	0dfH
	DB	0ffH
	DB	0beH
	DB	0f7H
	DB	0dfH
	DB	0ffH
	DB	0dfH
	DB	0ffH
	DB	0beH
	DB	0f7H
	DB	0dfH
	DB	0ffH
	DB	0dfH
	DB	0ffH
	DB	01dH
	DB	0b7H
	DB	0fbH
	DB	045H
	DB	0fbH
	DB	045H
	DB	0fbH
	DB	045H
	DB	0fbH
	DB	045H
	DB	0fbH
	DB	045H
	DB	0fbH
	DB	045H
	DB	0fbH
	DB	045H
	DB	0fbH
	DB	045H
	DB	0fbH
	DB	045H
	DB	09aH
	DB	035H
	DB	0d6H
	DB	01cH
	DB	055H
	DB	0cH
	DB	075H
	DB	014H
	DB	055H
	DB	014H
	DB	055H
	DB	0cH
	DB	0b6H
	DB	02cH
	DB	0d9H
	DB	075H
	DB	01cH
	DB	0c7H
	DB	0ffH
	DB	0ffH
	DB	0beH
	DB	0f7H
	DB	0dfH
	DB	0ffH
	DB	0dfH
	DB	0ffH
	DB	0beH
	DB	0f7H
	DB	0dfH
	DB	0ffH
	DB	0dfH
	DB	0ffH
	DB	0beH
	DB	0f7H
	DB	0dfH
	DB	0ffH
	DB	0dfH
	DB	0ffH
	DB	0beH
	DB	0f7H
	DB	0dfH
	DB	0ffH
	DB	0dfH
	DB	0ffH
	DB	0beH
	DB	0f7H
	DB	0dfH
	DB	0ffH
	DB	0ffH
	DB	0ffH
	DB	0fcH
	DB	0c6H
	DB	0f9H
	DB	07dH
	DB	0b6H
	DB	02cH
	DB	0d6H
	DB	01cH
	DB	09aH
	DB	035H
	DB	0fbH
	DB	045H
	DB	0fbH
	DB	045H
	DB	0fbH
	DB	045H
	DB	0fbH
	DB	045H
	DB	0fbH
	DB	045H
	DB	0fbH
	DB	045H
	DB	0fbH
	DB	045H
	DB	0fbH
	DB	045H
	DB	0fbH
	DB	045H
	DB	0ddH
	DB	09eH
	DB	0beH
	DB	0f7H
	DB	0dfH
	DB	0ffH
	DB	0dfH
	DB	0ffH
	DB	0beH
	DB	0f7H
	DB	0dfH
	DB	0ffH
	DB	0dfH
	DB	0ffH
	DB	0beH
	DB	0f7H
	DB	0dfH
	DB	0ffH
	DB	0dfH
	DB	0ffH
	DB	0beH
	DB	0f7H
	DB	0dfH
	DB	0ffH
	DB	0dfH
	DB	0ffH
	DB	0dfH
	DB	0ffH
	DB	0dfH
	DB	0ffH
	DB	0ffH
	DB	0ffH
	DB	0beH
	DB	0f7H
	DB	0dfH
	DB	0ffH
	DB	0ffH
	DB	0ffH
	DB	0beH
	DB	0f7H
	DB	0dfH
	DB	0ffH
	DB	0ffH
	DB	0ffH
	DB	0beH
	DB	0f7H
	DB	0dfH
	DB	0ffH
	DB	0ffH
	DB	0ffH
	DB	0beH
	DB	0f7H
	DB	05eH
	DB	0c7H
	DB	01bH
	DB	04eH
	DB	0fbH
	DB	045H
	DB	0fbH
	DB	045H
	DB	0fbH
	DB	045H
	DB	0fbH
	DB	045H
	DB	0fbH
	DB	045H
	DB	0fbH
	DB	045H
	DB	0fbH
	DB	045H
	DB	0fbH
	DB	045H
	DB	0fbH
	DB	045H
	DB	09aH
	DB	035H
	DB	0f7H
	DB	024H
	DB	075H
	DB	014H
	DB	055H
	DB	0cH
	DB	075H
	DB	014H
	DB	055H
	DB	0cH
	DB	055H
	DB	0cH
	DB	095H
	DB	01cH
	DB	058H
	DB	055H
	DB	01aH
	DB	086H
	DB	0bcH
	DB	0aeH
	DB	01dH
	DB	0cfH
	DB	07eH
	DB	0e7H
	DB	0dfH
	DB	0f7H
	DB	0dfH
	DB	0ffH
	DB	0dfH
	DB	0ffH
	DB	0dfH
	DB	0f7H
	DB	07eH
	DB	0e7H
	DB	01dH
	DB	0cfH
	DB	0bcH
	DB	0aeH
	DB	01aH
	DB	086H
	DB	058H
	DB	055H
	DB	095H
	DB	01cH
	DB	075H
	DB	014H
	DB	0f7H
	DB	024H
	DB	09aH
	DB	035H
	DB	0fbH
	DB	045H
	DB	0fbH
	DB	045H
	DB	0fbH
	DB	045H
	DB	0fbH
	DB	045H
	DB	0fbH
	DB	045H
	DB	0fbH
	DB	045H
	DB	0fbH
	DB	045H
	DB	0fbH
	DB	045H
	DB	0fbH
	DB	045H
	DB	0fbH
	DB	045H
	DB	05eH
	DB	0bfH
	DB	0dfH
	DB	0ffH
	DB	0dfH
	DB	0ffH
	DB	0dfH
	DB	0ffH
	DB	0dfH
	DB	0ffH
	DB	0dfH
	DB	0ffH
	DB	0dfH
	DB	0ffH
	DB	0dfH
	DB	0ffH
	DB	0dfH
	DB	0ffH
	DB	0dfH
	DB	0ffH
	DB	0dfH
	DB	0ffH
	DB	0dfH
	DB	0ffH
	DB	0dfH
	DB	0ffH
	DB	0dfH
	DB	0ffH
	DB	0ffH
	DB	0ffH
	DB	0dfH
	DB	0ffH
	DB	0ffH
	DB	0ffH
	DB	0beH
	DB	0f7H
	DB	0dfH
	DB	0ffH
	DB	0ffH
	DB	0ffH
	DB	0beH
	DB	0f7H
	DB	0dfH
	DB	0ffH
	DB	0ffH
	DB	0ffH
	DB	0beH
	DB	0f7H
	DB	0dfH
	DB	0ffH
	DB	0ffH
	DB	0ffH
	DB	0beH
	DB	0f7H
	DB	0dfH
	DB	0ffH
	DB	0bfH
	DB	0e7H
	DB	03cH
	DB	05eH
	DB	0fbH
	DB	045H
	DB	0fbH
	DB	045H
	DB	0fbH
	DB	045H
	DB	0fbH
	DB	045H
	DB	0fbH
	DB	045H
	DB	0fbH
	DB	045H
	DB	0fbH
	DB	045H
	DB	0fbH
	DB	045H
	DB	0fbH
	DB	045H
	DB	0fbH
	DB	045H
	DB	0dbH
	DB	03dH
	DB	059H
	DB	02dH
	DB	0d7H
	DB	01cH
	DB	075H
	DB	014H
	DB	055H
	DB	0cH
	DB	075H
	DB	014H
	DB	055H
	DB	0cH
	DB	055H
	DB	0cH
	DB	075H
	DB	014H
	DB	055H
	DB	0cH
	DB	055H
	DB	0cH
	DB	075H
	DB	014H
	DB	055H
	DB	0cH
	DB	055H
	DB	0cH
	DB	075H
	DB	014H
	DB	055H
	DB	0cH
	DB	055H
	DB	0cH
	DB	075H
	DB	014H
	DB	075H
	DB	014H
	DB	0d6H
	DB	01cH
	DB	059H
	DB	02dH
	DB	0dbH
	DB	03dH
	DB	0fbH
	DB	045H
	DB	0fbH
	DB	045H
	DB	0fbH
	DB	045H
	DB	0fbH
	DB	045H
	DB	0fbH
	DB	045H
	DB	0fbH
	DB	045H
	DB	0fbH
	DB	045H
	DB	0fbH
	DB	045H
	DB	0fbH
	DB	045H
	DB	0fbH
	DB	045H
	DB	01bH
	DB	056H
	DB	0bfH
	DB	0dfH
	DB	0dfH
	DB	0ffH
	DB	0dfH
	DB	0ffH
	DB	0dfH
	DB	0ffH
	DB	0dfH
	DB	0ffH
	DB	0dfH
	DB	0ffH
	DB	0dfH
	DB	0ffH
	DB	0dfH
	DB	0ffH
	DB	0dfH
	DB	0ffH
	DB	0dfH
	DB	0ffH
	DB	0dfH
	DB	0ffH
	DB	0dfH
	DB	0ffH
	DB	0dfH
	DB	0ffH
	DB	0dfH
	DB	0ffH
	DB	0dfH
	DB	0ffH
	DB	0ffH
	DB	0ffH
	DB	0dfH
	DB	0ffH
	DB	0ffH
	DB	0ffH
	DB	0dfH
	DB	0ffH
	DB	0dfH
	DB	0ffH
	DB	0dfH
	DB	0ffH
	DB	0dfH
	DB	0ffH
	DB	0dfH
	DB	0ffH
	DB	0dfH
	DB	0ffH
	DB	0dfH
	DB	0ffH
	DB	0dfH
	DB	0ffH
	DB	0dfH
	DB	0ffH
	DB	0dfH
	DB	0ffH
	DB	0dfH
	DB	0ffH
	DB	0dfH
	DB	0ffH
	DB	0dfH
	DB	0f7H
	DB	0ddH
	DB	08eH
	DB	0fbH
	DB	045H
	DB	0fbH
	DB	045H
	DB	0fbH
	DB	045H
	DB	0fbH
	DB	045H
	DB	0fbH
	DB	045H
	DB	0fbH
	DB	045H
	DB	0fbH
	DB	045H
	DB	0fbH
	DB	045H
	DB	0fbH
	DB	045H
	DB	0fbH
	DB	045H
	DB	0fbH
	DB	045H
	DB	0fbH
	DB	045H
	DB	0dbH
	DB	03dH
	DB	09aH
	DB	035H
	DB	038H
	DB	02dH
	DB	0f7H
	DB	024H
	DB	0d6H
	DB	01cH
	DB	096H
	DB	014H
	DB	095H
	DB	014H
	DB	075H
	DB	014H
	DB	075H
	DB	014H
	DB	095H
	DB	014H
	DB	096H
	DB	014H
	DB	0d6H
	DB	01cH
	DB	0f7H
	DB	024H
	DB	038H
	DB	02dH
	DB	09aH
	DB	035H
	DB	0dbH
	DB	03dH
	DB	0fbH
	DB	045H
	DB	0fbH
	DB	045H
	DB	0fbH
	DB	045H
	DB	0fbH
	DB	045H
	DB	0fbH
	DB	045H
	DB	0fbH
	DB	045H
	DB	0fbH
	DB	045H
	DB	0fbH
	DB	045H
	DB	0fbH
	DB	045H
	DB	0fbH
	DB	045H
	DB	0fbH
	DB	045H
	DB	0fbH
	DB	045H
	DB	0bdH
	DB	08eH
	DB	0dfH
	DB	0f7H
	DB	0beH
	DB	0f7H
	DB	0ffH
	DB	0ffH
	DB	0dfH
	DB	0ffH
	DB	0beH
	DB	0f7H
	DB	0ffH
	DB	0ffH
	DB	0dfH
	DB	0ffH
	DB	0beH
	DB	0f7H
	DB	0ffH
	DB	0ffH
	DB	0dfH
	DB	0ffH
	DB	0beH
	DB	0f7H
	DB	0ffH
	DB	0ffH
	DB	0dfH
	DB	0ffH
	DB	0beH
	DB	0f7H
	DB	0ffH
	DB	0ffH
	DB	0dfH
	DB	0ffH
	DB	0dfH
	DB	0ffH
	DB	0dfH
	DB	0ffH
	DB	0ffH
	DB	0ffH
	DB	0dfH
	DB	0ffH
	DB	0dfH
	DB	0ffH
	DB	0ffH
	DB	0ffH
	DB	0dfH
	DB	0ffH
	DB	0dfH
	DB	0ffH
	DB	0ffH
	DB	0ffH
	DB	0dfH
	DB	0ffH
	DB	0dfH
	DB	0ffH
	DB	0ffH
	DB	0ffH
	DB	0dfH
	DB	0ffH
	DB	0dfH
	DB	0ffH
	DB	0ffH
	DB	0ffH
	DB	0dfH
	DB	0ffH
	DB	0ffH
	DB	0ffH
	DB	07eH
	DB	0cfH
	DB	03cH
	DB	05eH
	DB	0fbH
	DB	045H
	DB	0fbH
	DB	045H
	DB	0fbH
	DB	045H
	DB	0fbH
	DB	045H
	DB	0fbH
	DB	045H
	DB	0fbH
	DB	045H
	DB	0fbH
	DB	045H
	DB	0fbH
	DB	045H
	DB	0fbH
	DB	045H
	DB	0fbH
	DB	045H
	DB	0fbH
	DB	045H
	DB	0fbH
	DB	045H
	DB	0fbH
	DB	045H
	DB	0fbH
	DB	045H
	DB	0fbH
	DB	045H
	DB	0fbH
	DB	045H
	DB	0fbH
	DB	045H
	DB	0fbH
	DB	045H
	DB	0fbH
	DB	045H
	DB	0fbH
	DB	045H
	DB	0fbH
	DB	045H
	DB	0fbH
	DB	045H
	DB	0fbH
	DB	045H
	DB	0fbH
	DB	045H
	DB	0fbH
	DB	045H
	DB	0fbH
	DB	045H
	DB	0fbH
	DB	045H
	DB	0fbH
	DB	045H
	DB	0fbH
	DB	045H
	DB	0fbH
	DB	045H
	DB	0fbH
	DB	045H
	DB	0fbH
	DB	045H
	DB	0fbH
	DB	045H
	DB	0fbH
	DB	045H
	DB	0fbH
	DB	045H
	DB	0fbH
	DB	045H
	DB	03cH
	DB	056H
	DB	07eH
	DB	0cfH
	DB	0ffH
	DB	0ffH
	DB	0dfH
	DB	0ffH
	DB	0dfH
	DB	0ffH
	DB	0ffH
	DB	0ffH
	DB	0dfH
	DB	0ffH
	DB	0dfH
	DB	0ffH
	DB	0ffH
	DB	0ffH
	DB	0dfH
	DB	0ffH
	DB	0dfH
	DB	0ffH
	DB	0ffH
	DB	0ffH
	DB	0dfH
	DB	0ffH
	DB	0dfH
	DB	0ffH
	DB	0ffH
	DB	0ffH
	DB	0dfH
	DB	0ffH
	DB	0dfH
	DB	0ffH
	DB	0ffH
	DB	0ffH
	DB	0dfH
	DB	0ffH
	DB	0ffH
	DB	0ffH
	DB	0dfH
	DB	0ffH
	DB	0ffH
	DB	0ffH
	DB	0beH
	DB	0f7H
	DB	0dfH
	DB	0ffH
	DB	0ffH
	DB	0ffH
	DB	0beH
	DB	0f7H
	DB	0dfH
	DB	0ffH
	DB	0ffH
	DB	0ffH
	DB	0beH
	DB	0f7H
	DB	0dfH
	DB	0ffH
	DB	0ffH
	DB	0ffH
	DB	0beH
	DB	0f7H
	DB	0dfH
	DB	0ffH
	DB	0ffH
	DB	0ffH
	DB	0beH
	DB	0f7H
	DB	0ffH
	DB	0ffH
	DB	0dfH
	DB	0ffH
	DB	0ffH
	DB	0f7H
	DB	0fdH
	DB	0a6H
	DB	01bH
	DB	04eH
	DB	0fbH
	DB	045H
	DB	0fbH
	DB	045H
	DB	0fbH
	DB	045H
	DB	0fbH
	DB	045H
	DB	0fbH
	DB	045H
	DB	0fbH
	DB	045H
	DB	0fbH
	DB	045H
	DB	0fbH
	DB	045H
	DB	0fbH
	DB	045H
	DB	0fbH
	DB	045H
	DB	0fbH
	DB	045H
	DB	0fbH
	DB	045H
	DB	0fbH
	DB	045H
	DB	0fbH
	DB	045H
	DB	0fbH
	DB	045H
	DB	0fbH
	DB	045H
	DB	0fbH
	DB	045H
	DB	0fbH
	DB	045H
	DB	0fbH
	DB	045H
	DB	0fbH
	DB	045H
	DB	0fbH
	DB	045H
	DB	0fbH
	DB	045H
	DB	0fbH
	DB	045H
	DB	0fbH
	DB	045H
	DB	0fbH
	DB	045H
	DB	0fbH
	DB	045H
	DB	0fbH
	DB	045H
	DB	0fbH
	DB	045H
	DB	0fbH
	DB	045H
	DB	0fbH
	DB	045H
	DB	0fbH
	DB	045H
	DB	0fbH
	DB	045H
	DB	0fbH
	DB	045H
	DB	0fdH
	DB	0a6H
	DB	0dfH
	DB	0f7H
	DB	0dfH
	DB	0ffH
	DB	0dfH
	DB	0ffH
	DB	0dfH
	DB	0ffH
	DB	0dfH
	DB	0ffH
	DB	0dfH
	DB	0ffH
	DB	0dfH
	DB	0ffH
	DB	0dfH
	DB	0ffH
	DB	0dfH
	DB	0ffH
	DB	0dfH
	DB	0ffH
	DB	0dfH
	DB	0ffH
	DB	0dfH
	DB	0ffH
	DB	0dfH
	DB	0ffH
	DB	0dfH
	DB	0ffH
	DB	0dfH
	DB	0ffH
	DB	0dfH
	DB	0ffH
	DB	0dfH
	DB	0ffH
	DB	0dfH
	DB	0ffH
	DB	0dfH
	DB	0ffH
	DB	0ffH
	DB	0ffH
	DB	0dfH
	DB	0ffH
	DB	0ffH
	DB	0ffH
	DB	0dfH
	DB	0ffH
	DB	0dfH
	DB	0ffH
	DB	0dfH
	DB	0ffH
	DB	0dfH
	DB	0ffH
	DB	0dfH
	DB	0ffH
	DB	0dfH
	DB	0ffH
	DB	0dfH
	DB	0ffH
	DB	0dfH
	DB	0ffH
	DB	0dfH
	DB	0ffH
	DB	0dfH
	DB	0ffH
	DB	0dfH
	DB	0ffH
	DB	0dfH
	DB	0ffH
	DB	0dfH
	DB	0ffH
	DB	0ffH
	DB	0ffH
	DB	0beH
	DB	0f7H
	DB	0ffH
	DB	0ffH
	DB	0dfH
	DB	0ffH
	DB	0bfH
	DB	0efH
	DB	0fdH
	DB	09eH
	DB	01cH
	DB	04eH
	DB	0fbH
	DB	045H
	DB	0fbH
	DB	045H
	DB	0fbH
	DB	045H
	DB	0fbH
	DB	045H
	DB	0fbH
	DB	045H
	DB	0fbH
	DB	045H
	DB	0fbH
	DB	045H
	DB	0fbH
	DB	045H
	DB	0fbH
	DB	045H
	DB	0fbH
	DB	045H
	DB	0fbH
	DB	045H
	DB	0fbH
	DB	045H
	DB	0fbH
	DB	045H
	DB	0fbH
	DB	045H
	DB	0fbH
	DB	045H
	DB	0fbH
	DB	045H
	DB	0fbH
	DB	045H
	DB	0fbH
	DB	045H
	DB	0fbH
	DB	045H
	DB	0fbH
	DB	045H
	DB	0fbH
	DB	045H
	DB	0fbH
	DB	045H
	DB	0fbH
	DB	045H
	DB	0fbH
	DB	045H
	DB	0fbH
	DB	045H
	DB	0fbH
	DB	045H
	DB	0fbH
	DB	045H
	DB	0fbH
	DB	045H
	DB	01cH
	DB	04eH
	DB	0fdH
	DB	09eH
	DB	0bfH
	DB	0efH
	DB	0ffH
	DB	0ffH
	DB	0dfH
	DB	0ffH
	DB	0beH
	DB	0f7H
	DB	0ffH
	DB	0ffH
	DB	0dfH
	DB	0ffH
	DB	0beH
	DB	0f7H
	DB	0ffH
	DB	0ffH
	DB	0dfH
	DB	0ffH
	DB	0beH
	DB	0f7H
	DB	0ffH
	DB	0ffH
	DB	0dfH
	DB	0ffH
	DB	0beH
	DB	0f7H
	DB	0ffH
	DB	0ffH
	DB	0dfH
	DB	0ffH
	DB	0beH
	DB	0f7H
	DB	0ffH
	DB	0ffH
	DB	0dfH
	DB	0ffH
	DB	0beH
	DB	0f7H
	DB	0ffH
	DB	0ffH
	DB	0dfH
	DB	0ffH
	DB	0dfH
	DB	0ffH
	DB	0dfH
	DB	0ffH
	DB	0ffH
	DB	0ffH
	DB	0dfH
	DB	0ffH
	DB	0dfH
	DB	0ffH
	DB	0ffH
	DB	0ffH
	DB	0dfH
	DB	0ffH
	DB	0dfH
	DB	0ffH
	DB	0ffH
	DB	0ffH
	DB	0dfH
	DB	0ffH
	DB	0dfH
	DB	0ffH
	DB	0ffH
	DB	0ffH
	DB	0dfH
	DB	0ffH
	DB	0dfH
	DB	0ffH
	DB	0ffH
	DB	0ffH
	DB	0dfH
	DB	0ffH
	DB	0ffH
	DB	0ffH
	DB	0dfH
	DB	0ffH
	DB	0ffH
	DB	0ffH
	DB	0dfH
	DB	0ffH
	DB	0dfH
	DB	0ffH
	DB	0ffH
	DB	0ffH
	DB	0dfH
	DB	0f7H
	DB	03eH
	DB	0b7H
	DB	07cH
	DB	06eH
	DB	0fbH
	DB	045H
	DB	0fbH
	DB	045H
	DB	0fbH
	DB	045H
	DB	0fbH
	DB	045H
	DB	0fbH
	DB	045H
	DB	0fbH
	DB	045H
	DB	0fbH
	DB	045H
	DB	0fbH
	DB	045H
	DB	0fbH
	DB	045H
	DB	0fbH
	DB	045H
	DB	0fbH
	DB	045H
	DB	0fbH
	DB	045H
	DB	0fbH
	DB	045H
	DB	0fbH
	DB	045H
	DB	0fbH
	DB	045H
	DB	0fbH
	DB	045H
	DB	0fbH
	DB	045H
	DB	0fbH
	DB	045H
	DB	0fbH
	DB	045H
	DB	0fbH
	DB	045H
	DB	0fbH
	DB	045H
	DB	0fbH
	DB	045H
	DB	0fbH
	DB	045H
	DB	0fbH
	DB	045H
	DB	05cH
	DB	06eH
	DB	03eH
	DB	0b7H
	DB	0ffH
	DB	0f7H
	DB	0dfH
	DB	0ffH
	DB	0dfH
	DB	0ffH
	DB	0ffH
	DB	0ffH
	DB	0dfH
	DB	0ffH
	DB	0dfH
	DB	0ffH
	DB	0ffH
	DB	0ffH
	DB	0dfH
	DB	0ffH
	DB	0dfH
	DB	0ffH
	DB	0ffH
	DB	0ffH
	DB	0dfH
	DB	0ffH
	DB	0dfH
	DB	0ffH
	DB	0ffH
	DB	0ffH
	DB	0dfH
	DB	0ffH
	DB	0dfH
	DB	0ffH
	DB	0ffH
	DB	0ffH
	DB	0dfH
	DB	0ffH
	DB	0dfH
	DB	0ffH
	DB	0ffH
	DB	0ffH
	DB	0dfH
	DB	0ffH
	DB	0dfH
	DB	0ffH
	DB	0ffH
	DB	0ffH
	DB	0dfH
	DB	0ffH
	DB	0ffH
	DB	0ffH
	DB	0dfH
	DB	0ffH
	DB	0ffH
	DB	0ffH
	DB	0dfH
	DB	0ffH
	DB	0dfH
	DB	0ffH
	DB	0ffH
	DB	0ffH
	DB	0dfH
	DB	0ffH
	DB	0dfH
	DB	0ffH
	DB	0ffH
	DB	0ffH
	DB	0dfH
	DB	0ffH
	DB	0dfH
	DB	0ffH
	DB	0ffH
	DB	0ffH
	DB	0dfH
	DB	0ffH
	DB	0dfH
	DB	0ffH
	DB	0ffH
	DB	0ffH
	DB	0dfH
	DB	0ffH
	DB	0ffH
	DB	0ffH
	DB	0dfH
	DB	0ffH
	DB	0dfH
	DB	0ffH
	DB	0ffH
	DB	0ffH
	DB	0dfH
	DB	0ffH
	DB	0dfH
	DB	0ffH
	DB	0ffH
	DB	0ffH
	DB	0dfH
	DB	0ffH
	DB	0dfH
	DB	0ffH
	DB	0bfH
	DB	0e7H
	DB	01dH
	DB	0afH
	DB	07cH
	DB	06eH
	DB	0fbH
	DB	045H
	DB	0fbH
	DB	045H
	DB	0fbH
	DB	045H
	DB	0fbH
	DB	045H
	DB	0fbH
	DB	045H
	DB	0fbH
	DB	045H
	DB	0fbH
	DB	045H
	DB	0fbH
	DB	045H
	DB	0fbH
	DB	045H
	DB	0fbH
	DB	045H
	DB	0fbH
	DB	045H
	DB	0fbH
	DB	045H
	DB	0fbH
	DB	045H
	DB	0fbH
	DB	045H
	DB	0fbH
	DB	045H
	DB	0fbH
	DB	045H
	DB	0fbH
	DB	045H
	DB	0fbH
	DB	045H
	DB	07cH
	DB	076H
	DB	01dH
	DB	0afH
	DB	0bfH
	DB	0e7H
	DB	0ffH
	DB	0ffH
	DB	0dfH
	DB	0ffH
	DB	0dfH
	DB	0ffH
	DB	0ffH
	DB	0ffH
	DB	0dfH
	DB	0ffH
	DB	0dfH
	DB	0ffH
	DB	0ffH
	DB	0ffH
	DB	0dfH
	DB	0ffH
	DB	0dfH
	DB	0ffH
	DB	0ffH
	DB	0ffH
	DB	0dfH
	DB	0ffH
	DB	0dfH
	DB	0ffH
	DB	0ffH
	DB	0ffH
	DB	0dfH
	DB	0ffH
	DB	0dfH
	DB	0ffH
	DB	0ffH
	DB	0ffH
	DB	0dfH
	DB	0ffH
	DB	0dfH
	DB	0ffH
	DB	0ffH
	DB	0ffH
	DB	0dfH
	DB	0ffH
	DB	0dfH
	DB	0ffH
	DB	0ffH
	DB	0ffH
	DB	0dfH
	DB	0ffH
	DB	0dfH
	DB	0ffH
	DB	0ffH
	DB	0ffH
	DB	0ffH
	DB	0ffH
	DB	0dfH
	DB	0ffH
	DB	0ffH
	DB	0ffH
	DB	0ffH
	DB	0ffH
	DB	0dfH
	DB	0ffH
	DB	0ffH
	DB	0ffH
	DB	0ffH
	DB	0ffH
	DB	0dfH
	DB	0ffH
	DB	0ffH
	DB	0ffH
	DB	0ffH
	DB	0ffH
	DB	0dfH
	DB	0ffH
	DB	0ffH
	DB	0ffH
	DB	0ffH
	DB	0ffH
	DB	0dfH
	DB	0ffH
	DB	0ffH
	DB	0ffH
	DB	0ffH
	DB	0ffH
	DB	0ffH
	DB	0ffH
	DB	0dfH
	DB	0ffH
	DB	0ffH
	DB	0ffH
	DB	0ffH
	DB	0ffH
	DB	0dfH
	DB	0ffH
	DB	0ffH
	DB	0ffH
	DB	0ffH
	DB	0ffH
	DB	0dfH
	DB	0ffH
	DB	0ffH
	DB	0ffH
	DB	0ffH
	DB	0ffH
	DB	0dfH
	DB	0ffH
	DB	0ffH
	DB	0ffH
	DB	0ffH
	DB	0ffH
	DB	09eH
	DB	0d7H
	DB	01eH
	DB	0afH
	DB	0ddH
	DB	08eH
	DB	07cH
	DB	076H
	DB	05cH
	DB	05eH
	DB	01cH
	DB	04eH
	DB	0fbH
	DB	045H
	DB	0fbH
	DB	045H
	DB	0fbH
	DB	045H
	DB	0fbH
	DB	045H
	DB	01cH
	DB	04eH
	DB	05cH
	DB	05eH
	DB	07cH
	DB	076H
	DB	0ddH
	DB	08eH
	DB	01eH
	DB	0afH
	DB	09eH
	DB	0d7H
	DB	0ffH
	DB	0ffH
	DB	0ffH
	DB	0ffH
	DB	0dfH
	DB	0ffH
	DB	0ffH
	DB	0ffH
	DB	0ffH
	DB	0ffH
	DB	0dfH
	DB	0ffH
	DB	0ffH
	DB	0ffH
	DB	0ffH
	DB	0ffH
	DB	0dfH
	DB	0ffH
	DB	0ffH
	DB	0ffH
	DB	0ffH
	DB	0ffH
	DB	0dfH
	DB	0ffH
	DB	0ffH
	DB	0ffH
	DB	0ffH
	DB	0ffH
	DB	0dfH
	DB	0ffH
	DB	0ffH
	DB	0ffH
	DB	0ffH
	DB	0ffH
	DB	0dfH
	DB	0ffH
	DB	0ffH
	DB	0ffH
	DB	0ffH
	DB	0ffH
	DB	0dfH
	DB	0ffH
	DB	0ffH
	DB	0ffH
	DB	0ffH
	DB	0ffH
	DB	0dfH
	DB	0ffH
	DB	0ffH
	DB	0ffH
	DB	0ffH
	DB	0ffH
	DB	0dfH
	DB	0ffH
	DB	0ffH
	DB	0ffH
	DB	0ffH
	DB	0ffH
	DB	0ffH
	DB	0ffH
CONST	ENDS
END
