; Listing generated by Microsoft (R) Optimizing Compiler Version 19.30.30705.0 

	TITLE	D:\学习\毕业设计\方案1_GFX+底板\官方例程\DISPLAY\TouchGFX\build\Debug\obj\image_logo_00.obj
	.686P
	.XMM
	include listing.inc
	.model	flat

INCLUDELIB MSVCRTD
INCLUDELIB OLDNAMES

PUBLIC	?image_logo_00@@3QBEB				; image_logo_00
msvcjmc	SEGMENT
__BA83647B_Config@hpp DB 01H
__A43CE324_image_logo_00@cpp DB 01H
msvcjmc	ENDS
CONST	SEGMENT
?image_logo_00@@3QBEB DB 0ffH				; image_logo_00
	DB	0ffH
	DB	0ffH
	DB	0ffH
	DB	0ffH
	DB	0ffH
	DB	0ffH
	DB	0ffH
	DB	0ffH
	DB	0ffH
	DB	0ffH
	DB	0ffH
	DB	0ffH
	DB	0ffH
	DB	0ffH
	DB	0ffH
	DB	0ffH
	DB	0ffH
	DB	0ffH
	DB	0ffH
	DB	0ffH
	DB	0ffH
	DB	0ffH
	DB	0ffH
	DB	0ffH
	DB	0ffH
	DB	0ffH
	DB	0ffH
	DB	0ffH
	DB	0ffH
	DB	0ffH
	DB	0ffH
	DB	0ffH
	DB	0ffH
	DB	0ffH
	DB	0ffH
	DB	0ffH
	DB	0ffH
	DB	0ffH
	DB	0ffH
	DB	0ffH
	DB	0ffH
	DB	0ffH
	DB	0ffH
	DB	0ffH
	DB	0ffH
	DB	0ffH
	DB	0ffH
	DB	0ffH
	DB	0ffH
	DB	0ffH
	DB	0ffH
	DB	0ffH
	DB	0ffH
	DB	0ffH
	DB	0ffH
	DB	0ffH
	DB	0ffH
	DB	0ffH
	DB	0ffH
	DB	0ffH
	DB	0ffH
	DB	0ffH
	DB	0ffH
	DB	0ffH
	DB	0ffH
	DB	0ffH
	DB	0ffH
	DB	0ffH
	DB	0ffH
	DB	0ffH
	DB	0ffH
	DB	0ffH
	DB	0ffH
	DB	0ffH
	DB	0ffH
	DB	0ffH
	DB	0ffH
	DB	0ffH
	DB	0ffH
	DB	0ffH
	DB	0ffH
	DB	0ffH
	DB	0ffH
	DB	0ffH
	DB	0ffH
	DB	0ffH
	DB	0ffH
	DB	0ffH
	DB	0ffH
	DB	0ffH
	DB	0ffH
	DB	0ffH
	DB	0ffH
	DB	0ffH
	DB	0ffH
	DB	0ffH
	DB	0ffH
	DB	0ffH
	DB	0ffH
	DB	0ffH
	DB	0ffH
	DB	0ffH
	DB	0ffH
	DB	0ffH
	DB	0ffH
	DB	0ffH
	DB	0ffH
	DB	0ffH
	DB	0ffH
	DB	0ffH
	DB	0ffH
	DB	0ffH
	DB	0ffH
	DB	0ffH
	DB	0ffH
	DB	0ffH
	DB	0ffH
	DB	0ffH
	DB	0ffH
	DB	0ffH
	DB	0ffH
	DB	0ffH
	DB	0ffH
	DB	0ffH
	DB	0ffH
	DB	0ffH
	DB	0ffH
	DB	0ffH
	DB	0ffH
	DB	0ffH
	DB	0ffH
	DB	0ffH
	DB	0ffH
	DB	0ffH
	DB	0ffH
	DB	0ffH
	DB	0ffH
	DB	0ffH
	DB	0ffH
	DB	0ffH
	DB	0ffH
	DB	0ffH
	DB	0ffH
	DB	0ffH
	DB	0ffH
	DB	0ffH
	DB	0ffH
	DB	0ffH
	DB	0ffH
	DB	0ffH
	DB	0ffH
	DB	0ffH
	DB	0ffH
	DB	0ffH
	DB	0ffH
	DB	0ffH
	DB	0ffH
	DB	0ffH
	DB	0ffH
	DB	0ffH
	DB	0ffH
	DB	0ffH
	DB	0ffH
	DB	0ffH
	DB	0ffH
	DB	0ffH
	DB	0ffH
	DB	0ffH
	DB	0ffH
	DB	0ffH
	DB	0ffH
	DB	0ffH
	DB	0ffH
	DB	0ffH
	DB	0ffH
	DB	0ffH
	DB	0ffH
	DB	0ffH
	DB	0ffH
	DB	0ffH
	DB	0ffH
	DB	0ffH
	DB	0ffH
	DB	0ffH
	DB	0ffH
	DB	0ffH
	DB	0ffH
	DB	0ffH
	DB	0ffH
	DB	0ffH
	DB	0ffH
	DB	0ffH
	DB	0ffH
	DB	0ffH
	DB	0ffH
	DB	0ffH
	DB	0ffH
	DB	0ffH
	DB	0ffH
	DB	0ffH
	DB	0ffH
	DB	0ffH
	DB	0ffH
	DB	0ffH
	DB	0ffH
	DB	0ffH
	DB	0ffH
	DB	0ffH
	DB	0ffH
	DB	0ffH
	DB	0ffH
	DB	0ffH
	DB	0ffH
	DB	0ffH
	DB	0ffH
	DB	0ffH
	DB	0ffH
	DB	0ffH
	DB	0ffH
	DB	0ffH
	DB	0ffH
	DB	0ffH
	DB	0ffH
	DB	0ffH
	DB	0ffH
	DB	0ffH
	DB	0ffH
	DB	0ffH
	DB	0ffH
	DB	0ffH
	DB	0ffH
	DB	0ffH
	DB	0ffH
	DB	0ffH
	DB	0ffH
	DB	0ffH
	DB	0ffH
	DB	0ffH
	DB	0ffH
	DB	0ffH
	DB	0ffH
	DB	0ffH
	DB	0ffH
	DB	0ffH
	DB	0ffH
	DB	0ffH
	DB	0ffH
	DB	0ffH
	DB	0ffH
	DB	0ffH
	DB	0ffH
	DB	0ffH
	DB	0ffH
	DB	0ffH
	DB	0ffH
	DB	0ffH
	DB	0ffH
	DB	0ffH
	DB	0ffH
	DB	0ffH
	DB	0ffH
	DB	0ffH
	DB	0ffH
	DB	0ffH
	DB	0ffH
	DB	0ffH
	DB	0ffH
	DB	0ffH
	DB	0ffH
	DB	0ffH
	DB	0ffH
	DB	0ffH
	DB	0ffH
	DB	0ffH
	DB	0ffH
	DB	0ffH
	DB	0ffH
	DB	0ffH
	DB	0ffH
	DB	0ffH
	DB	0ffH
	DB	0ffH
	DB	0ffH
	DB	0ffH
	DB	0ffH
	DB	0ffH
	DB	0ffH
	DB	0ffH
	DB	0ffH
	DB	0ffH
	DB	0ffH
	DB	0ffH
	DB	0ffH
	DB	0ffH
	DB	0ffH
	DB	0ffH
	DB	0ffH
	DB	0ffH
	DB	0ffH
	DB	0ffH
	DB	0ffH
	DB	0ffH
	DB	0ffH
	DB	0ffH
	DB	0ffH
	DB	0ffH
	DB	0ffH
	DB	0ffH
	DB	0ffH
	DB	0ffH
	DB	0ffH
	DB	0ffH
	DB	0ffH
	DB	0ffH
	DB	0ffH
	DB	0ffH
	DB	0ffH
	DB	055H
	DB	0adH
	DB	0c7H
	DB	039H
	DB	0a7H
	DB	031H
	DB	0a7H
	DB	031H
	DB	0a7H
	DB	031H
	DB	0a7H
	DB	031H
	DB	0a7H
	DB	031H
	DB	0a7H
	DB	031H
	DB	08aH
	DB	04aH
	DB	05dH
	DB	0efH
	DB	0ffH
	DB	0ffH
	DB	0ffH
	DB	0ffH
	DB	0ffH
	DB	0ffH
	DB	0ffH
	DB	0ffH
	DB	0ffH
	DB	0ffH
	DB	0ffH
	DB	0ffH
	DB	0ffH
	DB	0ffH
	DB	0ffH
	DB	0ffH
	DB	0ffH
	DB	0ffH
	DB	0ffH
	DB	0ffH
	DB	0ffH
	DB	0ffH
	DB	0ffH
	DB	0ffH
	DB	0ffH
	DB	0ffH
	DB	0ffH
	DB	0ffH
	DB	0ffH
	DB	0ffH
	DB	0ffH
	DB	0ffH
	DB	0ffH
	DB	0ffH
	DB	0ffH
	DB	0ffH
	DB	0ffH
	DB	0ffH
	DB	0ffH
	DB	0ffH
	DB	0ffH
	DB	0ffH
	DB	0ffH
	DB	0ffH
	DB	0ffH
	DB	0ffH
	DB	0ffH
	DB	0ffH
	DB	0ffH
	DB	0ffH
	DB	0ffH
	DB	0ffH
	DB	0ffH
	DB	0ffH
	DB	0ffH
	DB	0ffH
	DB	0ffH
	DB	0ffH
	DB	0ffH
	DB	0ffH
	DB	0ffH
	DB	0ffH
	DB	0ffH
	DB	0ffH
	DB	0ffH
	DB	0ffH
	DB	0ffH
	DB	0ffH
	DB	0ffH
	DB	0ffH
	DB	0ffH
	DB	0ffH
	DB	0ffH
	DB	0ffH
	DB	0ffH
	DB	0ffH
	DB	0ffH
	DB	0ffH
	DB	0ffH
	DB	0ffH
	DB	0ffH
	DB	0ffH
	DB	0ffH
	DB	0ffH
	DB	08aH
	DB	052H
	DB	086H
	DB	029H
	DB	086H
	DB	029H
	DB	086H
	DB	029H
	DB	086H
	DB	029H
	DB	086H
	DB	029H
	DB	086H
	DB	029H
	DB	086H
	DB	029H
	DB	086H
	DB	029H
	DB	075H
	DB	0adH
	DB	0ffH
	DB	0ffH
	DB	0ffH
	DB	0ffH
	DB	0ffH
	DB	0ffH
	DB	0ffH
	DB	0ffH
	DB	0ffH
	DB	0ffH
	DB	0ffH
	DB	0ffH
	DB	0ffH
	DB	0ffH
	DB	0ffH
	DB	0ffH
	DB	0ffH
	DB	0ffH
	DB	0ffH
	DB	0ffH
	DB	0ffH
	DB	0ffH
	DB	0ffH
	DB	0ffH
	DB	0ffH
	DB	0ffH
	DB	0ffH
	DB	0ffH
	DB	0ffH
	DB	0ffH
	DB	0ffH
	DB	0ffH
	DB	0ffH
	DB	0ffH
	DB	0ffH
	DB	0ffH
	DB	0ffH
	DB	0ffH
	DB	0ffH
	DB	0ffH
	DB	0ffH
	DB	0ffH
	DB	0ffH
	DB	0ffH
	DB	0ffH
	DB	0ffH
	DB	0ffH
	DB	0ffH
	DB	0ffH
	DB	0ffH
	DB	0ffH
	DB	0ffH
	DB	0ffH
	DB	0ffH
	DB	0ffH
	DB	0ffH
	DB	0ffH
	DB	0ffH
	DB	0ffH
	DB	0ffH
	DB	0ffH
	DB	0ffH
	DB	0ffH
	DB	0ffH
	DB	0ffH
	DB	0ffH
	DB	0ffH
	DB	0ffH
	DB	0ffH
	DB	0ffH
	DB	0ffH
	DB	0ffH
	DB	0ffH
	DB	0ffH
	DB	0ffH
	DB	0ffH
	DB	0ffH
	DB	0ffH
	DB	0ffH
	DB	0ffH
	DB	0ffH
	DB	0ffH
	DB	0ffH
	DB	0ffH
	DB	06aH
	DB	04aH
	DB	086H
	DB	029H
	DB	086H
	DB	029H
	DB	086H
	DB	029H
	DB	086H
	DB	029H
	DB	086H
	DB	029H
	DB	086H
	DB	029H
	DB	086H
	DB	029H
	DB	086H
	DB	029H
	DB	055H
	DB	0adH
	DB	0ffH
	DB	0ffH
	DB	0ffH
	DB	0ffH
	DB	0ffH
	DB	0ffH
	DB	0ffH
	DB	0ffH
	DB	0ffH
	DB	0ffH
	DB	0ffH
	DB	0ffH
	DB	0ffH
	DB	0ffH
	DB	0ffH
	DB	0ffH
	DB	0ffH
	DB	0ffH
	DB	0ffH
	DB	0ffH
	DB	0ffH
	DB	0ffH
	DB	0ffH
	DB	0ffH
	DB	0ffH
	DB	0ffH
	DB	0ffH
	DB	0ffH
	DB	0ffH
	DB	0ffH
	DB	0ffH
	DB	0ffH
	DB	0ffH
	DB	0ffH
	DB	0ffH
	DB	0ffH
	DB	0ffH
	DB	0ffH
	DB	0ffH
	DB	0ffH
	DB	0ffH
	DB	0ffH
	DB	0ffH
	DB	0ffH
	DB	0ffH
	DB	0ffH
	DB	0ffH
	DB	0ffH
	DB	0ffH
	DB	0ffH
	DB	0ffH
	DB	0ffH
	DB	0ffH
	DB	0ffH
	DB	0ffH
	DB	0ffH
	DB	0ffH
	DB	0ffH
	DB	0ffH
	DB	0ffH
	DB	0ffH
	DB	0ffH
	DB	0ffH
	DB	0ffH
	DB	0ffH
	DB	0ffH
	DB	0ffH
	DB	0ffH
	DB	0ffH
	DB	0ffH
	DB	0ffH
	DB	0ffH
	DB	0ffH
	DB	0ffH
	DB	0ffH
	DB	0ffH
	DB	0ffH
	DB	0ffH
	DB	0ffH
	DB	0ffH
	DB	0ffH
	DB	0ffH
	DB	0ffH
	DB	0ffH
	DB	06aH
	DB	04aH
	DB	086H
	DB	029H
	DB	086H
	DB	029H
	DB	086H
	DB	029H
	DB	086H
	DB	029H
	DB	086H
	DB	029H
	DB	086H
	DB	029H
	DB	086H
	DB	029H
	DB	086H
	DB	029H
	DB	055H
	DB	0adH
	DB	0ffH
	DB	0ffH
	DB	0ffH
	DB	0ffH
	DB	0ffH
	DB	0ffH
	DB	0ffH
	DB	0ffH
	DB	0ffH
	DB	0ffH
	DB	0ffH
	DB	0ffH
	DB	0ffH
	DB	0ffH
	DB	0ffH
	DB	0ffH
	DB	0ffH
	DB	0ffH
	DB	09aH
	DB	0d6H
	DB	0ecH
	DB	05aH
	DB	08aH
	DB	052H
	DB	08aH
	DB	052H
	DB	08aH
	DB	052H
	DB	08aH
	DB	052H
	DB	08aH
	DB	052H
	DB	0abH
	DB	052H
	DB	0b2H
	DB	094H
	DB	0ffH
	DB	0ffH
	DB	0ffH
	DB	0ffH
	DB	0ffH
	DB	0ffH
	DB	0ffH
	DB	0ffH
	DB	0ffH
	DB	0ffH
	DB	0ffH
	DB	0ffH
	DB	0ffH
	DB	0ffH
	DB	0ffH
	DB	0ffH
	DB	0ffH
	DB	0ffH
	DB	0ffH
	DB	0ffH
	DB	0ffH
	DB	0ffH
	DB	0ffH
	DB	0ffH
	DB	0ffH
	DB	0ffH
	DB	0ffH
	DB	0ffH
	DB	0ffH
	DB	0ffH
	DB	0ffH
	DB	0ffH
	DB	0ffH
	DB	0ffH
	DB	0ffH
	DB	0ffH
	DB	0ffH
	DB	0ffH
	DB	0ffH
	DB	0ffH
	DB	0ffH
	DB	0ffH
	DB	0ffH
	DB	0ffH
	DB	0ffH
	DB	0ffH
	DB	0ffH
	DB	0ffH
	DB	06aH
	DB	04aH
	DB	086H
	DB	029H
	DB	086H
	DB	029H
	DB	086H
	DB	029H
	DB	086H
	DB	029H
	DB	086H
	DB	029H
	DB	086H
	DB	029H
	DB	086H
	DB	029H
	DB	086H
	DB	029H
	DB	055H
	DB	0adH
	DB	0ffH
	DB	0ffH
	DB	0ffH
	DB	0ffH
	DB	0ffH
	DB	0ffH
	DB	0ffH
	DB	0ffH
	DB	0ffH
	DB	0ffH
	DB	0ffH
	DB	0ffH
	DB	0ffH
	DB	0ffH
	DB	0ffH
	DB	0ffH
	DB	0ffH
	DB	0ffH
	DB	06eH
	DB	06bH
	DB	086H
	DB	029H
	DB	086H
	DB	029H
	DB	086H
	DB	029H
	DB	086H
	DB	029H
	DB	086H
	DB	029H
	DB	086H
	DB	029H
	DB	086H
	DB	029H
	DB	086H
	DB	029H
	DB	07dH
	DB	0efH
	DB	0ffH
	DB	0ffH
	DB	0ffH
	DB	0ffH
	DB	0ffH
	DB	0ffH
	DB	0ffH
	DB	0ffH
	DB	0ffH
	DB	0ffH
	DB	0ffH
	DB	0ffH
	DB	0ffH
	DB	0ffH
	DB	0ffH
	DB	0ffH
	DB	0ffH
	DB	0ffH
	DB	0ffH
	DB	0ffH
	DB	0ffH
	DB	0ffH
	DB	0ffH
	DB	0ffH
	DB	0ffH
	DB	0ffH
	DB	0ffH
	DB	0ffH
	DB	0ffH
	DB	0ffH
	DB	0ffH
	DB	0ffH
	DB	0ffH
	DB	0ffH
	DB	0ffH
	DB	0ffH
	DB	0ffH
	DB	0ffH
	DB	0ffH
	DB	0ffH
	DB	0ffH
	DB	0ffH
	DB	0ffH
	DB	0ffH
	DB	0ffH
	DB	0ffH
	DB	06aH
	DB	04aH
	DB	086H
	DB	029H
	DB	086H
	DB	029H
	DB	086H
	DB	029H
	DB	086H
	DB	029H
	DB	086H
	DB	029H
	DB	086H
	DB	029H
	DB	086H
	DB	029H
	DB	086H
	DB	029H
	DB	055H
	DB	0adH
	DB	0ffH
	DB	0ffH
	DB	0ffH
	DB	0ffH
	DB	0ffH
	DB	0ffH
	DB	0ffH
	DB	0ffH
	DB	0ffH
	DB	0ffH
	DB	0ffH
	DB	0ffH
	DB	0ffH
	DB	0ffH
	DB	0ffH
	DB	0ffH
	DB	0ffH
	DB	0ffH
	DB	04dH
	DB	063H
	DB	086H
	DB	029H
	DB	086H
	DB	029H
	DB	086H
	DB	029H
	DB	086H
	DB	029H
	DB	086H
	DB	029H
	DB	086H
	DB	029H
	DB	086H
	DB	029H
	DB	086H
	DB	029H
	DB	03cH
	DB	0e7H
	DB	0ffH
	DB	0ffH
	DB	0ffH
	DB	0ffH
	DB	0ffH
	DB	0ffH
	DB	0ffH
	DB	0ffH
	DB	0ffH
	DB	0ffH
	DB	0ffH
	DB	0ffH
	DB	0ffH
	DB	0ffH
	DB	0ffH
	DB	0ffH
	DB	0ffH
	DB	0ffH
	DB	0ffH
	DB	0ffH
	DB	0ffH
	DB	0ffH
	DB	0ffH
	DB	0ffH
	DB	0ffH
	DB	0ffH
	DB	0ffH
	DB	0ffH
	DB	0ffH
	DB	0ffH
	DB	0ffH
	DB	0ffH
	DB	0ffH
	DB	0ffH
	DB	0ffH
	DB	0ffH
	DB	0ffH
	DB	0ffH
	DB	0ffH
	DB	0ffH
	DB	0ffH
	DB	0ffH
	DB	0ffH
	DB	0ffH
	DB	0ffH
	DB	0ffH
	DB	06aH
	DB	04aH
	DB	086H
	DB	029H
	DB	086H
	DB	029H
	DB	086H
	DB	029H
	DB	086H
	DB	029H
	DB	086H
	DB	029H
	DB	086H
	DB	029H
	DB	086H
	DB	029H
	DB	086H
	DB	029H
	DB	055H
	DB	0adH
	DB	0ffH
	DB	0ffH
	DB	0ffH
	DB	0ffH
	DB	0ffH
	DB	0ffH
	DB	0ffH
	DB	0ffH
	DB	0ffH
	DB	0ffH
	DB	0ffH
	DB	0ffH
	DB	0ffH
	DB	0ffH
	DB	0ffH
	DB	0ffH
	DB	0ffH
	DB	0ffH
	DB	04dH
	DB	063H
	DB	086H
	DB	029H
	DB	086H
	DB	029H
	DB	086H
	DB	029H
	DB	086H
	DB	029H
	DB	086H
	DB	029H
	DB	086H
	DB	029H
	DB	086H
	DB	029H
	DB	086H
	DB	029H
	DB	03cH
	DB	0e7H
	DB	0ffH
	DB	0ffH
	DB	0ffH
	DB	0ffH
	DB	0ffH
	DB	0ffH
	DB	0ffH
	DB	0ffH
	DB	0ffH
	DB	0ffH
	DB	0ffH
	DB	0ffH
	DB	0ffH
	DB	0ffH
	DB	0ffH
	DB	0ffH
	DB	0ffH
	DB	0ffH
	DB	0ffH
	DB	0ffH
	DB	0ffH
	DB	0ffH
	DB	0ffH
	DB	0ffH
	DB	0ffH
	DB	0ffH
	DB	0ffH
	DB	0ffH
	DB	0ffH
	DB	0ffH
	DB	0ffH
	DB	0ffH
	DB	0ffH
	DB	0ffH
	DB	0ffH
	DB	0ffH
	DB	0ffH
	DB	0ffH
	DB	0ffH
	DB	0ffH
	DB	0ffH
	DB	0ffH
	DB	0ffH
	DB	0ffH
	DB	0ffH
	DB	0ffH
	DB	06aH
	DB	04aH
	DB	086H
	DB	029H
	DB	086H
	DB	029H
	DB	086H
	DB	029H
	DB	086H
	DB	029H
	DB	086H
	DB	029H
	DB	086H
	DB	029H
	DB	086H
	DB	029H
	DB	086H
	DB	029H
	DB	055H
	DB	0adH
	DB	0ffH
	DB	0ffH
	DB	0ffH
	DB	0ffH
	DB	0ffH
	DB	0ffH
	DB	0ffH
	DB	0ffH
	DB	0ffH
	DB	0ffH
	DB	0ffH
	DB	0ffH
	DB	0ffH
	DB	0ffH
	DB	0ffH
	DB	0ffH
	DB	0ffH
	DB	0ffH
	DB	04dH
	DB	063H
	DB	086H
	DB	029H
	DB	086H
	DB	029H
	DB	086H
	DB	029H
	DB	086H
	DB	029H
	DB	086H
	DB	029H
	DB	086H
	DB	029H
	DB	086H
	DB	029H
	DB	086H
	DB	029H
	DB	03cH
	DB	0e7H
	DB	0ffH
	DB	0ffH
	DB	0ffH
	DB	0ffH
	DB	0ffH
	DB	0ffH
	DB	0ffH
	DB	0ffH
	DB	0ffH
	DB	0ffH
	DB	0ffH
	DB	0ffH
	DB	0ffH
	DB	0ffH
	DB	0ffH
	DB	0ffH
	DB	0ffH
	DB	0ffH
	DB	0ffH
	DB	0ffH
	DB	0ffH
	DB	0ffH
	DB	0ffH
	DB	0ffH
	DB	0ffH
	DB	0ffH
	DB	0ffH
	DB	0ffH
	DB	0ffH
	DB	0ffH
	DB	0ffH
	DB	0ffH
	DB	0ffH
	DB	0ffH
	DB	0ffH
	DB	0ffH
	DB	0ffH
	DB	0ffH
	DB	0ffH
	DB	0ffH
	DB	0ffH
	DB	0ffH
	DB	0ffH
	DB	0ffH
	DB	0ffH
	DB	0ffH
	DB	06aH
	DB	04aH
	DB	086H
	DB	029H
	DB	086H
	DB	029H
	DB	086H
	DB	029H
	DB	086H
	DB	029H
	DB	086H
	DB	029H
	DB	086H
	DB	029H
	DB	086H
	DB	029H
	DB	086H
	DB	029H
	DB	055H
	DB	0adH
	DB	0ffH
	DB	0ffH
	DB	0ffH
	DB	0ffH
	DB	0ffH
	DB	0ffH
	DB	0ffH
	DB	0ffH
	DB	0ffH
	DB	0ffH
	DB	0ffH
	DB	0ffH
	DB	0ffH
	DB	0ffH
	DB	0ffH
	DB	0ffH
	DB	0ffH
	DB	0ffH
	DB	04dH
	DB	063H
	DB	086H
	DB	029H
	DB	086H
	DB	029H
	DB	086H
	DB	029H
	DB	086H
	DB	029H
	DB	086H
	DB	029H
	DB	086H
	DB	029H
	DB	086H
	DB	029H
	DB	086H
	DB	029H
	DB	03cH
	DB	0e7H
	DB	0ffH
	DB	0ffH
	DB	0ffH
	DB	0ffH
	DB	0ffH
	DB	0ffH
	DB	0ffH
	DB	0ffH
	DB	0ffH
	DB	0ffH
	DB	0ffH
	DB	0ffH
	DB	0ffH
	DB	0ffH
	DB	0ffH
	DB	0ffH
	DB	0ffH
	DB	0ffH
	DB	0ffH
	DB	0ffH
	DB	0ffH
	DB	0ffH
	DB	0ffH
	DB	0ffH
	DB	0ffH
	DB	0ffH
	DB	0ffH
	DB	0ffH
	DB	0ffH
	DB	0ffH
	DB	0ffH
	DB	0ffH
	DB	0ffH
	DB	0ffH
	DB	0ffH
	DB	0ffH
	DB	0ffH
	DB	0ffH
	DB	0ffH
	DB	0ffH
	DB	0ffH
	DB	0ffH
	DB	0ffH
	DB	0ffH
	DB	0ffH
	DB	0ffH
	DB	06aH
	DB	04aH
	DB	086H
	DB	029H
	DB	086H
	DB	029H
	DB	086H
	DB	029H
	DB	086H
	DB	029H
	DB	086H
	DB	029H
	DB	086H
	DB	029H
	DB	086H
	DB	029H
	DB	086H
	DB	029H
	DB	055H
	DB	0adH
	DB	0ffH
	DB	0ffH
	DB	0ffH
	DB	0ffH
	DB	0ffH
	DB	0ffH
	DB	0ffH
	DB	0ffH
	DB	0ffH
	DB	0ffH
	DB	0ffH
	DB	0ffH
	DB	0ffH
	DB	0ffH
	DB	0ffH
	DB	0ffH
	DB	0ffH
	DB	0ffH
	DB	04dH
	DB	063H
	DB	086H
	DB	029H
	DB	086H
	DB	029H
	DB	086H
	DB	029H
	DB	086H
	DB	029H
	DB	086H
	DB	029H
	DB	086H
	DB	029H
	DB	086H
	DB	029H
	DB	086H
	DB	029H
	DB	03cH
	DB	0e7H
	DB	0ffH
	DB	0ffH
	DB	0ffH
	DB	0ffH
	DB	0ffH
	DB	0ffH
	DB	0ffH
	DB	0ffH
	DB	0ffH
	DB	0ffH
	DB	0ffH
	DB	0ffH
	DB	0ffH
	DB	0ffH
	DB	0ffH
	DB	0ffH
	DB	0ffH
	DB	0ffH
	DB	0ffH
	DB	0ffH
	DB	0ffH
	DB	0ffH
	DB	0ffH
	DB	0ffH
	DB	0ffH
	DB	0ffH
	DB	0ffH
	DB	0ffH
	DB	0ffH
	DB	0ffH
	DB	0ffH
	DB	0ffH
	DB	0ffH
	DB	0ffH
	DB	0ffH
	DB	0ffH
	DB	0ffH
	DB	0ffH
	DB	0ffH
	DB	0ffH
	DB	0ffH
	DB	0ffH
	DB	0ffH
	DB	0ffH
	DB	0ffH
	DB	0ffH
	DB	06aH
	DB	04aH
	DB	086H
	DB	029H
	DB	086H
	DB	029H
	DB	086H
	DB	029H
	DB	086H
	DB	029H
	DB	086H
	DB	029H
	DB	086H
	DB	029H
	DB	086H
	DB	029H
	DB	086H
	DB	029H
	DB	055H
	DB	0adH
	DB	0ffH
	DB	0ffH
	DB	0ffH
	DB	0ffH
	DB	0ffH
	DB	0ffH
	DB	0ffH
	DB	0ffH
	DB	0ffH
	DB	0ffH
	DB	0ffH
	DB	0ffH
	DB	0ffH
	DB	0ffH
	DB	0ffH
	DB	0ffH
	DB	0ffH
	DB	0ffH
	DB	04dH
	DB	063H
	DB	086H
	DB	029H
	DB	086H
	DB	029H
	DB	086H
	DB	029H
	DB	086H
	DB	029H
	DB	086H
	DB	029H
	DB	086H
	DB	029H
	DB	086H
	DB	029H
	DB	086H
	DB	029H
	DB	03cH
	DB	0e7H
	DB	0ffH
	DB	0ffH
	DB	0ffH
	DB	0ffH
	DB	0ffH
	DB	0ffH
	DB	0ffH
	DB	0ffH
	DB	0ffH
	DB	0ffH
	DB	0ffH
	DB	0ffH
	DB	0ffH
	DB	0ffH
	DB	0ffH
	DB	0ffH
	DB	0ffH
	DB	0ffH
	DB	0ffH
	DB	0ffH
	DB	0ffH
	DB	0ffH
	DB	0ffH
	DB	0ffH
	DB	0ffH
	DB	0ffH
	DB	0ffH
	DB	0ffH
	DB	0ffH
	DB	0ffH
	DB	0ffH
	DB	0ffH
	DB	0ffH
	DB	0ffH
	DB	0ffH
	DB	0ffH
	DB	0ffH
	DB	0ffH
	DB	0ffH
	DB	0ffH
	DB	0ffH
	DB	0ffH
	DB	0ffH
	DB	0ffH
	DB	0ffH
	DB	0ffH
	DB	06aH
	DB	04aH
	DB	086H
	DB	029H
	DB	086H
	DB	029H
	DB	086H
	DB	029H
	DB	086H
	DB	029H
	DB	086H
	DB	029H
	DB	086H
	DB	029H
	DB	086H
	DB	029H
	DB	086H
	DB	029H
	DB	055H
	DB	0adH
	DB	0ffH
	DB	0ffH
	DB	0ffH
	DB	0ffH
	DB	0ffH
	DB	0ffH
	DB	0ffH
	DB	0ffH
	DB	0ffH
	DB	0ffH
	DB	0ffH
	DB	0ffH
	DB	0ffH
	DB	0ffH
	DB	0ffH
	DB	0ffH
	DB	0ffH
	DB	0ffH
	DB	04dH
	DB	063H
	DB	086H
	DB	029H
	DB	086H
	DB	029H
	DB	086H
	DB	029H
	DB	086H
	DB	029H
	DB	086H
	DB	029H
	DB	086H
	DB	029H
	DB	086H
	DB	029H
	DB	086H
	DB	029H
	DB	03cH
	DB	0e7H
	DB	0ffH
	DB	0ffH
	DB	0ffH
	DB	0ffH
	DB	0ffH
	DB	0ffH
	DB	0ffH
	DB	0ffH
	DB	0ffH
	DB	0ffH
	DB	0ffH
	DB	0ffH
	DB	0ffH
	DB	0ffH
	DB	0ffH
	DB	0ffH
	DB	0ffH
	DB	0ffH
	DB	0ffH
	DB	0ffH
	DB	0ffH
	DB	0ffH
	DB	0ffH
	DB	0ffH
	DB	0ffH
	DB	0ffH
	DB	0ffH
	DB	0ffH
	DB	0ffH
	DB	0ffH
	DB	0ffH
	DB	0ffH
	DB	0ffH
	DB	0ffH
	DB	0ffH
	DB	0ffH
	DB	0ffH
	DB	0ffH
	DB	0ffH
	DB	0ffH
	DB	0ffH
	DB	0ffH
	DB	0ffH
	DB	0ffH
	DB	0ffH
	DB	0ffH
	DB	06aH
	DB	04aH
	DB	086H
	DB	029H
	DB	086H
	DB	029H
	DB	086H
	DB	029H
	DB	086H
	DB	029H
	DB	086H
	DB	029H
	DB	086H
	DB	029H
	DB	086H
	DB	029H
	DB	086H
	DB	029H
	DB	055H
	DB	0adH
	DB	0ffH
	DB	0ffH
	DB	0ffH
	DB	0ffH
	DB	0ffH
	DB	0ffH
	DB	0ffH
	DB	0ffH
	DB	0ffH
	DB	0ffH
	DB	0ffH
	DB	0ffH
	DB	0ffH
	DB	0ffH
	DB	0ffH
	DB	0ffH
	DB	0ffH
	DB	0ffH
	DB	04dH
	DB	063H
	DB	086H
	DB	029H
	DB	086H
	DB	029H
	DB	086H
	DB	029H
	DB	086H
	DB	029H
	DB	086H
	DB	029H
	DB	086H
	DB	029H
	DB	086H
	DB	029H
	DB	086H
	DB	029H
	DB	03cH
	DB	0e7H
	DB	0ffH
	DB	0ffH
	DB	0ffH
	DB	0ffH
	DB	0ffH
	DB	0ffH
	DB	0ffH
	DB	0ffH
	DB	0ffH
	DB	0ffH
	DB	0ffH
	DB	0ffH
	DB	0ffH
	DB	0ffH
	DB	0ffH
	DB	0ffH
	DB	0ffH
	DB	0ffH
	DB	0ffH
	DB	0ffH
	DB	0ffH
	DB	0ffH
	DB	0ffH
	DB	0ffH
	DB	0ffH
	DB	0ffH
	DB	0ffH
	DB	0ffH
	DB	0ffH
	DB	0ffH
	DB	0ffH
	DB	0ffH
	DB	0ffH
	DB	0ffH
	DB	0ffH
	DB	0ffH
	DB	0ffH
	DB	0ffH
	DB	0ffH
	DB	0ffH
	DB	0ffH
	DB	0ffH
	DB	0ffH
	DB	0ffH
	DB	0ffH
	DB	0ffH
	DB	06aH
	DB	04aH
	DB	086H
	DB	029H
	DB	086H
	DB	029H
	DB	086H
	DB	029H
	DB	086H
	DB	029H
	DB	086H
	DB	029H
	DB	086H
	DB	029H
	DB	086H
	DB	029H
	DB	086H
	DB	029H
	DB	055H
	DB	0adH
	DB	0ffH
	DB	0ffH
	DB	0ffH
	DB	0ffH
	DB	0ffH
	DB	0ffH
	DB	0ffH
	DB	0ffH
	DB	0ffH
	DB	0ffH
	DB	0ffH
	DB	0ffH
	DB	0ffH
	DB	0ffH
	DB	0ffH
	DB	0ffH
	DB	0ffH
	DB	0ffH
	DB	04dH
	DB	063H
	DB	086H
	DB	029H
	DB	086H
	DB	029H
	DB	086H
	DB	029H
	DB	086H
	DB	029H
	DB	086H
	DB	029H
	DB	086H
	DB	029H
	DB	086H
	DB	029H
	DB	086H
	DB	029H
	DB	03cH
	DB	0e7H
	DB	0ffH
	DB	0ffH
	DB	0ffH
	DB	0ffH
	DB	0ffH
	DB	0ffH
	DB	0ffH
	DB	0ffH
	DB	0ffH
	DB	0ffH
	DB	0ffH
	DB	0ffH
	DB	0ffH
	DB	0ffH
	DB	0ffH
	DB	0ffH
	DB	0ffH
	DB	0ffH
	DB	0ffH
	DB	0ffH
	DB	0ffH
	DB	0ffH
	DB	0ffH
	DB	0ffH
	DB	0ffH
	DB	0ffH
	DB	0ffH
	DB	0ffH
	DB	0ffH
	DB	0ffH
	DB	0ffH
	DB	0ffH
	DB	0ffH
	DB	0ffH
	DB	0ffH
	DB	0ffH
	DB	0ffH
	DB	0ffH
	DB	0ffH
	DB	0ffH
	DB	0ffH
	DB	0ffH
	DB	0ffH
	DB	0ffH
	DB	0ffH
	DB	0ffH
	DB	06aH
	DB	04aH
	DB	086H
	DB	029H
	DB	086H
	DB	029H
	DB	086H
	DB	029H
	DB	086H
	DB	029H
	DB	086H
	DB	029H
	DB	086H
	DB	029H
	DB	086H
	DB	029H
	DB	086H
	DB	029H
	DB	055H
	DB	0adH
	DB	0ffH
	DB	0ffH
	DB	0ffH
	DB	0ffH
	DB	0ffH
	DB	0ffH
	DB	0ffH
	DB	0ffH
	DB	0ffH
	DB	0ffH
	DB	0ffH
	DB	0ffH
	DB	0ffH
	DB	0ffH
	DB	0ffH
	DB	0ffH
	DB	0ffH
	DB	0ffH
	DB	04dH
	DB	063H
	DB	086H
	DB	029H
	DB	086H
	DB	029H
	DB	086H
	DB	029H
	DB	086H
	DB	029H
	DB	086H
	DB	029H
	DB	086H
	DB	029H
	DB	086H
	DB	029H
	DB	086H
	DB	029H
	DB	03cH
	DB	0e7H
	DB	0ffH
	DB	0ffH
	DB	0ffH
	DB	0ffH
	DB	0ffH
	DB	0ffH
	DB	0ffH
	DB	0ffH
	DB	0ffH
	DB	0ffH
	DB	0ffH
	DB	0ffH
	DB	0ffH
	DB	0ffH
	DB	0ffH
	DB	0ffH
	DB	0ffH
	DB	0ffH
	DB	0ffH
	DB	0ffH
	DB	0ffH
	DB	0ffH
	DB	0ffH
	DB	0ffH
	DB	0ffH
	DB	0ffH
	DB	0ffH
	DB	0ffH
	DB	0ffH
	DB	0ffH
	DB	0ffH
	DB	0ffH
	DB	0ffH
	DB	0ffH
	DB	0ffH
	DB	0ffH
	DB	0ffH
	DB	0ffH
	DB	0ffH
	DB	0ffH
	DB	0ffH
	DB	0ffH
	DB	0ffH
	DB	0ffH
	DB	0ffH
	DB	0ffH
	DB	06aH
	DB	04aH
	DB	086H
	DB	029H
	DB	086H
	DB	029H
	DB	086H
	DB	029H
	DB	086H
	DB	029H
	DB	086H
	DB	029H
	DB	086H
	DB	029H
	DB	086H
	DB	029H
	DB	086H
	DB	029H
	DB	055H
	DB	0adH
	DB	0ffH
	DB	0ffH
	DB	0ffH
	DB	0ffH
	DB	0ffH
	DB	0ffH
	DB	0ffH
	DB	0ffH
	DB	0ffH
	DB	0ffH
	DB	0ffH
	DB	0ffH
	DB	0ffH
	DB	0ffH
	DB	0ffH
	DB	0ffH
	DB	0ffH
	DB	0ffH
	DB	04dH
	DB	063H
	DB	086H
	DB	029H
	DB	086H
	DB	029H
	DB	086H
	DB	029H
	DB	086H
	DB	029H
	DB	086H
	DB	029H
	DB	086H
	DB	029H
	DB	086H
	DB	029H
	DB	086H
	DB	029H
	DB	03cH
	DB	0e7H
	DB	0ffH
	DB	0ffH
	DB	0ffH
	DB	0ffH
	DB	0ffH
	DB	0ffH
	DB	0ffH
	DB	0ffH
	DB	0ffH
	DB	0ffH
	DB	0ffH
	DB	0ffH
	DB	0ffH
	DB	0ffH
	DB	0ffH
	DB	0ffH
	DB	0ffH
	DB	0ffH
	DB	0ffH
	DB	0ffH
	DB	0ffH
	DB	0ffH
	DB	0ffH
	DB	0ffH
	DB	0ffH
	DB	0ffH
	DB	0ffH
	DB	0ffH
	DB	0ffH
	DB	0ffH
	DB	0ffH
	DB	0ffH
	DB	0ffH
	DB	0ffH
	DB	0ffH
	DB	0ffH
	DB	0ffH
	DB	0ffH
	DB	0ffH
	DB	0ffH
	DB	0ffH
	DB	0ffH
	DB	0ffH
	DB	0ffH
	DB	0ffH
	DB	0ffH
	DB	06aH
	DB	04aH
	DB	086H
	DB	029H
	DB	086H
	DB	029H
	DB	086H
	DB	029H
	DB	086H
	DB	029H
	DB	086H
	DB	029H
	DB	086H
	DB	029H
	DB	086H
	DB	029H
	DB	086H
	DB	029H
	DB	055H
	DB	0adH
	DB	0ffH
	DB	0ffH
	DB	0ffH
	DB	0ffH
	DB	0ffH
	DB	0ffH
	DB	0ffH
	DB	0ffH
	DB	0ffH
	DB	0ffH
	DB	0ffH
	DB	0ffH
	DB	0ffH
	DB	0ffH
	DB	0ffH
	DB	0ffH
	DB	0ffH
	DB	0ffH
	DB	04dH
	DB	063H
	DB	086H
	DB	029H
	DB	086H
	DB	029H
	DB	086H
	DB	029H
	DB	086H
	DB	029H
	DB	086H
	DB	029H
	DB	086H
	DB	029H
	DB	086H
	DB	029H
	DB	086H
	DB	029H
	DB	03cH
	DB	0e7H
	DB	0ffH
	DB	0ffH
	DB	0ffH
	DB	0ffH
	DB	0ffH
	DB	0ffH
	DB	0ffH
	DB	0ffH
	DB	0ffH
	DB	0ffH
	DB	0ffH
	DB	0ffH
	DB	0ffH
	DB	0ffH
	DB	0ffH
	DB	0ffH
	DB	0ffH
	DB	0ffH
	DB	0ffH
	DB	0ffH
	DB	0ffH
	DB	0ffH
	DB	0ffH
	DB	0ffH
	DB	0ffH
	DB	0ffH
	DB	0ffH
	DB	0ffH
	DB	0ffH
	DB	0ffH
	DB	0ffH
	DB	0ffH
	DB	0ffH
	DB	0ffH
	DB	0ffH
	DB	0ffH
	DB	0ffH
	DB	0ffH
	DB	0ffH
	DB	0ffH
	DB	0ffH
	DB	0ffH
	DB	0ffH
	DB	0ffH
	DB	0ffH
	DB	0ffH
	DB	06aH
	DB	04aH
	DB	086H
	DB	029H
	DB	086H
	DB	029H
	DB	086H
	DB	029H
	DB	086H
	DB	029H
	DB	086H
	DB	029H
	DB	086H
	DB	029H
	DB	086H
	DB	029H
	DB	086H
	DB	029H
	DB	055H
	DB	0adH
	DB	0ffH
	DB	0ffH
	DB	0ffH
	DB	0ffH
	DB	0ffH
	DB	0ffH
	DB	0ffH
	DB	0ffH
	DB	0ffH
	DB	0ffH
	DB	0ffH
	DB	0ffH
	DB	0ffH
	DB	0ffH
	DB	0ffH
	DB	0ffH
	DB	0ffH
	DB	0ffH
	DB	04dH
	DB	063H
	DB	086H
	DB	029H
	DB	086H
	DB	029H
	DB	086H
	DB	029H
	DB	086H
	DB	029H
	DB	086H
	DB	029H
	DB	086H
	DB	029H
	DB	086H
	DB	029H
	DB	086H
	DB	029H
	DB	03cH
	DB	0e7H
	DB	0ffH
	DB	0ffH
	DB	0ffH
	DB	0ffH
	DB	0ffH
	DB	0ffH
	DB	0ffH
	DB	0ffH
	DB	0ffH
	DB	0ffH
	DB	0ffH
	DB	0ffH
	DB	0ffH
	DB	0ffH
	DB	0ffH
	DB	0ffH
	DB	0ffH
	DB	0ffH
	DB	0ffH
	DB	0ffH
	DB	0ffH
	DB	0ffH
	DB	0ffH
	DB	0ffH
	DB	0ffH
	DB	0ffH
	DB	0ffH
	DB	0ffH
	DB	0ffH
	DB	0ffH
	DB	0ffH
	DB	0ffH
	DB	0ffH
	DB	0ffH
	DB	0ffH
	DB	0ffH
	DB	0ffH
	DB	0ffH
	DB	0ffH
	DB	0ffH
	DB	0ffH
	DB	0ffH
	DB	0ffH
	DB	0ffH
	DB	0ffH
	DB	0ffH
	DB	06aH
	DB	04aH
	DB	086H
	DB	029H
	DB	086H
	DB	029H
	DB	086H
	DB	029H
	DB	086H
	DB	029H
	DB	086H
	DB	029H
	DB	086H
	DB	029H
	DB	086H
	DB	029H
	DB	086H
	DB	029H
	DB	055H
	DB	0adH
	DB	0ffH
	DB	0ffH
	DB	0ffH
	DB	0ffH
	DB	0ffH
	DB	0ffH
	DB	0ffH
	DB	0ffH
	DB	0ffH
	DB	0ffH
	DB	0ffH
	DB	0ffH
	DB	0ffH
	DB	0ffH
	DB	0ffH
	DB	0ffH
	DB	0ffH
	DB	0ffH
	DB	04dH
	DB	063H
	DB	086H
	DB	029H
	DB	086H
	DB	029H
	DB	086H
	DB	029H
	DB	086H
	DB	029H
	DB	086H
	DB	029H
	DB	086H
	DB	029H
	DB	086H
	DB	029H
	DB	086H
	DB	029H
	DB	03cH
	DB	0e7H
	DB	0ffH
	DB	0ffH
	DB	0ffH
	DB	0ffH
	DB	0ffH
	DB	0ffH
	DB	0ffH
	DB	0ffH
	DB	0ffH
	DB	0ffH
	DB	0ffH
	DB	0ffH
	DB	0ffH
	DB	0ffH
	DB	0ffH
	DB	0ffH
	DB	0ffH
	DB	0ffH
	DB	0ffH
	DB	0ffH
	DB	0ffH
	DB	0ffH
	DB	0ffH
	DB	0ffH
	DB	0ffH
	DB	0ffH
	DB	0ffH
	DB	0ffH
	DB	0ffH
	DB	0ffH
	DB	0ffH
	DB	0ffH
	DB	0ffH
	DB	0ffH
	DB	0ffH
	DB	0ffH
	DB	0ffH
	DB	0ffH
	DB	0ffH
	DB	0ffH
	DB	0ffH
	DB	0ffH
	DB	0ffH
	DB	0ffH
	DB	0ffH
	DB	0ffH
	DB	06aH
	DB	04aH
	DB	086H
	DB	029H
	DB	086H
	DB	029H
	DB	086H
	DB	029H
	DB	086H
	DB	029H
	DB	086H
	DB	029H
	DB	086H
	DB	029H
	DB	086H
	DB	029H
	DB	086H
	DB	029H
	DB	055H
	DB	0adH
	DB	0ffH
	DB	0ffH
	DB	0ffH
	DB	0ffH
	DB	0ffH
	DB	0ffH
	DB	0ffH
	DB	0ffH
	DB	0ffH
	DB	0ffH
	DB	0ffH
	DB	0ffH
	DB	0ffH
	DB	0ffH
	DB	0ffH
	DB	0ffH
	DB	0ffH
	DB	0ffH
	DB	04dH
	DB	063H
	DB	086H
	DB	029H
	DB	086H
	DB	029H
	DB	086H
	DB	029H
	DB	086H
	DB	029H
	DB	086H
	DB	029H
	DB	086H
	DB	029H
	DB	086H
	DB	029H
	DB	086H
	DB	029H
	DB	03cH
	DB	0e7H
	DB	0ffH
	DB	0ffH
	DB	0ffH
	DB	0ffH
	DB	0ffH
	DB	0ffH
	DB	0ffH
	DB	0ffH
	DB	0ffH
	DB	0ffH
	DB	0ffH
	DB	0ffH
	DB	0ffH
	DB	0ffH
	DB	0ffH
	DB	0ffH
	DB	0ffH
	DB	0ffH
	DB	0ffH
	DB	0ffH
	DB	0ffH
	DB	0ffH
	DB	0ffH
	DB	0ffH
	DB	0ffH
	DB	0ffH
	DB	0ffH
	DB	0ffH
	DB	0ffH
	DB	0ffH
	DB	0ffH
	DB	0ffH
	DB	0ffH
	DB	0ffH
	DB	0ffH
	DB	0ffH
	DB	0ffH
	DB	0ffH
	DB	0ffH
	DB	0ffH
	DB	0ffH
	DB	0ffH
	DB	0ffH
	DB	0ffH
	DB	0ffH
	DB	0ffH
	DB	06aH
	DB	04aH
	DB	086H
	DB	029H
	DB	086H
	DB	029H
	DB	086H
	DB	029H
	DB	086H
	DB	029H
	DB	086H
	DB	029H
	DB	086H
	DB	029H
	DB	086H
	DB	029H
	DB	086H
	DB	029H
	DB	055H
	DB	0adH
	DB	0ffH
	DB	0ffH
	DB	0ffH
	DB	0ffH
	DB	0ffH
	DB	0ffH
	DB	0ffH
	DB	0ffH
	DB	0ffH
	DB	0ffH
	DB	0ffH
	DB	0ffH
	DB	0ffH
	DB	0ffH
	DB	0ffH
	DB	0ffH
	DB	0ffH
	DB	0ffH
	DB	04dH
	DB	063H
	DB	086H
	DB	029H
	DB	086H
	DB	029H
	DB	086H
	DB	029H
	DB	086H
	DB	029H
	DB	086H
	DB	029H
	DB	086H
	DB	029H
	DB	086H
	DB	029H
	DB	086H
	DB	029H
	DB	03cH
	DB	0e7H
	DB	0ffH
	DB	0ffH
	DB	0ffH
	DB	0ffH
	DB	0ffH
	DB	0ffH
	DB	0ffH
	DB	0ffH
	DB	0ffH
	DB	0ffH
	DB	0ffH
	DB	0ffH
	DB	0ffH
	DB	0ffH
	DB	0ffH
	DB	0ffH
	DB	0ffH
	DB	0ffH
	DB	0ffH
	DB	0ffH
	DB	0ffH
	DB	0ffH
	DB	0ffH
	DB	0ffH
	DB	0ffH
	DB	0ffH
	DB	0ffH
	DB	0ffH
	DB	0ffH
	DB	0ffH
	DB	0ffH
	DB	0ffH
	DB	0ffH
	DB	0ffH
	DB	0ffH
	DB	0ffH
	DB	0ffH
	DB	0ffH
	DB	0ffH
	DB	0ffH
	DB	0ffH
	DB	0ffH
	DB	0ffH
	DB	0ffH
	DB	0ffH
	DB	0ffH
	DB	06aH
	DB	04aH
	DB	086H
	DB	029H
	DB	086H
	DB	029H
	DB	086H
	DB	029H
	DB	086H
	DB	029H
	DB	086H
	DB	029H
	DB	086H
	DB	029H
	DB	086H
	DB	029H
	DB	086H
	DB	029H
	DB	08H
	DB	042H
	DB	08aH
	DB	04aH
	DB	08aH
	DB	04aH
	DB	08aH
	DB	04aH
	DB	08aH
	DB	04aH
	DB	08aH
	DB	04aH
	DB	08aH
	DB	04aH
	DB	08aH
	DB	04aH
	DB	08aH
	DB	04aH
	DB	08aH
	DB	04aH
	DB	0c7H
	DB	031H
	DB	086H
	DB	029H
	DB	086H
	DB	029H
	DB	086H
	DB	029H
	DB	086H
	DB	029H
	DB	086H
	DB	029H
	DB	086H
	DB	029H
	DB	086H
	DB	029H
	DB	086H
	DB	029H
	DB	06aH
	DB	04aH
	DB	08aH
	DB	04aH
	DB	08aH
	DB	04aH
	DB	08aH
	DB	04aH
	DB	08aH
	DB	04aH
	DB	08aH
	DB	04aH
	DB	08aH
	DB	04aH
	DB	08aH
	DB	04aH
	DB	08aH
	DB	04aH
	DB	08aH
	DB	04aH
	DB	08aH
	DB	04aH
	DB	08aH
	DB	04aH
	DB	08aH
	DB	04aH
	DB	08aH
	DB	04aH
	DB	08aH
	DB	04aH
	DB	08aH
	DB	04aH
	DB	08aH
	DB	04aH
	DB	08aH
	DB	04aH
	DB	08aH
	DB	04aH
	DB	0cfH
	DB	073H
	DB	0dfH
	DB	0ffH
	DB	0ffH
	DB	0ffH
	DB	0ffH
	DB	0ffH
	DB	0ffH
	DB	0ffH
	DB	06aH
	DB	04aH
	DB	086H
	DB	029H
	DB	086H
	DB	029H
	DB	086H
	DB	029H
	DB	086H
	DB	029H
	DB	086H
	DB	029H
	DB	086H
	DB	029H
	DB	086H
	DB	029H
	DB	086H
	DB	029H
	DB	086H
	DB	029H
	DB	086H
	DB	029H
	DB	086H
	DB	029H
	DB	086H
	DB	029H
	DB	086H
	DB	029H
	DB	086H
	DB	029H
	DB	086H
	DB	029H
	DB	086H
	DB	029H
	DB	086H
	DB	029H
	DB	086H
	DB	029H
	DB	086H
	DB	029H
	DB	086H
	DB	029H
	DB	086H
	DB	029H
	DB	086H
	DB	029H
	DB	086H
	DB	029H
	DB	086H
	DB	029H
	DB	086H
	DB	029H
	DB	086H
	DB	029H
	DB	086H
	DB	029H
	DB	086H
	DB	029H
	DB	086H
	DB	029H
	DB	086H
	DB	029H
	DB	086H
	DB	029H
	DB	086H
	DB	029H
	DB	086H
	DB	029H
	DB	086H
	DB	029H
	DB	086H
	DB	029H
	DB	086H
	DB	029H
	DB	086H
	DB	029H
	DB	086H
	DB	029H
	DB	086H
	DB	029H
	DB	086H
	DB	029H
	DB	086H
	DB	029H
	DB	086H
	DB	029H
	DB	086H
	DB	029H
	DB	086H
	DB	029H
	DB	086H
	DB	029H
	DB	086H
	DB	029H
	DB	086H
	DB	029H
	DB	038H
	DB	0c6H
	DB	0ffH
	DB	0ffH
	DB	0ffH
	DB	0ffH
	DB	0ffH
	DB	0ffH
	DB	06aH
	DB	04aH
	DB	086H
	DB	029H
	DB	086H
	DB	029H
	DB	086H
	DB	029H
	DB	086H
	DB	029H
	DB	086H
	DB	029H
	DB	086H
	DB	029H
	DB	086H
	DB	029H
	DB	086H
	DB	029H
	DB	086H
	DB	029H
	DB	086H
	DB	029H
	DB	086H
	DB	029H
	DB	086H
	DB	029H
	DB	086H
	DB	029H
	DB	086H
	DB	029H
	DB	086H
	DB	029H
	DB	086H
	DB	029H
	DB	086H
	DB	029H
	DB	086H
	DB	029H
	DB	086H
	DB	029H
	DB	086H
	DB	029H
	DB	086H
	DB	029H
	DB	086H
	DB	029H
	DB	086H
	DB	029H
	DB	086H
	DB	029H
	DB	086H
	DB	029H
	DB	086H
	DB	029H
	DB	086H
	DB	029H
	DB	086H
	DB	029H
	DB	086H
	DB	029H
	DB	086H
	DB	029H
	DB	086H
	DB	029H
	DB	086H
	DB	029H
	DB	086H
	DB	029H
	DB	086H
	DB	029H
	DB	086H
	DB	029H
	DB	086H
	DB	029H
	DB	086H
	DB	029H
	DB	086H
	DB	029H
	DB	086H
	DB	029H
	DB	086H
	DB	029H
	DB	086H
	DB	029H
	DB	086H
	DB	029H
	DB	086H
	DB	029H
	DB	086H
	DB	029H
	DB	086H
	DB	029H
	DB	086H
	DB	029H
	DB	086H
	DB	029H
	DB	018H
	DB	0c6H
	DB	0ffH
	DB	0ffH
	DB	0ffH
	DB	0ffH
	DB	0ffH
	DB	0ffH
	DB	06aH
	DB	04aH
	DB	086H
	DB	029H
	DB	086H
	DB	029H
	DB	086H
	DB	029H
	DB	086H
	DB	029H
	DB	086H
	DB	029H
	DB	086H
	DB	029H
	DB	086H
	DB	029H
	DB	086H
	DB	029H
	DB	086H
	DB	029H
	DB	086H
	DB	029H
	DB	086H
	DB	029H
	DB	086H
	DB	029H
	DB	086H
	DB	029H
	DB	086H
	DB	029H
	DB	086H
	DB	029H
	DB	086H
	DB	029H
	DB	086H
	DB	029H
	DB	086H
	DB	029H
	DB	086H
	DB	029H
	DB	086H
	DB	029H
	DB	086H
	DB	029H
	DB	086H
	DB	029H
	DB	086H
	DB	029H
	DB	086H
	DB	029H
	DB	086H
	DB	029H
	DB	086H
	DB	029H
	DB	086H
	DB	029H
	DB	086H
	DB	029H
	DB	086H
	DB	029H
	DB	086H
	DB	029H
	DB	086H
	DB	029H
	DB	086H
	DB	029H
	DB	086H
	DB	029H
	DB	086H
	DB	029H
	DB	086H
	DB	029H
	DB	086H
	DB	029H
	DB	086H
	DB	029H
	DB	086H
	DB	029H
	DB	086H
	DB	029H
	DB	086H
	DB	029H
	DB	086H
	DB	029H
	DB	086H
	DB	029H
	DB	086H
	DB	029H
	DB	086H
	DB	029H
	DB	086H
	DB	029H
	DB	086H
	DB	029H
	DB	086H
	DB	029H
	DB	018H
	DB	0c6H
	DB	0ffH
	DB	0ffH
	DB	0ffH
	DB	0ffH
	DB	0ffH
	DB	0ffH
	DB	06aH
	DB	04aH
	DB	086H
	DB	029H
	DB	086H
	DB	029H
	DB	086H
	DB	029H
	DB	086H
	DB	029H
	DB	086H
	DB	029H
	DB	086H
	DB	029H
	DB	086H
	DB	029H
	DB	086H
	DB	029H
	DB	086H
	DB	029H
	DB	086H
	DB	029H
	DB	086H
	DB	029H
	DB	086H
	DB	029H
	DB	086H
	DB	029H
	DB	086H
	DB	029H
	DB	086H
	DB	029H
	DB	086H
	DB	029H
	DB	086H
	DB	029H
	DB	086H
	DB	029H
	DB	086H
	DB	029H
	DB	086H
	DB	029H
	DB	086H
	DB	029H
	DB	086H
	DB	029H
	DB	086H
	DB	029H
	DB	086H
	DB	029H
	DB	086H
	DB	029H
	DB	086H
	DB	029H
	DB	086H
	DB	029H
	DB	086H
	DB	029H
	DB	086H
	DB	029H
	DB	086H
	DB	029H
	DB	086H
	DB	029H
	DB	086H
	DB	029H
	DB	086H
	DB	029H
	DB	086H
	DB	029H
	DB	086H
	DB	029H
	DB	086H
	DB	029H
	DB	086H
	DB	029H
	DB	086H
	DB	029H
	DB	086H
	DB	029H
	DB	086H
	DB	029H
	DB	086H
	DB	029H
	DB	086H
	DB	029H
	DB	086H
	DB	029H
	DB	086H
	DB	029H
	DB	086H
	DB	029H
	DB	086H
	DB	029H
	DB	086H
	DB	029H
	DB	018H
	DB	0c6H
	DB	0ffH
	DB	0ffH
	DB	0ffH
	DB	0ffH
	DB	0ffH
	DB	0ffH
	DB	06aH
	DB	04aH
	DB	086H
	DB	029H
	DB	086H
	DB	029H
	DB	086H
	DB	029H
	DB	086H
	DB	029H
	DB	086H
	DB	029H
	DB	086H
	DB	029H
	DB	086H
	DB	029H
	DB	086H
	DB	029H
	DB	086H
	DB	029H
	DB	086H
	DB	029H
	DB	086H
	DB	029H
	DB	086H
	DB	029H
	DB	086H
	DB	029H
	DB	086H
	DB	029H
	DB	086H
	DB	029H
	DB	086H
	DB	029H
	DB	086H
	DB	029H
	DB	086H
	DB	029H
	DB	086H
	DB	029H
	DB	086H
	DB	029H
	DB	086H
	DB	029H
	DB	086H
	DB	029H
	DB	086H
	DB	029H
	DB	086H
	DB	029H
	DB	086H
	DB	029H
	DB	086H
	DB	029H
	DB	086H
	DB	029H
	DB	086H
	DB	029H
	DB	086H
	DB	029H
	DB	086H
	DB	029H
	DB	086H
	DB	029H
	DB	086H
	DB	029H
	DB	086H
	DB	029H
	DB	086H
	DB	029H
	DB	086H
	DB	029H
	DB	086H
	DB	029H
	DB	086H
	DB	029H
	DB	086H
	DB	029H
	DB	086H
	DB	029H
	DB	086H
	DB	029H
	DB	086H
	DB	029H
	DB	086H
	DB	029H
	DB	086H
	DB	029H
	DB	086H
	DB	029H
	DB	086H
	DB	029H
	DB	086H
	DB	029H
	DB	086H
	DB	029H
	DB	018H
	DB	0c6H
	DB	0ffH
	DB	0ffH
	DB	0ffH
	DB	0ffH
	DB	0ffH
	DB	0ffH
	DB	06aH
	DB	04aH
	DB	086H
	DB	029H
	DB	086H
	DB	029H
	DB	086H
	DB	029H
	DB	086H
	DB	029H
	DB	086H
	DB	029H
	DB	086H
	DB	029H
	DB	086H
	DB	029H
	DB	086H
	DB	029H
	DB	086H
	DB	029H
	DB	086H
	DB	029H
	DB	086H
	DB	029H
	DB	086H
	DB	029H
	DB	086H
	DB	029H
	DB	086H
	DB	029H
	DB	086H
	DB	029H
	DB	086H
	DB	029H
	DB	086H
	DB	029H
	DB	086H
	DB	029H
	DB	086H
	DB	029H
	DB	086H
	DB	029H
	DB	086H
	DB	029H
	DB	086H
	DB	029H
	DB	086H
	DB	029H
	DB	086H
	DB	029H
	DB	086H
	DB	029H
	DB	086H
	DB	029H
	DB	086H
	DB	029H
	DB	086H
	DB	029H
	DB	086H
	DB	029H
	DB	086H
	DB	029H
	DB	086H
	DB	029H
	DB	086H
	DB	029H
	DB	086H
	DB	029H
	DB	086H
	DB	029H
	DB	086H
	DB	029H
	DB	086H
	DB	029H
	DB	086H
	DB	029H
	DB	086H
	DB	029H
	DB	086H
	DB	029H
	DB	086H
	DB	029H
	DB	086H
	DB	029H
	DB	086H
	DB	029H
	DB	086H
	DB	029H
	DB	086H
	DB	029H
	DB	086H
	DB	029H
	DB	086H
	DB	029H
	DB	086H
	DB	029H
	DB	018H
	DB	0c6H
	DB	0ffH
	DB	0ffH
	DB	0ffH
	DB	0ffH
	DB	0ffH
	DB	0ffH
	DB	06aH
	DB	04aH
	DB	086H
	DB	029H
	DB	086H
	DB	029H
	DB	086H
	DB	029H
	DB	086H
	DB	029H
	DB	086H
	DB	029H
	DB	086H
	DB	029H
	DB	086H
	DB	029H
	DB	086H
	DB	029H
	DB	086H
	DB	029H
	DB	086H
	DB	029H
	DB	086H
	DB	029H
	DB	086H
	DB	029H
	DB	086H
	DB	029H
	DB	086H
	DB	029H
	DB	086H
	DB	029H
	DB	086H
	DB	029H
	DB	086H
	DB	029H
	DB	086H
	DB	029H
	DB	086H
	DB	029H
	DB	086H
	DB	029H
	DB	086H
	DB	029H
	DB	086H
	DB	029H
	DB	086H
	DB	029H
	DB	086H
	DB	029H
	DB	086H
	DB	029H
	DB	086H
	DB	029H
	DB	086H
	DB	029H
	DB	086H
	DB	029H
	DB	086H
	DB	029H
	DB	086H
	DB	029H
	DB	086H
	DB	029H
	DB	086H
	DB	029H
	DB	086H
	DB	029H
	DB	086H
	DB	029H
	DB	086H
	DB	029H
	DB	086H
	DB	029H
	DB	086H
	DB	029H
	DB	086H
	DB	029H
	DB	086H
	DB	029H
	DB	086H
	DB	029H
	DB	086H
	DB	029H
	DB	086H
	DB	029H
	DB	086H
	DB	029H
	DB	086H
	DB	029H
	DB	086H
	DB	029H
	DB	086H
	DB	029H
	DB	086H
	DB	029H
	DB	018H
	DB	0c6H
	DB	0ffH
	DB	0ffH
	DB	0ffH
	DB	0ffH
	DB	0ffH
	DB	0ffH
	DB	06aH
	DB	04aH
	DB	086H
	DB	029H
	DB	086H
	DB	029H
	DB	086H
	DB	029H
	DB	086H
	DB	029H
	DB	086H
	DB	029H
	DB	086H
	DB	029H
	DB	086H
	DB	029H
	DB	086H
	DB	029H
	DB	086H
	DB	029H
	DB	086H
	DB	029H
	DB	086H
	DB	029H
	DB	086H
	DB	029H
	DB	086H
	DB	029H
	DB	086H
	DB	029H
	DB	086H
	DB	029H
	DB	086H
	DB	029H
	DB	086H
	DB	029H
	DB	086H
	DB	029H
	DB	086H
	DB	029H
	DB	086H
	DB	029H
	DB	086H
	DB	029H
	DB	086H
	DB	029H
	DB	086H
	DB	029H
	DB	086H
	DB	029H
	DB	086H
	DB	029H
	DB	086H
	DB	029H
	DB	086H
	DB	029H
	DB	086H
	DB	029H
	DB	086H
	DB	029H
	DB	086H
	DB	029H
	DB	086H
	DB	029H
	DB	086H
	DB	029H
	DB	086H
	DB	029H
	DB	086H
	DB	029H
	DB	086H
	DB	029H
	DB	086H
	DB	029H
	DB	086H
	DB	029H
	DB	086H
	DB	029H
	DB	086H
	DB	029H
	DB	086H
	DB	029H
	DB	086H
	DB	029H
	DB	086H
	DB	029H
	DB	086H
	DB	029H
	DB	086H
	DB	029H
	DB	086H
	DB	029H
	DB	086H
	DB	029H
	DB	086H
	DB	029H
	DB	018H
	DB	0c6H
	DB	0ffH
	DB	0ffH
	DB	0ffH
	DB	0ffH
	DB	0ffH
	DB	0ffH
	DB	06eH
	DB	06bH
	DB	086H
	DB	029H
	DB	086H
	DB	029H
	DB	086H
	DB	029H
	DB	086H
	DB	029H
	DB	086H
	DB	029H
	DB	086H
	DB	029H
	DB	086H
	DB	029H
	DB	086H
	DB	029H
	DB	086H
	DB	029H
	DB	086H
	DB	029H
	DB	086H
	DB	029H
	DB	086H
	DB	029H
	DB	086H
	DB	029H
	DB	086H
	DB	029H
	DB	086H
	DB	029H
	DB	086H
	DB	029H
	DB	086H
	DB	029H
	DB	086H
	DB	029H
	DB	086H
	DB	029H
	DB	086H
	DB	029H
	DB	086H
	DB	029H
	DB	086H
	DB	029H
	DB	086H
	DB	029H
	DB	086H
	DB	029H
	DB	086H
	DB	029H
	DB	086H
	DB	029H
	DB	086H
	DB	029H
	DB	086H
	DB	029H
	DB	086H
	DB	029H
	DB	086H
	DB	029H
	DB	086H
	DB	029H
	DB	086H
	DB	029H
	DB	086H
	DB	029H
	DB	086H
	DB	029H
	DB	086H
	DB	029H
	DB	086H
	DB	029H
	DB	086H
	DB	029H
	DB	086H
	DB	029H
	DB	086H
	DB	029H
	DB	086H
	DB	029H
	DB	086H
	DB	029H
	DB	086H
	DB	029H
	DB	086H
	DB	029H
	DB	086H
	DB	029H
	DB	086H
	DB	029H
	DB	086H
	DB	029H
	DB	086H
	DB	031H
	DB	0dbH
	DB	0deH
	DB	0ffH
	DB	0ffH
	DB	0ffH
	DB	0ffH
	DB	0ffH
	DB	0ffH
	DB	09eH
	DB	0f7H
	DB	076H
	DB	0adH
	DB	055H
	DB	0adH
	DB	055H
	DB	0adH
	DB	055H
	DB	0adH
	DB	055H
	DB	0adH
	DB	055H
	DB	0adH
	DB	055H
	DB	0adH
	DB	055H
	DB	0adH
	DB	055H
	DB	0adH
	DB	055H
	DB	0adH
	DB	055H
	DB	0adH
	DB	055H
	DB	0adH
	DB	055H
	DB	0adH
	DB	055H
	DB	0adH
	DB	055H
	DB	0adH
	DB	055H
	DB	0adH
	DB	055H
	DB	0adH
	DB	055H
	DB	0adH
	DB	055H
	DB	0adH
	DB	055H
	DB	0adH
	DB	055H
	DB	0adH
	DB	055H
	DB	0adH
	DB	055H
	DB	0adH
	DB	055H
	DB	0adH
	DB	055H
	DB	0adH
	DB	055H
	DB	0adH
	DB	055H
	DB	0adH
	DB	055H
	DB	0adH
	DB	055H
	DB	0adH
	DB	055H
	DB	0adH
	DB	055H
	DB	0adH
	DB	055H
	DB	0adH
	DB	055H
	DB	0adH
	DB	055H
	DB	0adH
	DB	055H
	DB	0adH
	DB	055H
	DB	0adH
	DB	055H
	DB	0adH
	DB	055H
	DB	0adH
	DB	055H
	DB	0adH
	DB	055H
	DB	0adH
	DB	055H
	DB	0adH
	DB	055H
	DB	0adH
	DB	055H
	DB	0adH
	DB	055H
	DB	0adH
	DB	055H
	DB	0adH
	DB	055H
	DB	0adH
	DB	079H
	DB	0ceH
	DB	0ffH
	DB	0ffH
	DB	0ffH
	DB	0ffH
	DB	0ffH
	DB	0ffH
	DB	0ffH
	DB	0ffH
	DB	0ffH
	DB	0ffH
	DB	0ffH
	DB	0ffH
	DB	0ffH
	DB	0ffH
	DB	0ffH
	DB	0ffH
	DB	0ffH
	DB	0ffH
	DB	0ffH
	DB	0ffH
	DB	0ffH
	DB	0ffH
	DB	0ffH
	DB	0ffH
	DB	0ffH
	DB	0ffH
	DB	0ffH
	DB	0ffH
	DB	0ffH
	DB	0ffH
	DB	0ffH
	DB	0ffH
	DB	0ffH
	DB	0ffH
	DB	0ffH
	DB	0ffH
	DB	0ffH
	DB	0ffH
	DB	0ffH
	DB	0ffH
	DB	0ffH
	DB	0ffH
	DB	0ffH
	DB	0ffH
	DB	0ffH
	DB	0ffH
	DB	0ffH
	DB	0ffH
	DB	0ffH
	DB	0ffH
	DB	0ffH
	DB	0ffH
	DB	0ffH
	DB	0ffH
	DB	0ffH
	DB	0ffH
	DB	0ffH
	DB	0ffH
	DB	0ffH
	DB	0ffH
	DB	0ffH
	DB	0ffH
	DB	0ffH
	DB	0ffH
	DB	0ffH
	DB	0ffH
	DB	0ffH
	DB	0ffH
	DB	0ffH
	DB	0ffH
	DB	0ffH
	DB	0ffH
	DB	0ffH
	DB	0ffH
	DB	0ffH
	DB	0ffH
	DB	0ffH
	DB	0ffH
	DB	0ffH
	DB	0ffH
	DB	0ffH
	DB	0ffH
	DB	0ffH
	DB	0ffH
	DB	0ffH
	DB	0ffH
	DB	0ffH
	DB	0ffH
	DB	0ffH
	DB	0ffH
	DB	0ffH
	DB	0ffH
	DB	0ffH
	DB	0ffH
	DB	0ffH
	DB	0ffH
	DB	0ffH
	DB	0ffH
	DB	0ffH
	DB	0ffH
	DB	0ffH
	DB	0ffH
	DB	0ffH
	DB	0ffH
	DB	0ffH
	DB	0ffH
	DB	0ffH
	DB	0ffH
	DB	0ffH
	DB	0ffH
	DB	0ffH
	DB	0ffH
	DB	0ffH
	DB	0ffH
	DB	0ffH
	DB	0ffH
	DB	0ffH
	DB	0ffH
	DB	0ffH
	DB	0ffH
	DB	0ffH
	DB	0ffH
	DB	0ffH
	DB	0ffH
	DB	0ffH
	DB	0ffH
	DB	0ffH
	DB	0ffH
	DB	0ffH
	DB	0ffH
	DB	0ffH
	DB	0ffH
	DB	0ffH
	DB	0ffH
	DB	0ffH
	DB	0ffH
	DB	0ffH
	DB	0ffH
	DB	0ffH
	DB	0ffH
	DB	0ffH
	DB	0ffH
	DB	0ffH
	DB	0ffH
	DB	0ffH
	DB	0ffH
	DB	0ffH
	DB	0ffH
	DB	0ffH
	DB	0ffH
	DB	0ffH
	DB	0ffH
	DB	0ffH
	DB	0ffH
	DB	0ffH
	DB	0ffH
	DB	0ffH
	DB	0ffH
	DB	0ffH
	DB	0ffH
	DB	0ffH
	DB	0ffH
	DB	0ffH
	DB	0ffH
	DB	0ffH
	DB	0ffH
	DB	0ffH
	DB	0ffH
	DB	0ffH
	DB	0ffH
	DB	0ffH
	DB	0ffH
	DB	0ffH
	DB	0ffH
	DB	0ffH
	DB	0ffH
	DB	0ffH
	DB	0ffH
	DB	0ffH
	DB	0ffH
	DB	0ffH
	DB	0ffH
	DB	0ffH
	DB	0ffH
	DB	0ffH
	DB	0ffH
	DB	0ffH
	DB	0ffH
	DB	0ffH
	DB	0ffH
	DB	0ffH
	DB	0ffH
	DB	0ffH
	DB	0ffH
	DB	0ffH
	DB	0ffH
	DB	0ffH
	DB	0ffH
	DB	0ffH
	DB	0ffH
	DB	0ffH
	DB	0ffH
	DB	0ffH
	DB	0ffH
	DB	0ffH
	DB	0ffH
	DB	0ffH
	DB	0ffH
	DB	0ffH
	DB	0ffH
	DB	0ffH
	DB	0ffH
	DB	0ffH
	DB	0ffH
	DB	0ffH
	DB	0ffH
	DB	0ffH
	DB	0ffH
	DB	0ffH
	DB	0ffH
	DB	0ffH
	DB	0ffH
	DB	0ffH
	DB	0ffH
	DB	0ffH
	DB	0ffH
	DB	0ffH
	DB	0ffH
	DB	0ffH
	DB	0ffH
	DB	0ffH
	DB	0ffH
	DB	0ffH
	DB	0ffH
	DB	0ffH
	DB	0ffH
	DB	0ffH
	DB	0ffH
	DB	0ffH
	DB	0ffH
	DB	0ffH
	DB	0ffH
	DB	0ffH
	DB	0ffH
	DB	0ffH
	DB	0ffH
	DB	0ffH
	DB	0ffH
	DB	0ffH
	DB	0ffH
	DB	0ffH
	DB	0ffH
	DB	0ffH
	DB	0ffH
	DB	0ffH
	DB	0ffH
	DB	0ffH
	DB	0ffH
	DB	0ffH
	DB	0ffH
	DB	0ffH
	DB	0ffH
	DB	0ffH
	DB	0ffH
	DB	0ffH
	DB	0ffH
	DB	0ffH
	DB	0ffH
	DB	0ffH
	DB	0ffH
	DB	0ffH
	DB	0ffH
	DB	0ffH
	DB	0ffH
	DB	0ffH
	DB	0ffH
	DB	0ffH
	DB	0ffH
	DB	0ffH
	DB	0ffH
	DB	0ffH
	DB	0ffH
	DB	0ffH
	DB	0ffH
	DB	0ffH
	DB	0ffH
	DB	0ffH
	DB	0ffH
	DB	0ffH
	DB	0ffH
	DB	0ffH
	DB	0ffH
	DB	0ffH
	DB	0ffH
	DB	0ffH
	DB	0ffH
	DB	0ffH
	DB	0ffH
	DB	0ffH
	DB	0ffH
	DB	0ffH
	DB	0ffH
	DB	0ffH
	DB	0ffH
	DB	0ffH
	DB	0ffH
	DB	0ffH
	DB	0ffH
	DB	0ffH
	DB	0ffH
	DB	0ffH
	DB	0ffH
	DB	0ffH
	DB	0ffH
	DB	0ffH
	DB	0ffH
	DB	0ffH
	DB	0ffH
	DB	0ffH
	DB	0ffH
	DB	0ffH
	DB	0ffH
	DB	0ffH
	DB	0ffH
	DB	0ffH
	DB	0ffH
	DB	0ffH
	DB	0ffH
	DB	0ffH
	DB	0ffH
	DB	0ffH
	DB	0ffH
	DB	0ffH
	DB	0ffH
	DB	0ffH
	DB	0ffH
	DB	0ffH
	DB	0ffH
	DB	0ffH
	DB	0ffH
	DB	0ffH
	DB	0ffH
	DB	0ffH
	DB	0ffH
	DB	0ffH
	DB	0ffH
	DB	0ffH
	DB	0ffH
	DB	0ffH
	DB	0ffH
	DB	0ffH
	DB	0ffH
	DB	0ffH
	DB	0ffH
	DB	0ffH
	DB	0ffH
	DB	0ffH
	DB	0ffH
	DB	0ffH
	DB	0ffH
	DB	0ffH
	DB	0ffH
	DB	0ffH
	DB	0ffH
	DB	0ffH
	DB	0ffH
	DB	0ffH
	DB	0ffH
	DB	0ffH
	DB	0ffH
	DB	0ffH
	DB	0ffH
	DB	0ffH
	DB	0ffH
	DB	0ffH
	DB	0ffH
	DB	0ffH
	DB	0ffH
	DB	0ffH
	DB	0ffH
	DB	0ffH
	DB	0ffH
	DB	0ffH
	DB	0ffH
	DB	0ffH
	DB	0ffH
	DB	0ffH
	DB	0ffH
	DB	0ffH
	DB	0ffH
	DB	0ffH
	DB	0ffH
	DB	0ffH
	DB	0ffH
	DB	0ffH
	DB	0ffH
	DB	0ffH
	DB	0ffH
	DB	0ffH
	DB	0ffH
	DB	0ffH
	DB	0ffH
	DB	0ffH
	DB	0ffH
	DB	0ffH
	DB	0ffH
	DB	0ffH
	DB	0ffH
	DB	0ffH
	DB	0ffH
	DB	0ffH
	DB	0ffH
	DB	0ffH
	DB	0ffH
	DB	0ffH
	DB	0ffH
	DB	0ffH
	DB	0ffH
	DB	0ffH
	DB	0ffH
	DB	0ffH
	DB	0ffH
	DB	0ffH
	DB	0ffH
	DB	0ffH
	DB	0ffH
	DB	0ffH
	DB	0ffH
	DB	0ffH
	DB	0ffH
	DB	0ffH
	DB	0ffH
	DB	0ffH
	DB	0ffH
	DB	0ffH
	DB	0ffH
	DB	0ffH
	DB	0ffH
	DB	0ffH
	DB	0ffH
	DB	0ffH
	DB	0ffH
	DB	0ffH
	DB	0ffH
	DB	0ffH
	DB	0ffH
	DB	0ffH
	DB	0ffH
	DB	0ffH
	DB	0ffH
	DB	0ffH
	DB	0ffH
	DB	0ffH
	DB	0ffH
	DB	0ffH
	DB	0ffH
	DB	0ffH
	DB	0ffH
	DB	0ffH
	DB	0ffH
	DB	0ffH
	DB	0ffH
	DB	0ffH
	DB	0ffH
	DB	0ffH
	DB	0ffH
	DB	0ffH
	DB	0ffH
	DB	0ffH
	DB	0ffH
	DB	0ffH
	DB	0ffH
	DB	0ffH
	DB	0ffH
	DB	0ffH
	DB	0ffH
	DB	0ffH
	DB	0ffH
	DB	0ffH
	DB	0ffH
	DB	0ffH
	DB	0ffH
	DB	0ffH
	DB	0ffH
	DB	0ffH
	DB	0ffH
	DB	0ffH
	DB	0ffH
	DB	0ffH
	DB	0ffH
	DB	0ffH
	DB	0ffH
	DB	0ffH
	DB	0ffH
	DB	0ffH
	DB	0ffH
	DB	0ffH
	DB	0ffH
	DB	0ffH
	DB	0ffH
	DB	0ffH
	DB	0ffH
	DB	0ffH
	DB	0ffH
	DB	0ffH
	DB	0ffH
	DB	0ffH
	DB	0ffH
	DB	0ffH
	DB	0ffH
	DB	0ffH
	DB	0ffH
	DB	0ffH
	DB	0ffH
	DB	0ffH
	DB	0ffH
	DB	0ffH
	DB	0ffH
	DB	0ffH
	DB	0ffH
	DB	0ffH
	DB	0ffH
	DB	0ffH
	DB	0ffH
	DB	0ffH
	DB	0ffH
	DB	0ffH
	DB	0ffH
	DB	0ffH
	DB	0ffH
	DB	0ffH
	DB	0ffH
	DB	0ffH
	DB	0ffH
	DB	0ffH
	DB	0ffH
	DB	0ffH
	DB	0ffH
	DB	0ffH
	DB	0ffH
	DB	0ffH
	DB	0ffH
	DB	0ffH
	DB	0ffH
	DB	0ffH
	DB	0ffH
	DB	0ffH
	DB	0ffH
	DB	0ffH
	DB	0ffH
	DB	0ffH
	DB	0ffH
	DB	0ffH
	DB	0ffH
	DB	0ffH
	DB	0ffH
	DB	0ffH
	DB	0ffH
	DB	0ffH
	DB	0ffH
	DB	0ffH
	DB	0ffH
	DB	0ffH
	DB	0ffH
	DB	0ffH
	DB	0ffH
	DB	0ffH
	DB	0ffH
	DB	0ffH
	DB	0ffH
	DB	0ffH
	DB	0ffH
	DB	0ffH
	DB	0ffH
	DB	0ffH
	DB	0ffH
	DB	0ffH
	DB	0ffH
	DB	0ffH
	DB	0ffH
	DB	0ffH
	DB	0ffH
	DB	0ffH
	DB	0ffH
	DB	0ffH
	DB	0ffH
	DB	0ffH
	DB	0ffH
	DB	0ffH
	DB	0ffH
	DB	0ffH
	DB	0ffH
	DB	0ffH
	DB	0ffH
	DB	0ffH
	DB	0ffH
	DB	0ffH
	DB	0ffH
	DB	0ffH
	DB	0ffH
	DB	0ffH
	DB	0ffH
	DB	0ffH
	DB	0ffH
	DB	0ffH
	DB	0ffH
	DB	0ffH
	DB	0ffH
	DB	0ffH
	DB	0ffH
	DB	0ffH
	DB	0ffH
	DB	0ffH
	DB	0ffH
	DB	0ffH
	DB	0ffH
	DB	0ffH
	DB	0ffH
	DB	0ffH
	DB	0ffH
	DB	0ffH
	DB	0ffH
	DB	0ffH
	DB	0ffH
	DB	0ffH
	DB	0ffH
	DB	0ffH
	DB	0ffH
	DB	0ffH
	DB	0ffH
	DB	0ffH
	DB	0ffH
	DB	0ffH
	DB	0ffH
	DB	0ffH
	DB	0ffH
	DB	0ffH
	DB	0ffH
	DB	0ffH
	DB	0ffH
	DB	0ffH
	DB	0ffH
	DB	0ffH
	DB	0ffH
	DB	0ffH
	DB	0ffH
	DB	0ffH
	DB	0ffH
	DB	0ffH
	DB	0ffH
	DB	0ffH
	DB	0ffH
	DB	0ffH
	DB	0ffH
	DB	0ffH
	DB	0ffH
	DB	0ffH
	DB	0ffH
	DB	0ffH
	DB	0ffH
	DB	0ffH
	DB	0ffH
	DB	0ffH
	DB	0ffH
	DB	0ffH
	DB	0ffH
	DB	0ffH
	DB	0ffH
	DB	0ffH
	DB	0ffH
	DB	05dH
	DB	0efH
	DB	092H
	DB	094H
	DB	051H
	DB	08cH
	DB	051H
	DB	08cH
	DB	051H
	DB	08cH
	DB	051H
	DB	08cH
	DB	051H
	DB	08cH
	DB	051H
	DB	08cH
	DB	051H
	DB	08cH
	DB	051H
	DB	08cH
	DB	051H
	DB	08cH
	DB	051H
	DB	08cH
	DB	071H
	DB	08cH
	DB	0b3H
	DB	094H
	DB	055H
	DB	0adH
	DB	018H
	DB	0c6H
	DB	03cH
	DB	0e7H
	DB	0ffH
	DB	0ffH
	DB	0ffH
	DB	0ffH
	DB	0ffH
	DB	0ffH
	DB	0ffH
	DB	0ffH
	DB	0ffH
	DB	0ffH
	DB	0ffH
	DB	0ffH
	DB	0ffH
	DB	0ffH
	DB	0ffH
	DB	0ffH
	DB	0ffH
	DB	0ffH
	DB	0ffH
	DB	0ffH
	DB	0ffH
	DB	0ffH
	DB	0ffH
	DB	0ffH
	DB	0ffH
	DB	0ffH
	DB	0ffH
	DB	0ffH
	DB	0ffH
	DB	0ffH
	DB	0ffH
	DB	0ffH
	DB	0ffH
	DB	0ffH
	DB	0ffH
	DB	0ffH
	DB	0ffH
	DB	0ffH
	DB	0ffH
	DB	0ffH
	DB	0ffH
	DB	0ffH
	DB	0ffH
	DB	0ffH
	DB	0ffH
	DB	0ffH
	DB	075H
	DB	0adH
	DB	06aH
	DB	04aH
	DB	08eH
	DB	06bH
	DB	0beH
	DB	0f7H
	DB	0ffH
	DB	0ffH
	DB	0ffH
	DB	0ffH
	DB	0ffH
	DB	0ffH
	DB	0ffH
	DB	0ffH
	DB	0ffH
	DB	0ffH
	DB	0ffH
	DB	0ffH
	DB	0ffH
	DB	0ffH
	DB	0ffH
	DB	0ffH
	DB	0cfH
	DB	073H
	DB	086H
	DB	029H
	DB	086H
	DB	029H
	DB	086H
	DB	029H
	DB	086H
	DB	029H
	DB	086H
	DB	029H
	DB	086H
	DB	029H
	DB	086H
	DB	029H
	DB	086H
	DB	029H
	DB	086H
	DB	029H
	DB	086H
	DB	029H
	DB	086H
	DB	029H
	DB	086H
	DB	029H
	DB	086H
	DB	029H
	DB	086H
	DB	029H
	DB	086H
	DB	029H
	DB	086H
	DB	029H
	DB	08H
	DB	03aH
	DB	08eH
	DB	073H
	DB	096H
	DB	0b5H
	DB	0beH
	DB	0f7H
	DB	0ffH
	DB	0ffH
	DB	0ffH
	DB	0ffH
	DB	0ffH
	DB	0ffH
	DB	0ffH
	DB	0ffH
	DB	0ffH
	DB	0ffH
	DB	0ffH
	DB	0ffH
	DB	0ffH
	DB	0ffH
	DB	0ffH
	DB	0ffH
	DB	0ffH
	DB	0ffH
	DB	0ffH
	DB	0ffH
	DB	0ffH
	DB	0ffH
	DB	0ffH
	DB	0ffH
	DB	0ffH
	DB	0ffH
	DB	0ffH
	DB	0ffH
	DB	0ffH
	DB	0ffH
	DB	0ffH
	DB	0ffH
	DB	0ffH
	DB	0ffH
	DB	05dH
	DB	0efH
	DB	02dH
	DB	063H
	DB	086H
	DB	029H
	DB	086H
	DB	029H
	DB	086H
	DB	029H
	DB	08eH
	DB	073H
	DB	0ffH
	DB	0ffH
	DB	0ffH
	DB	0ffH
	DB	0ffH
	DB	0ffH
	DB	0ffH
	DB	0ffH
	DB	0ffH
	DB	0ffH
	DB	0ffH
	DB	0ffH
	DB	0ffH
	DB	0ffH
	DB	0ffH
	DB	0ffH
	DB	04dH
	DB	063H
	DB	086H
	DB	029H
	DB	086H
	DB	029H
	DB	086H
	DB	029H
	DB	086H
	DB	029H
	DB	086H
	DB	029H
	DB	086H
	DB	029H
	DB	086H
	DB	029H
	DB	086H
	DB	029H
	DB	086H
	DB	029H
	DB	086H
	DB	029H
	DB	086H
	DB	029H
	DB	086H
	DB	029H
	DB	086H
	DB	029H
	DB	086H
	DB	029H
	DB	086H
	DB	029H
	DB	086H
	DB	029H
	DB	086H
	DB	029H
	DB	086H
	DB	029H
	DB	086H
	DB	029H
	DB	0c7H
	DB	039H
	DB	071H
	DB	08cH
	DB	07dH
	DB	0efH
	DB	0ffH
	DB	0ffH
	DB	0ffH
	DB	0ffH
	DB	0ffH
	DB	0ffH
	DB	0ffH
	DB	0ffH
	DB	0ffH
	DB	0ffH
	DB	0ffH
	DB	0ffH
	DB	0ffH
	DB	0ffH
	DB	0ffH
	DB	0ffH
	DB	0ffH
	DB	0ffH
	DB	0ffH
	DB	0ffH
	DB	0ffH
	DB	0ffH
	DB	0ffH
	DB	0ffH
	DB	0ffH
	DB	0ffH
	DB	0ffH
	DB	0ffH
	DB	0baH
	DB	0d6H
	DB	029H
	DB	042H
	DB	086H
	DB	029H
	DB	086H
	DB	029H
	DB	086H
	DB	029H
	DB	086H
	DB	029H
	DB	086H
	DB	029H
	DB	0d7H
	DB	0bdH
	DB	0ffH
	DB	0ffH
	DB	0ffH
	DB	0ffH
	DB	0ffH
	DB	0ffH
	DB	0ffH
	DB	0ffH
	DB	0ffH
	DB	0ffH
	DB	0ffH
	DB	0ffH
	DB	0ffH
	DB	0ffH
	DB	04dH
	DB	063H
	DB	086H
	DB	029H
	DB	086H
	DB	029H
	DB	086H
	DB	029H
	DB	086H
	DB	029H
	DB	086H
	DB	029H
	DB	086H
	DB	029H
	DB	086H
	DB	029H
	DB	086H
	DB	029H
	DB	086H
	DB	029H
	DB	086H
	DB	029H
	DB	086H
	DB	029H
	DB	086H
	DB	029H
	DB	086H
	DB	029H
	DB	086H
	DB	029H
	DB	086H
	DB	029H
	DB	086H
	DB	029H
	DB	086H
	DB	029H
	DB	086H
	DB	029H
	DB	086H
	DB	029H
	DB	086H
	DB	029H
	DB	086H
	DB	029H
	DB	0e8H
	DB	039H
	DB	076H
	DB	0adH
	DB	0ffH
	DB	0ffH
	DB	0ffH
	DB	0ffH
	DB	0ffH
	DB	0ffH
	DB	0ffH
	DB	0ffH
	DB	0ffH
	DB	0ffH
	DB	0ffH
	DB	0ffH
	DB	0ffH
	DB	0ffH
	DB	0ffH
	DB	0ffH
	DB	0ffH
	DB	0ffH
	DB	0ffH
	DB	0ffH
	DB	0ffH
	DB	0ffH
	DB	0ffH
	DB	0ffH
	DB	09aH
	DB	0d6H
	DB	0e8H
	DB	039H
	DB	086H
	DB	029H
	DB	086H
	DB	029H
	DB	086H
	DB	029H
	DB	086H
	DB	029H
	DB	086H
	DB	029H
	DB	086H
	DB	029H
	DB	08H
	DB	042H
	DB	09eH
	DB	0f7H
	DB	0ffH
	DB	0ffH
	DB	0ffH
	DB	0ffH
	DB	0ffH
	DB	0ffH
	DB	0ffH
	DB	0ffH
	DB	0ffH
	DB	0ffH
	DB	0ffH
	DB	0ffH
	DB	04dH
	DB	063H
	DB	086H
	DB	029H
	DB	086H
	DB	029H
	DB	086H
	DB	029H
	DB	086H
	DB	029H
	DB	086H
	DB	029H
	DB	086H
	DB	029H
	DB	086H
	DB	029H
	DB	086H
	DB	029H
	DB	086H
	DB	029H
	DB	086H
	DB	029H
	DB	086H
	DB	029H
	DB	086H
	DB	029H
	DB	086H
	DB	029H
	DB	086H
	DB	029H
	DB	086H
	DB	029H
	DB	086H
	DB	029H
	DB	086H
	DB	029H
	DB	086H
	DB	029H
	DB	086H
	DB	029H
	DB	086H
	DB	029H
	DB	086H
	DB	029H
	DB	086H
	DB	029H
	DB	086H
	DB	029H
	DB	0f0H
	DB	07bH
	DB	0dfH
	DB	0ffH
	DB	0ffH
	DB	0ffH
	DB	0ffH
	DB	0ffH
	DB	0ffH
	DB	0ffH
	DB	0ffH
	DB	0ffH
	DB	0ffH
	DB	0ffH
	DB	0ffH
	DB	0ffH
	DB	0ffH
	DB	0ffH
	DB	0ffH
	DB	0ffH
	DB	0ffH
	DB	0ffH
	DB	0fbH
	DB	0deH
	DB	0e8H
	DB	039H
	DB	086H
	DB	029H
	DB	086H
	DB	029H
	DB	086H
	DB	029H
	DB	086H
	DB	029H
	DB	086H
	DB	029H
	DB	086H
	DB	029H
	DB	086H
	DB	029H
	DB	086H
	DB	029H
	DB	0f0H
	DB	07bH
	DB	0ffH
	DB	0ffH
	DB	0ffH
	DB	0ffH
	DB	0ffH
	DB	0ffH
	DB	0ffH
	DB	0ffH
	DB	0ffH
	DB	0ffH
	DB	0ffH
	DB	0ffH
	DB	04dH
	DB	063H
	DB	086H
	DB	029H
	DB	086H
	DB	029H
	DB	086H
	DB	029H
	DB	086H
	DB	029H
	DB	086H
	DB	029H
	DB	086H
	DB	029H
	DB	086H
	DB	029H
	DB	086H
	DB	029H
	DB	086H
	DB	029H
	DB	086H
	DB	029H
	DB	086H
	DB	029H
	DB	086H
	DB	029H
	DB	086H
	DB	029H
	DB	086H
	DB	029H
	DB	086H
	DB	029H
	DB	086H
	DB	029H
	DB	086H
	DB	029H
	DB	086H
	DB	029H
	DB	086H
	DB	029H
	DB	086H
	DB	029H
	DB	086H
	DB	029H
	DB	086H
	DB	029H
	DB	086H
	DB	029H
	DB	086H
	DB	029H
	DB	08eH
	DB	073H
	DB	0ffH
	DB	0ffH
	DB	0ffH
	DB	0ffH
	DB	0ffH
	DB	0ffH
	DB	0ffH
	DB	0ffH
	DB	0ffH
	DB	0ffH
	DB	0ffH
	DB	0ffH
	DB	0ffH
	DB	0ffH
	DB	0ffH
	DB	0ffH
	DB	0beH
	DB	0f7H
	DB	08aH
	DB	052H
	DB	086H
	DB	029H
	DB	086H
	DB	029H
	DB	086H
	DB	029H
	DB	086H
	DB	029H
	DB	086H
	DB	029H
	DB	086H
	DB	029H
	DB	086H
	DB	029H
	DB	086H
	DB	029H
	DB	086H
	DB	029H
	DB	086H
	DB	029H
	DB	079H
	DB	0ceH
	DB	0ffH
	DB	0ffH
	DB	0ffH
	DB	0ffH
	DB	0ffH
	DB	0ffH
	DB	0ffH
	DB	0ffH
	DB	0ffH
	DB	0ffH
	DB	04dH
	DB	063H
	DB	086H
	DB	029H
	DB	086H
	DB	029H
	DB	086H
	DB	029H
	DB	086H
	DB	029H
	DB	086H
	DB	029H
	DB	086H
	DB	029H
	DB	086H
	DB	029H
	DB	086H
	DB	029H
	DB	086H
	DB	029H
	DB	086H
	DB	029H
	DB	086H
	DB	029H
	DB	086H
	DB	029H
	DB	086H
	DB	029H
	DB	086H
	DB	029H
	DB	086H
	DB	029H
	DB	086H
	DB	029H
	DB	086H
	DB	029H
	DB	086H
	DB	029H
	DB	086H
	DB	029H
	DB	086H
	DB	029H
	DB	086H
	DB	029H
	DB	086H
	DB	029H
	DB	086H
	DB	029H
	DB	086H
	DB	029H
	DB	086H
	DB	029H
	DB	072H
	DB	08cH
	DB	0ffH
	DB	0ffH
	DB	0ffH
	DB	0ffH
	DB	0ffH
	DB	0ffH
	DB	0ffH
	DB	0ffH
	DB	0ffH
	DB	0ffH
	DB	0ffH
	DB	0ffH
	DB	0ffH
	DB	0ffH
	DB	092H
	DB	08cH
	DB	086H
	DB	029H
	DB	086H
	DB	029H
	DB	086H
	DB	029H
	DB	086H
	DB	029H
	DB	086H
	DB	029H
	DB	086H
	DB	029H
	DB	086H
	DB	029H
	DB	086H
	DB	029H
	DB	086H
	DB	029H
	DB	086H
	DB	029H
	DB	086H
	DB	029H
	DB	010H
	DB	084H
	DB	0ffH
	DB	0ffH
	DB	0ffH
	DB	0ffH
	DB	0ffH
	DB	0ffH
	DB	0ffH
	DB	0ffH
	DB	0ffH
	DB	0ffH
	DB	04dH
	DB	063H
	DB	086H
	DB	029H
	DB	086H
	DB	029H
	DB	086H
	DB	029H
	DB	086H
	DB	029H
	DB	086H
	DB	029H
	DB	086H
	DB	029H
	DB	086H
	DB	029H
	DB	086H
	DB	029H
	DB	086H
	DB	029H
	DB	086H
	DB	029H
	DB	086H
	DB	029H
	DB	086H
	DB	029H
	DB	086H
	DB	029H
	DB	086H
	DB	029H
	DB	086H
	DB	029H
	DB	086H
	DB	029H
	DB	086H
	DB	029H
	DB	086H
	DB	029H
	DB	086H
	DB	029H
	DB	086H
	DB	029H
	DB	086H
	DB	029H
	DB	086H
	DB	029H
	DB	086H
	DB	029H
	DB	086H
	DB	029H
	DB	086H
	DB	029H
	DB	086H
	DB	031H
	DB	059H
	DB	0ceH
	DB	0ffH
	DB	0ffH
	DB	0ffH
	DB	0ffH
	DB	0ffH
	DB	0ffH
	DB	0ffH
	DB	0ffH
	DB	0ffH
	DB	0ffH
	DB	01cH
	DB	0e7H
	DB	0a7H
	DB	031H
	DB	086H
	DB	029H
	DB	086H
	DB	029H
	DB	086H
	DB	029H
	DB	086H
	DB	029H
	DB	086H
	DB	029H
	DB	086H
	DB	029H
	DB	086H
	DB	029H
	DB	086H
	DB	029H
	DB	086H
	DB	029H
	DB	086H
	DB	029H
	DB	086H
	DB	029H
	DB	075H
	DB	0adH
	DB	0ffH
	DB	0ffH
	DB	0ffH
	DB	0ffH
	DB	0ffH
	DB	0ffH
	DB	0ffH
	DB	0ffH
	DB	0ffH
	DB	0ffH
	DB	04dH
	DB	063H
	DB	086H
	DB	029H
	DB	086H
	DB	029H
	DB	086H
	DB	029H
	DB	086H
	DB	029H
	DB	086H
	DB	029H
	DB	086H
	DB	029H
	DB	086H
	DB	029H
	DB	086H
	DB	029H
	DB	086H
	DB	029H
	DB	086H
	DB	029H
	DB	086H
	DB	029H
	DB	086H
	DB	029H
	DB	086H
	DB	029H
	DB	086H
	DB	029H
	DB	086H
	DB	029H
	DB	086H
	DB	029H
	DB	086H
	DB	029H
	DB	086H
	DB	029H
	DB	086H
	DB	029H
	DB	086H
	DB	029H
	DB	086H
	DB	029H
	DB	086H
	DB	029H
	DB	086H
	DB	029H
	DB	086H
	DB	029H
	DB	086H
	DB	029H
	DB	086H
	DB	029H
	DB	08aH
	DB	052H
	DB	0ffH
	DB	0ffH
	DB	0ffH
	DB	0ffH
	DB	0ffH
	DB	0ffH
	DB	0ffH
	DB	0ffH
	DB	0ffH
	DB	0ffH
	DB	030H
	DB	084H
	DB	086H
	DB	029H
	DB	086H
	DB	029H
	DB	086H
	DB	029H
	DB	086H
	DB	029H
	DB	086H
	DB	029H
	DB	086H
	DB	029H
	DB	086H
	DB	029H
	DB	086H
	DB	029H
	DB	086H
	DB	029H
	DB	086H
	DB	029H
	DB	0a7H
	DB	031H
	DB	035H
	DB	0a5H
	DB	0ffH
	DB	0ffH
	DB	0ffH
	DB	0ffH
	DB	0ffH
	DB	0ffH
	DB	0ffH
	DB	0ffH
	DB	0ffH
	DB	0ffH
	DB	0ffH
	DB	0ffH
	DB	04dH
	DB	063H
	DB	086H
	DB	029H
	DB	086H
	DB	029H
	DB	086H
	DB	029H
	DB	086H
	DB	029H
	DB	086H
	DB	029H
	DB	086H
	DB	029H
	DB	086H
	DB	029H
	DB	086H
	DB	029H
	DB	086H
	DB	029H
	DB	086H
	DB	029H
	DB	086H
	DB	029H
	DB	086H
	DB	029H
	DB	086H
	DB	029H
	DB	086H
	DB	029H
	DB	086H
	DB	029H
	DB	086H
	DB	029H
	DB	086H
	DB	029H
	DB	086H
	DB	029H
	DB	086H
	DB	029H
	DB	086H
	DB	029H
	DB	086H
	DB	029H
	DB	086H
	DB	029H
	DB	086H
	DB	029H
	DB	086H
	DB	029H
	DB	086H
	DB	029H
	DB	086H
	DB	029H
	DB	086H
	DB	029H
	DB	0d7H
	DB	0bdH
	DB	0ffH
	DB	0ffH
	DB	0ffH
	DB	0ffH
	DB	0ffH
	DB	0ffH
	DB	09eH
	DB	0f7H
	DB	0c7H
	DB	031H
	DB	086H
	DB	029H
	DB	086H
	DB	029H
	DB	086H
	DB	029H
	DB	086H
	DB	029H
	DB	086H
	DB	029H
	DB	086H
	DB	029H
	DB	086H
	DB	029H
	DB	086H
	DB	029H
	DB	086H
	DB	029H
	DB	0e8H
	DB	039H
	DB	059H
	DB	0c6H
	DB	0ffH
	DB	0ffH
	DB	0ffH
	DB	0ffH
	DB	0ffH
	DB	0ffH
	DB	0ffH
	DB	0ffH
	DB	0ffH
	DB	0ffH
	DB	0ffH
	DB	0ffH
	DB	0ffH
	DB	0ffH
	DB	04dH
	DB	063H
	DB	086H
	DB	029H
	DB	086H
	DB	029H
	DB	086H
	DB	029H
	DB	086H
	DB	029H
	DB	086H
	DB	029H
	DB	086H
	DB	029H
	DB	086H
	DB	029H
	DB	086H
	DB	029H
	DB	08eH
	DB	06bH
	DB	0b7H
	DB	0b5H
	DB	096H
	DB	0b5H
	DB	055H
	DB	0adH
	DB	0b3H
	DB	094H
	DB	0afH
	DB	073H
	DB	029H
	DB	042H
	DB	086H
	DB	029H
	DB	086H
	DB	029H
	DB	086H
	DB	029H
	DB	086H
	DB	029H
	DB	086H
	DB	029H
	DB	086H
	DB	029H
	DB	086H
	DB	029H
	DB	086H
	DB	029H
	DB	086H
	DB	029H
	DB	086H
	DB	029H
	DB	086H
	DB	029H
	DB	086H
	DB	029H
	DB	02dH
	DB	063H
	DB	0ffH
	DB	0ffH
	DB	0ffH
	DB	0ffH
	DB	0ffH
	DB	0ffH
	DB	0d7H
	DB	0bdH
	DB	086H
	DB	029H
	DB	086H
	DB	029H
	DB	086H
	DB	029H
	DB	086H
	DB	029H
	DB	086H
	DB	029H
	DB	086H
	DB	029H
	DB	086H
	DB	029H
	DB	086H
	DB	029H
	DB	086H
	DB	029H
	DB	0c7H
	DB	039H
	DB	0baH
	DB	0d6H
	DB	0ffH
	DB	0ffH
	DB	0ffH
	DB	0ffH
	DB	0ffH
	DB	0ffH
	DB	0ffH
	DB	0ffH
	DB	0ffH
	DB	0ffH
	DB	0ffH
	DB	0ffH
	DB	0ffH
	DB	0ffH
	DB	0ffH
	DB	0ffH
	DB	04dH
	DB	063H
	DB	086H
	DB	029H
	DB	086H
	DB	029H
	DB	086H
	DB	029H
	DB	086H
	DB	029H
	DB	086H
	DB	029H
	DB	086H
	DB	029H
	DB	086H
	DB	029H
	DB	086H
	DB	029H
	DB	092H
	DB	094H
	DB	0ffH
	DB	0ffH
	DB	0ffH
	DB	0ffH
	DB	0ffH
	DB	0ffH
	DB	0ffH
	DB	0ffH
	DB	0ffH
	DB	0ffH
	DB	0ffH
	DB	0ffH
	DB	09aH
	DB	0d6H
	DB	0afH
	DB	073H
	DB	086H
	DB	029H
	DB	086H
	DB	029H
	DB	086H
	DB	029H
	DB	086H
	DB	029H
	DB	086H
	DB	029H
	DB	086H
	DB	029H
	DB	086H
	DB	029H
	DB	086H
	DB	029H
	DB	086H
	DB	029H
	DB	086H
	DB	029H
	DB	086H
	DB	031H
	DB	05dH
	DB	0efH
	DB	0ffH
	DB	0ffH
	DB	0ffH
	DB	0ffH
	DB	010H
	DB	084H
	DB	086H
	DB	029H
	DB	086H
	DB	029H
	DB	086H
	DB	029H
	DB	086H
	DB	029H
	DB	086H
	DB	029H
	DB	086H
	DB	029H
	DB	086H
	DB	029H
	DB	086H
	DB	029H
	DB	086H
	DB	029H
	DB	0d7H
	DB	0bdH
	DB	0ffH
	DB	0ffH
	DB	0ffH
	DB	0ffH
	DB	0ffH
	DB	0ffH
	DB	0ffH
	DB	0ffH
	DB	0ffH
	DB	0ffH
	DB	0ffH
	DB	0ffH
	DB	0ffH
	DB	0ffH
	DB	0ffH
	DB	0ffH
	DB	0ffH
	DB	0ffH
	DB	04dH
	DB	063H
	DB	086H
	DB	029H
	DB	086H
	DB	029H
	DB	086H
	DB	029H
	DB	086H
	DB	029H
	DB	086H
	DB	029H
	DB	086H
	DB	029H
	DB	086H
	DB	029H
	DB	086H
	DB	029H
	DB	092H
	DB	094H
	DB	0ffH
	DB	0ffH
	DB	0ffH
	DB	0ffH
	DB	0ffH
	DB	0ffH
	DB	0ffH
	DB	0ffH
	DB	0ffH
	DB	0ffH
	DB	0ffH
	DB	0ffH
	DB	0ffH
	DB	0ffH
	DB	0ffH
	DB	0ffH
	DB	0d7H
	DB	0bdH
	DB	0a7H
	DB	031H
	DB	086H
	DB	029H
	DB	086H
	DB	029H
	DB	086H
	DB	029H
	DB	086H
	DB	029H
	DB	086H
	DB	029H
	DB	086H
	DB	029H
	DB	086H
	DB	029H
	DB	086H
	DB	029H
	DB	086H
	DB	029H
	DB	0b6H
	DB	0b5H
	DB	0ffH
	DB	0ffH
	DB	0ffH
	DB	0ffH
	DB	08aH
	DB	04aH
	DB	086H
	DB	029H
	DB	086H
	DB	029H
	DB	086H
	DB	029H
	DB	086H
	DB	029H
	DB	086H
	DB	029H
	DB	086H
	DB	029H
	DB	086H
	DB	029H
	DB	086H
	DB	029H
	DB	02cH
	DB	063H
	DB	0ffH
	DB	0ffH
	DB	0ffH
	DB	0ffH
	DB	0ffH
	DB	0ffH
	DB	0ffH
	DB	0ffH
	DB	0ffH
	DB	0ffH
	DB	0ffH
	DB	0ffH
	DB	0ffH
	DB	0ffH
	DB	0ffH
	DB	0ffH
	DB	0ffH
	DB	0ffH
	DB	0ffH
	DB	0ffH
	DB	04dH
	DB	063H
	DB	086H
	DB	029H
	DB	086H
	DB	029H
	DB	086H
	DB	029H
	DB	086H
	DB	029H
	DB	086H
	DB	029H
	DB	086H
	DB	029H
	DB	086H
	DB	029H
	DB	086H
	DB	029H
	DB	092H
	DB	094H
	DB	0ffH
	DB	0ffH
	DB	0ffH
	DB	0ffH
	DB	0ffH
	DB	0ffH
	DB	0ffH
	DB	0ffH
	DB	0ffH
	DB	0ffH
	DB	0ffH
	DB	0ffH
	DB	0ffH
	DB	0ffH
	DB	0ffH
	DB	0ffH
	DB	0ffH
	DB	0ffH
	DB	096H
	DB	0b5H
	DB	086H
	DB	029H
	DB	086H
	DB	029H
	DB	086H
	DB	029H
	DB	086H
	DB	029H
	DB	086H
	DB	029H
	DB	086H
	DB	029H
	DB	086H
	DB	029H
	DB	086H
	DB	029H
	DB	086H
	DB	029H
	DB	031H
	DB	084H
	DB	0ffH
	DB	0ffH
	DB	0dfH
	DB	0ffH
	DB	0a7H
	DB	031H
	DB	086H
	DB	029H
	DB	086H
	DB	029H
	DB	086H
	DB	029H
	DB	086H
	DB	029H
	DB	086H
	DB	029H
	DB	086H
	DB	029H
	DB	086H
	DB	029H
	DB	086H
	DB	029H
	DB	0b6H
	DB	0b5H
	DB	0ffH
	DB	0ffH
	DB	0ffH
	DB	0ffH
	DB	0ffH
	DB	0ffH
	DB	0ffH
	DB	0ffH
	DB	0ffH
	DB	0ffH
	DB	0ffH
	DB	0ffH
	DB	0ffH
	DB	0ffH
	DB	0ffH
	DB	0ffH
	DB	0ffH
	DB	0ffH
	DB	0ffH
	DB	0ffH
	DB	04dH
	DB	063H
	DB	086H
	DB	029H
	DB	086H
	DB	029H
	DB	086H
	DB	029H
	DB	086H
	DB	029H
	DB	086H
	DB	029H
	DB	086H
	DB	029H
	DB	086H
	DB	029H
	DB	086H
	DB	029H
	DB	092H
	DB	094H
	DB	0ffH
	DB	0ffH
	DB	0ffH
	DB	0ffH
	DB	0ffH
	DB	0ffH
	DB	0ffH
	DB	0ffH
	DB	0ffH
	DB	0ffH
	DB	0ffH
	DB	0ffH
	DB	0ffH
	DB	0ffH
	DB	0ffH
	DB	0ffH
	DB	0ffH
	DB	0ffH
	DB	0ffH
	DB	0ffH
	DB	0ebH
	DB	05aH
	DB	086H
	DB	029H
	DB	086H
	DB	029H
	DB	086H
	DB	029H
	DB	086H
	DB	029H
	DB	086H
	DB	029H
	DB	086H
	DB	029H
	DB	086H
	DB	029H
	DB	086H
	DB	029H
	DB	02dH
	DB	063H
	DB	0ffH
	DB	0ffH
	DB	03cH
	DB	0e7H
	DB	086H
	DB	029H
	DB	086H
	DB	029H
	DB	086H
	DB	029H
	DB	086H
	DB	029H
	DB	086H
	DB	029H
	DB	086H
	DB	029H
	DB	086H
	DB	029H
	DB	086H
	DB	029H
	DB	086H
	DB	031H
	DB	07dH
	DB	0efH
	DB	0ffH
	DB	0ffH
	DB	0ffH
	DB	0ffH
	DB	0ffH
	DB	0ffH
	DB	0ffH
	DB	0ffH
	DB	0ffH
	DB	0ffH
	DB	0ffH
	DB	0ffH
	DB	0ffH
	DB	0ffH
	DB	0ffH
	DB	0ffH
	DB	0ffH
	DB	0ffH
	DB	0ffH
	DB	0ffH
	DB	04dH
	DB	063H
	DB	086H
	DB	029H
	DB	086H
	DB	029H
	DB	086H
	DB	029H
	DB	086H
	DB	029H
	DB	086H
	DB	029H
	DB	086H
	DB	029H
	DB	086H
	DB	029H
	DB	086H
	DB	029H
	DB	092H
	DB	094H
	DB	0ffH
	DB	0ffH
	DB	0ffH
	DB	0ffH
	DB	0ffH
	DB	0ffH
	DB	0ffH
	DB	0ffH
	DB	0ffH
	DB	0ffH
	DB	0ffH
	DB	0ffH
	DB	0ffH
	DB	0ffH
	DB	0ffH
	DB	0ffH
	DB	0ffH
	DB	0ffH
	DB	0ffH
	DB	0ffH
	DB	055H
	DB	0adH
	DB	086H
	DB	029H
	DB	086H
	DB	029H
	DB	086H
	DB	029H
	DB	086H
	DB	029H
	DB	086H
	DB	029H
	DB	086H
	DB	029H
	DB	086H
	DB	029H
	DB	086H
	DB	029H
	DB	049H
	DB	04aH
	DB	0ffH
	DB	0ffH
	DB	0baH
	DB	0d6H
	DB	086H
	DB	029H
	DB	086H
	DB	029H
	DB	086H
	DB	029H
	DB	086H
	DB	029H
	DB	086H
	DB	029H
	DB	086H
	DB	029H
	DB	086H
	DB	029H
	DB	086H
	DB	029H
	DB	0e8H
	DB	039H
	DB	0ffH
	DB	0ffH
	DB	0ffH
	DB	0ffH
	DB	0ffH
	DB	0ffH
	DB	0ffH
	DB	0ffH
	DB	0ffH
	DB	0ffH
	DB	0ffH
	DB	0ffH
	DB	0ffH
	DB	0ffH
	DB	0ffH
	DB	0ffH
	DB	0ffH
	DB	0ffH
	DB	0ffH
	DB	0ffH
	DB	0ffH
	DB	0ffH
	DB	04dH
	DB	063H
	DB	086H
	DB	029H
	DB	086H
	DB	029H
	DB	086H
	DB	029H
	DB	086H
	DB	029H
	DB	086H
	DB	029H
	DB	086H
	DB	029H
	DB	086H
	DB	029H
	DB	086H
	DB	029H
	DB	092H
	DB	094H
	DB	0ffH
	DB	0ffH
	DB	0ffH
	DB	0ffH
	DB	0ffH
	DB	0ffH
	DB	0ffH
	DB	0ffH
	DB	0ffH
	DB	0ffH
	DB	0ffH
	DB	0ffH
	DB	0ffH
	DB	0ffH
	DB	0ffH
	DB	0ffH
	DB	0ffH
	DB	0ffH
	DB	0ffH
	DB	0ffH
	DB	0bbH
	DB	0d6H
	DB	086H
	DB	029H
	DB	086H
	DB	029H
	DB	086H
	DB	029H
	DB	086H
	DB	029H
	DB	086H
	DB	029H
	DB	086H
	DB	029H
	DB	086H
	DB	029H
	DB	086H
	DB	029H
	DB	0c7H
	DB	031H
	DB	0ffH
	DB	0ffH
	DB	079H
	DB	0ceH
	DB	086H
	DB	029H
	DB	086H
	DB	029H
	DB	086H
	DB	029H
	DB	086H
	DB	029H
	DB	086H
	DB	029H
	DB	086H
	DB	029H
	DB	086H
	DB	029H
	DB	086H
	DB	029H
	DB	08aH
	DB	04aH
	DB	0ffH
	DB	0ffH
	DB	0ffH
	DB	0ffH
	DB	0ffH
	DB	0ffH
	DB	0ffH
	DB	0ffH
	DB	0ffH
	DB	0ffH
	DB	0ffH
	DB	0ffH
	DB	0ffH
	DB	0ffH
	DB	0ffH
	DB	0ffH
	DB	0ffH
	DB	0ffH
	DB	0ffH
	DB	0ffH
	DB	0ffH
	DB	0ffH
	DB	04dH
	DB	063H
	DB	086H
	DB	029H
	DB	086H
	DB	029H
	DB	086H
	DB	029H
	DB	086H
	DB	029H
	DB	086H
	DB	029H
	DB	086H
	DB	029H
	DB	086H
	DB	029H
	DB	086H
	DB	029H
	DB	0b2H
	DB	094H
	DB	0ffH
	DB	0ffH
	DB	0ffH
	DB	0ffH
	DB	0ffH
	DB	0ffH
	DB	0ffH
	DB	0ffH
	DB	0ffH
	DB	0ffH
	DB	0ffH
	DB	0ffH
	DB	0ffH
	DB	0ffH
	DB	0ffH
	DB	0ffH
	DB	0ffH
	DB	0ffH
	DB	0ffH
	DB	0ffH
	DB	07dH
	DB	0efH
	DB	086H
	DB	029H
	DB	086H
	DB	029H
	DB	086H
	DB	029H
	DB	086H
	DB	029H
	DB	086H
	DB	029H
	DB	086H
	DB	029H
	DB	086H
	DB	029H
	DB	086H
	DB	029H
	DB	086H
	DB	029H
	DB	0ffH
	DB	0ffH
	DB	079H
	DB	0ceH
	DB	086H
	DB	029H
	DB	086H
	DB	029H
	DB	086H
	DB	029H
	DB	086H
	DB	029H
	DB	086H
	DB	029H
	DB	086H
	DB	029H
	DB	086H
	DB	029H
	DB	086H
	DB	029H
	DB	08aH
	DB	052H
	DB	0ffH
	DB	0ffH
	DB	0ffH
	DB	0ffH
	DB	0ffH
	DB	0ffH
	DB	0ffH
	DB	0ffH
	DB	0ffH
	DB	0ffH
	DB	0ffH
	DB	0ffH
	DB	0ffH
	DB	0ffH
	DB	0ffH
	DB	0ffH
	DB	0ffH
	DB	0ffH
	DB	0ffH
	DB	0ffH
	DB	0ffH
	DB	0ffH
	DB	0f4H
	DB	09cH
	DB	086H
	DB	029H
	DB	086H
	DB	029H
	DB	086H
	DB	029H
	DB	086H
	DB	029H
	DB	086H
	DB	029H
	DB	086H
	DB	029H
	DB	086H
	DB	029H
	DB	0a7H
	DB	031H
	DB	059H
	DB	0ceH
	DB	0ffH
	DB	0ffH
	DB	0ffH
	DB	0ffH
	DB	0ffH
	DB	0ffH
	DB	0ffH
	DB	0ffH
	DB	0ffH
	DB	0ffH
	DB	0ffH
	DB	0ffH
	DB	0ffH
	DB	0ffH
	DB	0ffH
	DB	0ffH
	DB	0ffH
	DB	0ffH
	DB	0ffH
	DB	0ffH
	DB	09eH
	DB	0f7H
	DB	086H
	DB	029H
	DB	086H
	DB	029H
	DB	086H
	DB	029H
	DB	086H
	DB	029H
	DB	086H
	DB	029H
	DB	086H
	DB	029H
	DB	086H
	DB	029H
	DB	086H
	DB	029H
	DB	086H
	DB	029H
	DB	0ffH
	DB	0ffH
	DB	09aH
	DB	0d6H
	DB	086H
	DB	029H
	DB	086H
	DB	029H
	DB	086H
	DB	029H
	DB	086H
	DB	029H
	DB	086H
	DB	029H
	DB	086H
	DB	029H
	DB	086H
	DB	029H
	DB	086H
	DB	029H
	DB	029H
	DB	042H
	DB	0ffH
	DB	0ffH
	DB	0ffH
	DB	0ffH
	DB	0ffH
	DB	0ffH
	DB	0ffH
	DB	0ffH
	DB	0ffH
	DB	0ffH
	DB	0ffH
	DB	0ffH
	DB	0ffH
	DB	0ffH
	DB	0ffH
	DB	0ffH
	DB	0ffH
	DB	0ffH
	DB	0ffH
	DB	0ffH
	DB	0ffH
	DB	0ffH
	DB	0ffH
	DB	0ffH
	DB	01cH
	DB	0e7H
	DB	0dbH
	DB	0deH
	DB	0dbH
	DB	0deH
	DB	0dbH
	DB	0deH
	DB	0dbH
	DB	0deH
	DB	0dbH
	DB	0deH
	DB	0dbH
	DB	0deH
	DB	05dH
	DB	0efH
	DB	0ffH
	DB	0ffH
	DB	0ffH
	DB	0ffH
	DB	0ffH
	DB	0ffH
	DB	0ffH
	DB	0ffH
	DB	0ffH
	DB	0ffH
	DB	0ffH
	DB	0ffH
	DB	0ffH
	DB	0ffH
	DB	0ffH
	DB	0ffH
	DB	0ffH
	DB	0ffH
	DB	0ffH
	DB	0ffH
	DB	0ffH
	DB	0ffH
	DB	03cH
	DB	0e7H
	DB	086H
	DB	029H
	DB	086H
	DB	029H
	DB	086H
	DB	029H
	DB	086H
	DB	029H
	DB	086H
	DB	029H
	DB	086H
	DB	029H
	DB	086H
	DB	029H
	DB	086H
	DB	029H
	DB	086H
	DB	029H
	DB	0ffH
	DB	0ffH
	DB	0fcH
	DB	0deH
	DB	086H
	DB	029H
	DB	086H
	DB	029H
	DB	086H
	DB	029H
	DB	086H
	DB	029H
	DB	086H
	DB	029H
	DB	086H
	DB	029H
	DB	086H
	DB	029H
	DB	086H
	DB	029H
	DB	0a7H
	DB	031H
	DB	0beH
	DB	0f7H
	DB	0ffH
	DB	0ffH
	DB	0ffH
	DB	0ffH
	DB	0ffH
	DB	0ffH
	DB	0ffH
	DB	0ffH
	DB	0ffH
	DB	0ffH
	DB	0ffH
	DB	0ffH
	DB	0ffH
	DB	0ffH
	DB	0ffH
	DB	0ffH
	DB	0ffH
	DB	0ffH
	DB	0ffH
	DB	0ffH
	DB	0ffH
	DB	0ffH
	DB	0ffH
	DB	0ffH
	DB	0ffH
	DB	0ffH
	DB	0ffH
	DB	0ffH
	DB	0ffH
	DB	0ffH
	DB	0ffH
	DB	0ffH
	DB	0ffH
	DB	0ffH
	DB	0ffH
	DB	0ffH
	DB	0ffH
	DB	0ffH
	DB	0ffH
	DB	0ffH
	DB	0ffH
	DB	0ffH
	DB	0ffH
	DB	0ffH
	DB	0ffH
	DB	0ffH
	DB	0ffH
	DB	0ffH
	DB	0ffH
	DB	0ffH
	DB	0ffH
	DB	0ffH
	DB	0ffH
	DB	0ffH
	DB	0ffH
	DB	0ffH
	DB	0ffH
	DB	0ffH
	DB	0ffH
	DB	0ffH
	DB	038H
	DB	0c6H
	DB	086H
	DB	029H
	DB	086H
	DB	029H
	DB	086H
	DB	029H
	DB	086H
	DB	029H
	DB	086H
	DB	029H
	DB	086H
	DB	029H
	DB	086H
	DB	029H
	DB	086H
	DB	029H
	DB	0c7H
	DB	039H
	DB	0ffH
	DB	0ffH
	DB	09eH
	DB	0f7H
	DB	086H
	DB	029H
	DB	086H
	DB	029H
	DB	086H
	DB	029H
	DB	086H
	DB	029H
	DB	086H
	DB	029H
	DB	086H
	DB	029H
	DB	086H
	DB	029H
	DB	086H
	DB	029H
	DB	086H
	DB	029H
	DB	018H
	DB	0c6H
	DB	0ffH
	DB	0ffH
	DB	0ffH
	DB	0ffH
	DB	0ffH
	DB	0ffH
	DB	0ffH
	DB	0ffH
	DB	0ffH
	DB	0ffH
	DB	0ffH
	DB	0ffH
	DB	0ffH
	DB	0ffH
	DB	0ffH
	DB	0ffH
	DB	0ffH
	DB	0ffH
	DB	0ffH
	DB	0ffH
	DB	0ffH
	DB	0ffH
	DB	0ffH
	DB	0ffH
	DB	0ffH
	DB	0ffH
	DB	0ffH
	DB	0ffH
	DB	0ffH
	DB	0ffH
	DB	0ffH
	DB	0ffH
	DB	0ffH
	DB	0ffH
	DB	0ffH
	DB	0ffH
	DB	0ffH
	DB	0ffH
	DB	0ffH
	DB	0ffH
	DB	0ffH
	DB	0ffH
	DB	0ffH
	DB	0ffH
	DB	0ffH
	DB	0ffH
	DB	0ffH
	DB	0ffH
	DB	0ffH
	DB	0ffH
	DB	0ffH
	DB	0ffH
	DB	0ffH
	DB	0ffH
	DB	0ffH
	DB	0ffH
	DB	0ffH
	DB	0ffH
	DB	0ffH
	DB	0ffH
	DB	051H
	DB	084H
	DB	086H
	DB	029H
	DB	086H
	DB	029H
	DB	086H
	DB	029H
	DB	086H
	DB	029H
	DB	086H
	DB	029H
	DB	086H
	DB	029H
	DB	086H
	DB	029H
	DB	086H
	DB	029H
	DB	06aH
	DB	04aH
	DB	0ffH
	DB	0ffH
	DB	0ffH
	DB	0ffH
	DB	0e8H
	DB	039H
	DB	086H
	DB	029H
	DB	086H
	DB	029H
	DB	086H
	DB	029H
	DB	086H
	DB	029H
	DB	086H
	DB	029H
	DB	086H
	DB	029H
	DB	086H
	DB	029H
	DB	086H
	DB	029H
	DB	06dH
	DB	06bH
	DB	0ffH
	DB	0ffH
	DB	0ffH
	DB	0ffH
	DB	0ffH
	DB	0ffH
	DB	0ffH
	DB	0ffH
	DB	0ffH
	DB	0ffH
	DB	0ffH
	DB	0ffH
	DB	0ffH
	DB	0ffH
	DB	0ffH
	DB	0ffH
	DB	0ffH
	DB	0ffH
	DB	0ffH
	DB	0ffH
	DB	0ffH
	DB	0ffH
	DB	0ffH
	DB	0ffH
	DB	0ffH
	DB	0ffH
	DB	0ffH
	DB	0ffH
	DB	0ffH
	DB	0ffH
	DB	0ffH
	DB	0ffH
	DB	0ffH
	DB	0ffH
	DB	0ffH
	DB	0ffH
	DB	0ffH
	DB	0ffH
	DB	0ffH
	DB	0ffH
	DB	0ffH
	DB	0ffH
	DB	0ffH
	DB	0ffH
	DB	0ffH
	DB	0ffH
	DB	0ffH
	DB	0ffH
	DB	0ffH
	DB	0ffH
	DB	0ffH
	DB	0ffH
	DB	0ffH
	DB	0ffH
	DB	0ffH
	DB	0ffH
	DB	0ffH
	DB	0ffH
	DB	05dH
	DB	0efH
	DB	0c7H
	DB	039H
	DB	086H
	DB	029H
	DB	086H
	DB	029H
	DB	086H
	DB	029H
	DB	086H
	DB	029H
	DB	086H
	DB	029H
	DB	086H
	DB	029H
	DB	086H
	DB	029H
	DB	086H
	DB	029H
	DB	04dH
	DB	063H
	DB	0ffH
	DB	0ffH
	DB	0ffH
	DB	0ffH
	DB	02dH
	DB	063H
	DB	086H
	DB	029H
	DB	086H
	DB	029H
	DB	086H
	DB	029H
	DB	086H
	DB	029H
	DB	086H
	DB	029H
	DB	086H
	DB	029H
	DB	086H
	DB	029H
	DB	086H
	DB	029H
	DB	086H
	DB	029H
	DB	096H
	DB	0b5H
	DB	0ffH
	DB	0ffH
	DB	0ffH
	DB	0ffH
	DB	0ffH
	DB	0ffH
	DB	0ffH
	DB	0ffH
	DB	0ffH
	DB	0ffH
	DB	0ffH
	DB	0ffH
	DB	0ffH
	DB	0ffH
	DB	0ffH
	DB	0ffH
	DB	0ffH
	DB	0ffH
	DB	0ffH
	DB	0ffH
	DB	0ffH
	DB	0ffH
	DB	0ffH
	DB	0ffH
	DB	0ffH
	DB	0ffH
	DB	0ffH
	DB	0ffH
	DB	0ffH
	DB	0ffH
	DB	0ffH
	DB	0ffH
	DB	0ffH
	DB	0ffH
	DB	0ffH
	DB	0ffH
	DB	0ffH
	DB	0ffH
	DB	0ffH
	DB	0ffH
	DB	0ffH
	DB	0ffH
	DB	0ffH
	DB	0ffH
	DB	0ffH
	DB	0ffH
	DB	0ffH
	DB	0ffH
	DB	0ffH
	DB	0ffH
	DB	0ffH
	DB	0ffH
	DB	0ffH
	DB	0ffH
	DB	0dfH
	DB	0ffH
	DB	02dH
	DB	063H
	DB	086H
	DB	029H
	DB	086H
	DB	029H
	DB	086H
	DB	029H
	DB	086H
	DB	029H
	DB	086H
	DB	029H
	DB	086H
	DB	029H
	DB	086H
	DB	029H
	DB	086H
	DB	029H
	DB	086H
	DB	029H
	DB	071H
	DB	08cH
	DB	0ffH
	DB	0ffH
	DB	0ffH
	DB	0ffH
	DB	0b3H
	DB	094H
	DB	086H
	DB	029H
	DB	086H
	DB	029H
	DB	086H
	DB	029H
	DB	086H
	DB	029H
	DB	086H
	DB	029H
	DB	086H
	DB	029H
	DB	086H
	DB	029H
	DB	086H
	DB	029H
	DB	086H
	DB	029H
	DB	0a7H
	DB	031H
	DB	014H
	DB	0a5H
	DB	0ffH
	DB	0ffH
	DB	0ffH
	DB	0ffH
	DB	0ffH
	DB	0ffH
	DB	0ffH
	DB	0ffH
	DB	0ffH
	DB	0ffH
	DB	0ffH
	DB	0ffH
	DB	0ffH
	DB	0ffH
	DB	0ffH
	DB	0ffH
	DB	0ffH
	DB	0ffH
	DB	0ffH
	DB	0ffH
	DB	0ffH
	DB	0ffH
	DB	0ffH
	DB	0ffH
	DB	0ffH
	DB	0ffH
	DB	0ffH
	DB	0ffH
	DB	0ffH
	DB	0ffH
	DB	0ffH
	DB	0ffH
	DB	0ffH
	DB	0ffH
	DB	0ffH
	DB	0ffH
	DB	0ffH
	DB	0ffH
	DB	0ffH
	DB	0ffH
	DB	0ffH
	DB	0ffH
	DB	0ffH
	DB	0ffH
	DB	0ffH
	DB	0ffH
	DB	0ffH
	DB	0ffH
	DB	0ffH
	DB	0ffH
	DB	01cH
	DB	0e7H
	DB	0cH
	DB	05bH
	DB	086H
	DB	029H
	DB	086H
	DB	029H
	DB	086H
	DB	029H
	DB	086H
	DB	029H
	DB	086H
	DB	029H
	DB	086H
	DB	029H
	DB	086H
	DB	029H
	DB	086H
	DB	029H
	DB	086H
	DB	029H
	DB	086H
	DB	029H
	DB	0d7H
	DB	0bdH
	DB	0ffH
	DB	0ffH
	DB	0ffH
	DB	0ffH
	DB	09aH
	DB	0d6H
	DB	086H
	DB	029H
	DB	086H
	DB	029H
	DB	086H
	DB	029H
	DB	086H
	DB	029H
	DB	086H
	DB	029H
	DB	086H
	DB	029H
	DB	086H
	DB	029H
	DB	086H
	DB	029H
	DB	086H
	DB	029H
	DB	086H
	DB	029H
	DB	086H
	DB	029H
	DB	08aH
	DB	04aH
	DB	0f4H
	DB	09cH
	DB	0dbH
	DB	0deH
	DB	0dfH
	DB	0ffH
	DB	0ffH
	DB	0ffH
	DB	0ffH
	DB	0ffH
	DB	0ffH
	DB	0ffH
	DB	0ffH
	DB	0ffH
	DB	0ffH
	DB	0ffH
	DB	0ffH
	DB	0ffH
	DB	0ffH
	DB	0ffH
	DB	0ffH
	DB	0ffH
	DB	0ffH
	DB	0ffH
	DB	0ffH
	DB	0ffH
	DB	0ffH
	DB	0ffH
	DB	0ffH
	DB	0ffH
	DB	0ffH
	DB	0ffH
	DB	0ffH
	DB	0ffH
	DB	0ffH
	DB	0ffH
	DB	0ffH
	DB	0ffH
	DB	0ffH
	DB	0ffH
	DB	0ffH
	DB	0ffH
	DB	05dH
	DB	0efH
	DB	0d7H
	DB	0b5H
	DB	0aeH
	DB	073H
	DB	0a7H
	DB	031H
	DB	086H
	DB	029H
	DB	086H
	DB	029H
	DB	086H
	DB	029H
	DB	086H
	DB	029H
	DB	086H
	DB	029H
	DB	086H
	DB	029H
	DB	086H
	DB	029H
	DB	086H
	DB	029H
	DB	086H
	DB	029H
	DB	086H
	DB	029H
	DB	0a7H
	DB	031H
	DB	09eH
	DB	0f7H
	DB	0ffH
	DB	0ffH
	DB	0ffH
	DB	0ffH
	DB	0ffH
	DB	0ffH
	DB	049H
	DB	04aH
	DB	086H
	DB	029H
	DB	086H
	DB	029H
	DB	086H
	DB	029H
	DB	086H
	DB	029H
	DB	086H
	DB	029H
	DB	086H
	DB	029H
	DB	086H
	DB	029H
	DB	086H
	DB	029H
	DB	086H
	DB	029H
	DB	086H
	DB	029H
	DB	086H
	DB	029H
	DB	086H
	DB	029H
	DB	086H
	DB	029H
	DB	0a7H
	DB	031H
	DB	029H
	DB	042H
	DB	08aH
	DB	052H
	DB	0cbH
	DB	05aH
	DB	0cbH
	DB	05aH
	DB	0cbH
	DB	05aH
	DB	0cbH
	DB	05aH
	DB	0cbH
	DB	05aH
	DB	0cbH
	DB	05aH
	DB	0cbH
	DB	05aH
	DB	0cbH
	DB	05aH
	DB	0cbH
	DB	05aH
	DB	0cbH
	DB	05aH
	DB	0cbH
	DB	05aH
	DB	0cbH
	DB	05aH
	DB	0cbH
	DB	05aH
	DB	0abH
	DB	052H
	DB	06aH
	DB	04aH
	DB	0e8H
	DB	039H
	DB	086H
	DB	029H
	DB	086H
	DB	029H
	DB	086H
	DB	029H
	DB	086H
	DB	029H
	DB	086H
	DB	029H
	DB	086H
	DB	029H
	DB	086H
	DB	029H
	DB	086H
	DB	029H
	DB	086H
	DB	029H
	DB	086H
	DB	029H
	DB	086H
	DB	029H
	DB	086H
	DB	029H
	DB	086H
	DB	029H
	DB	086H
	DB	029H
	DB	06eH
	DB	06bH
	DB	0ffH
	DB	0ffH
	DB	0ffH
	DB	0ffH
	DB	0ffH
	DB	0ffH
	DB	0ffH
	DB	0ffH
	DB	014H
	DB	0a5H
	DB	086H
	DB	029H
	DB	086H
	DB	029H
	DB	086H
	DB	029H
	DB	086H
	DB	029H
	DB	086H
	DB	029H
	DB	086H
	DB	029H
	DB	086H
	DB	029H
	DB	086H
	DB	029H
	DB	086H
	DB	029H
	DB	086H
	DB	029H
	DB	086H
	DB	029H
	DB	086H
	DB	029H
	DB	086H
	DB	029H
	DB	086H
	DB	029H
	DB	086H
	DB	029H
	DB	086H
	DB	029H
	DB	086H
	DB	029H
	DB	086H
	DB	029H
	DB	086H
	DB	029H
	DB	086H
	DB	029H
	DB	086H
	DB	029H
	DB	086H
	DB	029H
	DB	086H
	DB	029H
	DB	086H
	DB	029H
	DB	086H
	DB	029H
	DB	086H
	DB	029H
	DB	086H
	DB	029H
	DB	086H
	DB	029H
	DB	086H
	DB	029H
	DB	086H
	DB	029H
	DB	086H
	DB	029H
	DB	086H
	DB	029H
	DB	086H
	DB	029H
	DB	086H
	DB	029H
	DB	086H
	DB	029H
	DB	086H
	DB	029H
	DB	086H
	DB	029H
	DB	086H
	DB	029H
	DB	086H
	DB	029H
	DB	086H
	DB	029H
	DB	086H
	DB	029H
	DB	086H
	DB	029H
	DB	086H
	DB	029H
	DB	086H
	DB	029H
	DB	086H
	DB	029H
	DB	086H
	DB	029H
	DB	038H
	DB	0c6H
	DB	0ffH
	DB	0ffH
	DB	0ffH
	DB	0ffH
	DB	0ffH
	DB	0ffH
	DB	0ffH
	DB	0ffH
	DB	09eH
	DB	0f7H
	DB	08H
	DB	042H
	DB	086H
	DB	029H
	DB	086H
	DB	029H
	DB	086H
	DB	029H
	DB	086H
	DB	029H
	DB	086H
	DB	029H
	DB	086H
	DB	029H
	DB	086H
	DB	029H
	DB	086H
	DB	029H
	DB	086H
	DB	029H
	DB	086H
	DB	029H
	DB	086H
	DB	029H
	DB	086H
	DB	029H
	DB	086H
	DB	029H
	DB	086H
	DB	029H
	DB	086H
	DB	029H
	DB	086H
	DB	029H
	DB	086H
	DB	029H
	DB	086H
	DB	029H
	DB	086H
	DB	029H
	DB	086H
	DB	029H
	DB	086H
	DB	029H
	DB	086H
	DB	029H
	DB	086H
	DB	029H
	DB	086H
	DB	029H
	DB	086H
	DB	029H
	DB	086H
	DB	029H
	DB	086H
	DB	029H
	DB	086H
	DB	029H
	DB	086H
	DB	029H
	DB	086H
	DB	029H
	DB	086H
	DB	029H
	DB	086H
	DB	029H
	DB	086H
	DB	029H
	DB	086H
	DB	029H
	DB	086H
	DB	029H
	DB	086H
	DB	029H
	DB	086H
	DB	029H
	DB	086H
	DB	029H
	DB	086H
	DB	029H
	DB	086H
	DB	029H
	DB	086H
	DB	029H
	DB	086H
	DB	029H
	DB	086H
	DB	029H
	DB	086H
	DB	029H
	DB	0ecH
	DB	05aH
	DB	0ffH
	DB	0ffH
	DB	0ffH
	DB	0ffH
	DB	0ffH
	DB	0ffH
	DB	0ffH
	DB	0ffH
	DB	0ffH
	DB	0ffH
	DB	0ffH
	DB	0ffH
	DB	0b7H
	DB	0b5H
	DB	086H
	DB	029H
	DB	086H
	DB	029H
	DB	086H
	DB	029H
	DB	086H
	DB	029H
	DB	086H
	DB	029H
	DB	086H
	DB	029H
	DB	086H
	DB	029H
	DB	086H
	DB	029H
	DB	086H
	DB	029H
	DB	086H
	DB	029H
	DB	086H
	DB	029H
	DB	086H
	DB	029H
	DB	086H
	DB	029H
	DB	086H
	DB	029H
	DB	086H
	DB	029H
	DB	086H
	DB	029H
	DB	086H
	DB	029H
	DB	086H
	DB	029H
	DB	086H
	DB	029H
	DB	086H
	DB	029H
	DB	086H
	DB	029H
	DB	086H
	DB	029H
	DB	086H
	DB	029H
	DB	086H
	DB	029H
	DB	086H
	DB	029H
	DB	086H
	DB	029H
	DB	086H
	DB	029H
	DB	086H
	DB	029H
	DB	086H
	DB	029H
	DB	086H
	DB	029H
	DB	086H
	DB	029H
	DB	086H
	DB	029H
	DB	086H
	DB	029H
	DB	086H
	DB	029H
	DB	086H
	DB	029H
	DB	086H
	DB	029H
	DB	086H
	DB	029H
	DB	086H
	DB	029H
	DB	086H
	DB	029H
	DB	086H
	DB	029H
	DB	086H
	DB	029H
	DB	086H
	DB	029H
	DB	086H
	DB	029H
	DB	0a7H
	DB	031H
	DB	0baH
	DB	0d6H
	DB	0ffH
	DB	0ffH
	DB	0ffH
	DB	0ffH
	DB	0ffH
	DB	0ffH
	DB	0ffH
	DB	0ffH
	DB	0ffH
	DB	0ffH
	DB	0ffH
	DB	0ffH
	DB	0ffH
	DB	0ffH
	DB	0cfH
	DB	07bH
	DB	086H
	DB	029H
	DB	086H
	DB	029H
	DB	086H
	DB	029H
	DB	086H
	DB	029H
	DB	086H
	DB	029H
	DB	086H
	DB	029H
	DB	086H
	DB	029H
	DB	086H
	DB	029H
	DB	086H
	DB	029H
	DB	086H
	DB	029H
	DB	086H
	DB	029H
	DB	086H
	DB	029H
	DB	086H
	DB	029H
	DB	086H
	DB	029H
	DB	086H
	DB	029H
	DB	086H
	DB	029H
	DB	086H
	DB	029H
	DB	086H
	DB	029H
	DB	086H
	DB	029H
	DB	086H
	DB	029H
	DB	086H
	DB	029H
	DB	086H
	DB	029H
	DB	086H
	DB	029H
	DB	086H
	DB	029H
	DB	086H
	DB	029H
	DB	086H
	DB	029H
	DB	086H
	DB	029H
	DB	086H
	DB	029H
	DB	086H
	DB	029H
	DB	086H
	DB	029H
	DB	086H
	DB	029H
	DB	086H
	DB	029H
	DB	086H
	DB	029H
	DB	086H
	DB	029H
	DB	086H
	DB	029H
	DB	086H
	DB	029H
	DB	086H
	DB	029H
	DB	086H
	DB	029H
	DB	086H
	DB	029H
	DB	086H
	DB	029H
	DB	086H
	DB	029H
	DB	086H
	DB	029H
	DB	0f3H
	DB	09cH
	DB	0ffH
	DB	0ffH
	DB	0ffH
	DB	0ffH
	DB	0ffH
	DB	0ffH
	DB	0ffH
	DB	0ffH
	DB	0ffH
	DB	0ffH
	DB	0ffH
	DB	0ffH
	DB	0ffH
	DB	0ffH
	DB	0ffH
	DB	0ffH
	DB	0dfH
	DB	0f7H
	DB	02dH
	DB	063H
	DB	086H
	DB	029H
	DB	086H
	DB	029H
	DB	086H
	DB	029H
	DB	086H
	DB	029H
	DB	086H
	DB	029H
	DB	086H
	DB	029H
	DB	086H
	DB	029H
	DB	086H
	DB	029H
	DB	086H
	DB	029H
	DB	086H
	DB	029H
	DB	086H
	DB	029H
	DB	086H
	DB	029H
	DB	086H
	DB	029H
	DB	086H
	DB	029H
	DB	086H
	DB	029H
	DB	086H
	DB	029H
	DB	086H
	DB	029H
	DB	086H
	DB	029H
	DB	086H
	DB	029H
	DB	086H
	DB	029H
	DB	086H
	DB	029H
	DB	086H
	DB	029H
	DB	086H
	DB	029H
	DB	086H
	DB	029H
	DB	086H
	DB	029H
	DB	086H
	DB	029H
	DB	086H
	DB	029H
	DB	086H
	DB	029H
	DB	086H
	DB	029H
	DB	086H
	DB	029H
	DB	086H
	DB	029H
	DB	086H
	DB	029H
	DB	086H
	DB	029H
	DB	086H
	DB	029H
	DB	086H
	DB	029H
	DB	086H
	DB	029H
	DB	086H
	DB	029H
	DB	086H
	DB	029H
	DB	086H
	DB	029H
	DB	086H
	DB	029H
	DB	010H
	DB	084H
	DB	0ffH
	DB	0ffH
	DB	0ffH
	DB	0ffH
	DB	0ffH
	DB	0ffH
	DB	0ffH
	DB	0ffH
	DB	0ffH
	DB	0ffH
	DB	0ffH
	DB	0ffH
	DB	0ffH
	DB	0ffH
	DB	0ffH
	DB	0ffH
	DB	0ffH
	DB	0ffH
	DB	0ffH
	DB	0ffH
	DB	0beH
	DB	0f7H
	DB	08eH
	DB	073H
	DB	086H
	DB	029H
	DB	086H
	DB	029H
	DB	086H
	DB	029H
	DB	086H
	DB	029H
	DB	086H
	DB	029H
	DB	086H
	DB	029H
	DB	086H
	DB	029H
	DB	086H
	DB	029H
	DB	086H
	DB	029H
	DB	086H
	DB	029H
	DB	086H
	DB	029H
	DB	086H
	DB	029H
	DB	086H
	DB	029H
	DB	086H
	DB	029H
	DB	086H
	DB	029H
	DB	086H
	DB	029H
	DB	086H
	DB	029H
	DB	086H
	DB	029H
	DB	086H
	DB	029H
	DB	086H
	DB	029H
	DB	086H
	DB	029H
	DB	086H
	DB	029H
	DB	086H
	DB	029H
	DB	086H
	DB	029H
	DB	086H
	DB	029H
	DB	086H
	DB	029H
	DB	086H
	DB	029H
	DB	086H
	DB	029H
	DB	086H
	DB	029H
	DB	086H
	DB	029H
	DB	086H
	DB	029H
	DB	086H
	DB	029H
	DB	086H
	DB	029H
	DB	086H
	DB	029H
	DB	086H
	DB	029H
	DB	086H
	DB	029H
	DB	086H
	DB	029H
	DB	086H
	DB	029H
	DB	072H
	DB	08cH
	DB	0ffH
	DB	0ffH
	DB	0ffH
	DB	0ffH
	DB	0ffH
	DB	0ffH
	DB	0ffH
	DB	0ffH
	DB	0ffH
	DB	0ffH
	DB	0ffH
	DB	0ffH
	DB	0ffH
	DB	0ffH
	DB	0ffH
	DB	0ffH
	DB	0ffH
	DB	0ffH
	DB	0ffH
	DB	0ffH
	DB	0ffH
	DB	0ffH
	DB	0ffH
	DB	0ffH
	DB	0ffH
	DB	0ffH
	DB	035H
	DB	0a5H
	DB	0c7H
	DB	031H
	DB	086H
	DB	029H
	DB	086H
	DB	029H
	DB	086H
	DB	029H
	DB	086H
	DB	029H
	DB	086H
	DB	029H
	DB	086H
	DB	029H
	DB	086H
	DB	029H
	DB	086H
	DB	029H
	DB	086H
	DB	029H
	DB	086H
	DB	029H
	DB	086H
	DB	029H
	DB	086H
	DB	029H
	DB	086H
	DB	029H
	DB	086H
	DB	029H
	DB	086H
	DB	029H
	DB	086H
	DB	029H
	DB	086H
	DB	029H
	DB	086H
	DB	029H
	DB	086H
	DB	029H
	DB	086H
	DB	029H
	DB	086H
	DB	029H
	DB	086H
	DB	029H
	DB	086H
	DB	029H
	DB	086H
	DB	029H
	DB	086H
	DB	029H
	DB	086H
	DB	029H
	DB	086H
	DB	029H
	DB	086H
	DB	029H
	DB	086H
	DB	029H
	DB	086H
	DB	029H
	DB	086H
	DB	029H
	DB	086H
	DB	029H
	DB	086H
	DB	029H
	DB	086H
	DB	029H
	DB	08H
	DB	042H
	DB	0f7H
	DB	0bdH
	DB	0ffH
	DB	0ffH
	DB	0ffH
	DB	0ffH
	DB	0ffH
	DB	0ffH
	DB	0ffH
	DB	0ffH
	DB	0ffH
	DB	0ffH
	DB	0ffH
	DB	0ffH
	DB	0ffH
	DB	0ffH
	DB	0ffH
	DB	0ffH
	DB	0ffH
	DB	0ffH
	DB	0ffH
	DB	0ffH
	DB	0ffH
	DB	0ffH
	DB	0ffH
	DB	0ffH
	DB	0ffH
	DB	0ffH
	DB	0ffH
	DB	0ffH
	DB	0ffH
	DB	0ffH
	DB	05dH
	DB	0efH
	DB	051H
	DB	08cH
	DB	0c7H
	DB	031H
	DB	086H
	DB	029H
	DB	086H
	DB	029H
	DB	086H
	DB	029H
	DB	086H
	DB	029H
	DB	086H
	DB	029H
	DB	086H
	DB	029H
	DB	086H
	DB	029H
	DB	086H
	DB	029H
	DB	086H
	DB	029H
	DB	086H
	DB	029H
	DB	086H
	DB	029H
	DB	086H
	DB	029H
	DB	086H
	DB	029H
	DB	086H
	DB	029H
	DB	086H
	DB	029H
	DB	086H
	DB	029H
	DB	086H
	DB	029H
	DB	086H
	DB	029H
	DB	086H
	DB	029H
	DB	086H
	DB	029H
	DB	086H
	DB	029H
	DB	086H
	DB	029H
	DB	086H
	DB	029H
	DB	086H
	DB	029H
	DB	086H
	DB	029H
	DB	086H
	DB	029H
	DB	086H
	DB	029H
	DB	086H
	DB	029H
	DB	086H
	DB	029H
	DB	086H
	DB	029H
	DB	08H
	DB	03aH
	DB	0d3H
	DB	09cH
	DB	09eH
	DB	0f7H
	DB	0ffH
	DB	0ffH
	DB	0ffH
	DB	0ffH
	DB	0ffH
	DB	0ffH
	DB	0ffH
	DB	0ffH
	DB	0ffH
	DB	0ffH
	DB	0ffH
	DB	0ffH
	DB	0ffH
	DB	0ffH
	DB	0ffH
	DB	0ffH
	DB	0ffH
	DB	0ffH
	DB	0ffH
	DB	0ffH
	DB	0ffH
	DB	0ffH
	DB	0ffH
	DB	0ffH
	DB	0ffH
	DB	0ffH
	DB	0ffH
	DB	0ffH
	DB	0ffH
	DB	0ffH
	DB	0ffH
	DB	0ffH
	DB	0ffH
	DB	0ffH
	DB	0ffH
	DB	0ffH
	DB	09eH
	DB	0f7H
	DB	096H
	DB	0b5H
	DB	0afH
	DB	073H
	DB	08H
	DB	042H
	DB	086H
	DB	029H
	DB	086H
	DB	029H
	DB	086H
	DB	029H
	DB	086H
	DB	029H
	DB	086H
	DB	029H
	DB	086H
	DB	029H
	DB	086H
	DB	029H
	DB	086H
	DB	029H
	DB	086H
	DB	029H
	DB	086H
	DB	029H
	DB	086H
	DB	029H
	DB	086H
	DB	029H
	DB	086H
	DB	029H
	DB	086H
	DB	029H
	DB	086H
	DB	029H
	DB	086H
	DB	029H
	DB	086H
	DB	029H
	DB	086H
	DB	029H
	DB	086H
	DB	029H
	DB	086H
	DB	029H
	DB	086H
	DB	029H
	DB	086H
	DB	029H
	DB	086H
	DB	029H
	DB	086H
	DB	031H
	DB	049H
	DB	042H
	DB	0f0H
	DB	07bH
	DB	0f8H
	DB	0bdH
	DB	0bfH
	DB	0f7H
	DB	0ffH
	DB	0ffH
	DB	0ffH
	DB	0ffH
	DB	0ffH
	DB	0ffH
	DB	0ffH
	DB	0ffH
	DB	0ffH
	DB	0ffH
	DB	0ffH
	DB	0ffH
	DB	0ffH
	DB	0ffH
	DB	0ffH
	DB	0ffH
	DB	0ffH
	DB	0ffH
	DB	0ffH
	DB	0ffH
	DB	0ffH
	DB	0ffH
	DB	0ffH
	DB	0ffH
	DB	0ffH
	DB	0ffH
	DB	0ffH
	DB	0ffH
	DB	0ffH
	DB	0ffH
	DB	0ffH
	DB	0ffH
	DB	0ffH
	DB	0ffH
	DB	0ffH
	DB	0ffH
	DB	0ffH
	DB	0ffH
	DB	0ffH
	DB	0ffH
	DB	0ffH
	DB	0ffH
	DB	0ffH
	DB	0ffH
	DB	0ffH
	DB	0ffH
	DB	0ffH
	DB	0ffH
	DB	05dH
	DB	0efH
	DB	079H
	DB	0ceH
	DB	0b7H
	DB	0b5H
	DB	055H
	DB	0adH
	DB	014H
	DB	0a5H
	DB	014H
	DB	09dH
	DB	014H
	DB	09dH
	DB	014H
	DB	09dH
	DB	014H
	DB	09dH
	DB	014H
	DB	09dH
	DB	014H
	DB	09dH
	DB	014H
	DB	09dH
	DB	014H
	DB	09dH
	DB	014H
	DB	09dH
	DB	014H
	DB	09dH
	DB	014H
	DB	09dH
	DB	014H
	DB	09dH
	DB	014H
	DB	09dH
	DB	014H
	DB	09dH
	DB	014H
	DB	0a5H
	DB	075H
	DB	0adH
	DB	0d7H
	DB	0bdH
	DB	09aH
	DB	0d6H
	DB	07eH
	DB	0efH
	DB	0ffH
	DB	0ffH
	DB	0ffH
	DB	0ffH
	DB	0ffH
	DB	0ffH
	DB	0ffH
	DB	0ffH
	DB	0ffH
	DB	0ffH
	DB	0ffH
	DB	0ffH
	DB	0ffH
	DB	0ffH
	DB	0ffH
	DB	0ffH
	DB	0ffH
	DB	0ffH
	DB	0ffH
	DB	0ffH
	DB	0ffH
	DB	0ffH
	DB	0ffH
	DB	0ffH
	DB	0ffH
	DB	0ffH
	DB	0ffH
	DB	0ffH
	DB	0ffH
	DB	0ffH
	DB	0ffH
	DB	0ffH
	DB	0ffH
	DB	0ffH
	DB	0ffH
	DB	0ffH
	DB	0ffH
	DB	0ffH
	DB	0ffH
	DB	0ffH
	DB	0ffH
	DB	0ffH
	DB	0ffH
	DB	0ffH
	DB	0ffH
	DB	0ffH
	DB	0ffH
	DB	0ffH
	DB	0ffH
	DB	0ffH
	DB	0ffH
	DB	0ffH
	DB	0ffH
	DB	0ffH
	DB	0ffH
	DB	0ffH
	DB	0ffH
	DB	0ffH
	DB	0ffH
	DB	0ffH
	DB	0ffH
	DB	0ffH
	DB	0ffH
	DB	0ffH
	DB	0ffH
	DB	0ffH
	DB	0ffH
	DB	0ffH
	DB	0ffH
	DB	0ffH
	DB	0ffH
	DB	0ffH
	DB	0ffH
	DB	0ffH
	DB	0ffH
	DB	0ffH
	DB	0ffH
	DB	0ffH
	DB	0ffH
	DB	0ffH
	DB	0ffH
	DB	0ffH
	DB	0ffH
	DB	0ffH
	DB	0ffH
	DB	0ffH
	DB	0ffH
	DB	0ffH
	DB	0ffH
	DB	0ffH
	DB	0ffH
	DB	0ffH
	DB	0ffH
	DB	0ffH
	DB	0ffH
	DB	0ffH
	DB	0ffH
	DB	0ffH
	DB	0ffH
	DB	0ffH
	DB	0ffH
	DB	0ffH
	DB	0ffH
	DB	0ffH
	DB	0ffH
	DB	0ffH
	DB	0ffH
	DB	0ffH
	DB	0ffH
	DB	0ffH
	DB	0ffH
	DB	0ffH
	DB	0ffH
	DB	0ffH
	DB	0ffH
	DB	0ffH
	DB	0ffH
	DB	0ffH
	DB	0ffH
	DB	0ffH
	DB	0ffH
	DB	0ffH
	DB	0ffH
	DB	0ffH
	DB	0ffH
	DB	0ffH
	DB	0ffH
	DB	0ffH
	DB	0ffH
	DB	0ffH
	DB	0ffH
	DB	0ffH
	DB	0ffH
	DB	0ffH
	DB	0ffH
	DB	0ffH
	DB	0ffH
	DB	0ffH
	DB	0ffH
	DB	0ffH
	DB	0ffH
	DB	0ffH
	DB	0ffH
	DB	0ffH
	DB	0ffH
	DB	0ffH
	DB	0ffH
	DB	0ffH
	DB	0ffH
	DB	0ffH
	DB	0ffH
	DB	0ffH
	DB	0ffH
	DB	0ffH
	DB	0ffH
	DB	0ffH
	DB	0ffH
	DB	0ffH
	DB	0ffH
	DB	0ffH
	DB	0ffH
	DB	0ffH
	DB	0ffH
	DB	0ffH
	DB	0ffH
	DB	0ffH
	DB	0ffH
	DB	0ffH
	DB	0ffH
	DB	0ffH
	DB	0ffH
	DB	0ffH
	DB	0ffH
	DB	0ffH
	DB	0ffH
	DB	0ffH
	DB	0ffH
	DB	0ffH
	DB	0ffH
	DB	0ffH
	DB	0ffH
	DB	0ffH
	DB	0ffH
	DB	0ffH
	DB	0ffH
	DB	0ffH
	DB	0ffH
	DB	0ffH
	DB	0ffH
	DB	0ffH
	DB	0ffH
	DB	0ffH
	DB	0ffH
	DB	0ffH
	DB	0ffH
	DB	0ffH
	DB	0ffH
	DB	0ffH
	DB	0ffH
	DB	0ffH
	DB	0ffH
	DB	0ffH
	DB	0ffH
	DB	0ffH
	DB	0ffH
	DB	0ffH
	DB	0ffH
	DB	0ffH
	DB	0ffH
	DB	0ffH
	DB	0ffH
	DB	0ffH
	DB	0ffH
	DB	0ffH
	DB	0ffH
	DB	0ffH
	DB	0ffH
	DB	0ffH
	DB	0ffH
	DB	0ffH
	DB	0ffH
	DB	0ffH
	DB	0ffH
	DB	0ffH
	DB	0ffH
	DB	0ffH
	DB	0ffH
	DB	0ffH
	DB	0ffH
	DB	0ffH
	DB	0ffH
	DB	0ffH
	DB	0ffH
	DB	0ffH
	DB	0ffH
	DB	0ffH
	DB	0ffH
	DB	0ffH
	DB	0ffH
	DB	0ffH
	DB	0ffH
	DB	0ffH
	DB	0ffH
	DB	0ffH
	DB	0ffH
	DB	0ffH
	DB	0ffH
	DB	0ffH
	DB	0ffH
	DB	0ffH
	DB	0ffH
	DB	0ffH
	DB	0ffH
	DB	0ffH
	DB	0ffH
	DB	0ffH
	DB	0ffH
	DB	0ffH
	DB	0ffH
	DB	0ffH
	DB	0ffH
	DB	0ffH
	DB	0ffH
	DB	0ffH
	DB	0ffH
	DB	0ffH
	DB	0ffH
	DB	0ffH
	DB	0ffH
	DB	0ffH
	DB	0ffH
	DB	0ffH
	DB	0ffH
	DB	0ffH
	DB	0ffH
	DB	0ffH
	DB	0ffH
	DB	0ffH
	DB	0ffH
	DB	0ffH
	DB	0ffH
	DB	0ffH
	DB	0ffH
	DB	0ffH
	DB	0ffH
	DB	0ffH
	DB	0ffH
	DB	0ffH
	DB	0ffH
	DB	0ffH
	DB	0ffH
	DB	0ffH
	DB	0ffH
	DB	0ffH
	DB	0ffH
	DB	0ffH
	DB	0ffH
	DB	0ffH
	DB	0ffH
	DB	0ffH
	DB	0ffH
	DB	0ffH
	DB	0ffH
	DB	0ffH
	DB	0ffH
	DB	0ffH
	DB	0ffH
	DB	0ffH
	DB	0ffH
	DB	0ffH
	DB	0ffH
	DB	0ffH
	DB	0ffH
	DB	0ffH
	DB	0ffH
	DB	0ffH
	DB	0ffH
	DB	0ffH
	DB	0ffH
	DB	0ffH
	DB	0ffH
	DB	0ffH
	DB	0ffH
	DB	0ffH
	DB	0ffH
	DB	0ffH
	DB	0ffH
	DB	0ffH
	DB	0ffH
	DB	0ffH
	DB	0ffH
	DB	0ffH
	DB	0ffH
	DB	0ffH
	DB	0ffH
	DB	0ffH
	DB	0ffH
	DB	0ffH
	DB	0ffH
	DB	0ffH
	DB	0ffH
	DB	0ffH
	DB	0ffH
	DB	0ffH
	DB	0ffH
	DB	0ffH
	DB	0ffH
	DB	0ffH
	DB	0ffH
	DB	0ffH
	DB	0ffH
	DB	0ffH
	DB	0ffH
	DB	0ffH
	DB	0ffH
	DB	0ffH
	DB	0ffH
	DB	0ffH
	DB	0ffH
	DB	0ffH
	DB	0ffH
	DB	0ffH
	DB	0ffH
	DB	0ffH
	DB	0ffH
	DB	0ffH
	DB	0ffH
	DB	0ffH
	DB	0ffH
	DB	0ffH
	DB	0ffH
	DB	0ffH
	DB	0ffH
	DB	0ffH
	DB	0ffH
	DB	0ffH
	DB	0ffH
	DB	0ffH
	DB	0ffH
	DB	0ffH
	DB	0ffH
	DB	0ffH
	DB	0ffH
	DB	0ffH
	DB	0ffH
	DB	0ffH
	DB	0ffH
	DB	0ffH
	DB	0ffH
	DB	0ffH
	DB	0ffH
	DB	0ffH
	DB	0ffH
	DB	0ffH
	DB	0ffH
	DB	0ffH
	DB	0ffH
	DB	0ffH
	DB	0ffH
	DB	0ffH
	DB	0ffH
	DB	0ffH
	DB	0ffH
	DB	0ffH
	DB	0ffH
	DB	0ffH
	DB	0ffH
	DB	0ffH
	DB	0ffH
	DB	0ffH
	DB	0ffH
	DB	0ffH
	DB	0ffH
	DB	0ffH
	DB	0ffH
	DB	0ffH
	DB	0ffH
	DB	0ffH
	DB	0ffH
	DB	0ffH
	DB	0ffH
	DB	0ffH
	DB	0ffH
	DB	0ffH
	DB	0ffH
	DB	0ffH
	DB	0ffH
	DB	0ffH
	DB	0ffH
	DB	0ffH
	DB	0ffH
	DB	0ffH
	DB	0ffH
	DB	0ffH
	DB	0ffH
	DB	0ffH
	DB	0ffH
	DB	0ffH
	DB	0ffH
	DB	0ffH
	DB	0ffH
	DB	0ffH
	DB	0ffH
	DB	0ffH
	DB	0ffH
	DB	0ffH
	DB	0ffH
	DB	0ffH
	DB	0ffH
	DB	0ffH
	DB	0ffH
	DB	0ffH
	DB	0ffH
	DB	0ffH
	DB	0ffH
	DB	0ffH
	DB	0ffH
	DB	0ffH
	DB	0ffH
	DB	0ffH
	DB	0ffH
	DB	0ffH
	DB	0ffH
	DB	0ffH
	DB	0ffH
	DB	0ffH
	DB	0ffH
	DB	0ffH
	DB	0ffH
	DB	0ffH
	DB	0ffH
	DB	0ffH
	DB	0ffH
	DB	0ffH
	DB	0ffH
	DB	0ffH
	DB	0ffH
	DB	0ffH
	DB	0ffH
	DB	0ffH
	DB	0ffH
	DB	0ffH
	DB	0ffH
	DB	0ffH
	DB	0ffH
	DB	0ffH
	DB	0ffH
	DB	0ffH
	DB	0ffH
	DB	0ffH
	DB	0ffH
	DB	0ffH
	DB	0ffH
	DB	0ffH
	DB	0ffH
	DB	0ffH
	DB	0ffH
	DB	0ffH
	DB	0ffH
	DB	0ffH
	DB	0ffH
	DB	0ffH
	DB	0ffH
	DB	0ffH
	DB	0ffH
	DB	0ffH
	DB	0ffH
	DB	0ffH
	DB	0ffH
	DB	0ffH
	DB	0ffH
	DB	0ffH
	DB	0ffH
	DB	0ffH
	DB	0ffH
	DB	0ffH
	DB	0ffH
	DB	0ffH
	DB	0ffH
	DB	0ffH
	DB	0ffH
	DB	0ffH
	DB	0ffH
	DB	0ffH
	DB	0ffH
	DB	0ffH
	DB	0ffH
	DB	0ffH
	DB	0ffH
	DB	0ffH
	DB	0ffH
	DB	0ffH
	DB	0ffH
	DB	0ffH
	DB	0ffH
	DB	0ffH
	DB	0ffH
	DB	0ffH
	DB	0ffH
	DB	0ffH
	DB	0ffH
	DB	0ffH
	DB	0ffH
	DB	0ffH
	DB	0ffH
	DB	0ffH
	DB	0ffH
	DB	0ffH
	DB	0ffH
	DB	0ffH
	DB	0ffH
	DB	0ffH
	DB	0ffH
	DB	0ffH
	DB	0ffH
	DB	0ffH
	DB	0ffH
	DB	0ffH
	DB	0ffH
	DB	0ffH
	DB	0ffH
	DB	0ffH
	DB	0ffH
	DB	0ffH
	DB	0ffH
	DB	0ffH
	DB	0ffH
	DB	0ffH
	DB	0ffH
	DB	0ffH
	DB	0ffH
	DB	0ffH
	DB	0ffH
	DB	0ffH
	DB	0ffH
	DB	0ffH
	DB	0ffH
	DB	0ffH
	DB	0ffH
	DB	0ffH
	DB	0ffH
	DB	0ffH
	DB	0ffH
	DB	0ffH
	DB	0ffH
	DB	0ffH
	DB	0ffH
	DB	0ffH
	DB	0ffH
	DB	0ffH
	DB	0ffH
	DB	0ffH
	DB	0ffH
	DB	0ffH
	DB	0ffH
	DB	0ffH
	DB	0ffH
	DB	0ffH
	DB	0ffH
	DB	0ffH
	DB	0ffH
	DB	0ffH
	DB	0ffH
	DB	0ffH
	DB	0ffH
	DB	0ffH
	DB	0ffH
	DB	0ffH
	DB	0ffH
	DB	0ffH
	DB	0ffH
	DB	0ffH
	DB	0ffH
	DB	0ffH
	DB	0ffH
	DB	0ffH
	DB	0ffH
	DB	0ffH
	DB	0ffH
	DB	0ffH
	DB	0ffH
	DB	0ffH
	DB	0ffH
	DB	0ffH
	DB	0ffH
	DB	0ffH
	DB	0ffH
	DB	0ffH
	DB	0ffH
	DB	0ffH
	DB	0ffH
	DB	0ffH
	DB	0ffH
	DB	0ffH
	DB	0ffH
	DB	0ffH
	DB	0ffH
	DB	0ffH
	DB	0ffH
	DB	0ffH
	DB	0ffH
	DB	0ffH
	DB	0ffH
	DB	0ffH
	DB	0ffH
	DB	0ffH
	DB	0ffH
	DB	0ffH
	DB	0ffH
	DB	0ffH
	DB	0ffH
	DB	0ffH
	DB	0ffH
	DB	0ffH
	DB	0ffH
	DB	0ffH
	DB	0ffH
	DB	0ffH
	DB	0ffH
	DB	0ffH
	DB	0ffH
	DB	0ffH
	DB	0ffH
	DB	0ffH
	DB	0ffH
	DB	0ffH
	DB	0ffH
	DB	0ffH
	DB	0ffH
	DB	0ffH
	DB	0ffH
	DB	0ffH
	DB	0ffH
	DB	0ffH
	DB	0ffH
	DB	0ffH
	DB	0ffH
	DB	0ffH
	DB	0ffH
	DB	0ffH
	DB	0ffH
	DB	0ffH
	DB	0ffH
	DB	0ffH
	DB	0ffH
	DB	0ffH
	DB	0ffH
	DB	0ffH
	DB	0ffH
	DB	0ffH
	DB	0ffH
	DB	0ffH
	DB	0ffH
	DB	0ffH
	DB	0ffH
	DB	0ffH
	DB	0ffH
	DB	0ffH
	DB	0ffH
	DB	0ffH
	DB	0ffH
	DB	0ffH
	DB	0ffH
	DB	0ffH
	DB	0ffH
	DB	0ffH
	DB	0ffH
	DB	0ffH
	DB	0ffH
	DB	0ffH
	DB	0ffH
	DB	0ffH
	DB	0ffH
	DB	0ffH
	DB	0ffH
	DB	0ffH
	DB	0ffH
	DB	0ffH
	DB	0ffH
	DB	0ffH
	DB	0ffH
	DB	0ffH
	DB	0ffH
	DB	0ffH
	DB	0ffH
	DB	0ffH
	DB	0ffH
	DB	0ffH
	DB	0ffH
	DB	0ffH
	DB	0ffH
	DB	0ffH
	DB	0ffH
	DB	0ffH
	DB	0ffH
	DB	0ffH
	DB	0ffH
	DB	0ffH
	DB	0ffH
	DB	0ffH
	DB	0ffH
	DB	0ffH
	DB	0ffH
	DB	0ffH
	DB	0ffH
	DB	0ffH
	DB	0ffH
	DB	0ffH
	DB	0ffH
	DB	0ffH
	DB	0ffH
	DB	0ffH
	DB	0ffH
	DB	0ffH
	DB	0ffH
	DB	0ffH
	DB	0ffH
	DB	0ffH
	DB	0ffH
	DB	0ffH
	DB	0ffH
	DB	0ffH
	DB	0ffH
	DB	0ffH
	DB	0ffH
	DB	0ffH
	DB	0ffH
	DB	0ffH
	DB	0ffH
	DB	0ffH
	DB	0ffH
	DB	0ffH
	DB	0ffH
	DB	0ffH
	DB	0ffH
	DB	0ffH
	DB	0ffH
	DB	0ffH
	DB	0ffH
	DB	0ffH
	DB	0ffH
	DB	0ffH
	DB	0ffH
	DB	0ffH
	DB	0ffH
	DB	0ffH
	DB	0ffH
	DB	0ffH
	DB	0ffH
	DB	0ffH
	DB	0ffH
	DB	0ffH
	DB	0ffH
	DB	0ffH
	DB	0ffH
	DB	0ffH
	DB	0dfH
	DB	0ffH
	DB	059H
	DB	0ceH
	DB	0f3H
	DB	09cH
	DB	0cfH
	DB	07bH
	DB	02cH
	DB	063H
	DB	0cbH
	DB	052H
	DB	08aH
	DB	04aH
	DB	08aH
	DB	04aH
	DB	08aH
	DB	04aH
	DB	08aH
	DB	04aH
	DB	08aH
	DB	04aH
	DB	08aH
	DB	04aH
	DB	08aH
	DB	04aH
	DB	08aH
	DB	04aH
	DB	08aH
	DB	04aH
	DB	08aH
	DB	04aH
	DB	08aH
	DB	04aH
	DB	08aH
	DB	04aH
	DB	08aH
	DB	04aH
	DB	08aH
	DB	04aH
	DB	08aH
	DB	04aH
	DB	08aH
	DB	04aH
	DB	08aH
	DB	04aH
	DB	08aH
	DB	04aH
	DB	08aH
	DB	04aH
	DB	08aH
	DB	04aH
	DB	08aH
	DB	04aH
	DB	08aH
	DB	04aH
	DB	08aH
	DB	04aH
	DB	04dH
	DB	063H
	DB	09eH
	DB	0f7H
	DB	0ffH
	DB	0ffH
	DB	0ffH
	DB	0ffH
	DB	0ffH
	DB	0ffH
	DB	0ffH
	DB	0ffH
	DB	0ffH
	DB	0ffH
	DB	0ffH
	DB	0ffH
	DB	0ffH
	DB	0ffH
	DB	0ffH
	DB	0ffH
	DB	0ffH
	DB	0ffH
	DB	0ffH
	DB	0ffH
	DB	0ffH
	DB	0ffH
	DB	0ffH
	DB	0ffH
	DB	0ffH
	DB	0ffH
	DB	0ffH
	DB	0ffH
	DB	0ffH
	DB	0ffH
	DB	0ffH
	DB	0ffH
	DB	0ffH
	DB	0ffH
	DB	0ffH
	DB	0ffH
	DB	0ffH
	DB	0ffH
	DB	01cH
	DB	0e7H
	DB	030H
	DB	084H
	DB	0e8H
	DB	039H
	DB	086H
	DB	029H
	DB	086H
	DB	029H
	DB	086H
	DB	029H
	DB	086H
	DB	029H
	DB	086H
	DB	029H
	DB	086H
	DB	029H
	DB	086H
	DB	029H
	DB	086H
	DB	029H
	DB	086H
	DB	029H
	DB	086H
	DB	029H
	DB	086H
	DB	029H
	DB	086H
	DB	029H
	DB	086H
	DB	029H
	DB	086H
	DB	029H
	DB	086H
	DB	029H
	DB	086H
	DB	029H
	DB	086H
	DB	029H
	DB	086H
	DB	029H
	DB	086H
	DB	029H
	DB	086H
	DB	029H
	DB	086H
	DB	029H
	DB	086H
	DB	029H
	DB	086H
	DB	029H
	DB	086H
	DB	029H
	DB	086H
	DB	029H
	DB	086H
	DB	029H
	DB	086H
	DB	029H
	DB	086H
	DB	029H
	DB	086H
	DB	029H
	DB	018H
	DB	0c6H
	DB	0ffH
	DB	0ffH
	DB	0ffH
	DB	0ffH
	DB	0ffH
	DB	0ffH
	DB	0ffH
	DB	0ffH
	DB	0ffH
	DB	0ffH
	DB	0ffH
	DB	0ffH
	DB	0ffH
	DB	0ffH
	DB	0ffH
	DB	0ffH
	DB	0ffH
	DB	0ffH
	DB	0ffH
	DB	0ffH
	DB	0ffH
	DB	0ffH
	DB	0ffH
	DB	0ffH
	DB	0ffH
	DB	0ffH
	DB	0ffH
	DB	0ffH
	DB	0ffH
	DB	0ffH
	DB	0ffH
	DB	0ffH
	DB	0ffH
	DB	0ffH
	DB	0ffH
	DB	0ffH
	DB	0d3H
	DB	09cH
	DB	0a7H
	DB	031H
	DB	086H
	DB	029H
	DB	086H
	DB	029H
	DB	086H
	DB	029H
	DB	086H
	DB	029H
	DB	086H
	DB	029H
	DB	086H
	DB	029H
	DB	086H
	DB	029H
	DB	086H
	DB	029H
	DB	086H
	DB	029H
	DB	086H
	DB	029H
	DB	086H
	DB	029H
	DB	086H
	DB	029H
	DB	086H
	DB	029H
	DB	086H
	DB	029H
	DB	086H
	DB	029H
	DB	086H
	DB	029H
	DB	086H
	DB	029H
	DB	086H
	DB	029H
	DB	086H
	DB	029H
	DB	086H
	DB	029H
	DB	086H
	DB	029H
	DB	086H
	DB	029H
	DB	086H
	DB	029H
	DB	086H
	DB	029H
	DB	086H
	DB	029H
	DB	086H
	DB	029H
	DB	086H
	DB	029H
	DB	086H
	DB	029H
	DB	086H
	DB	029H
	DB	086H
	DB	029H
	DB	086H
	DB	029H
	DB	018H
	DB	0c6H
	DB	0ffH
	DB	0ffH
	DB	0ffH
	DB	0ffH
	DB	0ffH
	DB	0ffH
	DB	0ffH
	DB	0ffH
	DB	0ffH
	DB	0ffH
	DB	0ffH
	DB	0ffH
	DB	0ffH
	DB	0ffH
	DB	0ffH
	DB	0ffH
	DB	0ffH
	DB	0ffH
	DB	0ffH
	DB	0ffH
	DB	0ffH
	DB	0ffH
	DB	0ffH
	DB	0ffH
	DB	0ffH
	DB	0ffH
	DB	0ffH
	DB	0ffH
	DB	0ffH
	DB	0ffH
	DB	0ffH
	DB	0ffH
	DB	0dfH
	DB	0ffH
	DB	08eH
	DB	073H
	DB	086H
	DB	029H
	DB	086H
	DB	029H
	DB	086H
	DB	029H
	DB	086H
	DB	029H
	DB	086H
	DB	029H
	DB	086H
	DB	029H
	DB	086H
	DB	029H
	DB	086H
	DB	029H
	DB	086H
	DB	029H
	DB	086H
	DB	029H
	DB	086H
	DB	029H
	DB	086H
	DB	029H
	DB	086H
	DB	029H
	DB	086H
	DB	029H
	DB	086H
	DB	029H
	DB	086H
	DB	029H
	DB	086H
	DB	029H
	DB	086H
	DB	029H
	DB	086H
	DB	029H
	DB	086H
	DB	029H
	DB	086H
	DB	029H
	DB	086H
	DB	029H
	DB	086H
	DB	029H
	DB	086H
	DB	029H
	DB	086H
	DB	029H
	DB	086H
	DB	029H
	DB	086H
	DB	029H
	DB	086H
	DB	029H
	DB	086H
	DB	029H
	DB	086H
	DB	029H
	DB	086H
	DB	029H
	DB	086H
	DB	029H
	DB	086H
	DB	029H
	DB	018H
	DB	0c6H
	DB	0ffH
	DB	0ffH
	DB	0ffH
	DB	0ffH
	DB	0ffH
	DB	0ffH
	DB	0ffH
	DB	0ffH
	DB	0ffH
	DB	0ffH
	DB	0ffH
	DB	0ffH
	DB	0ffH
	DB	0ffH
	DB	0ffH
	DB	0ffH
	DB	0ffH
	DB	0ffH
	DB	0ffH
	DB	0ffH
	DB	0ffH
	DB	0ffH
	DB	0ffH
	DB	0ffH
	DB	0ffH
	DB	0ffH
	DB	0ffH
	DB	0ffH
	DB	0ffH
	DB	0ffH
	DB	0ffH
	DB	0ffH
	DB	010H
	DB	084H
	DB	086H
	DB	029H
	DB	086H
	DB	029H
	DB	086H
	DB	029H
	DB	086H
	DB	029H
	DB	086H
	DB	029H
	DB	086H
	DB	029H
	DB	086H
	DB	029H
	DB	086H
	DB	029H
	DB	086H
	DB	029H
	DB	086H
	DB	029H
	DB	086H
	DB	029H
	DB	086H
	DB	029H
	DB	086H
	DB	029H
	DB	086H
	DB	029H
	DB	086H
	DB	029H
	DB	086H
	DB	029H
	DB	086H
	DB	029H
	DB	086H
	DB	029H
	DB	086H
	DB	029H
	DB	086H
	DB	029H
	DB	086H
	DB	029H
	DB	086H
	DB	029H
	DB	086H
	DB	029H
	DB	086H
	DB	029H
	DB	086H
	DB	029H
	DB	086H
	DB	029H
	DB	086H
	DB	029H
	DB	086H
	DB	029H
	DB	086H
	DB	029H
	DB	086H
	DB	029H
	DB	086H
	DB	029H
	DB	086H
	DB	029H
	DB	086H
	DB	029H
	DB	086H
	DB	029H
	DB	018H
	DB	0c6H
	DB	0ffH
	DB	0ffH
	DB	0ffH
	DB	0ffH
	DB	0ffH
	DB	0ffH
	DB	0ffH
	DB	0ffH
	DB	0ffH
	DB	0ffH
	DB	0ffH
	DB	0ffH
	DB	0ffH
	DB	0ffH
	DB	0ffH
	DB	0ffH
	DB	0ffH
	DB	0ffH
	DB	0ffH
	DB	0ffH
	DB	0ffH
	DB	0ffH
	DB	0ffH
	DB	0ffH
	DB	0ffH
	DB	0ffH
	DB	0ffH
	DB	0ffH
	DB	0ffH
	DB	0ffH
	DB	038H
	DB	0c6H
	DB	086H
	DB	029H
	DB	086H
	DB	029H
	DB	086H
	DB	029H
	DB	086H
	DB	029H
	DB	086H
	DB	029H
	DB	086H
	DB	029H
	DB	086H
	DB	029H
	DB	086H
	DB	029H
	DB	086H
	DB	029H
	DB	086H
	DB	029H
	DB	0c7H
	DB	031H
	DB	029H
	DB	042H
	DB	06aH
	DB	04aH
	DB	08aH
	DB	04aH
	DB	08aH
	DB	04aH
	DB	08aH
	DB	04aH
	DB	08aH
	DB	04aH
	DB	08aH
	DB	04aH
	DB	08aH
	DB	04aH
	DB	08aH
	DB	04aH
	DB	08aH
	DB	04aH
	DB	08aH
	DB	04aH
	DB	08aH
	DB	04aH
	DB	08aH
	DB	04aH
	DB	08aH
	DB	04aH
	DB	08aH
	DB	04aH
	DB	08aH
	DB	04aH
	DB	08aH
	DB	04aH
	DB	08aH
	DB	04aH
	DB	08aH
	DB	04aH
	DB	08aH
	DB	04aH
	DB	08aH
	DB	04aH
	DB	08aH
	DB	04aH
	DB	08aH
	DB	04aH
	DB	02dH
	DB	063H
	DB	07eH
	DB	0efH
	DB	0ffH
	DB	0ffH
	DB	0ffH
	DB	0ffH
	DB	0ffH
	DB	0ffH
	DB	0ffH
	DB	0ffH
	DB	0ffH
	DB	0ffH
	DB	0ffH
	DB	0ffH
	DB	0ffH
	DB	0ffH
	DB	0ffH
	DB	0ffH
	DB	0ffH
	DB	0ffH
	DB	0ffH
	DB	0ffH
	DB	0ffH
	DB	0ffH
	DB	0ffH
	DB	0ffH
	DB	0ffH
	DB	0ffH
	DB	0ffH
	DB	0ffH
	DB	0ffH
	DB	0ffH
	DB	0cbH
	DB	05aH
	DB	086H
	DB	029H
	DB	086H
	DB	029H
	DB	086H
	DB	029H
	DB	086H
	DB	029H
	DB	086H
	DB	029H
	DB	086H
	DB	029H
	DB	086H
	DB	029H
	DB	0cH
	DB	063H
	DB	075H
	DB	0adH
	DB	01cH
	DB	0e7H
	DB	0dfH
	DB	0ffH
	DB	0ffH
	DB	0ffH
	DB	0ffH
	DB	0ffH
	DB	0ffH
	DB	0ffH
	DB	0ffH
	DB	0ffH
	DB	0ffH
	DB	0ffH
	DB	0ffH
	DB	0ffH
	DB	0ffH
	DB	0ffH
	DB	0ffH
	DB	0ffH
	DB	0ffH
	DB	0ffH
	DB	0ffH
	DB	0ffH
	DB	0ffH
	DB	0ffH
	DB	0ffH
	DB	0ffH
	DB	0ffH
	DB	0ffH
	DB	0ffH
	DB	0ffH
	DB	0ffH
	DB	0ffH
	DB	0ffH
	DB	0ffH
	DB	0ffH
	DB	0ffH
	DB	0ffH
	DB	0ffH
	DB	0ffH
	DB	0ffH
	DB	0ffH
	DB	0ffH
	DB	0ffH
	DB	0ffH
	DB	0ffH
	DB	0ffH
	DB	0ffH
	DB	0ffH
	DB	0ffH
	DB	0ffH
	DB	0ffH
	DB	0ffH
	DB	0ffH
	DB	0ffH
	DB	0ffH
	DB	0ffH
	DB	0ffH
	DB	0ffH
	DB	0ffH
	DB	0ffH
	DB	0ffH
	DB	0ffH
	DB	0ffH
	DB	0ffH
	DB	0ffH
	DB	0ffH
	DB	0ffH
	DB	0ffH
	DB	0ffH
	DB	0ffH
	DB	0ffH
	DB	0ffH
	DB	0ffH
	DB	0ffH
	DB	0ffH
	DB	0ffH
	DB	0ffH
	DB	0ffH
	DB	0ffH
	DB	0ffH
	DB	0dbH
	DB	0deH
	DB	086H
	DB	029H
	DB	086H
	DB	029H
	DB	086H
	DB	029H
	DB	086H
	DB	029H
	DB	086H
	DB	029H
	DB	086H
	DB	029H
	DB	049H
	DB	042H
	DB	039H
	DB	0c6H
	DB	0ffH
	DB	0ffH
	DB	0ffH
	DB	0ffH
	DB	0ffH
	DB	0ffH
	DB	0ffH
	DB	0ffH
	DB	0ffH
	DB	0ffH
	DB	0ffH
	DB	0ffH
	DB	0ffH
	DB	0ffH
	DB	0ffH
	DB	0ffH
	DB	0ffH
	DB	0ffH
	DB	0ffH
	DB	0ffH
	DB	0ffH
	DB	0ffH
	DB	0ffH
	DB	0ffH
	DB	0ffH
	DB	0ffH
	DB	0ffH
	DB	0ffH
	DB	0ffH
	DB	0ffH
	DB	0ffH
	DB	0ffH
	DB	0ffH
	DB	0ffH
	DB	0ffH
	DB	0ffH
	DB	0ffH
	DB	0ffH
	DB	0ffH
	DB	0ffH
	DB	0ffH
	DB	0ffH
	DB	0ffH
	DB	0ffH
	DB	0ffH
	DB	0ffH
	DB	0ffH
	DB	0ffH
	DB	0ffH
	DB	0ffH
	DB	0ffH
	DB	0ffH
	DB	0ffH
	DB	0ffH
	DB	0ffH
	DB	0ffH
	DB	0ffH
	DB	0ffH
	DB	0ffH
	DB	0ffH
	DB	0ffH
	DB	0ffH
	DB	0ffH
	DB	0ffH
	DB	0ffH
	DB	0ffH
	DB	0ffH
	DB	0ffH
	DB	0ffH
	DB	0ffH
	DB	0ffH
	DB	0ffH
	DB	0ffH
	DB	0ffH
	DB	0ffH
	DB	0ffH
	DB	0ffH
	DB	0ffH
	DB	0ffH
	DB	0ffH
	DB	0ffH
	DB	0ffH
	DB	0ffH
	DB	0ffH
	DB	0ffH
	DB	0ffH
	DB	0f4H
	DB	09cH
	DB	086H
	DB	029H
	DB	086H
	DB	029H
	DB	086H
	DB	029H
	DB	086H
	DB	029H
	DB	086H
	DB	029H
	DB	049H
	DB	04aH
	DB	05dH
	DB	0efH
	DB	0ffH
	DB	0ffH
	DB	0ffH
	DB	0ffH
	DB	0ffH
	DB	0ffH
	DB	0ffH
	DB	0ffH
	DB	0ffH
	DB	0ffH
	DB	0ffH
	DB	0ffH
	DB	0ffH
	DB	0ffH
	DB	0ffH
	DB	0ffH
	DB	0ffH
	DB	0ffH
	DB	0ffH
	DB	0ffH
	DB	0ffH
	DB	0ffH
	DB	0ffH
	DB	0ffH
	DB	0ffH
	DB	0ffH
	DB	0ffH
	DB	0ffH
	DB	0ffH
	DB	0ffH
	DB	0ffH
	DB	0ffH
	DB	0ffH
	DB	0ffH
	DB	0ffH
	DB	0ffH
	DB	0ffH
	DB	0ffH
	DB	0ffH
	DB	0ffH
	DB	0ffH
	DB	0ffH
	DB	0ffH
	DB	0ffH
	DB	0ffH
	DB	0ffH
	DB	0ffH
	DB	0ffH
	DB	0ffH
	DB	0ffH
	DB	0ffH
	DB	0ffH
	DB	0ffH
	DB	0ffH
	DB	0ffH
	DB	0ffH
	DB	0ffH
	DB	0ffH
	DB	0ffH
	DB	0ffH
	DB	0ffH
	DB	0ffH
	DB	0ffH
	DB	0ffH
	DB	0ffH
	DB	0ffH
	DB	0ffH
	DB	0ffH
	DB	0ffH
	DB	0ffH
	DB	0ffH
	DB	0ffH
	DB	0ffH
	DB	0ffH
	DB	0ffH
	DB	0ffH
	DB	0ffH
	DB	0ffH
	DB	0ffH
	DB	0ffH
	DB	0ffH
	DB	0ffH
	DB	0ffH
	DB	0ffH
	DB	0ffH
	DB	0ffH
	DB	0ffH
	DB	0ffH
	DB	0afH
	DB	073H
	DB	086H
	DB	029H
	DB	086H
	DB	029H
	DB	086H
	DB	029H
	DB	086H
	DB	029H
	DB	086H
	DB	029H
	DB	038H
	DB	0c6H
	DB	0ffH
	DB	0ffH
	DB	0ffH
	DB	0ffH
	DB	0ffH
	DB	0ffH
	DB	0ffH
	DB	0ffH
	DB	0ffH
	DB	0ffH
	DB	0ffH
	DB	0ffH
	DB	0ffH
	DB	0ffH
	DB	0ffH
	DB	0ffH
	DB	0ffH
	DB	0ffH
	DB	0ffH
	DB	0ffH
	DB	0ffH
	DB	0ffH
	DB	0ffH
	DB	0ffH
	DB	0ffH
	DB	0ffH
	DB	0ffH
	DB	0ffH
	DB	0ffH
	DB	0ffH
	DB	0ffH
	DB	0ffH
	DB	0ffH
	DB	0ffH
	DB	0ffH
	DB	0ffH
	DB	0ffH
	DB	0ffH
	DB	0ffH
	DB	0ffH
	DB	0ffH
	DB	0ffH
	DB	0ffH
	DB	0ffH
	DB	0ffH
	DB	0ffH
	DB	0ffH
	DB	0ffH
	DB	0ffH
	DB	0ffH
	DB	0ffH
	DB	0ffH
	DB	0ffH
	DB	0ffH
	DB	0ffH
	DB	0ffH
	DB	0ffH
	DB	0ffH
	DB	0ffH
	DB	0ffH
	DB	0ffH
	DB	0ffH
	DB	0ffH
	DB	0ffH
	DB	0ffH
	DB	0ffH
	DB	0ffH
	DB	0ffH
	DB	0ffH
	DB	0ffH
	DB	0ffH
	DB	0ffH
	DB	0ffH
	DB	0ffH
	DB	0ffH
	DB	0ffH
	DB	0ffH
	DB	0ffH
	DB	0ffH
	DB	0ffH
	DB	0ffH
	DB	0ffH
	DB	0ffH
	DB	0ffH
	DB	0ffH
	DB	0ffH
	DB	0ffH
	DB	0ffH
	DB	0ffH
	DB	0ffH
	DB	0cbH
	DB	05aH
	DB	086H
	DB	029H
	DB	086H
	DB	029H
	DB	086H
	DB	029H
	DB	086H
	DB	029H
	DB	06aH
	DB	04aH
	DB	0ffH
	DB	0ffH
	DB	0ffH
	DB	0ffH
	DB	0ffH
	DB	0ffH
	DB	0ffH
	DB	0ffH
	DB	0ffH
	DB	0ffH
	DB	0ffH
	DB	0ffH
	DB	0ffH
	DB	0ffH
	DB	0ffH
	DB	0ffH
	DB	0ffH
	DB	0ffH
	DB	0ffH
	DB	0ffH
	DB	0ffH
	DB	0ffH
	DB	0ffH
	DB	0ffH
	DB	0ffH
	DB	0ffH
	DB	0ffH
	DB	0ffH
	DB	0ffH
	DB	0ffH
	DB	0ffH
	DB	0ffH
	DB	0ffH
	DB	0ffH
	DB	0ffH
	DB	0ffH
	DB	0ffH
	DB	0ffH
	DB	0ffH
	DB	0ffH
	DB	0ffH
	DB	0ffH
	DB	0ffH
	DB	0ffH
	DB	0ffH
	DB	0ffH
	DB	0ffH
	DB	0ffH
	DB	0ffH
	DB	0ffH
	DB	0ffH
	DB	0ffH
	DB	0ffH
	DB	0ffH
	DB	0ffH
	DB	0ffH
	DB	0ffH
	DB	0ffH
	DB	0ffH
	DB	0ffH
	DB	0ffH
	DB	0ffH
	DB	0ffH
	DB	0ffH
	DB	0ffH
	DB	0ffH
	DB	0ffH
	DB	0ffH
	DB	0ffH
	DB	0ffH
	DB	0ffH
	DB	0ffH
	DB	0ffH
	DB	0ffH
	DB	0ffH
	DB	0ffH
	DB	0ffH
	DB	0ffH
	DB	0ffH
	DB	0ffH
	DB	0ffH
	DB	0ffH
	DB	0ffH
	DB	0ffH
	DB	0ffH
	DB	0ffH
	DB	0ffH
	DB	0ffH
	DB	0ffH
	DB	0ffH
	DB	0ffH
	DB	0ffH
	DB	049H
	DB	04aH
	DB	086H
	DB	029H
	DB	086H
	DB	029H
	DB	086H
	DB	029H
	DB	086H
	DB	029H
	DB	010H
	DB	084H
	DB	0ffH
	DB	0ffH
	DB	0ffH
	DB	0ffH
	DB	0ffH
	DB	0ffH
	DB	0ffH
	DB	0ffH
	DB	0ffH
	DB	0ffH
	DB	0ffH
	DB	0ffH
	DB	0ffH
	DB	0ffH
	DB	0ffH
	DB	0ffH
	DB	0ffH
	DB	0ffH
	DB	0ffH
	DB	0ffH
	DB	0ffH
	DB	0ffH
	DB	0ffH
	DB	0ffH
	DB	0ffH
	DB	0ffH
	DB	0ffH
	DB	0ffH
	DB	0ffH
	DB	0ffH
	DB	0ffH
	DB	0ffH
	DB	0ffH
	DB	0ffH
	DB	0ffH
	DB	0ffH
	DB	0ffH
	DB	0ffH
	DB	0ffH
	DB	0ffH
	DB	0ffH
	DB	0ffH
	DB	0ffH
	DB	0ffH
	DB	0ffH
	DB	0ffH
	DB	0ffH
	DB	0ffH
	DB	0ffH
	DB	0ffH
	DB	0ffH
	DB	0ffH
	DB	0ffH
	DB	0ffH
	DB	0ffH
	DB	0ffH
	DB	0ffH
	DB	0ffH
	DB	0ffH
	DB	0ffH
	DB	0ffH
	DB	0ffH
	DB	0ffH
	DB	0ffH
	DB	0ffH
	DB	0ffH
	DB	0ffH
	DB	0ffH
	DB	0ffH
	DB	0ffH
	DB	0ffH
	DB	0ffH
	DB	0ffH
	DB	0ffH
	DB	0ffH
	DB	0ffH
	DB	0ffH
	DB	0ffH
	DB	0ffH
	DB	0ffH
	DB	0ffH
	DB	0ffH
	DB	0ffH
	DB	0ffH
	DB	0ffH
	DB	0ffH
	DB	0ffH
	DB	0ffH
	DB	0ffH
	DB	0ffH
	DB	0ffH
	DB	0ffH
	DB	029H
	DB	042H
	DB	086H
	DB	029H
	DB	086H
	DB	029H
	DB	086H
	DB	029H
	DB	086H
	DB	029H
	DB	0d3H
	DB	09cH
	DB	0ffH
	DB	0ffH
	DB	0ffH
	DB	0ffH
	DB	0ffH
	DB	0ffH
	DB	0ffH
	DB	0ffH
	DB	0ffH
	DB	0ffH
	DB	0ffH
	DB	0ffH
	DB	0ffH
	DB	0ffH
	DB	0ffH
	DB	0ffH
	DB	0ffH
	DB	0ffH
	DB	0ffH
	DB	0ffH
	DB	0ffH
	DB	0ffH
	DB	0ffH
	DB	0ffH
	DB	0ffH
	DB	0ffH
	DB	0ffH
	DB	0ffH
	DB	0ffH
	DB	0ffH
	DB	0ffH
	DB	0ffH
	DB	0ffH
	DB	0ffH
	DB	0ffH
	DB	0ffH
	DB	0ffH
	DB	0ffH
	DB	0ffH
	DB	0ffH
	DB	0ffH
	DB	0ffH
	DB	0ffH
	DB	0ffH
	DB	0ffH
	DB	0ffH
	DB	0ffH
	DB	0ffH
	DB	0ffH
	DB	0ffH
	DB	0ffH
	DB	0ffH
	DB	0ffH
	DB	0ffH
	DB	0ffH
	DB	0ffH
	DB	0ffH
	DB	0ffH
	DB	0ffH
	DB	0ffH
	DB	0ffH
	DB	0ffH
	DB	0ffH
	DB	0ffH
	DB	0ffH
	DB	0ffH
	DB	0ffH
	DB	0ffH
	DB	0ffH
	DB	0ffH
	DB	0ffH
	DB	0ffH
	DB	0ffH
	DB	0ffH
	DB	0ffH
	DB	0ffH
	DB	0ffH
	DB	0ffH
	DB	0ffH
	DB	0ffH
	DB	0ffH
	DB	0ffH
	DB	0ffH
	DB	0ffH
	DB	0ffH
	DB	0ffH
	DB	0ffH
	DB	0ffH
	DB	0ffH
	DB	0ffH
	DB	0ffH
	DB	0ffH
	DB	08aH
	DB	052H
	DB	086H
	DB	029H
	DB	086H
	DB	029H
	DB	086H
	DB	029H
	DB	086H
	DB	029H
	DB	034H
	DB	0a5H
	DB	0ffH
	DB	0ffH
	DB	0ffH
	DB	0ffH
	DB	0ffH
	DB	0ffH
	DB	0ffH
	DB	0ffH
	DB	0ffH
	DB	0ffH
	DB	0ffH
	DB	0ffH
	DB	0ffH
	DB	0ffH
	DB	0ffH
	DB	0ffH
	DB	0ffH
	DB	0ffH
	DB	0ffH
	DB	0ffH
	DB	0ffH
	DB	0ffH
	DB	0ffH
	DB	0ffH
	DB	0ffH
	DB	0ffH
	DB	0ffH
	DB	0ffH
	DB	0ffH
	DB	0ffH
	DB	0ffH
	DB	0ffH
	DB	0ffH
	DB	0ffH
	DB	0ffH
	DB	0ffH
	DB	0ffH
	DB	0ffH
	DB	0ffH
	DB	0ffH
	DB	0ffH
	DB	0ffH
	DB	0ffH
	DB	0ffH
	DB	0ffH
	DB	0ffH
	DB	0ffH
	DB	0ffH
	DB	0ffH
	DB	0ffH
	DB	0ffH
	DB	0ffH
	DB	0ffH
	DB	0ffH
	DB	0ffH
	DB	0ffH
	DB	0ffH
	DB	0ffH
	DB	0ffH
	DB	0ffH
	DB	0ffH
	DB	0ffH
	DB	0ffH
	DB	0ffH
	DB	0ffH
	DB	0ffH
	DB	0ffH
	DB	0ffH
	DB	0ffH
	DB	0ffH
	DB	0ffH
	DB	0ffH
	DB	0ffH
	DB	0ffH
	DB	0ffH
	DB	0ffH
	DB	0ffH
	DB	0ffH
	DB	0ffH
	DB	0ffH
	DB	0ffH
	DB	0ffH
	DB	0ffH
	DB	0ffH
	DB	0ffH
	DB	0ffH
	DB	0ffH
	DB	0ffH
	DB	0ffH
	DB	0ffH
	DB	0ffH
	DB	0ffH
	DB	04dH
	DB	06bH
	DB	086H
	DB	029H
	DB	086H
	DB	029H
	DB	086H
	DB	029H
	DB	086H
	DB	029H
	DB	0b3H
	DB	094H
	DB	0ffH
	DB	0ffH
	DB	0ffH
	DB	0ffH
	DB	0ffH
	DB	0ffH
	DB	0ffH
	DB	0ffH
	DB	0ffH
	DB	0ffH
	DB	0ffH
	DB	0ffH
	DB	0ffH
	DB	0ffH
	DB	0ffH
	DB	0ffH
	DB	0ffH
	DB	0ffH
	DB	0ffH
	DB	0ffH
	DB	0ffH
	DB	0ffH
	DB	0ffH
	DB	0ffH
	DB	0ffH
	DB	0ffH
	DB	0ffH
	DB	0ffH
	DB	0ffH
	DB	0ffH
	DB	0ffH
	DB	0ffH
	DB	0ffH
	DB	0ffH
	DB	0ffH
	DB	0ffH
	DB	0ffH
	DB	0ffH
	DB	0ffH
	DB	0ffH
	DB	0ffH
	DB	0ffH
	DB	0ffH
	DB	0ffH
	DB	0ffH
	DB	0ffH
	DB	0ffH
	DB	0ffH
	DB	0ffH
	DB	0ffH
	DB	0ffH
	DB	0ffH
	DB	0ffH
	DB	0ffH
	DB	0ffH
	DB	0ffH
	DB	0ffH
	DB	0ffH
	DB	0ffH
	DB	0ffH
	DB	0ffH
	DB	0ffH
	DB	0ffH
	DB	0ffH
	DB	0ffH
	DB	0ffH
	DB	0ffH
	DB	0ffH
	DB	0ffH
	DB	0ffH
	DB	0ffH
	DB	0ffH
	DB	0ffH
	DB	0ffH
	DB	0ffH
	DB	0ffH
	DB	0ffH
	DB	0ffH
	DB	0ffH
	DB	0ffH
	DB	0ffH
	DB	0ffH
	DB	0ffH
	DB	0ffH
	DB	0ffH
	DB	0ffH
	DB	0ffH
	DB	0ffH
	DB	0ffH
	DB	0ffH
	DB	0ffH
	DB	0ffH
	DB	092H
	DB	094H
	DB	086H
	DB	029H
	DB	086H
	DB	029H
	DB	086H
	DB	029H
	DB	086H
	DB	029H
	DB	0afH
	DB	073H
	DB	0ffH
	DB	0ffH
	DB	0ffH
	DB	0ffH
	DB	0ffH
	DB	0ffH
	DB	0ffH
	DB	0ffH
	DB	0ffH
	DB	0ffH
	DB	0ffH
	DB	0ffH
	DB	0ffH
	DB	0ffH
	DB	0ffH
	DB	0ffH
	DB	0ffH
	DB	0ffH
	DB	0ffH
	DB	0ffH
	DB	0ffH
	DB	0ffH
	DB	0ffH
	DB	0ffH
	DB	0ffH
	DB	0ffH
	DB	0ffH
	DB	0ffH
	DB	0ffH
	DB	0ffH
	DB	0ffH
	DB	0ffH
	DB	0ffH
	DB	0ffH
	DB	0ffH
	DB	0ffH
	DB	0ffH
	DB	0ffH
	DB	0ffH
	DB	0ffH
	DB	0ffH
	DB	0ffH
	DB	0ffH
	DB	0ffH
	DB	0ffH
	DB	0ffH
	DB	0ffH
	DB	0ffH
	DB	0ffH
	DB	0ffH
	DB	0ffH
	DB	0ffH
	DB	0ffH
	DB	0ffH
	DB	0ffH
	DB	0ffH
	DB	0ffH
	DB	0ffH
	DB	0ffH
	DB	0ffH
	DB	0ffH
	DB	0ffH
	DB	0ffH
	DB	0ffH
	DB	0ffH
	DB	0ffH
	DB	0ffH
	DB	0ffH
	DB	0ffH
	DB	0ffH
	DB	0ffH
	DB	0ffH
	DB	0ffH
	DB	0ffH
	DB	0ffH
	DB	0ffH
	DB	0ffH
	DB	0ffH
	DB	0ffH
	DB	0ffH
	DB	0ffH
	DB	0ffH
	DB	0ffH
	DB	0ffH
	DB	0ffH
	DB	0ffH
	DB	0ffH
	DB	0ffH
	DB	0ffH
	DB	0ffH
	DB	0ffH
	DB	0ffH
	DB	07aH
	DB	0ceH
	DB	086H
	DB	029H
	DB	086H
	DB	029H
	DB	086H
	DB	029H
	DB	086H
	DB	029H
	DB	0e8H
	DB	039H
	DB	0dfH
	DB	0ffH
	DB	0ffH
	DB	0ffH
	DB	0ffH
	DB	0ffH
	DB	0ffH
	DB	0ffH
	DB	0ffH
	DB	0ffH
	DB	0ffH
	DB	0ffH
	DB	0ffH
	DB	0ffH
	DB	0ffH
	DB	0ffH
	DB	0ffH
	DB	0ffH
	DB	0ffH
	DB	0ffH
	DB	0ffH
	DB	0ffH
	DB	0ffH
	DB	0ffH
	DB	0ffH
	DB	0ffH
	DB	0ffH
	DB	0ffH
	DB	0ffH
	DB	0ffH
	DB	0ffH
	DB	0ffH
	DB	0ffH
	DB	0ffH
	DB	0ffH
	DB	0ffH
	DB	0ffH
	DB	0ffH
	DB	0ffH
	DB	0ffH
	DB	0ffH
	DB	0ffH
	DB	0ffH
	DB	0ffH
	DB	0ffH
	DB	0ffH
	DB	0ffH
	DB	0ffH
	DB	0ffH
	DB	0ffH
	DB	0ffH
	DB	0ffH
	DB	0ffH
	DB	0ffH
	DB	0ffH
	DB	0ffH
	DB	0ffH
	DB	0ffH
	DB	0ffH
	DB	0ffH
	DB	0ffH
	DB	0ffH
	DB	0ffH
	DB	0ffH
	DB	0ffH
	DB	0ffH
	DB	0ffH
	DB	0ffH
	DB	0ffH
	DB	0ffH
	DB	0ffH
	DB	0ffH
	DB	0ffH
	DB	0ffH
	DB	0ffH
	DB	0ffH
	DB	0ffH
	DB	0ffH
	DB	0ffH
	DB	0ffH
	DB	0ffH
	DB	0ffH
	DB	0ffH
	DB	0ffH
	DB	0ffH
	DB	0ffH
	DB	0ffH
	DB	0ffH
	DB	0ffH
	DB	0ffH
	DB	0ffH
	DB	0ffH
	DB	0ffH
	DB	0ffH
	DB	0abH
	DB	052H
	DB	086H
	DB	029H
	DB	086H
	DB	029H
	DB	086H
	DB	029H
	DB	086H
	DB	029H
	DB	0d3H
	DB	09cH
	DB	0ffH
	DB	0ffH
	DB	0ffH
	DB	0ffH
	DB	0ffH
	DB	0ffH
	DB	0ffH
	DB	0ffH
	DB	0ffH
	DB	0ffH
	DB	0ffH
	DB	0ffH
	DB	0ffH
	DB	0ffH
	DB	0ffH
	DB	0ffH
	DB	0ffH
	DB	0ffH
	DB	0ffH
	DB	0ffH
	DB	0ffH
	DB	0ffH
	DB	0ffH
	DB	0ffH
	DB	0ffH
	DB	0ffH
	DB	0ffH
	DB	0ffH
	DB	0ffH
	DB	0ffH
	DB	0ffH
	DB	0ffH
	DB	0ffH
	DB	0ffH
	DB	0ffH
	DB	0ffH
	DB	0ffH
	DB	0ffH
	DB	0ffH
	DB	0ffH
	DB	0ffH
	DB	0ffH
	DB	0ffH
	DB	0ffH
	DB	0ffH
	DB	0ffH
	DB	0ffH
	DB	0ffH
	DB	0ffH
	DB	0ffH
	DB	0ffH
	DB	0ffH
	DB	0ffH
	DB	0ffH
	DB	0ffH
	DB	0ffH
	DB	0ffH
	DB	0ffH
	DB	0ffH
	DB	0ffH
	DB	0ffH
	DB	0ffH
	DB	0ffH
	DB	0ffH
	DB	0ffH
	DB	0ffH
	DB	0ffH
	DB	0ffH
	DB	0ffH
	DB	0ffH
	DB	0ffH
	DB	0ffH
	DB	0ffH
	DB	0ffH
	DB	0ffH
	DB	0ffH
	DB	0ffH
	DB	0ffH
	DB	0ffH
	DB	0ffH
	DB	0ffH
	DB	0ffH
	DB	0ffH
	DB	0ffH
	DB	0ffH
	DB	0ffH
	DB	0ffH
	DB	0ffH
	DB	0ffH
	DB	0ffH
	DB	0ffH
	DB	0ffH
	DB	079H
	DB	0ceH
	DB	086H
	DB	031H
	DB	086H
	DB	029H
	DB	086H
	DB	029H
	DB	086H
	DB	029H
	DB	0a7H
	DB	031H
	DB	0d7H
	DB	0bdH
	DB	0ffH
	DB	0ffH
	DB	0ffH
	DB	0ffH
	DB	0ffH
	DB	0ffH
	DB	0ffH
	DB	0ffH
	DB	0ffH
	DB	0ffH
	DB	0ffH
	DB	0ffH
	DB	0ffH
	DB	0ffH
	DB	0ffH
	DB	0ffH
	DB	0ffH
	DB	0ffH
	DB	0ffH
	DB	0ffH
	DB	0ffH
	DB	0ffH
	DB	0ffH
	DB	0ffH
	DB	0ffH
	DB	0ffH
	DB	0ffH
	DB	0ffH
	DB	0ffH
	DB	0ffH
	DB	0ffH
	DB	0ffH
	DB	0ffH
	DB	0ffH
	DB	0ffH
	DB	0ffH
	DB	0ffH
	DB	0ffH
	DB	0ffH
	DB	0ffH
	DB	0ffH
	DB	0ffH
	DB	0ffH
	DB	0ffH
	DB	0ffH
	DB	0ffH
	DB	0ffH
	DB	0ffH
	DB	0ffH
	DB	0ffH
	DB	0ffH
	DB	0ffH
	DB	0ffH
	DB	0ffH
	DB	0ffH
	DB	0ffH
	DB	0ffH
	DB	0ffH
	DB	0ffH
	DB	0ffH
	DB	0ffH
	DB	0ffH
	DB	0ffH
	DB	0ffH
	DB	0ffH
	DB	0ffH
	DB	0ffH
	DB	0ffH
	DB	0ffH
	DB	0ffH
	DB	0ffH
	DB	0ffH
	DB	0ffH
	DB	0ffH
	DB	0ffH
	DB	0ffH
	DB	0ffH
	DB	0ffH
	DB	0ffH
	DB	0ffH
	DB	0ffH
	DB	0ffH
	DB	0ffH
	DB	0ffH
	DB	0ffH
	DB	0ffH
	DB	0ffH
	DB	0ffH
	DB	0ffH
	DB	0ffH
	DB	0ffH
	DB	0ffH
	DB	034H
	DB	0a5H
	DB	086H
	DB	029H
	DB	086H
	DB	029H
	DB	086H
	DB	029H
	DB	086H
	DB	029H
	DB	086H
	DB	031H
	DB	0f0H
	DB	07bH
	DB	01cH
	DB	0e7H
	DB	0ffH
	DB	0ffH
	DB	0ffH
	DB	0ffH
	DB	0ffH
	DB	0ffH
	DB	0ffH
	DB	0ffH
	DB	0ffH
	DB	0ffH
	DB	0ffH
	DB	0ffH
	DB	0ffH
	DB	0ffH
	DB	0ffH
	DB	0ffH
	DB	0ffH
	DB	0ffH
	DB	0ffH
	DB	0ffH
	DB	0ffH
	DB	0ffH
	DB	0ffH
	DB	0ffH
	DB	0ffH
	DB	0ffH
	DB	0ffH
	DB	0ffH
	DB	0ffH
	DB	0ffH
	DB	0ffH
	DB	0ffH
	DB	0ffH
	DB	0ffH
	DB	0ffH
	DB	0ffH
	DB	0ffH
	DB	0ffH
	DB	0ffH
	DB	0ffH
	DB	0ffH
	DB	0ffH
	DB	0ffH
	DB	0ffH
	DB	0ffH
	DB	0ffH
	DB	0ffH
	DB	0ffH
	DB	0ffH
	DB	0ffH
	DB	0ffH
	DB	0ffH
	DB	0ffH
	DB	0ffH
	DB	0ffH
	DB	0ffH
	DB	0fbH
	DB	0deH
	DB	096H
	DB	0b5H
	DB	096H
	DB	0b5H
	DB	096H
	DB	0b5H
	DB	096H
	DB	0b5H
	DB	096H
	DB	0b5H
	DB	096H
	DB	0b5H
	DB	096H
	DB	0b5H
	DB	096H
	DB	0b5H
	DB	096H
	DB	0b5H
	DB	096H
	DB	0b5H
	DB	096H
	DB	0b5H
	DB	096H
	DB	0b5H
	DB	096H
	DB	0b5H
	DB	096H
	DB	0b5H
	DB	096H
	DB	0b5H
	DB	096H
	DB	0b5H
	DB	04dH
	DB	06bH
	DB	086H
	DB	029H
	DB	086H
	DB	029H
	DB	086H
	DB	029H
	DB	086H
	DB	029H
	DB	086H
	DB	029H
	DB	086H
	DB	031H
	DB	0abH
	DB	052H
	DB	010H
	DB	084H
	DB	0f4H
	DB	09cH
	DB	075H
	DB	0adH
	DB	096H
	DB	0b5H
	DB	096H
	DB	0b5H
	DB	096H
	DB	0b5H
	DB	096H
	DB	0b5H
	DB	096H
	DB	0b5H
	DB	096H
	DB	0b5H
	DB	096H
	DB	0b5H
	DB	096H
	DB	0b5H
	DB	096H
	DB	0b5H
	DB	096H
	DB	0b5H
	DB	096H
	DB	0b5H
	DB	096H
	DB	0b5H
	DB	096H
	DB	0b5H
	DB	096H
	DB	0b5H
	DB	096H
	DB	0b5H
	DB	096H
	DB	0b5H
	DB	096H
	DB	0b5H
	DB	096H
	DB	0b5H
	DB	096H
	DB	0b5H
	DB	096H
	DB	0b5H
	DB	096H
	DB	0b5H
	DB	096H
	DB	0b5H
	DB	059H
	DB	0c6H
	DB	0ffH
	DB	0ffH
	DB	0e8H
	DB	039H
	DB	086H
	DB	029H
	DB	086H
	DB	029H
	DB	086H
	DB	029H
	DB	086H
	DB	029H
	DB	086H
	DB	029H
	DB	086H
	DB	029H
	DB	086H
	DB	029H
	DB	086H
	DB	029H
	DB	086H
	DB	029H
	DB	086H
	DB	029H
	DB	086H
	DB	029H
	DB	086H
	DB	029H
	DB	086H
	DB	029H
	DB	086H
	DB	029H
	DB	086H
	DB	029H
	DB	086H
	DB	029H
	DB	086H
	DB	029H
	DB	086H
	DB	029H
	DB	086H
	DB	029H
	DB	086H
	DB	029H
	DB	086H
	DB	029H
	DB	086H
	DB	029H
	DB	086H
	DB	029H
	DB	086H
	DB	029H
	DB	086H
	DB	029H
	DB	086H
	DB	029H
	DB	086H
	DB	029H
	DB	086H
	DB	029H
	DB	086H
	DB	029H
	DB	086H
	DB	029H
	DB	086H
	DB	029H
	DB	086H
	DB	029H
	DB	086H
	DB	029H
	DB	086H
	DB	029H
	DB	086H
	DB	029H
	DB	086H
	DB	029H
	DB	086H
	DB	029H
	DB	086H
	DB	029H
	DB	086H
	DB	029H
	DB	086H
	DB	029H
	DB	086H
	DB	029H
	DB	086H
	DB	029H
	DB	086H
	DB	029H
	DB	086H
	DB	029H
	DB	086H
	DB	029H
	DB	086H
	DB	029H
	DB	086H
	DB	029H
	DB	086H
	DB	029H
	DB	086H
	DB	029H
	DB	086H
	DB	029H
	DB	09aH
	DB	0d6H
	DB	086H
	DB	029H
	DB	086H
	DB	029H
	DB	086H
	DB	029H
	DB	086H
	DB	029H
	DB	086H
	DB	029H
	DB	086H
	DB	029H
	DB	086H
	DB	029H
	DB	086H
	DB	029H
	DB	086H
	DB	029H
	DB	086H
	DB	029H
	DB	086H
	DB	029H
	DB	086H
	DB	029H
	DB	086H
	DB	029H
	DB	086H
	DB	029H
	DB	086H
	DB	029H
	DB	086H
	DB	029H
	DB	086H
	DB	029H
	DB	086H
	DB	029H
	DB	086H
	DB	029H
	DB	086H
	DB	029H
	DB	086H
	DB	029H
	DB	086H
	DB	029H
	DB	086H
	DB	029H
	DB	086H
	DB	029H
	DB	086H
	DB	029H
	DB	086H
	DB	029H
	DB	086H
	DB	029H
	DB	086H
	DB	029H
	DB	086H
	DB	029H
	DB	086H
	DB	029H
	DB	086H
	DB	029H
	DB	086H
	DB	029H
	DB	086H
	DB	029H
	DB	086H
	DB	029H
	DB	086H
	DB	029H
	DB	086H
	DB	029H
	DB	086H
	DB	029H
	DB	086H
	DB	029H
	DB	086H
	DB	029H
	DB	086H
	DB	029H
	DB	086H
	DB	029H
	DB	086H
	DB	029H
	DB	086H
	DB	029H
	DB	086H
	DB	029H
	DB	086H
	DB	029H
	DB	086H
	DB	029H
	DB	086H
	DB	029H
	DB	086H
	DB	029H
	DB	086H
	DB	029H
	DB	086H
	DB	029H
	DB	086H
	DB	029H
	DB	018H
	DB	0c6H
	DB	086H
	DB	029H
	DB	086H
	DB	029H
	DB	086H
	DB	029H
	DB	086H
	DB	029H
	DB	086H
	DB	029H
	DB	086H
	DB	029H
	DB	086H
	DB	029H
	DB	086H
	DB	029H
	DB	086H
	DB	029H
	DB	086H
	DB	029H
	DB	086H
	DB	029H
	DB	086H
	DB	029H
	DB	086H
	DB	029H
	DB	086H
	DB	029H
	DB	086H
	DB	029H
	DB	086H
	DB	029H
	DB	086H
	DB	029H
	DB	086H
	DB	029H
	DB	086H
	DB	029H
	DB	086H
	DB	029H
	DB	086H
	DB	029H
	DB	086H
	DB	029H
	DB	086H
	DB	029H
	DB	086H
	DB	029H
	DB	086H
	DB	029H
	DB	086H
	DB	029H
	DB	086H
	DB	029H
	DB	086H
	DB	029H
	DB	086H
	DB	029H
	DB	086H
	DB	029H
	DB	086H
	DB	029H
	DB	086H
	DB	029H
	DB	086H
	DB	029H
	DB	086H
	DB	029H
	DB	086H
	DB	029H
	DB	086H
	DB	029H
	DB	086H
	DB	029H
	DB	086H
	DB	029H
	DB	086H
	DB	029H
	DB	086H
	DB	029H
	DB	086H
	DB	029H
	DB	086H
	DB	029H
	DB	086H
	DB	029H
	DB	086H
	DB	029H
	DB	086H
	DB	029H
	DB	086H
	DB	029H
	DB	086H
	DB	029H
	DB	086H
	DB	029H
	DB	086H
	DB	029H
	DB	086H
	DB	029H
	DB	086H
	DB	029H
	DB	018H
	DB	0c6H
	DB	086H
	DB	029H
	DB	086H
	DB	029H
	DB	086H
	DB	029H
	DB	086H
	DB	029H
	DB	086H
	DB	029H
	DB	086H
	DB	029H
	DB	086H
	DB	029H
	DB	086H
	DB	029H
	DB	086H
	DB	029H
	DB	086H
	DB	029H
	DB	086H
	DB	029H
	DB	086H
	DB	029H
	DB	086H
	DB	029H
	DB	086H
	DB	029H
	DB	086H
	DB	029H
	DB	086H
	DB	029H
	DB	086H
	DB	029H
	DB	086H
	DB	029H
	DB	086H
	DB	029H
	DB	086H
	DB	029H
	DB	086H
	DB	029H
	DB	086H
	DB	029H
	DB	086H
	DB	029H
	DB	086H
	DB	029H
	DB	086H
	DB	029H
	DB	086H
	DB	029H
	DB	086H
	DB	029H
	DB	086H
	DB	029H
	DB	086H
	DB	029H
	DB	086H
	DB	029H
	DB	086H
	DB	029H
	DB	086H
	DB	029H
	DB	086H
	DB	029H
	DB	086H
	DB	029H
	DB	086H
	DB	029H
	DB	086H
	DB	029H
	DB	086H
	DB	029H
	DB	086H
	DB	029H
	DB	086H
	DB	029H
	DB	086H
	DB	029H
	DB	086H
	DB	029H
	DB	086H
	DB	029H
	DB	086H
	DB	029H
	DB	086H
	DB	029H
	DB	086H
	DB	029H
	DB	086H
	DB	029H
	DB	086H
	DB	029H
	DB	086H
	DB	029H
	DB	086H
	DB	029H
	DB	086H
	DB	029H
	DB	086H
	DB	029H
	DB	018H
	DB	0c6H
	DB	0a7H
	DB	031H
	DB	086H
	DB	029H
	DB	086H
	DB	029H
	DB	086H
	DB	029H
	DB	086H
	DB	029H
	DB	086H
	DB	029H
	DB	086H
	DB	029H
	DB	086H
	DB	029H
	DB	086H
	DB	029H
	DB	086H
	DB	029H
	DB	086H
	DB	029H
	DB	086H
	DB	029H
	DB	086H
	DB	029H
	DB	086H
	DB	029H
	DB	086H
	DB	029H
	DB	086H
	DB	029H
	DB	086H
	DB	029H
	DB	086H
	DB	029H
	DB	086H
	DB	029H
	DB	086H
	DB	029H
	DB	086H
	DB	029H
	DB	086H
	DB	029H
	DB	086H
	DB	029H
	DB	086H
	DB	029H
	DB	086H
	DB	029H
	DB	086H
	DB	029H
	DB	086H
	DB	029H
	DB	086H
	DB	029H
	DB	086H
	DB	029H
	DB	086H
	DB	029H
	DB	086H
	DB	029H
	DB	086H
	DB	029H
	DB	086H
	DB	029H
	DB	086H
	DB	029H
	DB	086H
	DB	029H
	DB	086H
	DB	029H
	DB	086H
	DB	029H
	DB	086H
	DB	029H
	DB	086H
	DB	029H
	DB	086H
	DB	029H
	DB	086H
	DB	029H
	DB	086H
	DB	029H
	DB	086H
	DB	029H
	DB	086H
	DB	029H
	DB	086H
	DB	029H
	DB	086H
	DB	029H
	DB	086H
	DB	029H
	DB	086H
	DB	029H
	DB	086H
	DB	029H
	DB	086H
	DB	029H
	DB	086H
	DB	029H
	DB	038H
	DB	0c6H
	DB	096H
	DB	0adH
	DB	0cfH
	DB	073H
	DB	0afH
	DB	073H
	DB	0afH
	DB	073H
	DB	0afH
	DB	073H
	DB	0afH
	DB	073H
	DB	0afH
	DB	073H
	DB	0afH
	DB	073H
	DB	0afH
	DB	073H
	DB	0afH
	DB	073H
	DB	0afH
	DB	073H
	DB	0afH
	DB	073H
	DB	0afH
	DB	073H
	DB	0afH
	DB	073H
	DB	0afH
	DB	073H
	DB	0afH
	DB	073H
	DB	0afH
	DB	073H
	DB	0afH
	DB	073H
	DB	0afH
	DB	073H
	DB	0afH
	DB	073H
	DB	0afH
	DB	073H
	DB	0afH
	DB	073H
	DB	0afH
	DB	073H
	DB	0afH
	DB	073H
	DB	0afH
	DB	073H
	DB	0afH
	DB	073H
	DB	0afH
	DB	073H
	DB	0afH
	DB	073H
	DB	0afH
	DB	073H
	DB	0afH
	DB	073H
	DB	0afH
	DB	073H
	DB	0afH
	DB	073H
	DB	0afH
	DB	073H
	DB	0afH
	DB	073H
	DB	0afH
	DB	073H
	DB	0afH
	DB	073H
	DB	0afH
	DB	073H
	DB	0afH
	DB	073H
	DB	0afH
	DB	073H
	DB	0afH
	DB	073H
	DB	0afH
	DB	073H
	DB	0afH
	DB	073H
	DB	0afH
	DB	073H
	DB	0afH
	DB	073H
	DB	0afH
	DB	073H
	DB	0afH
	DB	073H
	DB	0afH
	DB	073H
	DB	0afH
	DB	073H
	DB	0afH
	DB	073H
	DB	0afH
	DB	073H
	DB	072H
	DB	08cH
	DB	0dfH
	DB	0ffH
	DB	0ffH
	DB	0ffH
	DB	0ffH
	DB	0ffH
	DB	0ffH
	DB	0ffH
	DB	0ffH
	DB	0ffH
	DB	0ffH
	DB	0ffH
	DB	0ffH
	DB	0ffH
	DB	0ffH
	DB	0ffH
	DB	0ffH
	DB	0ffH
	DB	0ffH
	DB	0ffH
	DB	0ffH
	DB	0ffH
	DB	0ffH
	DB	0ffH
	DB	0ffH
	DB	0ffH
	DB	0ffH
	DB	0ffH
	DB	0ffH
	DB	0ffH
	DB	0ffH
	DB	0ffH
	DB	0ffH
	DB	0ffH
	DB	0ffH
	DB	0ffH
	DB	0ffH
	DB	0ffH
	DB	0ffH
	DB	0ffH
	DB	0ffH
	DB	0ffH
	DB	0ffH
	DB	0ffH
	DB	0ffH
	DB	0ffH
	DB	0ffH
	DB	0ffH
	DB	0ffH
	DB	0ffH
	DB	0ffH
	DB	0ffH
	DB	0ffH
	DB	0ffH
	DB	0ffH
	DB	0ffH
	DB	0ffH
	DB	0ffH
	DB	0ffH
	DB	0ffH
	DB	0ffH
	DB	0ffH
	DB	0ffH
	DB	0ffH
	DB	0ffH
	DB	0ffH
	DB	0ffH
	DB	0ffH
	DB	0ffH
	DB	0ffH
	DB	0ffH
	DB	0ffH
	DB	0ffH
	DB	0ffH
	DB	0ffH
	DB	0ffH
	DB	0ffH
	DB	0ffH
	DB	0ffH
	DB	0ffH
	DB	0ffH
	DB	0ffH
	DB	0ffH
	DB	0ffH
	DB	0ffH
	DB	0ffH
	DB	0ffH
	DB	0ffH
	DB	0ffH
	DB	0ffH
	DB	0ffH
	DB	0ffH
	DB	0ffH
	DB	0ffH
	DB	0ffH
	DB	0ffH
	DB	0ffH
	DB	0ffH
	DB	0ffH
	DB	0ffH
	DB	0ffH
	DB	0ffH
	DB	0ffH
	DB	0ffH
	DB	0ffH
	DB	0ffH
	DB	0ffH
	DB	0ffH
	DB	0ffH
	DB	0ffH
	DB	0ffH
	DB	0ffH
	DB	0ffH
	DB	0ffH
	DB	0ffH
	DB	0ffH
	DB	0ffH
	DB	0ffH
	DB	0ffH
	DB	0ffH
	DB	0ffH
	DB	0ffH
	DB	0ffH
	DB	0ffH
	DB	0ffH
	DB	0ffH
	DB	0ffH
	DB	0ffH
	DB	0ffH
	DB	0ffH
	DB	0ffH
	DB	0ffH
	DB	0ffH
	DB	0ffH
	DB	0ffH
	DB	0ffH
	DB	0ffH
	DB	0ffH
	DB	0ffH
	DB	0ffH
	DB	0ffH
	DB	0ffH
	DB	0ffH
	DB	0ffH
	DB	0ffH
	DB	0ffH
	DB	0ffH
	DB	0ffH
	DB	0ffH
	DB	0ffH
	DB	0ffH
	DB	0ffH
	DB	0ffH
	DB	0ffH
	DB	0ffH
	DB	0ffH
	DB	0ffH
	DB	0ffH
	DB	0ffH
	DB	0ffH
	DB	0ffH
	DB	0ffH
	DB	0ffH
	DB	0ffH
	DB	0ffH
	DB	0ffH
	DB	0ffH
	DB	0ffH
	DB	0ffH
	DB	0ffH
	DB	0ffH
	DB	0ffH
	DB	0ffH
	DB	0ffH
	DB	0ffH
	DB	0ffH
	DB	0ffH
	DB	0ffH
	DB	0ffH
	DB	0ffH
	DB	0ffH
	DB	0ffH
	DB	0ffH
	DB	0ffH
	DB	0ffH
	DB	0ffH
	DB	0ffH
	DB	0ffH
	DB	0ffH
	DB	0ffH
	DB	0ffH
	DB	0ffH
	DB	0ffH
	DB	0ffH
	DB	0ffH
	DB	0ffH
	DB	0ffH
	DB	0ffH
	DB	0ffH
	DB	0ffH
	DB	0ffH
	DB	0ffH
	DB	0ffH
	DB	0ffH
	DB	0ffH
	DB	0ffH
	DB	0ffH
	DB	0ffH
	DB	0ffH
	DB	0ffH
	DB	0ffH
	DB	0ffH
	DB	0ffH
	DB	0ffH
	DB	0ffH
	DB	0ffH
	DB	0ffH
	DB	0ffH
	DB	0ffH
	DB	0ffH
	DB	0ffH
	DB	0ffH
	DB	0ffH
	DB	0ffH
	DB	0ffH
	DB	0ffH
	DB	0ffH
	DB	0ffH
	DB	0ffH
	DB	0ffH
	DB	0ffH
	DB	0ffH
	DB	0ffH
	DB	0ffH
	DB	0ffH
	DB	0ffH
	DB	0ffH
	DB	0ffH
	DB	0ffH
	DB	0ffH
	DB	0ffH
	DB	0ffH
	DB	0ffH
	DB	0ffH
	DB	0ffH
	DB	0ffH
	DB	0ffH
	DB	0ffH
	DB	0ffH
	DB	0ffH
	DB	0ffH
	DB	0ffH
	DB	0ffH
	DB	0ffH
	DB	0ffH
	DB	0ffH
	DB	0ffH
	DB	0ffH
	DB	0ffH
	DB	0ffH
	DB	0ffH
	DB	0ffH
	DB	0ffH
	DB	0ffH
	DB	0ffH
	DB	0ffH
	DB	0ffH
	DB	0ffH
	DB	0ffH
	DB	0ffH
	DB	0ffH
	DB	0ffH
	DB	0ffH
	DB	0ffH
	DB	0ffH
	DB	0ffH
	DB	0ffH
	DB	0ffH
	DB	0ffH
	DB	0ffH
	DB	0ffH
	DB	0ffH
	DB	0ffH
	DB	0ffH
	DB	0ffH
	DB	0ffH
	DB	0ffH
	DB	0ffH
	DB	0ffH
	DB	0ffH
	DB	0ffH
	DB	0ffH
	DB	0ffH
	DB	0ffH
	DB	0ffH
	DB	0ffH
	DB	0ffH
	DB	0ffH
	DB	0ffH
	DB	0ffH
	DB	0ffH
	DB	0ffH
	DB	0ffH
	DB	0ffH
	DB	0ffH
	DB	0ffH
	DB	0ffH
	DB	0ffH
	DB	0ffH
	DB	0ffH
	DB	0ffH
	DB	0ffH
	DB	0ffH
	DB	0ffH
	DB	0ffH
	DB	0ffH
	DB	0ffH
	DB	0ffH
	DB	0ffH
	DB	0ffH
	DB	0ffH
	DB	0ffH
	DB	0ffH
	DB	0ffH
	DB	0ffH
	DB	0ffH
	DB	0ffH
	DB	0ffH
	DB	0ffH
	DB	0ffH
	DB	0ffH
	DB	0ffH
	DB	0ffH
	DB	0ffH
	DB	0ffH
	DB	0ffH
	DB	0ffH
	DB	0ffH
	DB	0ffH
	DB	0ffH
	DB	0ffH
	DB	0ffH
	DB	0ffH
	DB	0ffH
	DB	0ffH
	DB	0ffH
	DB	0ffH
	DB	0ffH
	DB	0ffH
	DB	0ffH
	DB	0ffH
	DB	0ffH
	DB	0ffH
	DB	0ffH
	DB	0ffH
	DB	0ffH
	DB	0ffH
	DB	0ffH
	DB	0ffH
	DB	0ffH
	DB	0ffH
	DB	0ffH
	DB	0ffH
	DB	0ffH
	DB	0ffH
	DB	0ffH
	DB	0ffH
	DB	0ffH
	DB	0ffH
	DB	0ffH
	DB	0ffH
	DB	0ffH
	DB	0ffH
	DB	0ffH
	DB	0ffH
	DB	0ffH
	DB	0ffH
	DB	0ffH
	DB	0ffH
	DB	0ffH
	DB	0ffH
	DB	0ffH
	DB	0ffH
	DB	0ffH
	DB	0ffH
	DB	0ffH
	DB	0ffH
	DB	0ffH
	DB	0ffH
	DB	0ffH
	DB	0ffH
	DB	0ffH
	DB	0ffH
	DB	0ffH
	DB	0ffH
	DB	0ffH
	DB	0ffH
	DB	0ffH
	DB	0ffH
	DB	0ffH
	DB	0ffH
	DB	0ffH
	DB	0ffH
	DB	0ffH
	DB	0ffH
	DB	0ffH
	DB	0ffH
	DB	0ffH
	DB	0ffH
	DB	0ffH
	DB	0ffH
	DB	0ffH
	DB	0ffH
	DB	0ffH
	DB	0ffH
	DB	0ffH
	DB	0ffH
	DB	0ffH
	DB	0ffH
	DB	0ffH
	DB	0ffH
	DB	0ffH
	DB	0ffH
	DB	0ffH
	DB	0ffH
	DB	0ffH
	DB	0ffH
	DB	0ffH
	DB	0ffH
	DB	0ffH
	DB	0ffH
	DB	0ffH
	DB	0ffH
	DB	0ffH
	DB	0ffH
	DB	0ffH
	DB	0ffH
	DB	0ffH
	DB	0ffH
	DB	0ffH
	DB	0ffH
	DB	0ffH
	DB	0ffH
	DB	0ffH
	DB	0ffH
	DB	0ffH
	DB	0ffH
	DB	0ffH
	DB	0ffH
	DB	0ffH
	DB	0ffH
	DB	0ffH
	DB	0ffH
	DB	0ffH
	DB	0ffH
	DB	0ffH
	DB	0ffH
	DB	0ffH
	DB	0ffH
	DB	0ffH
	DB	0ffH
	DB	0ffH
	DB	0ffH
	DB	0ffH
	DB	0ffH
	DB	0ffH
	DB	0ffH
	DB	0ffH
	DB	0ffH
	DB	0ffH
	DB	0ffH
	DB	0ffH
	DB	0ffH
	DB	0ffH
	DB	0ffH
	DB	0ffH
	DB	0ffH
	DB	0ffH
	DB	0ffH
	DB	0ffH
	DB	0ffH
	DB	0ffH
	DB	0ffH
	DB	0ffH
	DB	0ffH
	DB	0ffH
	DB	0ffH
	DB	0ffH
	DB	0ffH
	DB	0ffH
	DB	0ffH
	DB	0ffH
	DB	0ffH
	DB	0ffH
	DB	0ffH
	DB	0ffH
	DB	0ffH
	DB	0ffH
	DB	0ffH
	DB	0ffH
	DB	0ffH
	DB	0ffH
	DB	0ffH
	DB	0ffH
	DB	0ffH
	DB	0ffH
	DB	0ffH
	DB	0ffH
	DB	0ffH
	DB	0ffH
	DB	0ffH
	DB	0ffH
	DB	0ffH
	DB	0ffH
	DB	0ffH
	DB	0ffH
	DB	0ffH
	DB	0ffH
	DB	0ffH
	DB	0ffH
	DB	0ffH
	DB	0ffH
	DB	0ffH
	DB	0ffH
	DB	0ffH
	DB	0ffH
	DB	0ffH
	DB	0ffH
	DB	0ffH
	DB	0ffH
	DB	0ffH
	DB	0ffH
	DB	0ffH
	DB	0ffH
	DB	0ffH
	DB	0ffH
	DB	0ffH
	DB	0ffH
	DB	0ffH
	DB	0ffH
	DB	0ffH
	DB	0ffH
	DB	0ffH
	DB	0ffH
	DB	0ffH
	DB	0ffH
	DB	0ffH
	DB	0ffH
	DB	0ffH
	DB	0ffH
	DB	0ffH
	DB	0ffH
	DB	0ffH
	DB	0ffH
	DB	0ffH
	DB	0ffH
	DB	0ffH
	DB	0ffH
	DB	0ffH
	DB	0ffH
	DB	0ffH
	DB	0ffH
	DB	0ffH
	DB	0ffH
	DB	0ffH
	DB	0ffH
	DB	0ffH
	DB	0ffH
	DB	0ffH
	DB	0ffH
	DB	0ffH
	DB	0ffH
	DB	0ffH
	DB	0ffH
	DB	0ffH
	DB	0ffH
	DB	0ffH
	DB	0ffH
	DB	0ffH
	DB	0ffH
	DB	0ffH
	DB	0ffH
	DB	0ffH
	DB	0ffH
	DB	0ffH
	DB	0ffH
	DB	0ffH
	DB	0ffH
	DB	0ffH
	DB	0ffH
	DB	0ffH
	DB	0ffH
	DB	0ffH
	DB	0ffH
	DB	0ffH
	DB	0ffH
	DB	0ffH
	DB	0ffH
	DB	0ffH
	DB	0ffH
	DB	0ffH
	DB	0ffH
	DB	0ffH
	DB	0ffH
	DB	0ffH
	DB	0ffH
	DB	0ffH
	DB	0ffH
	DB	0ffH
	DB	0ffH
	DB	0ffH
	DB	0ffH
	DB	0ffH
	DB	0ffH
	DB	0baH
	DB	0d6H
	DB	039H
	DB	0c6H
	DB	0ffH
	DB	0ffH
	DB	0ffH
	DB	0ffH
	DB	0ffH
	DB	0ffH
	DB	0ffH
	DB	0ffH
	DB	0ffH
	DB	0ffH
	DB	0ffH
	DB	0ffH
	DB	0ffH
	DB	0ffH
	DB	0ffH
	DB	0ffH
	DB	0ffH
	DB	0ffH
	DB	0ffH
	DB	0ffH
	DB	0ffH
	DB	0ffH
	DB	0ffH
	DB	0ffH
	DB	0ffH
	DB	0ffH
	DB	0ffH
	DB	0ffH
	DB	0ffH
	DB	0ffH
	DB	0ffH
	DB	0ffH
	DB	0ffH
	DB	0ffH
	DB	0ffH
	DB	0ffH
	DB	0ffH
	DB	0ffH
	DB	0ffH
	DB	0ffH
	DB	0dfH
	DB	0ffH
	DB	030H
	DB	084H
	DB	010H
	DB	084H
	DB	09eH
	DB	0f7H
	DB	0ffH
	DB	0ffH
	DB	0ffH
	DB	0ffH
	DB	0ffH
	DB	0ffH
	DB	0ffH
	DB	0ffH
	DB	0ffH
	DB	0ffH
	DB	0ffH
	DB	0ffH
	DB	0ffH
	DB	0ffH
	DB	0ffH
	DB	0ffH
	DB	0ffH
	DB	0ffH
	DB	0ffH
	DB	0ffH
	DB	0ffH
	DB	0ffH
	DB	0ffH
	DB	0ffH
	DB	0ffH
	DB	0ffH
	DB	0ffH
	DB	0ffH
	DB	0ffH
	DB	0ffH
	DB	0ffH
	DB	0ffH
	DB	0ffH
	DB	0ffH
	DB	0ffH
	DB	0ffH
	DB	0ffH
	DB	0ffH
	DB	0ffH
	DB	0ffH
	DB	0ffH
	DB	0ffH
	DB	0ffH
	DB	0ffH
	DB	0ffH
	DB	0ffH
	DB	0ffH
	DB	0ffH
	DB	0ffH
	DB	0ffH
	DB	092H
	DB	094H
	DB	086H
	DB	031H
	DB	086H
	DB	029H
	DB	0d3H
	DB	09cH
	DB	0ffH
	DB	0ffH
	DB	0ffH
	DB	0ffH
	DB	0ffH
	DB	0ffH
	DB	0ffH
	DB	0ffH
	DB	0ffH
	DB	0ffH
	DB	0ffH
	DB	0ffH
	DB	0ffH
	DB	0ffH
	DB	0ffH
	DB	0ffH
	DB	0ffH
	DB	0ffH
	DB	0ffH
	DB	0ffH
	DB	0ffH
	DB	0ffH
	DB	0ffH
	DB	0ffH
	DB	0ffH
	DB	0ffH
	DB	0ffH
	DB	0ffH
	DB	0ffH
	DB	0ffH
	DB	0ffH
	DB	0ffH
	DB	0ffH
	DB	0ffH
	DB	0ffH
	DB	0ffH
	DB	0ffH
	DB	0ffH
	DB	0efH
	DB	07bH
	DB	086H
	DB	029H
	DB	086H
	DB	029H
	DB	06aH
	DB	04aH
	DB	0dbH
	DB	0deH
	DB	0ffH
	DB	0ffH
	DB	0ffH
	DB	0ffH
	DB	0ffH
	DB	0ffH
	DB	0ffH
	DB	0ffH
	DB	0ffH
	DB	0ffH
	DB	0ffH
	DB	0ffH
	DB	0ffH
	DB	0ffH
	DB	0ffH
	DB	0ffH
	DB	0ffH
	DB	0ffH
	DB	0ffH
	DB	0ffH
	DB	0ffH
	DB	0ffH
	DB	0ffH
	DB	0ffH
	DB	0ffH
	DB	0ffH
	DB	0ffH
	DB	0ffH
	DB	0ffH
	DB	0ffH
	DB	0ffH
	DB	0ffH
	DB	0ffH
	DB	0ffH
	DB	0ffH
	DB	0ffH
	DB	0ffH
	DB	0ffH
	DB	0ffH
	DB	0ffH
	DB	0ffH
	DB	0ffH
	DB	0ffH
	DB	0ffH
	DB	0beH
	DB	0f7H
	DB	04dH
	DB	063H
	DB	086H
	DB	029H
	DB	086H
	DB	029H
	DB	086H
	DB	029H
	DB	086H
	DB	031H
	DB	0f7H
	DB	0bdH
	DB	0ffH
	DB	0ffH
	DB	0ffH
	DB	0ffH
	DB	0ffH
	DB	0ffH
	DB	0ffH
	DB	0ffH
	DB	0ffH
	DB	0ffH
	DB	0ffH
	DB	0ffH
	DB	0ffH
	DB	0ffH
	DB	0ffH
	DB	0ffH
	DB	0ffH
	DB	0ffH
	DB	0ffH
	DB	0ffH
	DB	0ffH
	DB	0ffH
	DB	0ffH
	DB	0ffH
	DB	0ffH
	DB	0ffH
	DB	0ffH
	DB	0ffH
	DB	0ffH
	DB	0ffH
	DB	0ffH
	DB	0ffH
	DB	0ffH
	DB	0ffH
	DB	0f7H
	DB	0bdH
	DB	086H
	DB	029H
	DB	086H
	DB	029H
	DB	086H
	DB	029H
	DB	086H
	DB	029H
	DB	0c7H
	DB	039H
	DB	0bbH
	DB	0d6H
	DB	0ffH
	DB	0ffH
	DB	0ffH
	DB	0ffH
	DB	0ffH
	DB	0ffH
	DB	0ffH
	DB	0ffH
	DB	0ffH
	DB	0ffH
	DB	0ffH
	DB	0ffH
	DB	0ffH
	DB	0ffH
	DB	0ffH
	DB	0ffH
	DB	0ffH
	DB	0ffH
	DB	0ffH
	DB	0ffH
	DB	0ffH
	DB	0ffH
	DB	0ffH
	DB	0ffH
	DB	0ffH
	DB	0ffH
	DB	0ffH
	DB	0ffH
	DB	0ffH
	DB	0ffH
	DB	0ffH
	DB	0ffH
	DB	0ffH
	DB	0ffH
	DB	0ffH
	DB	0ffH
	DB	0ffH
	DB	0ffH
	DB	0ffH
	DB	0ffH
	DB	0ffH
	DB	0ffH
	DB	0f7H
	DB	0bdH
	DB	086H
	DB	029H
	DB	086H
	DB	029H
	DB	086H
	DB	029H
	DB	086H
	DB	029H
	DB	086H
	DB	029H
	DB	08H
	DB	03aH
	DB	07eH
	DB	0efH
	DB	0ffH
	DB	0ffH
	DB	0ffH
	DB	0ffH
	DB	0ffH
	DB	0ffH
	DB	0ffH
	DB	0ffH
	DB	0ffH
	DB	0ffH
	DB	0ffH
	DB	0ffH
	DB	0ffH
	DB	0ffH
	DB	0ffH
	DB	0ffH
	DB	0ffH
	DB	0ffH
	DB	0ffH
	DB	0ffH
	DB	0ffH
	DB	0ffH
	DB	0ffH
	DB	0ffH
	DB	0ffH
	DB	0ffH
	DB	0ffH
	DB	0ffH
	DB	0ffH
	DB	0ffH
	DB	0ffH
	DB	0ffH
	DB	06aH
	DB	04aH
	DB	086H
	DB	029H
	DB	086H
	DB	029H
	DB	086H
	DB	029H
	DB	086H
	DB	029H
	DB	086H
	DB	029H
	DB	0b6H
	DB	0b5H
	DB	0ffH
	DB	0ffH
	DB	0ffH
	DB	0ffH
	DB	0ffH
	DB	0ffH
	DB	0ffH
	DB	0ffH
	DB	0ffH
	DB	0ffH
	DB	0ffH
	DB	0ffH
	DB	0ffH
	DB	0ffH
	DB	0ffH
	DB	0ffH
	DB	0ffH
	DB	0ffH
	DB	0ffH
	DB	0ffH
	DB	0ffH
	DB	0ffH
	DB	0ffH
	DB	0ffH
	DB	0ffH
	DB	0ffH
	DB	0ffH
	DB	0ffH
	DB	0ffH
	DB	0ffH
	DB	0ffH
	DB	0ffH
	DB	0ffH
	DB	0ffH
	DB	0ffH
	DB	0ffH
	DB	0ffH
	DB	0ffH
	DB	0ffH
	DB	0ffH
	DB	0ffH
	DB	0ffH
	DB	0dfH
	DB	0ffH
	DB	02dH
	DB	063H
	DB	086H
	DB	029H
	DB	086H
	DB	029H
	DB	086H
	DB	029H
	DB	086H
	DB	029H
	DB	086H
	DB	029H
	DB	072H
	DB	08cH
	DB	0ffH
	DB	0ffH
	DB	0ffH
	DB	0ffH
	DB	0ffH
	DB	0ffH
	DB	0ffH
	DB	0ffH
	DB	0ffH
	DB	0ffH
	DB	0ffH
	DB	0ffH
	DB	0ffH
	DB	0ffH
	DB	0ffH
	DB	0ffH
	DB	0ffH
	DB	0ffH
	DB	0ffH
	DB	0ffH
	DB	0ffH
	DB	0ffH
	DB	0ffH
	DB	0ffH
	DB	0ffH
	DB	0ffH
	DB	0ffH
	DB	0ffH
	DB	0ffH
	DB	0ffH
	DB	038H
	DB	0c6H
	DB	086H
	DB	029H
	DB	086H
	DB	029H
	DB	086H
	DB	029H
	DB	086H
	DB	029H
	DB	086H
	DB	029H
	DB	0cH
	DB	063H
	DB	0dfH
	DB	0ffH
	DB	0ffH
	DB	0ffH
	DB	0ffH
	DB	0ffH
	DB	0ffH
	DB	0ffH
	DB	0ffH
	DB	0ffH
	DB	0ffH
	DB	0ffH
	DB	0ffH
	DB	0ffH
	DB	0ffH
	DB	0ffH
	DB	0ffH
	DB	0ffH
	DB	0ffH
	DB	0ffH
	DB	0ffH
	DB	0ffH
	DB	0ffH
	DB	0ffH
	DB	0ffH
	DB	0ffH
	DB	0ffH
	DB	0ffH
	DB	0ffH
	DB	0ffH
	DB	0ffH
	DB	0ffH
	DB	0ffH
	DB	0ffH
	DB	0ffH
	DB	0ffH
	DB	0ffH
	DB	0ffH
	DB	0ffH
	DB	0ffH
	DB	0ffH
	DB	0ffH
	DB	0ffH
	DB	0ffH
	DB	0ffH
	DB	0ffH
	DB	09eH
	DB	0f7H
	DB	049H
	DB	04aH
	DB	086H
	DB	029H
	DB	086H
	DB	029H
	DB	086H
	DB	029H
	DB	086H
	DB	029H
	DB	0e8H
	DB	039H
	DB	0beH
	DB	0f7H
	DB	0ffH
	DB	0ffH
	DB	0ffH
	DB	0ffH
	DB	0ffH
	DB	0ffH
	DB	0ffH
	DB	0ffH
	DB	0ffH
	DB	0ffH
	DB	0ffH
	DB	0ffH
	DB	0ffH
	DB	0ffH
	DB	0ffH
	DB	0ffH
	DB	0ffH
	DB	0ffH
	DB	0ffH
	DB	0ffH
	DB	0ffH
	DB	0ffH
	DB	0ffH
	DB	0ffH
	DB	0ffH
	DB	0ffH
	DB	0ffH
	DB	0ffH
	DB	010H
	DB	084H
	DB	086H
	DB	029H
	DB	086H
	DB	029H
	DB	086H
	DB	029H
	DB	086H
	DB	029H
	DB	0a7H
	DB	031H
	DB	0fcH
	DB	0deH
	DB	0ffH
	DB	0ffH
	DB	0ffH
	DB	0ffH
	DB	0ffH
	DB	0ffH
	DB	0ffH
	DB	0ffH
	DB	0ffH
	DB	0ffH
	DB	0ffH
	DB	0ffH
	DB	0ffH
	DB	0ffH
	DB	0ffH
	DB	0ffH
	DB	0ffH
	DB	0ffH
	DB	0ffH
	DB	0ffH
	DB	0ffH
	DB	0ffH
	DB	0ffH
	DB	0ffH
	DB	0ffH
	DB	0ffH
	DB	0ffH
	DB	0ffH
	DB	0ffH
	DB	0ffH
	DB	0ffH
	DB	0ffH
	DB	0ffH
	DB	0ffH
	DB	0ffH
	DB	0ffH
	DB	0ffH
	DB	0ffH
	DB	0ffH
	DB	0ffH
	DB	0ffH
	DB	0ffH
	DB	0ffH
	DB	0ffH
	DB	0ffH
	DB	0ffH
	DB	0ffH
	DB	0ffH
	DB	0f7H
	DB	0bdH
	DB	086H
	DB	029H
	DB	086H
	DB	029H
	DB	086H
	DB	029H
	DB	086H
	DB	029H
	DB	086H
	DB	029H
	DB	0b7H
	DB	0b5H
	DB	0ffH
	DB	0ffH
	DB	0ffH
	DB	0ffH
	DB	0ffH
	DB	0ffH
	DB	0ffH
	DB	0ffH
	DB	0ffH
	DB	0ffH
	DB	0ffH
	DB	0ffH
	DB	0ffH
	DB	0ffH
	DB	0ffH
	DB	0ffH
	DB	0ffH
	DB	0ffH
	DB	0ffH
	DB	0ffH
	DB	0ffH
	DB	0ffH
	DB	0ffH
	DB	0ffH
	DB	0ffH
	DB	0ffH
	DB	0ffH
	DB	0ffH
	DB	06aH
	DB	04aH
	DB	086H
	DB	029H
	DB	086H
	DB	029H
	DB	086H
	DB	029H
	DB	086H
	DB	029H
	DB	08eH
	DB	073H
	DB	0ffH
	DB	0ffH
	DB	0ffH
	DB	0ffH
	DB	0ffH
	DB	0ffH
	DB	0ffH
	DB	0ffH
	DB	0ffH
	DB	0ffH
	DB	0ffH
	DB	0ffH
	DB	0ffH
	DB	0ffH
	DB	0ffH
	DB	0ffH
	DB	0ffH
	DB	0ffH
	DB	0ffH
	DB	0ffH
	DB	0ffH
	DB	0ffH
	DB	0ffH
	DB	0ffH
	DB	0ffH
	DB	0ffH
	DB	0ffH
	DB	0ffH
	DB	0ffH
	DB	0ffH
	DB	0ffH
	DB	0ffH
	DB	0ffH
	DB	0ffH
	DB	0ffH
	DB	0ffH
	DB	0ffH
	DB	0ffH
	DB	0ffH
	DB	0ffH
	DB	0ffH
	DB	0ffH
	DB	0ffH
	DB	0ffH
	DB	0ffH
	DB	0ffH
	DB	0ffH
	DB	0ffH
	DB	0ffH
	DB	0ffH
	DB	0ffH
	DB	0ffH
	DB	069H
	DB	04aH
	DB	086H
	DB	029H
	DB	086H
	DB	029H
	DB	086H
	DB	029H
	DB	086H
	DB	029H
	DB	0f0H
	DB	07bH
	DB	0ffH
	DB	0ffH
	DB	0ffH
	DB	0ffH
	DB	0ffH
	DB	0ffH
	DB	0ffH
	DB	0ffH
	DB	0ffH
	DB	0ffH
	DB	0ffH
	DB	0ffH
	DB	0ffH
	DB	0ffH
	DB	0ffH
	DB	0ffH
	DB	0ffH
	DB	0ffH
	DB	0ffH
	DB	0ffH
	DB	0ffH
	DB	0ffH
	DB	0ffH
	DB	0ffH
	DB	0ffH
	DB	0ffH
	DB	0beH
	DB	0f7H
	DB	086H
	DB	031H
	DB	086H
	DB	029H
	DB	086H
	DB	029H
	DB	086H
	DB	029H
	DB	086H
	DB	029H
	DB	096H
	DB	0b5H
	DB	0ffH
	DB	0ffH
	DB	0ffH
	DB	0ffH
	DB	0ffH
	DB	0ffH
	DB	0ffH
	DB	0ffH
	DB	0ffH
	DB	0ffH
	DB	0ffH
	DB	0ffH
	DB	0ffH
	DB	0ffH
	DB	0ffH
	DB	0ffH
	DB	0ffH
	DB	0ffH
	DB	0ffH
	DB	0ffH
	DB	0ffH
	DB	0ffH
	DB	0ffH
	DB	0ffH
	DB	0ffH
	DB	0ffH
	DB	0ffH
	DB	0ffH
	DB	0ffH
	DB	0ffH
	DB	0ffH
	DB	0ffH
	DB	0ffH
	DB	0ffH
	DB	0ffH
	DB	0ffH
	DB	0ffH
	DB	0ffH
	DB	0ffH
	DB	0ffH
	DB	0ffH
	DB	0ffH
	DB	0ffH
	DB	0ffH
	DB	0ffH
	DB	0ffH
	DB	0ffH
	DB	0ffH
	DB	0ffH
	DB	0ffH
	DB	0ffH
	DB	0ffH
	DB	051H
	DB	08cH
	DB	086H
	DB	029H
	DB	086H
	DB	029H
	DB	086H
	DB	029H
	DB	086H
	DB	029H
	DB	0abH
	DB	052H
	DB	0ffH
	DB	0ffH
	DB	0ffH
	DB	0ffH
	DB	0ffH
	DB	0ffH
	DB	0ffH
	DB	0ffH
	DB	0ffH
	DB	0ffH
	DB	0ffH
	DB	0ffH
	DB	0ffH
	DB	0ffH
	DB	0ffH
	DB	0ffH
	DB	0ffH
	DB	0ffH
	DB	0ffH
	DB	0ffH
	DB	0ffH
	DB	0ffH
	DB	0ffH
	DB	0ffH
	DB	0ffH
	DB	0ffH
	DB	01cH
	DB	0e7H
	DB	086H
	DB	029H
	DB	086H
	DB	029H
	DB	086H
	DB	029H
	DB	086H
	DB	029H
	DB	086H
	DB	029H
	DB	0baH
	DB	0d6H
	DB	0ffH
	DB	0ffH
	DB	0ffH
	DB	0ffH
	DB	0ffH
	DB	0ffH
	DB	0ffH
	DB	0ffH
	DB	0ffH
	DB	0ffH
	DB	0ffH
	DB	0ffH
	DB	0ffH
	DB	0ffH
	DB	0ffH
	DB	0ffH
	DB	0ffH
	DB	0ffH
	DB	0ffH
	DB	0ffH
	DB	0ffH
	DB	0ffH
	DB	0ffH
	DB	0ffH
	DB	0ffH
	DB	0ffH
	DB	0ffH
	DB	0ffH
	DB	0ffH
	DB	0ffH
	DB	0ffH
	DB	0ffH
	DB	0ffH
	DB	0ffH
	DB	0ffH
	DB	0ffH
	DB	0ffH
	DB	0ffH
	DB	0ffH
	DB	0ffH
	DB	0ffH
	DB	0ffH
	DB	0ffH
	DB	0ffH
	DB	0ffH
	DB	0ffH
	DB	0ffH
	DB	0ffH
	DB	0ffH
	DB	0ffH
	DB	0ffH
	DB	0ffH
	DB	075H
	DB	0adH
	DB	086H
	DB	029H
	DB	086H
	DB	029H
	DB	086H
	DB	029H
	DB	086H
	DB	029H
	DB	0e8H
	DB	039H
	DB	0ffH
	DB	0ffH
	DB	0ffH
	DB	0ffH
	DB	0ffH
	DB	0ffH
	DB	0ffH
	DB	0ffH
	DB	0ffH
	DB	0ffH
	DB	0ffH
	DB	0ffH
	DB	0ffH
	DB	0ffH
	DB	0ffH
	DB	0ffH
	DB	0ffH
	DB	0ffH
	DB	0ffH
	DB	0ffH
	DB	0ffH
	DB	0ffH
	DB	0ffH
	DB	0ffH
	DB	0ffH
	DB	0ffH
	DB	0baH
	DB	0d6H
	DB	086H
	DB	029H
	DB	086H
	DB	029H
	DB	086H
	DB	029H
	DB	086H
	DB	029H
	DB	086H
	DB	029H
	DB	03dH
	DB	0e7H
	DB	0ffH
	DB	0ffH
	DB	0ffH
	DB	0ffH
	DB	0ffH
	DB	0ffH
	DB	0ffH
	DB	0ffH
	DB	0ffH
	DB	0ffH
	DB	0ffH
	DB	0ffH
	DB	0ffH
	DB	0ffH
	DB	0ffH
	DB	0ffH
	DB	0ffH
	DB	0ffH
	DB	0ffH
	DB	0ffH
	DB	0ffH
	DB	0ffH
	DB	0ffH
	DB	0ffH
	DB	0ffH
	DB	0ffH
	DB	0ffH
	DB	0ffH
	DB	0ffH
	DB	0ffH
	DB	0ffH
	DB	0ffH
	DB	0ffH
	DB	0ffH
	DB	0ffH
	DB	0ffH
	DB	0ffH
	DB	0ffH
	DB	0ffH
	DB	0ffH
	DB	0ffH
	DB	0ffH
	DB	0ffH
	DB	0ffH
	DB	0ffH
	DB	0ffH
	DB	0ffH
	DB	0ffH
	DB	0ffH
	DB	0ffH
	DB	0ffH
	DB	0ffH
	DB	0f7H
	DB	0bdH
	DB	086H
	DB	029H
	DB	086H
	DB	029H
	DB	086H
	DB	029H
	DB	086H
	DB	029H
	DB	086H
	DB	029H
	DB	0ffH
	DB	0ffH
	DB	0ffH
	DB	0ffH
	DB	0ffH
	DB	0ffH
	DB	0ffH
	DB	0ffH
	DB	0ffH
	DB	0ffH
	DB	0ffH
	DB	0ffH
	DB	0ffH
	DB	0ffH
	DB	0ffH
	DB	0ffH
	DB	0ffH
	DB	0ffH
	DB	0ffH
	DB	0ffH
	DB	0ffH
	DB	0ffH
	DB	0ffH
	DB	0ffH
	DB	0ffH
	DB	0ffH
	DB	07aH
	DB	0ceH
	DB	086H
	DB	029H
	DB	086H
	DB	029H
	DB	086H
	DB	029H
	DB	086H
	DB	029H
	DB	086H
	DB	029H
	DB	03dH
	DB	0e7H
	DB	0ffH
	DB	0ffH
	DB	0ffH
	DB	0ffH
	DB	0ffH
	DB	0ffH
	DB	0ffH
	DB	0ffH
	DB	0ffH
	DB	0ffH
	DB	0ffH
	DB	0ffH
	DB	0ffH
	DB	0ffH
	DB	0ffH
	DB	0ffH
	DB	0ffH
	DB	0ffH
	DB	0ffH
	DB	0ffH
	DB	0ffH
	DB	0ffH
	DB	0ffH
	DB	0ffH
	DB	0ffH
	DB	0ffH
	DB	0ffH
	DB	0ffH
	DB	0ffH
	DB	0ffH
	DB	0ffH
	DB	0ffH
	DB	0ffH
	DB	0ffH
	DB	0ffH
	DB	0ffH
	DB	0ffH
	DB	0ffH
	DB	0ffH
	DB	0ffH
	DB	0ffH
	DB	0ffH
	DB	0ffH
	DB	0ffH
	DB	0ffH
	DB	0ffH
	DB	0ffH
	DB	0ffH
	DB	0ffH
	DB	0ffH
	DB	0ffH
	DB	0ffH
	DB	0b7H
	DB	0b5H
	DB	086H
	DB	029H
	DB	086H
	DB	029H
	DB	086H
	DB	029H
	DB	086H
	DB	029H
	DB	086H
	DB	029H
	DB	0ffH
	DB	0ffH
	DB	0ffH
	DB	0ffH
	DB	0ffH
	DB	0ffH
	DB	0ffH
	DB	0ffH
	DB	0ffH
	DB	0ffH
	DB	0ffH
	DB	0ffH
	DB	0ffH
	DB	0ffH
	DB	0ffH
	DB	0ffH
	DB	0ffH
	DB	0ffH
	DB	0ffH
	DB	0ffH
	DB	0ffH
	DB	0ffH
	DB	0ffH
	DB	0ffH
	DB	0ffH
	DB	0ffH
	DB	0dbH
	DB	0deH
	DB	086H
	DB	029H
	DB	086H
	DB	029H
	DB	086H
	DB	029H
	DB	086H
	DB	029H
	DB	086H
	DB	029H
	DB	0baH
	DB	0d6H
	DB	0ffH
	DB	0ffH
	DB	0ffH
	DB	0ffH
	DB	0ffH
	DB	0ffH
	DB	0ffH
	DB	0ffH
	DB	0ffH
	DB	0ffH
	DB	0ffH
	DB	0ffH
	DB	0ffH
	DB	0ffH
	DB	0ffH
	DB	0ffH
	DB	0ffH
	DB	0ffH
	DB	0ffH
	DB	0ffH
	DB	0ffH
	DB	0ffH
	DB	0ffH
	DB	0ffH
	DB	0ffH
	DB	0ffH
	DB	0ffH
	DB	0ffH
	DB	0ffH
	DB	0ffH
	DB	0ffH
	DB	0ffH
	DB	0ffH
	DB	0ffH
	DB	0ffH
	DB	0ffH
	DB	0ffH
	DB	0ffH
	DB	0ffH
	DB	0ffH
	DB	0ffH
	DB	0ffH
	DB	0ffH
	DB	0ffH
	DB	0ffH
	DB	0ffH
	DB	0ffH
	DB	0ffH
	DB	0ffH
	DB	0ffH
	DB	0ffH
	DB	0ffH
	DB	014H
	DB	0a5H
	DB	086H
	DB	029H
	DB	086H
	DB	029H
	DB	086H
	DB	029H
	DB	086H
	DB	029H
	DB	0a7H
	DB	031H
	DB	0ffH
	DB	0ffH
	DB	0ffH
	DB	0ffH
	DB	0ffH
	DB	0ffH
	DB	0ffH
	DB	0ffH
	DB	0ffH
	DB	0ffH
	DB	0ffH
	DB	0ffH
	DB	0ffH
	DB	0ffH
	DB	0ffH
	DB	0ffH
	DB	0ffH
	DB	0ffH
	DB	0ffH
	DB	0ffH
	DB	0ffH
	DB	0ffH
	DB	0ffH
	DB	0ffH
	DB	0ffH
	DB	0ffH
	DB	03cH
	DB	0e7H
	DB	086H
	DB	029H
	DB	086H
	DB	029H
	DB	086H
	DB	029H
	DB	086H
	DB	029H
	DB	086H
	DB	029H
	DB	076H
	DB	0adH
	DB	0ffH
	DB	0ffH
	DB	0ffH
	DB	0ffH
	DB	0ffH
	DB	0ffH
	DB	0ffH
	DB	0ffH
	DB	0ffH
	DB	0ffH
	DB	0ffH
	DB	0ffH
	DB	0ffH
	DB	0ffH
	DB	0ffH
	DB	0ffH
	DB	0ffH
	DB	0ffH
	DB	0ffH
	DB	0ffH
	DB	0ffH
	DB	0ffH
	DB	0ffH
	DB	0ffH
	DB	0ffH
	DB	0ffH
	DB	0ffH
	DB	0ffH
	DB	0ffH
	DB	0ffH
	DB	0ffH
	DB	0ffH
	DB	0ffH
	DB	0ffH
	DB	0ffH
	DB	0ffH
	DB	0ffH
	DB	0ffH
	DB	0ffH
	DB	0ffH
	DB	0ffH
	DB	0ffH
	DB	0ffH
	DB	0ffH
	DB	0ffH
	DB	0ffH
	DB	0ffH
	DB	0ffH
	DB	0ffH
	DB	0ffH
	DB	0ffH
	DB	0ffH
	DB	0cfH
	DB	07bH
	DB	086H
	DB	029H
	DB	086H
	DB	029H
	DB	086H
	DB	029H
	DB	086H
	DB	029H
	DB	029H
	DB	042H
	DB	0ffH
	DB	0ffH
	DB	0ffH
	DB	0ffH
	DB	0ffH
	DB	0ffH
	DB	0ffH
	DB	0ffH
	DB	0ffH
	DB	0ffH
	DB	0ffH
	DB	0ffH
	DB	0ffH
	DB	0ffH
	DB	0ffH
	DB	0ffH
	DB	0ffH
	DB	0ffH
	DB	0ffH
	DB	0ffH
	DB	0ffH
	DB	0ffH
	DB	0ffH
	DB	0ffH
	DB	0ffH
	DB	0ffH
	DB	0dfH
	DB	0ffH
	DB	0a7H
	DB	031H
	DB	086H
	DB	029H
	DB	086H
	DB	029H
	DB	086H
	DB	029H
	DB	086H
	DB	029H
	DB	08eH
	DB	06bH
	DB	0ffH
	DB	0ffH
	DB	0ffH
	DB	0ffH
	DB	0ffH
	DB	0ffH
	DB	0ffH
	DB	0ffH
	DB	0ffH
	DB	0ffH
	DB	0ffH
	DB	0ffH
	DB	0ffH
	DB	0ffH
	DB	0ffH
	DB	0ffH
	DB	0ffH
	DB	0ffH
	DB	0ffH
	DB	0ffH
	DB	0ffH
	DB	0ffH
	DB	0ffH
	DB	0ffH
	DB	0ffH
	DB	0ffH
	DB	0ffH
	DB	0ffH
	DB	0ffH
	DB	0ffH
	DB	0ffH
	DB	0ffH
	DB	0ffH
	DB	0ffH
	DB	0ffH
	DB	0ffH
	DB	0ffH
	DB	0ffH
	DB	0ffH
	DB	0ffH
	DB	0ffH
	DB	0ffH
	DB	0ffH
	DB	0ffH
	DB	0ffH
	DB	0ffH
	DB	0ffH
	DB	0ffH
	DB	0ffH
	DB	0ffH
	DB	0beH
	DB	0f7H
	DB	0e8H
	DB	039H
	DB	086H
	DB	029H
	DB	086H
	DB	029H
	DB	086H
	DB	029H
	DB	086H
	DB	029H
	DB	0cH
	DB	063H
	DB	0ffH
	DB	0ffH
	DB	0ffH
	DB	0ffH
	DB	0ffH
	DB	0ffH
	DB	0ffH
	DB	0ffH
	DB	0ffH
	DB	0ffH
	DB	0ffH
	DB	0ffH
	DB	0ffH
	DB	0ffH
	DB	0ffH
	DB	0ffH
	DB	0ffH
	DB	0ffH
	DB	0ffH
	DB	0ffH
	DB	0ffH
	DB	0ffH
	DB	0ffH
	DB	0ffH
	DB	0ffH
	DB	0ffH
	DB	0ffH
	DB	0ffH
	DB	0cbH
	DB	052H
	DB	086H
	DB	029H
	DB	086H
	DB	029H
	DB	086H
	DB	029H
	DB	086H
	DB	029H
	DB	086H
	DB	031H
	DB	0dbH
	DB	0deH
	DB	0ffH
	DB	0ffH
	DB	0ffH
	DB	0ffH
	DB	0ffH
	DB	0ffH
	DB	0ffH
	DB	0ffH
	DB	0ffH
	DB	0ffH
	DB	0ffH
	DB	0ffH
	DB	0ffH
	DB	0ffH
	DB	0ffH
	DB	0ffH
	DB	0ffH
	DB	0ffH
	DB	0ffH
	DB	0ffH
	DB	0ffH
	DB	0ffH
	DB	0ffH
	DB	0ffH
	DB	0ffH
	DB	0ffH
	DB	0ffH
	DB	0ffH
	DB	0ffH
	DB	0ffH
	DB	0ffH
	DB	0ffH
	DB	0ffH
	DB	0ffH
	DB	0ffH
	DB	0ffH
	DB	0ffH
	DB	0ffH
	DB	0ffH
	DB	0ffH
	DB	0ffH
	DB	0ffH
	DB	0ffH
	DB	0ffH
	DB	0ffH
	DB	0ffH
	DB	0ffH
	DB	0ffH
	DB	0f4H
	DB	09cH
	DB	086H
	DB	029H
	DB	086H
	DB	029H
	DB	086H
	DB	029H
	DB	086H
	DB	029H
	DB	086H
	DB	029H
	DB	051H
	DB	08cH
	DB	0ffH
	DB	0ffH
	DB	0ffH
	DB	0ffH
	DB	0ffH
	DB	0ffH
	DB	0ffH
	DB	0ffH
	DB	0ffH
	DB	0ffH
	DB	0ffH
	DB	0ffH
	DB	0ffH
	DB	0ffH
	DB	0ffH
	DB	0ffH
	DB	0ffH
	DB	0ffH
	DB	0ffH
	DB	0ffH
	DB	0ffH
	DB	0ffH
	DB	0ffH
	DB	0ffH
	DB	0ffH
	DB	0ffH
	DB	0ffH
	DB	0ffH
	DB	072H
	DB	08cH
	DB	086H
	DB	029H
	DB	086H
	DB	029H
	DB	086H
	DB	029H
	DB	086H
	DB	029H
	DB	086H
	DB	029H
	DB	08aH
	DB	052H
	DB	07dH
	DB	0efH
	DB	0ffH
	DB	0ffH
	DB	0ffH
	DB	0ffH
	DB	0ffH
	DB	0ffH
	DB	0ffH
	DB	0ffH
	DB	0ffH
	DB	0ffH
	DB	0ffH
	DB	0ffH
	DB	0ffH
	DB	0ffH
	DB	0ffH
	DB	0ffH
	DB	0ffH
	DB	0ffH
	DB	0ffH
	DB	0ffH
	DB	0ffH
	DB	0ffH
	DB	0ffH
	DB	0ffH
	DB	0ffH
	DB	0ffH
	DB	0ffH
	DB	0ffH
	DB	0ffH
	DB	0ffH
	DB	0ffH
	DB	0ffH
	DB	0ffH
	DB	0ffH
	DB	0ffH
	DB	0ffH
	DB	0ffH
	DB	0ffH
	DB	0ffH
	DB	0ffH
	DB	0ffH
	DB	0ffH
	DB	0ffH
	DB	0ffH
	DB	059H
	DB	0ceH
	DB	0a7H
	DB	031H
	DB	086H
	DB	029H
	DB	086H
	DB	029H
	DB	086H
	DB	029H
	DB	086H
	DB	029H
	DB	086H
	DB	029H
	DB	0f8H
	DB	0bdH
	DB	0ffH
	DB	0ffH
	DB	0ffH
	DB	0ffH
	DB	0ffH
	DB	0ffH
	DB	0ffH
	DB	0ffH
	DB	0ffH
	DB	0ffH
	DB	0ffH
	DB	0ffH
	DB	0ffH
	DB	0ffH
	DB	0ffH
	DB	0ffH
	DB	0ffH
	DB	0ffH
	DB	0ffH
	DB	0ffH
	DB	0ffH
	DB	0ffH
	DB	0ffH
	DB	0ffH
	DB	0ffH
	DB	0ffH
	DB	0ffH
	DB	0ffH
	DB	09aH
	DB	0d6H
	DB	086H
	DB	029H
	DB	086H
	DB	029H
	DB	086H
	DB	029H
	DB	086H
	DB	029H
	DB	086H
	DB	029H
	DB	086H
	DB	029H
	DB	06aH
	DB	04aH
	DB	039H
	DB	0c6H
	DB	0ffH
	DB	0ffH
	DB	0ffH
	DB	0ffH
	DB	0ffH
	DB	0ffH
	DB	0ffH
	DB	0ffH
	DB	0ffH
	DB	0ffH
	DB	0ffH
	DB	0ffH
	DB	0ffH
	DB	0ffH
	DB	0ffH
	DB	0ffH
	DB	0ffH
	DB	0ffH
	DB	0ffH
	DB	0ffH
	DB	0ffH
	DB	0ffH
	DB	0ffH
	DB	0ffH
	DB	0ffH
	DB	0ffH
	DB	0ffH
	DB	0ffH
	DB	0ffH
	DB	0ffH
	DB	0ffH
	DB	0ffH
	DB	0ffH
	DB	0ffH
	DB	0ffH
	DB	0ffH
	DB	0ffH
	DB	0ffH
	DB	0bfH
	DB	0f7H
	DB	0f4H
	DB	09cH
	DB	0a7H
	DB	031H
	DB	086H
	DB	029H
	DB	086H
	DB	029H
	DB	086H
	DB	029H
	DB	086H
	DB	029H
	DB	086H
	DB	029H
	DB	0e8H
	DB	039H
	DB	0dfH
	DB	0ffH
	DB	0ffH
	DB	0ffH
	DB	0ffH
	DB	0ffH
	DB	0ffH
	DB	0ffH
	DB	0ffH
	DB	0ffH
	DB	0ffH
	DB	0ffH
	DB	0ffH
	DB	0ffH
	DB	0ffH
	DB	0ffH
	DB	0ffH
	DB	0ffH
	DB	0ffH
	DB	0ffH
	DB	0ffH
	DB	0ffH
	DB	0ffH
	DB	0ffH
	DB	0ffH
	DB	0ffH
	DB	0ffH
	DB	0ffH
	DB	0ffH
	DB	0ffH
	DB	0ffH
	DB	0ffH
	DB	0ecH
	DB	05aH
	DB	086H
	DB	029H
	DB	086H
	DB	029H
	DB	086H
	DB	029H
	DB	086H
	DB	029H
	DB	086H
	DB	029H
	DB	086H
	DB	029H
	DB	086H
	DB	029H
	DB	0abH
	DB	052H
	DB	0b2H
	DB	094H
	DB	018H
	DB	0c6H
	DB	0fbH
	DB	0deH
	DB	07dH
	DB	0efH
	DB	0beH
	DB	0f7H
	DB	0beH
	DB	0f7H
	DB	0beH
	DB	0f7H
	DB	0beH
	DB	0f7H
	DB	0beH
	DB	0f7H
	DB	0beH
	DB	0f7H
	DB	0beH
	DB	0f7H
	DB	0beH
	DB	0f7H
	DB	0beH
	DB	0f7H
	DB	0beH
	DB	0f7H
	DB	05dH
	DB	0efH
	DB	0baH
	DB	0d6H
	DB	0b6H
	DB	0b5H
	DB	030H
	DB	084H
	DB	08H
	DB	03aH
	DB	086H
	DB	029H
	DB	086H
	DB	029H
	DB	086H
	DB	029H
	DB	086H
	DB	029H
	DB	086H
	DB	029H
	DB	086H
	DB	029H
	DB	086H
	DB	029H
	DB	092H
	DB	094H
	DB	0ffH
	DB	0ffH
	DB	0ffH
	DB	0ffH
	DB	0ffH
	DB	0ffH
	DB	0ffH
	DB	0ffH
	DB	0ffH
	DB	0ffH
	DB	0ffH
	DB	0ffH
	DB	0ffH
	DB	0ffH
	DB	0ffH
	DB	0ffH
	DB	0ffH
	DB	0ffH
	DB	0ffH
	DB	0ffH
	DB	0ffH
	DB	0ffH
	DB	0ffH
	DB	0ffH
	DB	0ffH
	DB	0ffH
	DB	0ffH
	DB	0ffH
	DB	0ffH
	DB	0ffH
	DB	0ffH
	DB	0ffH
	DB	07aH
	DB	0ceH
	DB	086H
	DB	029H
	DB	086H
	DB	029H
	DB	086H
	DB	029H
	DB	086H
	DB	029H
	DB	086H
	DB	029H
	DB	086H
	DB	029H
	DB	086H
	DB	029H
	DB	086H
	DB	029H
	DB	086H
	DB	029H
	DB	086H
	DB	029H
	DB	086H
	DB	029H
	DB	086H
	DB	029H
	DB	086H
	DB	029H
	DB	086H
	DB	029H
	DB	086H
	DB	029H
	DB	086H
	DB	029H
	DB	086H
	DB	029H
	DB	086H
	DB	029H
	DB	086H
	DB	029H
	DB	086H
	DB	029H
	DB	086H
	DB	029H
	DB	086H
	DB	029H
	DB	086H
	DB	029H
	DB	086H
	DB	029H
	DB	086H
	DB	029H
	DB	086H
	DB	029H
	DB	086H
	DB	029H
	DB	086H
	DB	029H
	DB	086H
	DB	029H
	DB	086H
	DB	029H
	DB	086H
	DB	029H
	DB	086H
	DB	029H
	DB	086H
	DB	029H
	DB	029H
	DB	042H
	DB	09eH
	DB	0f7H
	DB	0ffH
	DB	0ffH
	DB	0ffH
	DB	0ffH
	DB	0ffH
	DB	0ffH
	DB	0ffH
	DB	0ffH
	DB	0ffH
	DB	0ffH
	DB	0ffH
	DB	0ffH
	DB	0ffH
	DB	0ffH
	DB	0ffH
	DB	0ffH
	DB	0ffH
	DB	0ffH
	DB	0ffH
	DB	0ffH
	DB	0ffH
	DB	0ffH
	DB	0ffH
	DB	0ffH
	DB	0ffH
	DB	0ffH
	DB	0ffH
	DB	0ffH
	DB	0ffH
	DB	0ffH
	DB	0ffH
	DB	0ffH
	DB	0ffH
	DB	0ffH
	DB	092H
	DB	094H
	DB	086H
	DB	029H
	DB	086H
	DB	029H
	DB	086H
	DB	029H
	DB	086H
	DB	029H
	DB	086H
	DB	029H
	DB	086H
	DB	029H
	DB	086H
	DB	029H
	DB	086H
	DB	029H
	DB	086H
	DB	029H
	DB	086H
	DB	029H
	DB	086H
	DB	029H
	DB	086H
	DB	029H
	DB	086H
	DB	029H
	DB	086H
	DB	029H
	DB	086H
	DB	029H
	DB	086H
	DB	029H
	DB	086H
	DB	029H
	DB	086H
	DB	029H
	DB	086H
	DB	029H
	DB	086H
	DB	029H
	DB	086H
	DB	029H
	DB	086H
	DB	029H
	DB	086H
	DB	029H
	DB	086H
	DB	029H
	DB	086H
	DB	029H
	DB	086H
	DB	029H
	DB	086H
	DB	029H
	DB	086H
	DB	029H
	DB	086H
	DB	029H
	DB	086H
	DB	029H
	DB	086H
	DB	029H
	DB	086H
	DB	031H
	DB	059H
	DB	0c6H
	DB	0ffH
	DB	0ffH
	DB	0ffH
	DB	0ffH
	DB	0ffH
	DB	0ffH
	DB	0ffH
	DB	0ffH
	DB	0ffH
	DB	0ffH
	DB	0ffH
	DB	0ffH
	DB	0ffH
	DB	0ffH
	DB	0ffH
	DB	0ffH
	DB	0ffH
	DB	0ffH
	DB	0ffH
	DB	0ffH
	DB	0ffH
	DB	0ffH
	DB	0ffH
	DB	0ffH
	DB	0ffH
	DB	0ffH
	DB	0ffH
	DB	0ffH
	DB	0ffH
	DB	0ffH
	DB	0ffH
	DB	0ffH
	DB	0ffH
	DB	0ffH
	DB	0ffH
	DB	0ffH
	DB	0ffH
	DB	0ffH
	DB	010H
	DB	07cH
	DB	086H
	DB	029H
	DB	086H
	DB	029H
	DB	086H
	DB	029H
	DB	086H
	DB	029H
	DB	086H
	DB	029H
	DB	086H
	DB	029H
	DB	086H
	DB	029H
	DB	086H
	DB	029H
	DB	086H
	DB	029H
	DB	086H
	DB	029H
	DB	086H
	DB	029H
	DB	086H
	DB	029H
	DB	086H
	DB	029H
	DB	086H
	DB	029H
	DB	086H
	DB	029H
	DB	086H
	DB	029H
	DB	086H
	DB	029H
	DB	086H
	DB	029H
	DB	086H
	DB	029H
	DB	086H
	DB	029H
	DB	086H
	DB	029H
	DB	086H
	DB	029H
	DB	086H
	DB	029H
	DB	086H
	DB	029H
	DB	086H
	DB	029H
	DB	086H
	DB	029H
	DB	086H
	DB	029H
	DB	086H
	DB	029H
	DB	086H
	DB	029H
	DB	086H
	DB	031H
	DB	0b6H
	DB	0b5H
	DB	0ffH
	DB	0ffH
	DB	0ffH
	DB	0ffH
	DB	0ffH
	DB	0ffH
	DB	0ffH
	DB	0ffH
	DB	0ffH
	DB	0ffH
	DB	0ffH
	DB	0ffH
	DB	0ffH
	DB	0ffH
	DB	0ffH
	DB	0ffH
	DB	0ffH
	DB	0ffH
	DB	0ffH
	DB	0ffH
	DB	0ffH
	DB	0ffH
	DB	0ffH
	DB	0ffH
	DB	0ffH
	DB	0ffH
	DB	0ffH
	DB	0ffH
	DB	0ffH
	DB	0ffH
	DB	0ffH
	DB	0ffH
	DB	0ffH
	DB	0ffH
	DB	0ffH
	DB	0ffH
	DB	0ffH
	DB	0ffH
	DB	0ffH
	DB	0ffH
	DB	0ffH
	DB	0ffH
	DB	014H
	DB	0a5H
	DB	0a7H
	DB	031H
	DB	086H
	DB	029H
	DB	086H
	DB	029H
	DB	086H
	DB	029H
	DB	086H
	DB	029H
	DB	086H
	DB	029H
	DB	086H
	DB	029H
	DB	086H
	DB	029H
	DB	086H
	DB	029H
	DB	086H
	DB	029H
	DB	086H
	DB	029H
	DB	086H
	DB	029H
	DB	086H
	DB	029H
	DB	086H
	DB	029H
	DB	086H
	DB	029H
	DB	086H
	DB	029H
	DB	086H
	DB	029H
	DB	086H
	DB	029H
	DB	086H
	DB	029H
	DB	086H
	DB	029H
	DB	086H
	DB	029H
	DB	086H
	DB	029H
	DB	086H
	DB	029H
	DB	086H
	DB	029H
	DB	086H
	DB	029H
	DB	086H
	DB	029H
	DB	086H
	DB	029H
	DB	029H
	DB	042H
	DB	059H
	DB	0ceH
	DB	0ffH
	DB	0ffH
	DB	0ffH
	DB	0ffH
	DB	0ffH
	DB	0ffH
	DB	0ffH
	DB	0ffH
	DB	0ffH
	DB	0ffH
	DB	0ffH
	DB	0ffH
	DB	0ffH
	DB	0ffH
	DB	0ffH
	DB	0ffH
	DB	0ffH
	DB	0ffH
	DB	0ffH
	DB	0ffH
	DB	0ffH
	DB	0ffH
	DB	0ffH
	DB	0ffH
	DB	0ffH
	DB	0ffH
	DB	0ffH
	DB	0ffH
	DB	0ffH
	DB	0ffH
	DB	0ffH
	DB	0ffH
	DB	0ffH
	DB	0ffH
	DB	0ffH
	DB	0ffH
	DB	0ffH
	DB	0ffH
	DB	0ffH
	DB	0ffH
	DB	0ffH
	DB	0ffH
	DB	0ffH
	DB	0ffH
	DB	0ffH
	DB	0ffH
	DB	03cH
	DB	0e7H
	DB	010H
	DB	084H
	DB	0c7H
	DB	031H
	DB	086H
	DB	029H
	DB	086H
	DB	029H
	DB	086H
	DB	029H
	DB	086H
	DB	029H
	DB	086H
	DB	029H
	DB	086H
	DB	029H
	DB	086H
	DB	029H
	DB	086H
	DB	029H
	DB	086H
	DB	029H
	DB	086H
	DB	029H
	DB	086H
	DB	029H
	DB	086H
	DB	029H
	DB	086H
	DB	029H
	DB	086H
	DB	029H
	DB	086H
	DB	029H
	DB	086H
	DB	029H
	DB	086H
	DB	029H
	DB	086H
	DB	029H
	DB	086H
	DB	029H
	DB	086H
	DB	029H
	DB	086H
	DB	029H
	DB	086H
	DB	029H
	DB	029H
	DB	042H
	DB	0f3H
	DB	09cH
	DB	0beH
	DB	0f7H
	DB	0ffH
	DB	0ffH
	DB	0ffH
	DB	0ffH
	DB	0ffH
	DB	0ffH
	DB	0ffH
	DB	0ffH
	DB	0ffH
	DB	0ffH
	DB	0ffH
	DB	0ffH
	DB	0ffH
	DB	0ffH
	DB	0ffH
	DB	0ffH
	DB	0ffH
	DB	0ffH
	DB	0ffH
	DB	0ffH
	DB	0ffH
	DB	0ffH
	DB	0ffH
	DB	0ffH
	DB	0ffH
	DB	0ffH
	DB	0ffH
	DB	0ffH
	DB	0ffH
	DB	0ffH
	DB	0ffH
	DB	0ffH
	DB	0ffH
	DB	0ffH
	DB	0ffH
	DB	0ffH
	DB	0ffH
	DB	0ffH
	DB	0ffH
	DB	0ffH
	DB	0ffH
	DB	0ffH
	DB	0ffH
	DB	0ffH
	DB	0ffH
	DB	0ffH
	DB	0ffH
	DB	0ffH
	DB	0ffH
	DB	0ffH
	DB	0ffH
	DB	0ffH
	DB	0beH
	DB	0f7H
	DB	0f7H
	DB	0bdH
	DB	051H
	DB	08cH
	DB	02dH
	DB	063H
	DB	06aH
	DB	04aH
	DB	0e8H
	DB	039H
	DB	0a7H
	DB	031H
	DB	086H
	DB	029H
	DB	086H
	DB	029H
	DB	086H
	DB	029H
	DB	086H
	DB	029H
	DB	086H
	DB	029H
	DB	086H
	DB	029H
	DB	086H
	DB	029H
	DB	086H
	DB	029H
	DB	086H
	DB	029H
	DB	086H
	DB	029H
	DB	0a7H
	DB	031H
	DB	08H
	DB	03aH
	DB	08aH
	DB	052H
	DB	06eH
	DB	06bH
	DB	0b3H
	DB	094H
	DB	079H
	DB	0ceH
	DB	0ffH
	DB	0ffH
	DB	0ffH
	DB	0ffH
	DB	0ffH
	DB	0ffH
	DB	0ffH
	DB	0ffH
	DB	0ffH
	DB	0ffH
	DB	0ffH
	DB	0ffH
	DB	0ffH
	DB	0ffH
	DB	0ffH
	DB	0ffH
	DB	0ffH
	DB	0ffH
	DB	0ffH
	DB	0ffH
	DB	0ffH
	DB	0ffH
	DB	0ffH
	DB	0ffH
	DB	0ffH
	DB	0ffH
	DB	0ffH
	DB	0ffH
	DB	0ffH
	DB	0ffH
	DB	0ffH
	DB	0ffH
	DB	0ffH
	DB	0ffH
	DB	0ffH
	DB	0ffH
	DB	0ffH
	DB	0ffH
	DB	0ffH
	DB	0ffH
	DB	0ffH
	DB	0ffH
	DB	0ffH
	DB	0ffH
	DB	0ffH
	DB	0ffH
	DB	0ffH
	DB	0ffH
	DB	0ffH
	DB	0ffH
	DB	0ffH
	DB	0ffH
	DB	0ffH
	DB	0ffH
	DB	0ffH
	DB	0ffH
	DB	0ffH
	DB	0ffH
	DB	0ffH
	DB	0ffH
	DB	0ffH
	DB	0ffH
	DB	0ffH
	DB	0ffH
	DB	0ffH
	DB	0ffH
	DB	0ffH
	DB	0ffH
	DB	0ffH
	DB	0ffH
	DB	0ffH
	DB	0ffH
	DB	0ffH
	DB	0ffH
	DB	0ffH
	DB	0ffH
	DB	0ffH
	DB	0ffH
	DB	0ffH
	DB	0ffH
	DB	0ffH
	DB	0ffH
	DB	0ffH
	DB	0ffH
	DB	0ffH
	DB	0ffH
	DB	0ffH
	DB	0ffH
	DB	0ffH
	DB	0ffH
	DB	0ffH
	DB	0ffH
	DB	0ffH
	DB	0ffH
	DB	0ffH
	DB	0ffH
	DB	0ffH
	DB	0ffH
	DB	0ffH
	DB	0ffH
	DB	0ffH
	DB	0ffH
	DB	0ffH
	DB	0ffH
	DB	0ffH
	DB	0ffH
	DB	0ffH
	DB	0ffH
	DB	0ffH
	DB	0ffH
	DB	0ffH
	DB	0ffH
	DB	0ffH
	DB	0ffH
	DB	0ffH
	DB	0ffH
	DB	0ffH
	DB	0ffH
	DB	0ffH
	DB	0ffH
	DB	0ffH
	DB	0ffH
	DB	0ffH
	DB	0ffH
	DB	0ffH
	DB	0ffH
	DB	0ffH
	DB	0ffH
	DB	0ffH
	DB	0ffH
	DB	0ffH
	DB	0ffH
	DB	0ffH
	DB	0ffH
	DB	0ffH
	DB	0ffH
	DB	0ffH
	DB	0ffH
	DB	0ffH
	DB	0ffH
	DB	0ffH
	DB	0ffH
	DB	0ffH
	DB	0ffH
	DB	0ffH
	DB	0ffH
	DB	0ffH
	DB	0ffH
	DB	0ffH
	DB	0ffH
	DB	0ffH
	DB	0ffH
	DB	0ffH
	DB	0ffH
	DB	0ffH
	DB	0ffH
	DB	0ffH
	DB	0ffH
	DB	0ffH
	DB	0ffH
	DB	0ffH
	DB	0ffH
	DB	0ffH
	DB	0ffH
	DB	0ffH
	DB	0ffH
	DB	0ffH
	DB	0ffH
	DB	0ffH
	DB	0ffH
	DB	0ffH
	DB	0ffH
	DB	0ffH
	DB	0ffH
	DB	0ffH
	DB	0ffH
	DB	0ffH
	DB	0ffH
	DB	0ffH
	DB	0ffH
	DB	0ffH
	DB	0ffH
	DB	0ffH
	DB	0ffH
	DB	0ffH
	DB	0ffH
	DB	0ffH
	DB	0ffH
	DB	0ffH
	DB	0ffH
	DB	0ffH
	DB	0ffH
	DB	0ffH
	DB	0ffH
	DB	0ffH
	DB	0ffH
	DB	0ffH
	DB	0ffH
	DB	0ffH
	DB	0ffH
	DB	0ffH
	DB	0ffH
	DB	0ffH
	DB	0ffH
	DB	0ffH
	DB	0ffH
	DB	0ffH
	DB	0ffH
	DB	0ffH
	DB	0ffH
	DB	0ffH
	DB	0ffH
	DB	0ffH
	DB	0ffH
	DB	0ffH
	DB	0ffH
	DB	0ffH
	DB	0ffH
	DB	0ffH
	DB	0ffH
	DB	0ffH
	DB	0ffH
	DB	0ffH
	DB	0ffH
	DB	0ffH
	DB	0ffH
	DB	0ffH
	DB	0ffH
	DB	0ffH
	DB	0ffH
	DB	0ffH
	DB	0ffH
	DB	0ffH
	DB	0ffH
	DB	0ffH
	DB	0ffH
	DB	0ffH
	DB	0ffH
	DB	0ffH
	DB	0ffH
	DB	0ffH
	DB	0ffH
	DB	0ffH
	DB	0ffH
	DB	0ffH
	DB	0ffH
	DB	0ffH
	DB	0ffH
	DB	0ffH
	DB	0ffH
	DB	0ffH
	DB	0ffH
	DB	0ffH
	DB	0ffH
	DB	0ffH
	DB	0ffH
	DB	0ffH
	DB	0ffH
	DB	0ffH
	DB	0ffH
	DB	0ffH
	DB	0ffH
	DB	0ffH
	DB	0ffH
	DB	0ffH
	DB	0ffH
	DB	0ffH
	DB	0ffH
	DB	0ffH
	DB	0ffH
	DB	0ffH
	DB	0ffH
	DB	0ffH
	DB	0ffH
	DB	0ffH
	DB	0ffH
	DB	0ffH
	DB	0ffH
	DB	0ffH
	DB	0ffH
	DB	0ffH
	DB	0ffH
	DB	0ffH
	DB	0ffH
	DB	0ffH
	DB	0ffH
	DB	0ffH
	DB	0ffH
	DB	0ffH
	DB	0ffH
	DB	0ffH
	DB	0ffH
	DB	0ffH
	DB	0ffH
	DB	0ffH
	DB	0ffH
	DB	0ffH
	DB	0ffH
	DB	0ffH
	DB	0ffH
	DB	0ffH
	DB	0ffH
	DB	0ffH
	DB	0ffH
	DB	0ffH
	DB	0ffH
	DB	0ffH
	DB	0ffH
	DB	0ffH
	DB	0ffH
	DB	0ffH
	DB	0ffH
	DB	0ffH
	DB	0ffH
	DB	0ffH
	DB	0ffH
	DB	0ffH
	DB	0ffH
	DB	0ffH
	DB	0ffH
	DB	0ffH
	DB	0ffH
	DB	0ffH
	DB	0ffH
	DB	0ffH
	DB	0ffH
	DB	0ffH
	DB	0ffH
	DB	0ffH
	DB	0ffH
	DB	0ffH
	DB	0ffH
	DB	0ffH
	DB	0ffH
	DB	0ffH
	DB	0ffH
	DB	0ffH
	DB	0ffH
	DB	0ffH
	DB	0ffH
	DB	0ffH
	DB	0ffH
	DB	0ffH
	DB	0ffH
	DB	0ffH
	DB	0ffH
	DB	0ffH
	DB	0ffH
	DB	0ffH
	DB	0ffH
	DB	0ffH
	DB	0ffH
	DB	0ffH
	DB	0ffH
	DB	0ffH
	DB	0ffH
	DB	0ffH
	DB	0ffH
	DB	0ffH
	DB	0ffH
	DB	0ffH
	DB	0ffH
	DB	0ffH
	DB	0ffH
	DB	0ffH
	DB	0ffH
	DB	0ffH
	DB	0ffH
	DB	0ffH
	DB	0ffH
	DB	0ffH
	DB	0ffH
	DB	0ffH
	DB	0ffH
	DB	0ffH
	DB	0ffH
	DB	0ffH
	DB	0ffH
	DB	0ffH
	DB	0ffH
	DB	0ffH
	DB	0ffH
	DB	0ffH
	DB	0ffH
	DB	0ffH
	DB	0ffH
	DB	0ffH
	DB	0ffH
	DB	0ffH
	DB	0ffH
	DB	0ffH
	DB	0ffH
	DB	0ffH
	DB	0ffH
	DB	0ffH
	DB	0ffH
	DB	0ffH
	DB	0ffH
	DB	0ffH
	DB	0ffH
	DB	0ffH
	DB	0ffH
	DB	0ffH
	DB	0ffH
	DB	0ffH
	DB	0ffH
	DB	0ffH
	DB	0ffH
	DB	0ffH
	DB	0ffH
	DB	0ffH
	DB	0ffH
	DB	0ffH
	DB	0ffH
	DB	0ffH
	DB	0ffH
	DB	0ffH
	DB	0ffH
	DB	0ffH
	DB	0ffH
	DB	0ffH
	DB	0ffH
	DB	0ffH
	DB	0ffH
	DB	0ffH
	DB	0ffH
	DB	0ffH
	DB	0ffH
	DB	0ffH
	DB	0ffH
	DB	0ffH
	DB	0ffH
	DB	0ffH
	DB	0ffH
	DB	0ffH
	DB	0ffH
	DB	0ffH
	DB	0ffH
	DB	0ffH
	DB	0ffH
	DB	0ffH
	DB	0ffH
	DB	0ffH
	DB	0ffH
	DB	0ffH
	DB	0ffH
	DB	0ffH
	DB	0ffH
	DB	0ffH
	DB	0ffH
	DB	0ffH
	DB	0ffH
	DB	0ffH
	DB	0ffH
	DB	0ffH
	DB	0ffH
	DB	0ffH
	DB	0ffH
	DB	0ffH
	DB	0ffH
	DB	0ffH
	DB	0ffH
	DB	0ffH
	DB	0ffH
	DB	0ffH
	DB	0ffH
	DB	0ffH
	DB	0ffH
	DB	0ffH
	DB	0ffH
	DB	0ffH
	DB	0ffH
	DB	0ffH
	DB	0ffH
	DB	0ffH
	DB	0ffH
	DB	0ffH
	DB	0ffH
	DB	0ffH
	DB	0ffH
	DB	0ffH
	DB	0ffH
	DB	0ffH
	DB	0ffH
	DB	0ffH
	DB	0ffH
	DB	0ffH
	DB	0ffH
	DB	0ffH
	DB	0ffH
	DB	0ffH
	DB	0ffH
	DB	0ffH
	DB	0ffH
	DB	0ffH
	DB	0ffH
	DB	0ffH
	DB	0ffH
	DB	0ffH
	DB	0ffH
	DB	0ffH
	DB	0ffH
	DB	0ffH
	DB	0ffH
	DB	0ffH
	DB	0ffH
	DB	0ffH
	DB	0ffH
	DB	0ffH
	DB	0ffH
	DB	0ffH
	DB	0ffH
	DB	0ffH
	DB	0ffH
	DB	0ffH
	DB	0ffH
	DB	0ffH
	DB	0ffH
	DB	0ffH
	DB	0ffH
	DB	0ffH
	DB	0ffH
	DB	0ffH
	DB	0ffH
	DB	0ffH
	DB	0ffH
	DB	0ffH
	DB	0ffH
	DB	0ffH
	DB	0ffH
	DB	0ffH
	DB	0ffH
	DB	0ffH
	DB	0ffH
	DB	0ffH
	DB	0ffH
	DB	0ffH
	DB	0ffH
	DB	0ffH
	DB	0ffH
	DB	0ffH
	DB	0ffH
	DB	0ffH
	DB	0ffH
	DB	0ffH
	DB	0ffH
	DB	0ffH
	DB	0ffH
	DB	0ffH
	DB	0ffH
	DB	0ffH
	DB	0ffH
	DB	0ffH
	DB	0ffH
	DB	0ffH
	DB	0ffH
	DB	0ffH
	DB	0ffH
	DB	0ffH
	DB	0ffH
	DB	0ffH
	DB	0ffH
	DB	0ffH
	DB	0ffH
	DB	0ffH
	DB	0ffH
	DB	0ffH
	DB	0ffH
	DB	0ffH
	DB	0ffH
	DB	0ffH
	DB	0ffH
	DB	0ffH
	DB	0ffH
	DB	0ffH
	DB	0ffH
	DB	0ffH
	DB	0ffH
	DB	0ffH
	DB	0ffH
	DB	0ffH
	DB	0ffH
	DB	0ffH
	DB	0ffH
	DB	0ffH
	DB	0ffH
	DB	0ffH
	DB	0ffH
	DB	0ffH
	DB	0ffH
	DB	0ffH
	DB	0ffH
	DB	0ffH
	DB	0ffH
	DB	0ffH
	DB	0ffH
	DB	0ffH
	DB	0ffH
	DB	0ffH
	DB	0ffH
	DB	0ffH
	DB	0ffH
	DB	0ffH
	DB	0ffH
	DB	0ffH
	DB	0ffH
	DB	0ffH
	DB	0ffH
	DB	0ffH
	DB	0ffH
	DB	0ffH
	DB	0ffH
	DB	0ffH
	DB	0ffH
	DB	0ffH
	DB	0ffH
	DB	0ffH
	DB	0ffH
	DB	0ffH
	DB	0ffH
	DB	0ffH
	DB	0ffH
	DB	0ffH
	DB	0ffH
	DB	0ffH
	DB	0ffH
	DB	0ffH
	DB	0ffH
	DB	0ffH
	DB	0ffH
	DB	0ffH
	DB	0ffH
	DB	0ffH
	DB	0ffH
	DB	0ffH
	DB	0ffH
	DB	0ffH
	DB	0ffH
	DB	0ffH
	DB	0ffH
	DB	0ffH
	DB	0ffH
	DB	0ffH
	DB	0ffH
	DB	0ffH
	DB	0ffH
	DB	0ffH
	DB	0ffH
	DB	0ffH
	DB	0ffH
	DB	0ffH
	DB	0ffH
	DB	0ffH
	DB	0ffH
	DB	0ffH
	DB	0ffH
	DB	0ffH
	DB	0ffH
	DB	0ffH
	DB	0ffH
	DB	0ffH
	DB	0ffH
	DB	0ffH
	DB	0ffH
	DB	0ffH
	DB	0ffH
	DB	0ffH
	DB	0ffH
	DB	03cH
	DB	0e7H
	DB	0afH
	DB	073H
	DB	06eH
	DB	06bH
	DB	06eH
	DB	06bH
	DB	06eH
	DB	06bH
	DB	06eH
	DB	06bH
	DB	06eH
	DB	06bH
	DB	06eH
	DB	06bH
	DB	06eH
	DB	06bH
	DB	06eH
	DB	06bH
	DB	06eH
	DB	06bH
	DB	06eH
	DB	06bH
	DB	06eH
	DB	06bH
	DB	06eH
	DB	06bH
	DB	06eH
	DB	06bH
	DB	06eH
	DB	06bH
	DB	06eH
	DB	06bH
	DB	06eH
	DB	06bH
	DB	06eH
	DB	06bH
	DB	06eH
	DB	06bH
	DB	06eH
	DB	06bH
	DB	06eH
	DB	06bH
	DB	06eH
	DB	06bH
	DB	06eH
	DB	06bH
	DB	06eH
	DB	06bH
	DB	08eH
	DB	06bH
	DB	0efH
	DB	07bH
	DB	092H
	DB	094H
	DB	096H
	DB	0b5H
	DB	01cH
	DB	0e7H
	DB	0ffH
	DB	0ffH
	DB	0ffH
	DB	0ffH
	DB	0ffH
	DB	0ffH
	DB	0ffH
	DB	0ffH
	DB	0ffH
	DB	0ffH
	DB	0ffH
	DB	0ffH
	DB	0ffH
	DB	0ffH
	DB	0ffH
	DB	0ffH
	DB	0ffH
	DB	0ffH
	DB	0ffH
	DB	0ffH
	DB	0ffH
	DB	0ffH
	DB	0ffH
	DB	0ffH
	DB	0ffH
	DB	0ffH
	DB	0ffH
	DB	0ffH
	DB	0ffH
	DB	0ffH
	DB	0ffH
	DB	0ffH
	DB	0ffH
	DB	0ffH
	DB	0ffH
	DB	0ffH
	DB	0ffH
	DB	0ffH
	DB	0ffH
	DB	0ffH
	DB	0ffH
	DB	0ffH
	DB	0ffH
	DB	0ffH
	DB	0d3H
	DB	094H
	DB	086H
	DB	029H
	DB	086H
	DB	029H
	DB	086H
	DB	029H
	DB	086H
	DB	029H
	DB	086H
	DB	029H
	DB	086H
	DB	029H
	DB	086H
	DB	029H
	DB	086H
	DB	029H
	DB	086H
	DB	029H
	DB	086H
	DB	029H
	DB	086H
	DB	029H
	DB	086H
	DB	029H
	DB	086H
	DB	029H
	DB	086H
	DB	029H
	DB	086H
	DB	029H
	DB	086H
	DB	029H
	DB	086H
	DB	029H
	DB	086H
	DB	029H
	DB	086H
	DB	029H
	DB	086H
	DB	029H
	DB	086H
	DB	029H
	DB	086H
	DB	029H
	DB	086H
	DB	029H
	DB	086H
	DB	029H
	DB	086H
	DB	029H
	DB	086H
	DB	029H
	DB	086H
	DB	029H
	DB	086H
	DB	029H
	DB	086H
	DB	029H
	DB	06aH
	DB	04aH
	DB	0f4H
	DB	09cH
	DB	09eH
	DB	0f7H
	DB	0ffH
	DB	0ffH
	DB	0ffH
	DB	0ffH
	DB	0ffH
	DB	0ffH
	DB	0ffH
	DB	0ffH
	DB	0ffH
	DB	0ffH
	DB	0ffH
	DB	0ffH
	DB	0ffH
	DB	0ffH
	DB	0ffH
	DB	0ffH
	DB	0ffH
	DB	0ffH
	DB	0ffH
	DB	0ffH
	DB	0ffH
	DB	0ffH
	DB	0ffH
	DB	0ffH
	DB	0ffH
	DB	0ffH
	DB	0ffH
	DB	0ffH
	DB	0ffH
	DB	0ffH
	DB	0ffH
	DB	0ffH
	DB	0ffH
	DB	0ffH
	DB	0ffH
	DB	0ffH
	DB	0ffH
	DB	0ffH
	DB	092H
	DB	094H
	DB	086H
	DB	029H
	DB	086H
	DB	029H
	DB	086H
	DB	029H
	DB	086H
	DB	029H
	DB	086H
	DB	029H
	DB	086H
	DB	029H
	DB	086H
	DB	029H
	DB	086H
	DB	029H
	DB	086H
	DB	029H
	DB	086H
	DB	029H
	DB	086H
	DB	029H
	DB	086H
	DB	029H
	DB	086H
	DB	029H
	DB	086H
	DB	029H
	DB	086H
	DB	029H
	DB	086H
	DB	029H
	DB	086H
	DB	029H
	DB	086H
	DB	029H
	DB	086H
	DB	029H
	DB	086H
	DB	029H
	DB	086H
	DB	029H
	DB	086H
	DB	029H
	DB	086H
	DB	029H
	DB	086H
	DB	029H
	DB	086H
	DB	029H
	DB	086H
	DB	029H
	DB	086H
	DB	029H
	DB	086H
	DB	029H
	DB	086H
	DB	029H
	DB	086H
	DB	029H
	DB	086H
	DB	029H
	DB	08H
	DB	042H
	DB	0d7H
	DB	0bdH
	DB	0ffH
	DB	0ffH
	DB	0ffH
	DB	0ffH
	DB	0ffH
	DB	0ffH
	DB	0ffH
	DB	0ffH
	DB	0ffH
	DB	0ffH
	DB	0ffH
	DB	0ffH
	DB	0ffH
	DB	0ffH
	DB	0ffH
	DB	0ffH
	DB	0ffH
	DB	0ffH
	DB	0ffH
	DB	0ffH
	DB	0ffH
	DB	0ffH
	DB	0ffH
	DB	0ffH
	DB	0ffH
	DB	0ffH
	DB	0ffH
	DB	0ffH
	DB	0ffH
	DB	0ffH
	DB	0ffH
	DB	0ffH
	DB	0ffH
	DB	0ffH
	DB	0ffH
	DB	0ffH
	DB	092H
	DB	094H
	DB	086H
	DB	029H
	DB	086H
	DB	029H
	DB	086H
	DB	029H
	DB	086H
	DB	029H
	DB	086H
	DB	029H
	DB	086H
	DB	029H
	DB	086H
	DB	029H
	DB	086H
	DB	029H
	DB	086H
	DB	029H
	DB	086H
	DB	029H
	DB	086H
	DB	029H
	DB	086H
	DB	029H
	DB	086H
	DB	029H
	DB	086H
	DB	029H
	DB	086H
	DB	029H
	DB	086H
	DB	029H
	DB	086H
	DB	029H
	DB	086H
	DB	029H
	DB	086H
	DB	029H
	DB	086H
	DB	029H
	DB	086H
	DB	029H
	DB	086H
	DB	029H
	DB	086H
	DB	029H
	DB	086H
	DB	029H
	DB	086H
	DB	029H
	DB	086H
	DB	029H
	DB	086H
	DB	029H
	DB	086H
	DB	029H
	DB	086H
	DB	029H
	DB	086H
	DB	029H
	DB	086H
	DB	029H
	DB	086H
	DB	029H
	DB	086H
	DB	029H
	DB	0b3H
	DB	094H
	DB	0ffH
	DB	0ffH
	DB	0ffH
	DB	0ffH
	DB	0ffH
	DB	0ffH
	DB	0ffH
	DB	0ffH
	DB	0ffH
	DB	0ffH
	DB	0ffH
	DB	0ffH
	DB	0ffH
	DB	0ffH
	DB	0ffH
	DB	0ffH
	DB	0ffH
	DB	0ffH
	DB	0ffH
	DB	0ffH
	DB	0ffH
	DB	0ffH
	DB	0ffH
	DB	0ffH
	DB	0ffH
	DB	0ffH
	DB	0ffH
	DB	0ffH
	DB	0ffH
	DB	0ffH
	DB	0ffH
	DB	0ffH
	DB	0ffH
	DB	0ffH
	DB	0b2H
	DB	094H
	DB	086H
	DB	029H
	DB	086H
	DB	029H
	DB	086H
	DB	029H
	DB	086H
	DB	029H
	DB	086H
	DB	029H
	DB	086H
	DB	029H
	DB	086H
	DB	029H
	DB	086H
	DB	029H
	DB	086H
	DB	029H
	DB	086H
	DB	029H
	DB	086H
	DB	029H
	DB	086H
	DB	029H
	DB	086H
	DB	029H
	DB	086H
	DB	029H
	DB	086H
	DB	029H
	DB	086H
	DB	029H
	DB	086H
	DB	029H
	DB	086H
	DB	029H
	DB	086H
	DB	029H
	DB	086H
	DB	029H
	DB	086H
	DB	029H
	DB	086H
	DB	029H
	DB	086H
	DB	029H
	DB	086H
	DB	029H
	DB	086H
	DB	029H
	DB	086H
	DB	029H
	DB	086H
	DB	029H
	DB	086H
	DB	029H
	DB	086H
	DB	029H
	DB	086H
	DB	029H
	DB	086H
	DB	029H
	DB	086H
	DB	029H
	DB	086H
	DB	029H
	DB	086H
	DB	029H
	DB	014H
	DB	0a5H
	DB	0ffH
	DB	0ffH
	DB	0ffH
	DB	0ffH
	DB	0ffH
	DB	0ffH
	DB	0ffH
	DB	0ffH
	DB	0ffH
	DB	0ffH
	DB	0ffH
	DB	0ffH
	DB	0ffH
	DB	0ffH
	DB	0ffH
	DB	0ffH
	DB	0ffH
	DB	0ffH
	DB	0ffH
	DB	0ffH
	DB	0ffH
	DB	0ffH
	DB	0ffH
	DB	0ffH
	DB	0ffH
	DB	0ffH
	DB	0ffH
	DB	0ffH
	DB	0ffH
	DB	0ffH
	DB	0ffH
	DB	0ffH
	DB	079H
	DB	0ceH
	DB	0e8H
	DB	039H
	DB	0a7H
	DB	031H
	DB	0a7H
	DB	031H
	DB	0a7H
	DB	031H
	DB	0a7H
	DB	031H
	DB	0a7H
	DB	031H
	DB	0a7H
	DB	031H
	DB	0a7H
	DB	031H
	DB	0a7H
	DB	031H
	DB	0a7H
	DB	031H
	DB	0a7H
	DB	031H
	DB	0a7H
	DB	031H
	DB	0a7H
	DB	031H
	DB	0a7H
	DB	031H
	DB	0a7H
	DB	031H
	DB	0a7H
	DB	031H
	DB	0a7H
	DB	031H
	DB	0a7H
	DB	031H
	DB	0a7H
	DB	031H
	DB	0a7H
	DB	031H
	DB	0a7H
	DB	031H
	DB	0a7H
	DB	031H
	DB	0a7H
	DB	031H
	DB	0a7H
	DB	031H
	DB	086H
	DB	031H
	DB	086H
	DB	029H
	DB	086H
	DB	029H
	DB	086H
	DB	029H
	DB	086H
	DB	029H
	DB	086H
	DB	029H
	DB	086H
	DB	029H
	DB	086H
	DB	029H
	DB	086H
	DB	029H
	DB	086H
	DB	029H
	DB	0a7H
	DB	031H
	DB	0dbH
	DB	0deH
	DB	0ffH
	DB	0ffH
	DB	0ffH
	DB	0ffH
	DB	0ffH
	DB	0ffH
	DB	0ffH
	DB	0ffH
	DB	0ffH
	DB	0ffH
	DB	0ffH
	DB	0ffH
	DB	0ffH
	DB	0ffH
	DB	0ffH
	DB	0ffH
	DB	0ffH
	DB	0ffH
	DB	0ffH
	DB	0ffH
	DB	0ffH
	DB	0ffH
	DB	0ffH
	DB	0ffH
	DB	0ffH
	DB	0ffH
	DB	0ffH
	DB	0ffH
	DB	0ffH
	DB	0ffH
	DB	0ffH
	DB	0ffH
	DB	0ffH
	DB	0ffH
	DB	0dfH
	DB	0ffH
	DB	0dfH
	DB	0ffH
	DB	0dfH
	DB	0ffH
	DB	0dfH
	DB	0ffH
	DB	0dfH
	DB	0ffH
	DB	0dfH
	DB	0ffH
	DB	0dfH
	DB	0ffH
	DB	0dfH
	DB	0ffH
	DB	0dfH
	DB	0ffH
	DB	0dfH
	DB	0ffH
	DB	0dfH
	DB	0ffH
	DB	0dfH
	DB	0ffH
	DB	0dfH
	DB	0ffH
	DB	0dfH
	DB	0ffH
	DB	0dfH
	DB	0ffH
	DB	0dfH
	DB	0ffH
	DB	0dfH
	DB	0ffH
	DB	0dfH
	DB	0ffH
	DB	0dfH
	DB	0ffH
	DB	0dfH
	DB	0ffH
	DB	0dfH
	DB	0ffH
	DB	0dfH
	DB	0ffH
	DB	0dfH
	DB	0ffH
	DB	0beH
	DB	0f7H
	DB	0fbH
	DB	0deH
	DB	0d7H
	DB	0b5H
	DB	0efH
	DB	07bH
	DB	0a7H
	DB	031H
	DB	086H
	DB	029H
	DB	086H
	DB	029H
	DB	086H
	DB	029H
	DB	086H
	DB	029H
	DB	086H
	DB	029H
	DB	086H
	DB	029H
	DB	06eH
	DB	06bH
	DB	0ffH
	DB	0ffH
	DB	0ffH
	DB	0ffH
	DB	0ffH
	DB	0ffH
	DB	0ffH
	DB	0ffH
	DB	0ffH
	DB	0ffH
	DB	0ffH
	DB	0ffH
	DB	0ffH
	DB	0ffH
	DB	0ffH
	DB	0ffH
	DB	0ffH
	DB	0ffH
	DB	0ffH
	DB	0ffH
	DB	0ffH
	DB	0ffH
	DB	0ffH
	DB	0ffH
	DB	0ffH
	DB	0ffH
	DB	0ffH
	DB	0ffH
	DB	0ffH
	DB	0ffH
	DB	0ffH
	DB	0ffH
	DB	0ffH
	DB	0ffH
	DB	0ffH
	DB	0ffH
	DB	0ffH
	DB	0ffH
	DB	0ffH
	DB	0ffH
	DB	0ffH
	DB	0ffH
	DB	0ffH
	DB	0ffH
	DB	0ffH
	DB	0ffH
	DB	0ffH
	DB	0ffH
	DB	0ffH
	DB	0ffH
	DB	0ffH
	DB	0ffH
	DB	0ffH
	DB	0ffH
	DB	0ffH
	DB	0ffH
	DB	0ffH
	DB	0ffH
	DB	0ffH
	DB	0ffH
	DB	0ffH
	DB	0ffH
	DB	0ffH
	DB	0ffH
	DB	0ffH
	DB	0ffH
	DB	0ffH
	DB	0ffH
	DB	0ffH
	DB	0ffH
	DB	0ffH
	DB	0ffH
	DB	0ffH
	DB	0ffH
	DB	0ffH
	DB	0ffH
	DB	0ffH
	DB	0ffH
	DB	0ffH
	DB	0ffH
	DB	0ffH
	DB	0ffH
	DB	0ffH
	DB	0ffH
	DB	0ffH
	DB	0ffH
	DB	0ffH
	DB	0ffH
	DB	05dH
	DB	0efH
	DB	06eH
	DB	06bH
	DB	086H
	DB	029H
	DB	086H
	DB	029H
	DB	086H
	DB	029H
	DB	086H
	DB	029H
	DB	086H
	DB	029H
	DB	086H
	DB	031H
	DB	03cH
	DB	0e7H
	DB	0ffH
	DB	0ffH
	DB	0ffH
	DB	0ffH
	DB	0ffH
	DB	0ffH
	DB	0ffH
	DB	0ffH
	DB	0ffH
	DB	0ffH
	DB	0ffH
	DB	0ffH
	DB	0ffH
	DB	0ffH
	DB	0ffH
	DB	0ffH
	DB	0ffH
	DB	0ffH
	DB	0ffH
	DB	0ffH
	DB	0ffH
	DB	0ffH
	DB	0ffH
	DB	0ffH
	DB	0ffH
	DB	0ffH
	DB	0ffH
	DB	0ffH
	DB	0ffH
	DB	0ffH
	DB	0ffH
	DB	0ffH
	DB	0ffH
	DB	0ffH
	DB	0ffH
	DB	0ffH
	DB	0ffH
	DB	0ffH
	DB	0ffH
	DB	0ffH
	DB	0ffH
	DB	0ffH
	DB	0ffH
	DB	0ffH
	DB	0ffH
	DB	0ffH
	DB	0ffH
	DB	0ffH
	DB	0ffH
	DB	0ffH
	DB	0ffH
	DB	0ffH
	DB	0ffH
	DB	0ffH
	DB	0ffH
	DB	0ffH
	DB	0ffH
	DB	0ffH
	DB	0ffH
	DB	0ffH
	DB	0ffH
	DB	0ffH
	DB	0ffH
	DB	0ffH
	DB	0ffH
	DB	0ffH
	DB	0ffH
	DB	0ffH
	DB	0ffH
	DB	0ffH
	DB	0ffH
	DB	0ffH
	DB	0ffH
	DB	0ffH
	DB	0ffH
	DB	0ffH
	DB	0ffH
	DB	0ffH
	DB	0ffH
	DB	0ffH
	DB	0ffH
	DB	0ffH
	DB	0ffH
	DB	0ffH
	DB	0ffH
	DB	0ffH
	DB	0ffH
	DB	0ffH
	DB	0ffH
	DB	0ffH
	DB	08eH
	DB	06bH
	DB	086H
	DB	029H
	DB	086H
	DB	029H
	DB	086H
	DB	029H
	DB	086H
	DB	029H
	DB	086H
	DB	029H
	DB	034H
	DB	0a5H
	DB	0ffH
	DB	0ffH
	DB	0ffH
	DB	0ffH
	DB	0ffH
	DB	0ffH
	DB	0ffH
	DB	0ffH
	DB	0ffH
	DB	0ffH
	DB	0ffH
	DB	0ffH
	DB	0ffH
	DB	0ffH
	DB	0ffH
	DB	0ffH
	DB	0ffH
	DB	0ffH
	DB	0ffH
	DB	0ffH
	DB	0ffH
	DB	0ffH
	DB	0ffH
	DB	0ffH
	DB	0ffH
	DB	0ffH
	DB	0ffH
	DB	0ffH
	DB	0ffH
	DB	0ffH
	DB	0ffH
	DB	0ffH
	DB	0ffH
	DB	0ffH
	DB	0ffH
	DB	0ffH
	DB	0ffH
	DB	0ffH
	DB	0ffH
	DB	0ffH
	DB	0ffH
	DB	0ffH
	DB	0ffH
	DB	0ffH
	DB	0ffH
	DB	0ffH
	DB	0ffH
	DB	0ffH
	DB	0ffH
	DB	0ffH
	DB	0ffH
	DB	0ffH
	DB	0ffH
	DB	0ffH
	DB	0ffH
	DB	0ffH
	DB	0ffH
	DB	0ffH
	DB	0ffH
	DB	0ffH
	DB	0ffH
	DB	0ffH
	DB	0ffH
	DB	0ffH
	DB	0ffH
	DB	0ffH
	DB	0ffH
	DB	0ffH
	DB	0ffH
	DB	0ffH
	DB	0ffH
	DB	0ffH
	DB	0ffH
	DB	0ffH
	DB	0ffH
	DB	0ffH
	DB	0ffH
	DB	0ffH
	DB	0ffH
	DB	0ffH
	DB	0ffH
	DB	0ffH
	DB	0ffH
	DB	0ffH
	DB	0ffH
	DB	0ffH
	DB	0ffH
	DB	0ffH
	DB	0ffH
	DB	0ffH
	DB	05dH
	DB	0efH
	DB	0a7H
	DB	031H
	DB	086H
	DB	029H
	DB	086H
	DB	029H
	DB	086H
	DB	029H
	DB	086H
	DB	029H
	DB	08eH
	DB	073H
	DB	0ffH
	DB	0ffH
	DB	0ffH
	DB	0ffH
	DB	0ffH
	DB	0ffH
	DB	0ffH
	DB	0ffH
	DB	0ffH
	DB	0ffH
	DB	0ffH
	DB	0ffH
	DB	0ffH
	DB	0ffH
	DB	0ffH
	DB	0ffH
	DB	0ffH
	DB	0ffH
	DB	0ffH
	DB	0ffH
	DB	0ffH
	DB	0ffH
	DB	0ffH
	DB	0ffH
	DB	0ffH
	DB	0ffH
	DB	0ffH
	DB	0ffH
	DB	0ffH
	DB	0ffH
	DB	0ffH
	DB	0ffH
	DB	0ffH
	DB	0ffH
	DB	0ffH
	DB	0ffH
	DB	0ffH
	DB	0ffH
	DB	0ffH
	DB	0ffH
	DB	0ffH
	DB	0ffH
	DB	0ffH
	DB	0ffH
	DB	0ffH
	DB	0ffH
	DB	0ffH
	DB	0ffH
	DB	0ffH
	DB	0ffH
	DB	0ffH
	DB	0ffH
	DB	0ffH
	DB	0ffH
	DB	0ffH
	DB	0ffH
	DB	0ffH
	DB	0ffH
	DB	0ffH
	DB	0ffH
	DB	0ffH
	DB	0ffH
	DB	0ffH
	DB	0ffH
	DB	0ffH
	DB	0ffH
	DB	0ffH
	DB	0ffH
	DB	0ffH
	DB	0ffH
	DB	0ffH
	DB	0ffH
	DB	0ffH
	DB	0ffH
	DB	0ffH
	DB	0ffH
	DB	0ffH
	DB	0ffH
	DB	0ffH
	DB	0ffH
	DB	0ffH
	DB	0ffH
	DB	0ffH
	DB	0ffH
	DB	0ffH
	DB	0ffH
	DB	0ffH
	DB	0ffH
	DB	0ffH
	DB	0ffH
	DB	0ffH
	DB	0ffH
	DB	08eH
	DB	073H
	DB	086H
	DB	029H
	DB	086H
	DB	029H
	DB	086H
	DB	029H
	DB	086H
	DB	029H
	DB	06aH
	DB	04aH
	DB	0ffH
	DB	0ffH
	DB	0ffH
	DB	0ffH
	DB	0ffH
	DB	0ffH
	DB	0ffH
	DB	0ffH
	DB	0ffH
	DB	0ffH
	DB	0ffH
	DB	0ffH
	DB	0ffH
	DB	0ffH
	DB	0ffH
	DB	0ffH
	DB	0ffH
	DB	0ffH
	DB	0ffH
	DB	0ffH
	DB	0ffH
	DB	0ffH
	DB	0ffH
	DB	0ffH
	DB	0ffH
	DB	0ffH
	DB	0ffH
	DB	0ffH
	DB	0ffH
	DB	0ffH
	DB	0ffH
	DB	0ffH
	DB	0ffH
	DB	0ffH
	DB	0ffH
	DB	0ffH
	DB	0ffH
	DB	0ffH
	DB	0ffH
	DB	0ffH
	DB	0ffH
	DB	0ffH
	DB	0ffH
	DB	0ffH
	DB	0ffH
	DB	0ffH
	DB	0ffH
	DB	0ffH
	DB	0ffH
	DB	0ffH
	DB	0ffH
	DB	0ffH
	DB	0ffH
	DB	0ffH
	DB	0ffH
	DB	0ffH
	DB	0ffH
	DB	0ffH
	DB	0ffH
	DB	0ffH
	DB	0ffH
	DB	0ffH
	DB	0ffH
	DB	0ffH
	DB	0ffH
	DB	0ffH
	DB	0ffH
	DB	0ffH
	DB	0ffH
	DB	0ffH
	DB	0ffH
	DB	0ffH
	DB	0ffH
	DB	0ffH
	DB	0ffH
	DB	0ffH
	DB	0ffH
	DB	0ffH
	DB	0ffH
	DB	0ffH
	DB	0ffH
	DB	0ffH
	DB	0ffH
	DB	0ffH
	DB	0ffH
	DB	0ffH
	DB	0ffH
	DB	0ffH
	DB	0ffH
	DB	0ffH
	DB	0ffH
	DB	0ffH
	DB	0f4H
	DB	09cH
	DB	086H
	DB	029H
	DB	086H
	DB	029H
	DB	086H
	DB	029H
	DB	086H
	DB	029H
	DB	0c7H
	DB	039H
	DB	0ffH
	DB	0ffH
	DB	0ffH
	DB	0ffH
	DB	0ffH
	DB	0ffH
	DB	0ffH
	DB	0ffH
	DB	0ffH
	DB	0ffH
	DB	0ffH
	DB	0ffH
	DB	0ffH
	DB	0ffH
	DB	0ffH
	DB	0ffH
	DB	0ffH
	DB	0ffH
	DB	0ffH
	DB	0ffH
	DB	0ffH
	DB	0ffH
	DB	0ffH
	DB	0ffH
	DB	0ffH
	DB	0ffH
	DB	0ffH
	DB	0ffH
	DB	0ffH
	DB	0ffH
	DB	0ffH
	DB	0ffH
	DB	0ffH
	DB	0ffH
	DB	0ffH
	DB	0ffH
	DB	0ffH
	DB	0ffH
	DB	0ffH
	DB	0ffH
	DB	0ffH
	DB	0ffH
	DB	0ffH
	DB	0ffH
	DB	0ffH
	DB	0ffH
	DB	0ffH
	DB	0ffH
	DB	0ffH
	DB	0ffH
	DB	0ffH
	DB	0ffH
	DB	0ffH
	DB	0ffH
	DB	0ffH
	DB	0ffH
	DB	0ffH
	DB	0ffH
	DB	0ffH
	DB	0ffH
	DB	0ffH
	DB	0ffH
	DB	0ffH
	DB	0ffH
	DB	0ffH
	DB	0ffH
	DB	0ffH
	DB	0ffH
	DB	0ffH
	DB	0ffH
	DB	0ffH
	DB	0ffH
	DB	0ffH
	DB	0ffH
	DB	0ffH
	DB	0ffH
	DB	0ffH
	DB	0ffH
	DB	0ffH
	DB	0ffH
	DB	0ffH
	DB	0ffH
	DB	0ffH
	DB	0ffH
	DB	0ffH
	DB	0ffH
	DB	0ffH
	DB	0ffH
	DB	0ffH
	DB	0ffH
	DB	0ffH
	DB	0ffH
	DB	0b6H
	DB	0b5H
	DB	086H
	DB	029H
	DB	086H
	DB	029H
	DB	086H
	DB	029H
	DB	086H
	DB	029H
	DB	086H
	DB	029H
	DB	0ffH
	DB	0ffH
	DB	0ffH
	DB	0ffH
	DB	0ffH
	DB	0ffH
	DB	0ffH
	DB	0ffH
	DB	0ffH
	DB	0ffH
	DB	0ffH
	DB	0ffH
	DB	0ffH
	DB	0ffH
	DB	0ffH
	DB	0ffH
	DB	0ffH
	DB	0ffH
	DB	0ffH
	DB	0ffH
	DB	0ffH
	DB	0ffH
	DB	0ffH
	DB	0ffH
	DB	0ffH
	DB	0ffH
	DB	0ffH
	DB	0ffH
	DB	0ffH
	DB	0ffH
	DB	0ffH
	DB	0ffH
	DB	0ffH
	DB	0ffH
	DB	0ffH
	DB	0ffH
	DB	0ffH
	DB	0ffH
	DB	0ffH
	DB	0ffH
	DB	0ffH
	DB	0ffH
	DB	0ffH
	DB	0ffH
	DB	0ffH
	DB	0ffH
	DB	0ffH
	DB	0ffH
	DB	0ffH
	DB	0ffH
	DB	0ffH
	DB	0ffH
	DB	0ffH
	DB	0ffH
	DB	0ffH
	DB	0ffH
	DB	0ffH
	DB	0ffH
	DB	0ffH
	DB	0ffH
	DB	0ffH
	DB	0ffH
	DB	0ffH
	DB	0ffH
	DB	0ffH
	DB	0ffH
	DB	0ffH
	DB	0ffH
	DB	0ffH
	DB	0ffH
	DB	0ffH
	DB	0ffH
	DB	0ffH
	DB	0ffH
	DB	0ffH
	DB	0ffH
	DB	0ffH
	DB	0ffH
	DB	0ffH
	DB	0ffH
	DB	0ffH
	DB	0ffH
	DB	0ffH
	DB	0ffH
	DB	0ffH
	DB	0ffH
	DB	0ffH
	DB	0ffH
	DB	0ffH
	DB	0ffH
	DB	0ffH
	DB	0ffH
	DB	0b7H
	DB	0b5H
	DB	086H
	DB	029H
	DB	086H
	DB	029H
	DB	086H
	DB	029H
	DB	086H
	DB	029H
	DB	086H
	DB	029H
	DB	0ffH
	DB	0ffH
	DB	0ffH
	DB	0ffH
	DB	0ffH
	DB	0ffH
	DB	0ffH
	DB	0ffH
	DB	0ffH
	DB	0ffH
	DB	0ffH
	DB	0ffH
	DB	0ffH
	DB	0ffH
	DB	0ffH
	DB	0ffH
	DB	0ffH
	DB	0ffH
	DB	0ffH
	DB	0ffH
	DB	0ffH
	DB	0ffH
	DB	0ffH
	DB	0ffH
	DB	0ffH
	DB	0ffH
	DB	0ffH
	DB	0ffH
	DB	0ffH
	DB	0ffH
	DB	0ffH
	DB	0ffH
	DB	0ffH
	DB	0ffH
	DB	0ffH
	DB	0ffH
	DB	0ffH
	DB	0ffH
	DB	0ffH
	DB	0ffH
	DB	0ffH
	DB	0ffH
	DB	0ffH
	DB	0ffH
	DB	0ffH
	DB	0ffH
	DB	0ffH
	DB	0ffH
	DB	0ffH
	DB	0ffH
	DB	0ffH
	DB	0ffH
	DB	0ffH
	DB	0ffH
	DB	0ffH
	DB	0ffH
	DB	0ffH
	DB	0ffH
	DB	0ffH
	DB	0ffH
	DB	0ffH
	DB	0ffH
	DB	0ffH
	DB	0ffH
	DB	0ffH
	DB	0ffH
	DB	0ffH
	DB	0ffH
	DB	0ffH
	DB	0ffH
	DB	0ffH
	DB	0ffH
	DB	0ffH
	DB	0ffH
	DB	0ffH
	DB	0ffH
	DB	0ffH
	DB	0ffH
	DB	0ffH
	DB	0ffH
	DB	0ffH
	DB	0ffH
	DB	0ffH
	DB	0ffH
	DB	0ffH
	DB	0ffH
	DB	0ffH
	DB	0ffH
	DB	0ffH
	DB	0ffH
	DB	0ffH
	DB	0ffH
	DB	034H
	DB	0a5H
	DB	086H
	DB	029H
	DB	086H
	DB	029H
	DB	086H
	DB	029H
	DB	086H
	DB	029H
	DB	0a7H
	DB	031H
	DB	0ffH
	DB	0ffH
	DB	0ffH
	DB	0ffH
	DB	0ffH
	DB	0ffH
	DB	0ffH
	DB	0ffH
	DB	0ffH
	DB	0ffH
	DB	0ffH
	DB	0ffH
	DB	0ffH
	DB	0ffH
	DB	0ffH
	DB	0ffH
	DB	0ffH
	DB	0ffH
	DB	0ffH
	DB	0ffH
	DB	0ffH
	DB	0ffH
	DB	0ffH
	DB	0ffH
	DB	0ffH
	DB	0ffH
	DB	0ffH
	DB	0ffH
	DB	0ffH
	DB	0ffH
	DB	0ffH
	DB	0ffH
	DB	0ffH
	DB	0ffH
	DB	0ffH
	DB	0ffH
	DB	0ffH
	DB	0ffH
	DB	0ffH
	DB	0ffH
	DB	0ffH
	DB	0ffH
	DB	0ffH
	DB	0ffH
	DB	0ffH
	DB	0ffH
	DB	0ffH
	DB	0ffH
	DB	0ffH
	DB	0ffH
	DB	0ffH
	DB	0ffH
	DB	0ffH
	DB	0ffH
	DB	0ffH
	DB	0ffH
	DB	0ffH
	DB	0ffH
	DB	0ffH
	DB	0ffH
	DB	0ffH
	DB	0ffH
	DB	0ffH
	DB	0ffH
	DB	0ffH
	DB	0ffH
	DB	0ffH
	DB	0ffH
	DB	0ffH
	DB	0ffH
	DB	0ffH
	DB	0ffH
	DB	0ffH
	DB	0ffH
	DB	0ffH
	DB	0ffH
	DB	0ffH
	DB	0ffH
	DB	0ffH
	DB	0ffH
	DB	0ffH
	DB	0ffH
	DB	0ffH
	DB	0ffH
	DB	0ffH
	DB	0ffH
	DB	0ffH
	DB	0ffH
	DB	0ffH
	DB	0ffH
	DB	0ffH
	DB	0ffH
	DB	0f0H
	DB	07bH
	DB	086H
	DB	029H
	DB	086H
	DB	029H
	DB	086H
	DB	029H
	DB	086H
	DB	029H
	DB	029H
	DB	042H
	DB	0ffH
	DB	0ffH
	DB	0ffH
	DB	0ffH
	DB	0ffH
	DB	0ffH
	DB	0ffH
	DB	0ffH
	DB	0ffH
	DB	0ffH
	DB	0ffH
	DB	0ffH
	DB	0ffH
	DB	0ffH
	DB	0ffH
	DB	0ffH
	DB	0ffH
	DB	0ffH
	DB	0ffH
	DB	0ffH
	DB	0ffH
	DB	0ffH
	DB	0ffH
	DB	0ffH
	DB	0ffH
	DB	0ffH
	DB	0ffH
	DB	0ffH
	DB	0ffH
	DB	0ffH
	DB	0ffH
	DB	0ffH
	DB	0ffH
	DB	0ffH
	DB	0ffH
	DB	0ffH
	DB	0ffH
	DB	0ffH
	DB	0ffH
	DB	0ffH
	DB	0ffH
	DB	0ffH
	DB	0ffH
	DB	0ffH
	DB	0ffH
	DB	0ffH
	DB	0ffH
	DB	0ffH
	DB	0ffH
	DB	0ffH
	DB	0ffH
	DB	0ffH
	DB	0ffH
	DB	0ffH
	DB	0ffH
	DB	0ffH
	DB	0ffH
	DB	0ffH
	DB	0ffH
	DB	0ffH
	DB	0ffH
	DB	0ffH
	DB	0ffH
	DB	0ffH
	DB	0ffH
	DB	0ffH
	DB	0ffH
	DB	0ffH
	DB	0ffH
	DB	0ffH
	DB	0ffH
	DB	0ffH
	DB	0ffH
	DB	0ffH
	DB	0ffH
	DB	0ffH
	DB	0ffH
	DB	0ffH
	DB	0ffH
	DB	0ffH
	DB	0ffH
	DB	0ffH
	DB	0ffH
	DB	0ffH
	DB	0ffH
	DB	0ffH
	DB	0ffH
	DB	0ffH
	DB	0ffH
	DB	0ffH
	DB	0beH
	DB	0f7H
	DB	0e8H
	DB	039H
	DB	086H
	DB	029H
	DB	086H
	DB	029H
	DB	086H
	DB	029H
	DB	086H
	DB	029H
	DB	02dH
	DB	063H
	DB	0ffH
	DB	0ffH
	DB	0ffH
	DB	0ffH
	DB	0ffH
	DB	0ffH
	DB	0ffH
	DB	0ffH
	DB	0ffH
	DB	0ffH
	DB	0ffH
	DB	0ffH
	DB	0ffH
	DB	0ffH
	DB	0ffH
	DB	0ffH
	DB	0ffH
	DB	0ffH
	DB	0ffH
	DB	0ffH
	DB	0ffH
	DB	0ffH
	DB	0ffH
	DB	0ffH
	DB	0ffH
	DB	0ffH
	DB	0ffH
	DB	0ffH
	DB	0ffH
	DB	0ffH
	DB	0ffH
	DB	0ffH
	DB	0ffH
	DB	0ffH
	DB	0ffH
	DB	0ffH
	DB	0ffH
	DB	0ffH
	DB	0ffH
	DB	0ffH
	DB	0ffH
	DB	0ffH
	DB	0ffH
	DB	0ffH
	DB	0ffH
	DB	0ffH
	DB	0ffH
	DB	0ffH
	DB	0ffH
	DB	0ffH
	DB	0ffH
	DB	0ffH
	DB	0ffH
	DB	0ffH
	DB	0ffH
	DB	0ffH
	DB	0ffH
	DB	0ffH
	DB	0ffH
	DB	0ffH
	DB	0ffH
	DB	0ffH
	DB	0ffH
	DB	0ffH
	DB	0ffH
	DB	0ffH
	DB	0ffH
	DB	0ffH
	DB	0ffH
	DB	0ffH
	DB	0ffH
	DB	0ffH
	DB	0ffH
	DB	0ffH
	DB	0ffH
	DB	0ffH
	DB	0ffH
	DB	0ffH
	DB	0ffH
	DB	0ffH
	DB	0ffH
	DB	0ffH
	DB	0ffH
	DB	0ffH
	DB	0ffH
	DB	0ffH
	DB	0ffH
	DB	0ffH
	DB	0ffH
	DB	0ffH
	DB	092H
	DB	094H
	DB	086H
	DB	029H
	DB	086H
	DB	029H
	DB	086H
	DB	029H
	DB	086H
	DB	029H
	DB	086H
	DB	029H
	DB	072H
	DB	08cH
	DB	0ffH
	DB	0ffH
	DB	0ffH
	DB	0ffH
	DB	0ffH
	DB	0ffH
	DB	0ffH
	DB	0ffH
	DB	0ffH
	DB	0ffH
	DB	0ffH
	DB	0ffH
	DB	0ffH
	DB	0ffH
	DB	0ffH
	DB	0ffH
	DB	0ffH
	DB	0ffH
	DB	0ffH
	DB	0ffH
	DB	0ffH
	DB	0ffH
	DB	0ffH
	DB	0ffH
	DB	0ffH
	DB	0ffH
	DB	0ffH
	DB	0ffH
	DB	0ffH
	DB	0ffH
	DB	0ffH
	DB	0ffH
	DB	0ffH
	DB	0ffH
	DB	0ffH
	DB	0ffH
	DB	0ffH
	DB	0ffH
	DB	0ffH
	DB	0ffH
	DB	0ffH
	DB	0ffH
	DB	0ffH
	DB	0ffH
	DB	0ffH
	DB	0ffH
	DB	0ffH
	DB	0ffH
	DB	0ffH
	DB	0ffH
	DB	0ffH
	DB	0ffH
	DB	0ffH
	DB	0ffH
	DB	0ffH
	DB	0ffH
	DB	0ffH
	DB	0ffH
	DB	0ffH
	DB	0ffH
	DB	0ffH
	DB	0ffH
	DB	0ffH
	DB	0ffH
	DB	0ffH
	DB	0ffH
	DB	0ffH
	DB	0ffH
	DB	0ffH
	DB	0ffH
	DB	0ffH
	DB	0ffH
	DB	0ffH
	DB	0ffH
	DB	0ffH
	DB	0ffH
	DB	0ffH
	DB	0ffH
	DB	0ffH
	DB	0ffH
	DB	0ffH
	DB	0ffH
	DB	0ffH
	DB	0ffH
	DB	0ffH
	DB	0ffH
	DB	0ffH
	DB	0ffH
	DB	0f3H
	DB	09cH
	DB	086H
	DB	031H
	DB	086H
	DB	029H
	DB	086H
	DB	029H
	DB	086H
	DB	029H
	DB	086H
	DB	029H
	DB	086H
	DB	029H
	DB	059H
	DB	0ceH
	DB	0ffH
	DB	0ffH
	DB	0ffH
	DB	0ffH
	DB	0ffH
	DB	0ffH
	DB	0ffH
	DB	0ffH
	DB	0ffH
	DB	0ffH
	DB	0ffH
	DB	0ffH
	DB	0ffH
	DB	0ffH
	DB	0ffH
	DB	0ffH
	DB	0ffH
	DB	0ffH
	DB	0ffH
	DB	0ffH
	DB	0ffH
	DB	0ffH
	DB	0ffH
	DB	0ffH
	DB	0ffH
	DB	0ffH
	DB	0ffH
	DB	0ffH
	DB	0ffH
	DB	0ffH
	DB	0ffH
	DB	0ffH
	DB	0ffH
	DB	0ffH
	DB	0ffH
	DB	0ffH
	DB	0ffH
	DB	0ffH
	DB	0ffH
	DB	0ffH
	DB	0ffH
	DB	0ffH
	DB	0ffH
	DB	0ffH
	DB	0ffH
	DB	0ffH
	DB	0ffH
	DB	0ffH
	DB	0ffH
	DB	0ffH
	DB	0ffH
	DB	0ffH
	DB	0ffH
	DB	0ffH
	DB	0ffH
	DB	0ffH
	DB	0ffH
	DB	0ffH
	DB	0ffH
	DB	0ffH
	DB	0ffH
	DB	0ffH
	DB	0ffH
	DB	0ffH
	DB	0ffH
	DB	0ffH
	DB	0ffH
	DB	0ffH
	DB	0ffH
	DB	0ffH
	DB	0ffH
	DB	0ffH
	DB	0ffH
	DB	0ffH
	DB	0ffH
	DB	0ffH
	DB	0ffH
	DB	0ffH
	DB	0ffH
	DB	0ffH
	DB	0ffH
	DB	0ffH
	DB	0beH
	DB	0f7H
	DB	0b6H
	DB	0b5H
	DB	0cbH
	DB	05aH
	DB	086H
	DB	029H
	DB	086H
	DB	029H
	DB	086H
	DB	029H
	DB	086H
	DB	029H
	DB	086H
	DB	029H
	DB	086H
	DB	029H
	DB	06aH
	DB	04aH
	DB	0ffH
	DB	0ffH
	DB	0ffH
	DB	0ffH
	DB	0ffH
	DB	0ffH
	DB	0ffH
	DB	0ffH
	DB	0ffH
	DB	0ffH
	DB	0ffH
	DB	0ffH
	DB	0ffH
	DB	0ffH
	DB	0ffH
	DB	0ffH
	DB	0ffH
	DB	0ffH
	DB	0ffH
	DB	0ffH
	DB	0ffH
	DB	0ffH
	DB	0ffH
	DB	0ffH
	DB	0ffH
	DB	0ffH
	DB	0ffH
	DB	0ffH
	DB	0ffH
	DB	0ffH
	DB	07dH
	DB	0efH
	DB	051H
	DB	08cH
	DB	010H
	DB	07cH
	DB	010H
	DB	07cH
	DB	010H
	DB	07cH
	DB	010H
	DB	07cH
	DB	010H
	DB	07cH
	DB	010H
	DB	07cH
	DB	010H
	DB	07cH
	DB	010H
	DB	07cH
	DB	010H
	DB	07cH
	DB	010H
	DB	07cH
	DB	010H
	DB	07cH
	DB	010H
	DB	07cH
	DB	010H
	DB	07cH
	DB	010H
	DB	07cH
	DB	010H
	DB	07cH
	DB	010H
	DB	07cH
	DB	010H
	DB	07cH
	DB	010H
	DB	07cH
	DB	010H
	DB	07cH
	DB	010H
	DB	07cH
	DB	010H
	DB	07cH
	DB	010H
	DB	07cH
	DB	0f0H
	DB	07bH
	DB	08eH
	DB	073H
	DB	0abH
	DB	052H
	DB	0a7H
	DB	031H
	DB	086H
	DB	029H
	DB	086H
	DB	029H
	DB	086H
	DB	029H
	DB	086H
	DB	029H
	DB	086H
	DB	029H
	DB	086H
	DB	029H
	DB	086H
	DB	029H
	DB	086H
	DB	029H
	DB	096H
	DB	0b5H
	DB	0ffH
	DB	0ffH
	DB	0ffH
	DB	0ffH
	DB	0ffH
	DB	0ffH
	DB	0ffH
	DB	0ffH
	DB	0ffH
	DB	0ffH
	DB	0ffH
	DB	0ffH
	DB	0ffH
	DB	0ffH
	DB	0ffH
	DB	0ffH
	DB	0ffH
	DB	0ffH
	DB	0ffH
	DB	0ffH
	DB	0ffH
	DB	0ffH
	DB	0ffH
	DB	0ffH
	DB	0ffH
	DB	0ffH
	DB	0ffH
	DB	0ffH
	DB	0ffH
	DB	0ffH
	DB	0f3H
	DB	09cH
	DB	086H
	DB	029H
	DB	086H
	DB	029H
	DB	086H
	DB	029H
	DB	086H
	DB	029H
	DB	086H
	DB	029H
	DB	086H
	DB	029H
	DB	086H
	DB	029H
	DB	086H
	DB	029H
	DB	086H
	DB	029H
	DB	086H
	DB	029H
	DB	086H
	DB	029H
	DB	086H
	DB	029H
	DB	086H
	DB	029H
	DB	086H
	DB	029H
	DB	086H
	DB	029H
	DB	086H
	DB	029H
	DB	086H
	DB	029H
	DB	086H
	DB	029H
	DB	086H
	DB	029H
	DB	086H
	DB	029H
	DB	086H
	DB	029H
	DB	086H
	DB	029H
	DB	086H
	DB	029H
	DB	086H
	DB	029H
	DB	086H
	DB	029H
	DB	086H
	DB	029H
	DB	086H
	DB	029H
	DB	086H
	DB	029H
	DB	086H
	DB	029H
	DB	086H
	DB	029H
	DB	086H
	DB	029H
	DB	086H
	DB	029H
	DB	086H
	DB	029H
	DB	086H
	DB	029H
	DB	04dH
	DB	06bH
	DB	0ffH
	DB	0ffH
	DB	0ffH
	DB	0ffH
	DB	0ffH
	DB	0ffH
	DB	0ffH
	DB	0ffH
	DB	0ffH
	DB	0ffH
	DB	0ffH
	DB	0ffH
	DB	0ffH
	DB	0ffH
	DB	0ffH
	DB	0ffH
	DB	0ffH
	DB	0ffH
	DB	0ffH
	DB	0ffH
	DB	0ffH
	DB	0ffH
	DB	0ffH
	DB	0ffH
	DB	0ffH
	DB	0ffH
	DB	0ffH
	DB	0ffH
	DB	0ffH
	DB	0ffH
	DB	0ffH
	DB	0ffH
	DB	092H
	DB	094H
	DB	086H
	DB	029H
	DB	086H
	DB	029H
	DB	086H
	DB	029H
	DB	086H
	DB	029H
	DB	086H
	DB	029H
	DB	086H
	DB	029H
	DB	086H
	DB	029H
	DB	086H
	DB	029H
	DB	086H
	DB	029H
	DB	086H
	DB	029H
	DB	086H
	DB	029H
	DB	086H
	DB	029H
	DB	086H
	DB	029H
	DB	086H
	DB	029H
	DB	086H
	DB	029H
	DB	086H
	DB	029H
	DB	086H
	DB	029H
	DB	086H
	DB	029H
	DB	086H
	DB	029H
	DB	086H
	DB	029H
	DB	086H
	DB	029H
	DB	086H
	DB	029H
	DB	086H
	DB	029H
	DB	086H
	DB	029H
	DB	086H
	DB	029H
	DB	086H
	DB	029H
	DB	086H
	DB	029H
	DB	086H
	DB	029H
	DB	086H
	DB	029H
	DB	086H
	DB	029H
	DB	086H
	DB	029H
	DB	086H
	DB	029H
	DB	086H
	DB	029H
	DB	0abH
	DB	052H
	DB	09eH
	DB	0f7H
	DB	0ffH
	DB	0ffH
	DB	0ffH
	DB	0ffH
	DB	0ffH
	DB	0ffH
	DB	0ffH
	DB	0ffH
	DB	0ffH
	DB	0ffH
	DB	0ffH
	DB	0ffH
	DB	0ffH
	DB	0ffH
	DB	0ffH
	DB	0ffH
	DB	0ffH
	DB	0ffH
	DB	0ffH
	DB	0ffH
	DB	0ffH
	DB	0ffH
	DB	0ffH
	DB	0ffH
	DB	0ffH
	DB	0ffH
	DB	0ffH
	DB	0ffH
	DB	0ffH
	DB	0ffH
	DB	0ffH
	DB	0ffH
	DB	092H
	DB	094H
	DB	086H
	DB	029H
	DB	086H
	DB	029H
	DB	086H
	DB	029H
	DB	086H
	DB	029H
	DB	086H
	DB	029H
	DB	086H
	DB	029H
	DB	086H
	DB	029H
	DB	086H
	DB	029H
	DB	086H
	DB	029H
	DB	086H
	DB	029H
	DB	086H
	DB	029H
	DB	086H
	DB	029H
	DB	086H
	DB	029H
	DB	086H
	DB	029H
	DB	086H
	DB	029H
	DB	086H
	DB	029H
	DB	086H
	DB	029H
	DB	086H
	DB	029H
	DB	086H
	DB	029H
	DB	086H
	DB	029H
	DB	086H
	DB	029H
	DB	086H
	DB	029H
	DB	086H
	DB	029H
	DB	086H
	DB	029H
	DB	086H
	DB	029H
	DB	086H
	DB	029H
	DB	086H
	DB	029H
	DB	086H
	DB	029H
	DB	086H
	DB	029H
	DB	086H
	DB	029H
	DB	086H
	DB	029H
	DB	086H
	DB	029H
	DB	06eH
	DB	06bH
	DB	09eH
	DB	0f7H
	DB	0ffH
	DB	0ffH
	DB	0ffH
	DB	0ffH
	DB	0ffH
	DB	0ffH
	DB	0ffH
	DB	0ffH
	DB	0ffH
	DB	0ffH
	DB	0ffH
	DB	0ffH
	DB	0ffH
	DB	0ffH
	DB	0ffH
	DB	0ffH
	DB	0ffH
	DB	0ffH
	DB	0ffH
	DB	0ffH
	DB	0ffH
	DB	0ffH
	DB	0ffH
	DB	0ffH
	DB	0ffH
	DB	0ffH
	DB	0ffH
	DB	0ffH
	DB	0ffH
	DB	0ffH
	DB	0ffH
	DB	0ffH
	DB	0ffH
	DB	0ffH
	DB	092H
	DB	094H
	DB	086H
	DB	029H
	DB	086H
	DB	029H
	DB	086H
	DB	029H
	DB	086H
	DB	029H
	DB	086H
	DB	029H
	DB	086H
	DB	029H
	DB	086H
	DB	029H
	DB	086H
	DB	029H
	DB	086H
	DB	029H
	DB	086H
	DB	029H
	DB	086H
	DB	029H
	DB	086H
	DB	029H
	DB	086H
	DB	029H
	DB	086H
	DB	029H
	DB	086H
	DB	029H
	DB	086H
	DB	029H
	DB	086H
	DB	029H
	DB	086H
	DB	029H
	DB	086H
	DB	029H
	DB	086H
	DB	029H
	DB	086H
	DB	029H
	DB	086H
	DB	029H
	DB	086H
	DB	029H
	DB	086H
	DB	029H
	DB	086H
	DB	029H
	DB	086H
	DB	029H
	DB	086H
	DB	029H
	DB	086H
	DB	029H
	DB	086H
	DB	029H
	DB	086H
	DB	029H
	DB	08aH
	DB	052H
	DB	0d7H
	DB	0bdH
	DB	0ffH
	DB	0ffH
	DB	0ffH
	DB	0ffH
	DB	0ffH
	DB	0ffH
	DB	0ffH
	DB	0ffH
	DB	0ffH
	DB	0ffH
	DB	0ffH
	DB	0ffH
	DB	0ffH
	DB	0ffH
	DB	0ffH
	DB	0ffH
	DB	0ffH
	DB	0ffH
	DB	0ffH
	DB	0ffH
	DB	0ffH
	DB	0ffH
	DB	0ffH
	DB	0ffH
	DB	0ffH
	DB	0ffH
	DB	0ffH
	DB	0ffH
	DB	0ffH
	DB	0ffH
	DB	0ffH
	DB	0ffH
	DB	0ffH
	DB	0ffH
	DB	0ffH
	DB	0ffH
	DB	0ffH
	DB	0ffH
	DB	018H
	DB	0c6H
	DB	086H
	DB	031H
	DB	086H
	DB	029H
	DB	086H
	DB	029H
	DB	086H
	DB	029H
	DB	086H
	DB	029H
	DB	086H
	DB	029H
	DB	086H
	DB	029H
	DB	086H
	DB	029H
	DB	086H
	DB	029H
	DB	086H
	DB	029H
	DB	086H
	DB	029H
	DB	086H
	DB	029H
	DB	086H
	DB	029H
	DB	086H
	DB	029H
	DB	086H
	DB	029H
	DB	086H
	DB	029H
	DB	086H
	DB	029H
	DB	086H
	DB	029H
	DB	086H
	DB	029H
	DB	086H
	DB	029H
	DB	086H
	DB	029H
	DB	086H
	DB	029H
	DB	086H
	DB	029H
	DB	086H
	DB	029H
	DB	086H
	DB	029H
	DB	0a7H
	DB	031H
	DB	08H
	DB	03aH
	DB	02dH
	DB	063H
	DB	0b2H
	DB	094H
	DB	09aH
	DB	0d6H
	DB	0ffH
	DB	0ffH
	DB	0ffH
	DB	0ffH
	DB	0ffH
	DB	0ffH
	DB	0ffH
	DB	0ffH
	DB	0ffH
	DB	0ffH
	DB	0ffH
	DB	0ffH
	DB	0ffH
	DB	0ffH
	DB	0ffH
	DB	0ffH
	DB	0ffH
	DB	0ffH
	DB	0ffH
	DB	0ffH
	DB	0ffH
	DB	0ffH
	DB	0ffH
	DB	0ffH
	DB	0ffH
	DB	0ffH
	DB	0ffH
	DB	0ffH
	DB	0ffH
	DB	0ffH
	DB	0ffH
	DB	0ffH
	DB	0ffH
	DB	0ffH
	DB	0ffH
	DB	0ffH
	DB	0ffH
	DB	0ffH
	DB	0ffH
	DB	0ffH
	DB	0ffH
	DB	0ffH
	DB	0ffH
	DB	0ffH
	DB	0beH
	DB	0f7H
	DB	09eH
	DB	0f7H
	DB	09eH
	DB	0f7H
	DB	09eH
	DB	0f7H
	DB	09eH
	DB	0f7H
	DB	09eH
	DB	0f7H
	DB	09eH
	DB	0f7H
	DB	09eH
	DB	0f7H
	DB	09eH
	DB	0f7H
	DB	09eH
	DB	0f7H
	DB	09eH
	DB	0f7H
	DB	09eH
	DB	0f7H
	DB	09eH
	DB	0f7H
	DB	09eH
	DB	0f7H
	DB	09eH
	DB	0f7H
	DB	09eH
	DB	0f7H
	DB	09eH
	DB	0f7H
	DB	09eH
	DB	0f7H
	DB	09eH
	DB	0f7H
	DB	09eH
	DB	0f7H
	DB	09eH
	DB	0f7H
	DB	09eH
	DB	0f7H
	DB	09eH
	DB	0f7H
	DB	09eH
	DB	0f7H
	DB	09eH
	DB	0f7H
	DB	0beH
	DB	0f7H
	DB	0ffH
	DB	0ffH
	DB	0ffH
	DB	0ffH
	DB	0ffH
	DB	0ffH
	DB	0ffH
	DB	0ffH
	DB	0ffH
	DB	0ffH
	DB	0ffH
	DB	0ffH
	DB	0ffH
	DB	0ffH
	DB	0ffH
	DB	0ffH
	DB	0ffH
	DB	0ffH
	DB	0ffH
	DB	0ffH
	DB	0ffH
	DB	0ffH
	DB	0ffH
	DB	0ffH
	DB	0ffH
	DB	0ffH
	DB	0ffH
	DB	0ffH
	DB	0ffH
	DB	0ffH
	DB	0ffH
	DB	0ffH
	DB	0ffH
	DB	0ffH
	DB	0ffH
	DB	0ffH
	DB	0ffH
	DB	0ffH
	DB	0ffH
	DB	0ffH
	DB	0ffH
	DB	0ffH
	DB	0ffH
	DB	0ffH
	DB	0ffH
	DB	0ffH
	DB	0ffH
	DB	0ffH
	DB	0ffH
	DB	0ffH
	DB	0ffH
	DB	0ffH
	DB	0ffH
	DB	0ffH
	DB	0ffH
	DB	0ffH
	DB	0ffH
	DB	0ffH
	DB	0ffH
	DB	0ffH
	DB	0ffH
	DB	0ffH
	DB	0ffH
	DB	0ffH
	DB	0ffH
	DB	0ffH
	DB	0ffH
	DB	0ffH
	DB	0ffH
	DB	0ffH
	DB	0ffH
	DB	0ffH
	DB	0ffH
	DB	0ffH
	DB	0ffH
	DB	0ffH
	DB	0ffH
	DB	0ffH
	DB	0ffH
	DB	0ffH
	DB	0ffH
	DB	0ffH
	DB	0ffH
	DB	0ffH
	DB	0ffH
	DB	0ffH
	DB	0ffH
	DB	0ffH
	DB	0ffH
	DB	0ffH
	DB	0ffH
	DB	0ffH
	DB	0ffH
	DB	0ffH
	DB	0ffH
	DB	0ffH
	DB	0ffH
	DB	0ffH
	DB	0ffH
	DB	0ffH
	DB	0ffH
	DB	0ffH
	DB	0ffH
	DB	0ffH
	DB	0ffH
	DB	0ffH
	DB	0ffH
	DB	0ffH
	DB	0ffH
	DB	0ffH
	DB	0ffH
	DB	0ffH
	DB	0ffH
	DB	0ffH
	DB	0ffH
	DB	0ffH
	DB	0ffH
	DB	0ffH
	DB	0ffH
	DB	0ffH
	DB	0ffH
	DB	0ffH
	DB	0ffH
	DB	0ffH
	DB	0ffH
	DB	0ffH
	DB	0ffH
	DB	0ffH
	DB	0ffH
	DB	0ffH
	DB	0ffH
	DB	0ffH
	DB	0ffH
	DB	0ffH
	DB	0ffH
	DB	0ffH
	DB	0ffH
	DB	0ffH
	DB	0ffH
	DB	0ffH
	DB	0ffH
	DB	0ffH
	DB	0ffH
	DB	0ffH
	DB	0ffH
	DB	0ffH
	DB	0ffH
	DB	0ffH
	DB	0ffH
	DB	0ffH
	DB	0ffH
	DB	0ffH
	DB	0ffH
	DB	0ffH
	DB	0ffH
	DB	0ffH
	DB	0ffH
	DB	0ffH
	DB	0ffH
	DB	0ffH
	DB	0ffH
	DB	0ffH
	DB	0ffH
	DB	0ffH
	DB	0ffH
	DB	0ffH
	DB	0ffH
	DB	0ffH
	DB	0ffH
	DB	0ffH
	DB	0ffH
	DB	0ffH
	DB	0ffH
	DB	0ffH
	DB	0ffH
	DB	0ffH
	DB	0ffH
	DB	0ffH
	DB	0ffH
	DB	0ffH
	DB	0ffH
	DB	0ffH
	DB	0ffH
	DB	0ffH
	DB	0ffH
	DB	0ffH
	DB	0ffH
	DB	0ffH
	DB	0ffH
	DB	0ffH
	DB	0ffH
	DB	0ffH
	DB	0ffH
	DB	0ffH
	DB	0ffH
	DB	0ffH
	DB	0ffH
	DB	0ffH
	DB	0ffH
	DB	0ffH
	DB	0ffH
	DB	0ffH
	DB	0ffH
	DB	0ffH
	DB	0ffH
	DB	0ffH
	DB	0ffH
	DB	0ffH
	DB	0ffH
	DB	0ffH
	DB	0ffH
	DB	0ffH
	DB	0ffH
	DB	0ffH
	DB	0ffH
	DB	0ffH
	DB	0ffH
	DB	0ffH
	DB	0ffH
	DB	0ffH
	DB	0ffH
	DB	0ffH
	DB	0ffH
	DB	0ffH
	DB	0ffH
	DB	0ffH
	DB	0ffH
	DB	0ffH
	DB	0ffH
	DB	0ffH
	DB	0ffH
	DB	0ffH
	DB	0ffH
	DB	0ffH
	DB	0ffH
	DB	0ffH
	DB	0ffH
	DB	0ffH
	DB	0ffH
	DB	0ffH
	DB	0ffH
	DB	0ffH
	DB	0ffH
	DB	0ffH
	DB	0ffH
	DB	0ffH
	DB	0ffH
	DB	0ffH
	DB	0ffH
	DB	0ffH
	DB	0ffH
	DB	0ffH
	DB	0ffH
	DB	0ffH
	DB	0ffH
	DB	0ffH
	DB	0ffH
	DB	0ffH
	DB	0ffH
	DB	0ffH
	DB	0ffH
	DB	0ffH
	DB	0ffH
	DB	0ffH
	DB	0ffH
	DB	0ffH
	DB	0ffH
	DB	0ffH
	DB	0ffH
	DB	0ffH
	DB	0ffH
	DB	0ffH
	DB	0ffH
	DB	0ffH
	DB	0ffH
	DB	0ffH
	DB	0ffH
	DB	0ffH
	DB	0ffH
	DB	0ffH
	DB	0ffH
	DB	0ffH
	DB	0ffH
	DB	0ffH
	DB	0ffH
	DB	0ffH
	DB	0ffH
	DB	0ffH
	DB	0ffH
	DB	0ffH
	DB	0ffH
	DB	0ffH
	DB	0ffH
	DB	0ffH
	DB	0ffH
	DB	0ffH
	DB	0ffH
	DB	0ffH
	DB	0ffH
	DB	0ffH
	DB	0ffH
	DB	0ffH
	DB	0ffH
	DB	0ffH
	DB	0ffH
	DB	0ffH
	DB	0ffH
	DB	0ffH
	DB	0ffH
	DB	0ffH
	DB	0ffH
	DB	0ffH
	DB	0ffH
	DB	0ffH
	DB	0ffH
	DB	0ffH
	DB	0ffH
	DB	0ffH
	DB	0ffH
	DB	0ffH
	DB	0ffH
	DB	0ffH
	DB	0ffH
	DB	0ffH
	DB	0ffH
	DB	0ffH
	DB	0ffH
	DB	0ffH
	DB	0ffH
	DB	0ffH
	DB	0ffH
	DB	0ffH
	DB	0ffH
	DB	0ffH
	DB	0ffH
	DB	0ffH
	DB	0ffH
	DB	0ffH
	DB	0ffH
	DB	0ffH
	DB	0ffH
	DB	0ffH
	DB	0ffH
	DB	0ffH
	DB	0ffH
	DB	0ffH
	DB	0ffH
	DB	0ffH
	DB	0ffH
	DB	0ffH
	DB	0ffH
	DB	0ffH
	DB	0ffH
	DB	0ffH
	DB	0ffH
	DB	0ffH
	DB	0ffH
	DB	0ffH
	DB	0ffH
	DB	0ffH
	DB	0ffH
	DB	0ffH
	DB	0ffH
	DB	0ffH
	DB	0ffH
	DB	0ffH
	DB	0ffH
	DB	0ffH
	DB	0ffH
	DB	0ffH
	DB	0ffH
	DB	0ffH
	DB	0ffH
	DB	0ffH
	DB	0ffH
	DB	0ffH
	DB	0ffH
	DB	0ffH
	DB	0ffH
	DB	0ffH
	DB	0ffH
	DB	0ffH
	DB	0ffH
	DB	0ffH
	DB	0ffH
	DB	0ffH
	DB	0ffH
	DB	0ffH
	DB	0ffH
	DB	0ffH
	DB	0ffH
	DB	0ffH
	DB	0ffH
	DB	0ffH
	DB	0ffH
	DB	0ffH
	DB	0ffH
	DB	0ffH
	DB	0ffH
	DB	0ffH
	DB	0ffH
	DB	0ffH
	DB	0ffH
	DB	0ffH
	DB	0ffH
	DB	0ffH
	DB	0ffH
	DB	0ffH
	DB	0ffH
	DB	0ffH
	DB	0ffH
	DB	0ffH
	DB	0ffH
	DB	0ffH
	DB	0ffH
	DB	0ffH
	DB	0ffH
	DB	0ffH
	DB	0ffH
	DB	0ffH
	DB	0ffH
	DB	0ffH
	DB	0ffH
	DB	0ffH
	DB	0ffH
	DB	0ffH
	DB	0ffH
	DB	0ffH
	DB	0ffH
	DB	0ffH
	DB	0ffH
	DB	0ffH
	DB	0ffH
	DB	0ffH
	DB	0ffH
	DB	0ffH
	DB	0ffH
	DB	0ffH
	DB	0ffH
	DB	0ffH
	DB	0ffH
	DB	0ffH
	DB	0ffH
	DB	0ffH
	DB	0ffH
	DB	0ffH
	DB	0ffH
	DB	0ffH
	DB	0ffH
	DB	0ffH
	DB	0ffH
	DB	0ffH
	DB	0ffH
	DB	0ffH
	DB	0ffH
	DB	0ffH
	DB	0ffH
	DB	0ffH
	DB	0ffH
	DB	0ffH
	DB	0ffH
	DB	0ffH
	DB	0ffH
	DB	0ffH
	DB	0ffH
	DB	0ffH
	DB	0ffH
	DB	0ffH
	DB	0ffH
	DB	0ffH
	DB	0ffH
	DB	0ffH
	DB	0ffH
	DB	0ffH
	DB	0ffH
	DB	0ffH
	DB	0ffH
	DB	0ffH
	DB	0ffH
	DB	0ffH
	DB	0ffH
	DB	0ffH
	DB	0ffH
	DB	0ffH
	DB	0ffH
	DB	0ffH
	DB	0ffH
	DB	0ffH
	DB	0ffH
	DB	0ffH
	DB	0ffH
	DB	0ffH
	DB	0ffH
	DB	0ffH
	DB	0ffH
	DB	0ffH
	DB	0ffH
	DB	0ffH
	DB	0ffH
	DB	0ffH
	DB	0ffH
	DB	0ffH
	DB	0ffH
	DB	0ffH
	DB	0ffH
	DB	0ffH
	DB	0ffH
	DB	0ffH
	DB	0ffH
	DB	0ffH
	DB	0ffH
	DB	0ffH
	DB	0ffH
	DB	0ffH
	DB	0ffH
	DB	0ffH
	DB	0ffH
	DB	0ffH
	DB	0ffH
	DB	0ffH
	DB	0ffH
	DB	0ffH
	DB	0ffH
	DB	0ffH
	DB	0ffH
	DB	0ffH
	DB	0ffH
	DB	0ffH
	DB	0ffH
	DB	0ffH
	DB	0ffH
	DB	0ffH
	DB	0ffH
	DB	0ffH
	DB	0ffH
	DB	0ffH
	DB	0ffH
	DB	0ffH
	DB	0ffH
	DB	0ffH
	DB	0ffH
	DB	0ffH
	DB	0ffH
	DB	0ffH
	DB	0ffH
	DB	0ffH
	DB	0ffH
	DB	0ffH
	DB	0ffH
	DB	0ffH
	DB	0ffH
	DB	0ffH
	DB	0ffH
	DB	0ffH
	DB	0ffH
	DB	0ffH
	DB	0ffH
	DB	0ffH
	DB	0ffH
	DB	0ffH
	DB	0ffH
	DB	0ffH
	DB	0ffH
	DB	0ffH
	DB	0ffH
	DB	0ffH
	DB	0ffH
	DB	0ffH
	DB	0ffH
	DB	0ffH
	DB	0ffH
	DB	0ffH
	DB	0ffH
	DB	0ffH
	DB	0ffH
	DB	0ffH
	DB	0ffH
	DB	0ffH
	DB	0ffH
	DB	0ffH
	DB	0ffH
	DB	0ffH
	DB	0ffH
	DB	0ffH
	DB	0ffH
	DB	0ffH
	DB	0ffH
	DB	0ffH
	DB	0ffH
	DB	0ffH
	DB	0beH
	DB	0f7H
	DB	0fcH
	DB	0deH
	DB	079H
	DB	0ceH
	DB	059H
	DB	0ceH
	DB	059H
	DB	0ceH
	DB	059H
	DB	0ceH
	DB	059H
	DB	0ceH
	DB	059H
	DB	0ceH
	DB	059H
	DB	0ceH
	DB	059H
	DB	0ceH
	DB	059H
	DB	0ceH
	DB	059H
	DB	0ceH
	DB	059H
	DB	0ceH
	DB	059H
	DB	0ceH
	DB	059H
	DB	0ceH
	DB	079H
	DB	0ceH
	DB	01cH
	DB	0e7H
	DB	0dfH
	DB	0ffH
	DB	0ffH
	DB	0ffH
	DB	0ffH
	DB	0ffH
	DB	0ffH
	DB	0ffH
	DB	0ffH
	DB	0ffH
	DB	0ffH
	DB	0ffH
	DB	0ffH
	DB	0ffH
	DB	0ffH
	DB	0ffH
	DB	0ffH
	DB	0ffH
	DB	0ffH
	DB	0ffH
	DB	0ffH
	DB	0ffH
	DB	0ffH
	DB	0ffH
	DB	0ffH
	DB	0ffH
	DB	0ffH
	DB	0ffH
	DB	0ffH
	DB	0ffH
	DB	0ffH
	DB	0ffH
	DB	0ffH
	DB	0ffH
	DB	0ffH
	DB	0ffH
	DB	0ffH
	DB	0ffH
	DB	0ffH
	DB	0ffH
	DB	0ffH
	DB	0ffH
	DB	0ffH
	DB	0ffH
	DB	0ffH
	DB	0ffH
	DB	0ffH
	DB	0ffH
	DB	0ffH
	DB	0ffH
	DB	0ffH
	DB	0ffH
	DB	0ffH
	DB	0ffH
	DB	0ffH
	DB	0ffH
	DB	0ffH
	DB	0ffH
	DB	0ffH
	DB	0ffH
	DB	0ffH
	DB	0ffH
	DB	0dfH
	DB	0ffH
	DB	0d7H
	DB	0bdH
	DB	0cfH
	DB	07bH
	DB	049H
	DB	042H
	DB	086H
	DB	031H
	DB	086H
	DB	029H
	DB	086H
	DB	029H
	DB	086H
	DB	029H
	DB	086H
	DB	029H
	DB	086H
	DB	029H
	DB	086H
	DB	029H
	DB	086H
	DB	029H
	DB	086H
	DB	029H
	DB	086H
	DB	029H
	DB	086H
	DB	029H
	DB	086H
	DB	029H
	DB	086H
	DB	029H
	DB	086H
	DB	029H
	DB	086H
	DB	029H
	DB	086H
	DB	029H
	DB	086H
	DB	029H
	DB	0a7H
	DB	031H
	DB	08aH
	DB	04aH
	DB	010H
	DB	084H
	DB	059H
	DB	0c6H
	DB	0ffH
	DB	0ffH
	DB	0ffH
	DB	0ffH
	DB	0ffH
	DB	0ffH
	DB	0ffH
	DB	0ffH
	DB	0ffH
	DB	0ffH
	DB	0ffH
	DB	0ffH
	DB	0ffH
	DB	0ffH
	DB	0ffH
	DB	0ffH
	DB	0ffH
	DB	0ffH
	DB	0ffH
	DB	0ffH
	DB	0ffH
	DB	0ffH
	DB	0ffH
	DB	0ffH
	DB	0ffH
	DB	0ffH
	DB	0ffH
	DB	0ffH
	DB	0ffH
	DB	0ffH
	DB	0ffH
	DB	0ffH
	DB	0ffH
	DB	0ffH
	DB	0ffH
	DB	0ffH
	DB	0ffH
	DB	0ffH
	DB	0ffH
	DB	0ffH
	DB	0ffH
	DB	0ffH
	DB	0ffH
	DB	0ffH
	DB	0ffH
	DB	0ffH
	DB	0ffH
	DB	0ffH
	DB	0ffH
	DB	0ffH
	DB	0dfH
	DB	0ffH
	DB	034H
	DB	0a5H
	DB	08H
	DB	042H
	DB	086H
	DB	029H
	DB	086H
	DB	029H
	DB	086H
	DB	029H
	DB	086H
	DB	029H
	DB	086H
	DB	029H
	DB	086H
	DB	029H
	DB	086H
	DB	029H
	DB	086H
	DB	029H
	DB	086H
	DB	029H
	DB	086H
	DB	029H
	DB	086H
	DB	029H
	DB	086H
	DB	029H
	DB	086H
	DB	029H
	DB	086H
	DB	029H
	DB	086H
	DB	029H
	DB	086H
	DB	029H
	DB	086H
	DB	029H
	DB	086H
	DB	029H
	DB	086H
	DB	029H
	DB	086H
	DB	029H
	DB	086H
	DB	029H
	DB	086H
	DB	029H
	DB	086H
	DB	029H
	DB	086H
	DB	029H
	DB	08aH
	DB	04aH
	DB	0f7H
	DB	0bdH
	DB	0ffH
	DB	0ffH
	DB	0ffH
	DB	0ffH
	DB	0ffH
	DB	0ffH
	DB	0ffH
	DB	0ffH
	DB	0ffH
	DB	0ffH
	DB	0ffH
	DB	0ffH
	DB	0ffH
	DB	0ffH
	DB	0ffH
	DB	0ffH
	DB	0ffH
	DB	0ffH
	DB	0ffH
	DB	0ffH
	DB	0ffH
	DB	0ffH
	DB	0ffH
	DB	0ffH
	DB	0ffH
	DB	0ffH
	DB	0ffH
	DB	0ffH
	DB	0ffH
	DB	0ffH
	DB	0ffH
	DB	0ffH
	DB	0ffH
	DB	0ffH
	DB	0ffH
	DB	0ffH
	DB	0ffH
	DB	0ffH
	DB	0ffH
	DB	0ffH
	DB	0ffH
	DB	0ffH
	DB	0ffH
	DB	0ffH
	DB	05dH
	DB	0efH
	DB	0ecH
	DB	05aH
	DB	086H
	DB	029H
	DB	086H
	DB	029H
	DB	086H
	DB	029H
	DB	086H
	DB	029H
	DB	086H
	DB	029H
	DB	086H
	DB	029H
	DB	086H
	DB	029H
	DB	086H
	DB	029H
	DB	086H
	DB	029H
	DB	086H
	DB	029H
	DB	086H
	DB	029H
	DB	086H
	DB	029H
	DB	086H
	DB	029H
	DB	086H
	DB	029H
	DB	086H
	DB	029H
	DB	086H
	DB	029H
	DB	086H
	DB	029H
	DB	086H
	DB	029H
	DB	086H
	DB	029H
	DB	086H
	DB	029H
	DB	086H
	DB	029H
	DB	086H
	DB	029H
	DB	086H
	DB	029H
	DB	086H
	DB	029H
	DB	086H
	DB	029H
	DB	086H
	DB	029H
	DB	086H
	DB	029H
	DB	086H
	DB	029H
	DB	0cfH
	DB	07bH
	DB	0dfH
	DB	0ffH
	DB	0ffH
	DB	0ffH
	DB	0ffH
	DB	0ffH
	DB	0ffH
	DB	0ffH
	DB	0ffH
	DB	0ffH
	DB	0ffH
	DB	0ffH
	DB	0ffH
	DB	0ffH
	DB	0ffH
	DB	0ffH
	DB	0ffH
	DB	0ffH
	DB	0ffH
	DB	0ffH
	DB	0ffH
	DB	0ffH
	DB	0ffH
	DB	0ffH
	DB	0ffH
	DB	0ffH
	DB	0ffH
	DB	0ffH
	DB	0ffH
	DB	0ffH
	DB	0ffH
	DB	0ffH
	DB	0ffH
	DB	0ffH
	DB	0ffH
	DB	0ffH
	DB	0ffH
	DB	0ffH
	DB	0ffH
	DB	0ffH
	DB	05dH
	DB	0efH
	DB	069H
	DB	04aH
	DB	086H
	DB	029H
	DB	086H
	DB	029H
	DB	086H
	DB	029H
	DB	086H
	DB	029H
	DB	086H
	DB	029H
	DB	086H
	DB	029H
	DB	086H
	DB	029H
	DB	086H
	DB	029H
	DB	086H
	DB	029H
	DB	086H
	DB	029H
	DB	086H
	DB	029H
	DB	086H
	DB	029H
	DB	086H
	DB	029H
	DB	086H
	DB	029H
	DB	086H
	DB	029H
	DB	086H
	DB	029H
	DB	086H
	DB	029H
	DB	086H
	DB	029H
	DB	086H
	DB	029H
	DB	086H
	DB	029H
	DB	086H
	DB	029H
	DB	086H
	DB	029H
	DB	086H
	DB	029H
	DB	086H
	DB	029H
	DB	086H
	DB	029H
	DB	086H
	DB	029H
	DB	086H
	DB	029H
	DB	086H
	DB	029H
	DB	086H
	DB	029H
	DB	086H
	DB	029H
	DB	02cH
	DB	063H
	DB	0dfH
	DB	0ffH
	DB	0ffH
	DB	0ffH
	DB	0ffH
	DB	0ffH
	DB	0ffH
	DB	0ffH
	DB	0ffH
	DB	0ffH
	DB	0ffH
	DB	0ffH
	DB	0ffH
	DB	0ffH
	DB	0ffH
	DB	0ffH
	DB	0ffH
	DB	0ffH
	DB	0ffH
	DB	0ffH
	DB	0ffH
	DB	0ffH
	DB	0ffH
	DB	0ffH
	DB	0ffH
	DB	0ffH
	DB	0ffH
	DB	0ffH
	DB	0ffH
	DB	0ffH
	DB	0ffH
	DB	0ffH
	DB	0ffH
	DB	0ffH
	DB	0ffH
	DB	0ffH
	DB	0dfH
	DB	0ffH
	DB	0ecH
	DB	05aH
	DB	086H
	DB	029H
	DB	086H
	DB	029H
	DB	086H
	DB	029H
	DB	086H
	DB	029H
	DB	086H
	DB	029H
	DB	086H
	DB	029H
	DB	086H
	DB	029H
	DB	086H
	DB	029H
	DB	086H
	DB	029H
	DB	086H
	DB	029H
	DB	086H
	DB	029H
	DB	086H
	DB	029H
	DB	086H
	DB	029H
	DB	086H
	DB	029H
	DB	086H
	DB	029H
	DB	086H
	DB	029H
	DB	086H
	DB	029H
	DB	086H
	DB	029H
	DB	086H
	DB	029H
	DB	086H
	DB	029H
	DB	086H
	DB	029H
	DB	086H
	DB	029H
	DB	086H
	DB	029H
	DB	086H
	DB	029H
	DB	086H
	DB	029H
	DB	086H
	DB	029H
	DB	086H
	DB	029H
	DB	086H
	DB	029H
	DB	086H
	DB	029H
	DB	086H
	DB	029H
	DB	086H
	DB	029H
	DB	086H
	DB	029H
	DB	010H
	DB	084H
	DB	0ffH
	DB	0ffH
	DB	0ffH
	DB	0ffH
	DB	0ffH
	DB	0ffH
	DB	0ffH
	DB	0ffH
	DB	0ffH
	DB	0ffH
	DB	0ffH
	DB	0ffH
	DB	0ffH
	DB	0ffH
	DB	0ffH
	DB	0ffH
	DB	0ffH
	DB	0ffH
	DB	0ffH
	DB	0ffH
	DB	0ffH
	DB	0ffH
	DB	0ffH
	DB	0ffH
	DB	0ffH
	DB	0ffH
	DB	0ffH
	DB	0ffH
	DB	0ffH
	DB	0ffH
	DB	0ffH
	DB	0ffH
	DB	0ffH
	DB	0ffH
	DB	014H
	DB	0a5H
	DB	086H
	DB	029H
	DB	086H
	DB	029H
	DB	086H
	DB	029H
	DB	086H
	DB	029H
	DB	086H
	DB	029H
	DB	086H
	DB	029H
	DB	086H
	DB	029H
	DB	086H
	DB	029H
	DB	086H
	DB	029H
	DB	0a7H
	DB	031H
	DB	06aH
	DB	04aH
	DB	0ecH
	DB	05aH
	DB	0cH
	DB	05bH
	DB	0cH
	DB	05bH
	DB	0cH
	DB	05bH
	DB	0cH
	DB	05bH
	DB	0cH
	DB	05bH
	DB	0cH
	DB	05bH
	DB	0cH
	DB	05bH
	DB	0cH
	DB	05bH
	DB	0cH
	DB	05bH
	DB	0cH
	DB	05bH
	DB	0cbH
	DB	05aH
	DB	049H
	DB	042H
	DB	086H
	DB	031H
	DB	086H
	DB	029H
	DB	086H
	DB	029H
	DB	086H
	DB	029H
	DB	086H
	DB	029H
	DB	086H
	DB	029H
	DB	086H
	DB	029H
	DB	086H
	DB	029H
	DB	086H
	DB	029H
	DB	086H
	DB	029H
	DB	079H
	DB	0ceH
	DB	0ffH
	DB	0ffH
	DB	0ffH
	DB	0ffH
	DB	0ffH
	DB	0ffH
	DB	0ffH
	DB	0ffH
	DB	0ffH
	DB	0ffH
	DB	0ffH
	DB	0ffH
	DB	0ffH
	DB	0ffH
	DB	0ffH
	DB	0ffH
	DB	0ffH
	DB	0ffH
	DB	0ffH
	DB	0ffH
	DB	0ffH
	DB	0ffH
	DB	0ffH
	DB	0ffH
	DB	0ffH
	DB	0ffH
	DB	0ffH
	DB	0ffH
	DB	0ffH
	DB	0ffH
	DB	0beH
	DB	0f7H
	DB	08H
	DB	03aH
	DB	086H
	DB	029H
	DB	086H
	DB	029H
	DB	086H
	DB	029H
	DB	086H
	DB	029H
	DB	086H
	DB	029H
	DB	086H
	DB	029H
	DB	06aH
	DB	04aH
	DB	014H
	DB	0a5H
	DB	0fbH
	DB	0deH
	DB	0dfH
	DB	0ffH
	DB	0ffH
	DB	0ffH
	DB	0ffH
	DB	0ffH
	DB	0ffH
	DB	0ffH
	DB	0ffH
	DB	0ffH
	DB	0ffH
	DB	0ffH
	DB	0ffH
	DB	0ffH
	DB	0ffH
	DB	0ffH
	DB	0ffH
	DB	0ffH
	DB	0ffH
	DB	0ffH
	DB	0ffH
	DB	0ffH
	DB	0ffH
	DB	0ffH
	DB	0ffH
	DB	0ffH
	DB	0ffH
	DB	0ffH
	DB	0ffH
	DB	0ffH
	DB	0dfH
	DB	0f7H
	DB	0baH
	DB	0d6H
	DB	0b2H
	DB	094H
	DB	08H
	DB	03aH
	DB	086H
	DB	029H
	DB	086H
	DB	029H
	DB	086H
	DB	029H
	DB	086H
	DB	029H
	DB	086H
	DB	029H
	DB	086H
	DB	029H
	DB	02cH
	DB	063H
	DB	0ffH
	DB	0ffH
	DB	0ffH
	DB	0ffH
	DB	0ffH
	DB	0ffH
	DB	0ffH
	DB	0ffH
	DB	0ffH
	DB	0ffH
	DB	0ffH
	DB	0ffH
	DB	0ffH
	DB	0ffH
	DB	0ffH
	DB	0ffH
	DB	0ffH
	DB	0ffH
	DB	0ffH
	DB	0ffH
	DB	0ffH
	DB	0ffH
	DB	0ffH
	DB	0ffH
	DB	0ffH
	DB	0ffH
	DB	0ffH
	DB	0ffH
	DB	0ffH
	DB	0ffH
	DB	0d7H
	DB	0b5H
	DB	086H
	DB	029H
	DB	086H
	DB	029H
	DB	086H
	DB	029H
	DB	086H
	DB	029H
	DB	086H
	DB	029H
	DB	086H
	DB	029H
	DB	0d3H
	DB	09cH
	DB	0dfH
	DB	0ffH
	DB	0ffH
	DB	0ffH
	DB	0ffH
	DB	0ffH
	DB	0ffH
	DB	0ffH
	DB	0ffH
	DB	0ffH
	DB	0ffH
	DB	0ffH
	DB	0ffH
	DB	0ffH
	DB	0ffH
	DB	0ffH
	DB	0ffH
	DB	0ffH
	DB	0ffH
	DB	0ffH
	DB	0ffH
	DB	0ffH
	DB	0ffH
	DB	0ffH
	DB	0ffH
	DB	0ffH
	DB	0ffH
	DB	0ffH
	DB	0ffH
	DB	0ffH
	DB	0ffH
	DB	0ffH
	DB	0ffH
	DB	0ffH
	DB	0ffH
	DB	0ffH
	DB	0ffH
	DB	0ffH
	DB	0ffH
	DB	0ffH
	DB	0ffH
	DB	0ffH
	DB	09eH
	DB	0f7H
	DB	0cfH
	DB	073H
	DB	086H
	DB	029H
	DB	086H
	DB	029H
	DB	086H
	DB	029H
	DB	086H
	DB	029H
	DB	086H
	DB	029H
	DB	086H
	DB	029H
	DB	01cH
	DB	0e7H
	DB	0ffH
	DB	0ffH
	DB	0ffH
	DB	0ffH
	DB	0ffH
	DB	0ffH
	DB	0ffH
	DB	0ffH
	DB	0ffH
	DB	0ffH
	DB	0ffH
	DB	0ffH
	DB	0ffH
	DB	0ffH
	DB	0ffH
	DB	0ffH
	DB	0ffH
	DB	0ffH
	DB	0ffH
	DB	0ffH
	DB	0ffH
	DB	0ffH
	DB	0ffH
	DB	0ffH
	DB	0ffH
	DB	0ffH
	DB	0ffH
	DB	0ffH
	DB	0cfH
	DB	07bH
	DB	086H
	DB	029H
	DB	086H
	DB	029H
	DB	086H
	DB	029H
	DB	086H
	DB	029H
	DB	086H
	DB	029H
	DB	0b3H
	DB	094H
	DB	0ffH
	DB	0ffH
	DB	0ffH
	DB	0ffH
	DB	0ffH
	DB	0ffH
	DB	0ffH
	DB	0ffH
	DB	0ffH
	DB	0ffH
	DB	0ffH
	DB	0ffH
	DB	0ffH
	DB	0ffH
	DB	0ffH
	DB	0ffH
	DB	0ffH
	DB	0ffH
	DB	0ffH
	DB	0ffH
	DB	0ffH
	DB	0ffH
	DB	0ffH
	DB	0ffH
	DB	0ffH
	DB	0ffH
	DB	0ffH
	DB	0ffH
	DB	0ffH
	DB	0ffH
	DB	0ffH
	DB	0ffH
	DB	0ffH
	DB	0ffH
	DB	0ffH
	DB	0ffH
	DB	0ffH
	DB	0ffH
	DB	0ffH
	DB	0ffH
	DB	0ffH
	DB	0ffH
	DB	0ffH
	DB	0ffH
	DB	0ffH
	DB	0ffH
	DB	0ffH
	DB	0ffH
	DB	08eH
	DB	06bH
	DB	086H
	DB	029H
	DB	086H
	DB	029H
	DB	086H
	DB	029H
	DB	086H
	DB	029H
	DB	086H
	DB	029H
	DB	014H
	DB	0a5H
	DB	0ffH
	DB	0ffH
	DB	0ffH
	DB	0ffH
	DB	0ffH
	DB	0ffH
	DB	0ffH
	DB	0ffH
	DB	0ffH
	DB	0ffH
	DB	0ffH
	DB	0ffH
	DB	0ffH
	DB	0ffH
	DB	0ffH
	DB	0ffH
	DB	0ffH
	DB	0ffH
	DB	0ffH
	DB	0ffH
	DB	0ffH
	DB	0ffH
	DB	0ffH
	DB	0ffH
	DB	0ffH
	DB	0ffH
	DB	0ffH
	DB	0ffH
	DB	029H
	DB	042H
	DB	086H
	DB	029H
	DB	086H
	DB	029H
	DB	086H
	DB	029H
	DB	086H
	DB	029H
	DB	06aH
	DB	04aH
	DB	0dfH
	DB	0ffH
	DB	0ffH
	DB	0ffH
	DB	0ffH
	DB	0ffH
	DB	0ffH
	DB	0ffH
	DB	0ffH
	DB	0ffH
	DB	0ffH
	DB	0ffH
	DB	0ffH
	DB	0ffH
	DB	0ffH
	DB	0ffH
	DB	0ffH
	DB	0ffH
	DB	0ffH
	DB	0ffH
	DB	0ffH
	DB	0ffH
	DB	0ffH
	DB	0ffH
	DB	0ffH
	DB	0ffH
	DB	0ffH
	DB	0ffH
	DB	0ffH
	DB	0ffH
	DB	0ffH
	DB	0ffH
	DB	0ffH
	DB	0ffH
	DB	0ffH
	DB	0ffH
	DB	0ffH
	DB	0ffH
	DB	0ffH
	DB	0ffH
	DB	0ffH
	DB	0ffH
	DB	0ffH
	DB	0ffH
	DB	0ffH
	DB	0ffH
	DB	0ffH
	DB	0ffH
	DB	0ffH
	DB	0ffH
	DB	03cH
	DB	0e7H
	DB	0a7H
	DB	031H
	DB	086H
	DB	029H
	DB	086H
	DB	029H
	DB	086H
	DB	029H
	DB	086H
	DB	029H
	DB	08eH
	DB	073H
	DB	0ffH
	DB	0ffH
	DB	0ffH
	DB	0ffH
	DB	0ffH
	DB	0ffH
	DB	0ffH
	DB	0ffH
	DB	0ffH
	DB	0ffH
	DB	0ffH
	DB	0ffH
	DB	0ffH
	DB	0ffH
	DB	0ffH
	DB	0ffH
	DB	0ffH
	DB	0ffH
	DB	0ffH
	DB	0ffH
	DB	0ffH
	DB	0ffH
	DB	0ffH
	DB	0ffH
	DB	0ffH
	DB	0ffH
	DB	09eH
	DB	0f7H
	DB	086H
	DB	031H
	DB	086H
	DB	029H
	DB	086H
	DB	029H
	DB	086H
	DB	029H
	DB	086H
	DB	029H
	DB	0b3H
	DB	094H
	DB	0ffH
	DB	0ffH
	DB	0ffH
	DB	0ffH
	DB	0ffH
	DB	0ffH
	DB	0ffH
	DB	0ffH
	DB	0ffH
	DB	0ffH
	DB	0ffH
	DB	0ffH
	DB	0ffH
	DB	0ffH
	DB	0ffH
	DB	0ffH
	DB	0ffH
	DB	0ffH
	DB	0ffH
	DB	0ffH
	DB	0ffH
	DB	0ffH
	DB	0ffH
	DB	0ffH
	DB	0ffH
	DB	0ffH
	DB	0ffH
	DB	0ffH
	DB	0ffH
	DB	0ffH
	DB	0ffH
	DB	0ffH
	DB	0ffH
	DB	0ffH
	DB	0ffH
	DB	0ffH
	DB	0ffH
	DB	0ffH
	DB	0ffH
	DB	0ffH
	DB	0ffH
	DB	0ffH
	DB	0ffH
	DB	0ffH
	DB	0ffH
	DB	0ffH
	DB	0ffH
	DB	0ffH
	DB	0ffH
	DB	0ffH
	DB	0ffH
	DB	0ffH
	DB	06eH
	DB	06bH
	DB	086H
	DB	029H
	DB	086H
	DB	029H
	DB	086H
	DB	029H
	DB	086H
	DB	029H
	DB	08aH
	DB	052H
	DB	0ffH
	DB	0ffH
	DB	0ffH
	DB	0ffH
	DB	0ffH
	DB	0ffH
	DB	0ffH
	DB	0ffH
	DB	0ffH
	DB	0ffH
	DB	0ffH
	DB	0ffH
	DB	0ffH
	DB	0ffH
	DB	0ffH
	DB	0ffH
	DB	0ffH
	DB	0ffH
	DB	0ffH
	DB	0ffH
	DB	0ffH
	DB	0ffH
	DB	0ffH
	DB	0ffH
	DB	0ffH
	DB	0ffH
	DB	01cH
	DB	0e7H
	DB	086H
	DB	029H
	DB	086H
	DB	029H
	DB	086H
	DB	029H
	DB	086H
	DB	029H
	DB	086H
	DB	029H
	DB	039H
	DB	0c6H
	DB	0ffH
	DB	0ffH
	DB	0ffH
	DB	0ffH
	DB	0ffH
	DB	0ffH
	DB	0ffH
	DB	0ffH
	DB	0ffH
	DB	0ffH
	DB	0ffH
	DB	0ffH
	DB	0ffH
	DB	0ffH
	DB	0ffH
	DB	0ffH
	DB	0ffH
	DB	0ffH
	DB	0ffH
	DB	0ffH
	DB	0ffH
	DB	0ffH
	DB	0ffH
	DB	0ffH
	DB	0ffH
	DB	0ffH
	DB	0ffH
	DB	0ffH
	DB	0ffH
	DB	0ffH
	DB	0ffH
	DB	0ffH
	DB	0ffH
	DB	0ffH
	DB	0ffH
	DB	0ffH
	DB	0ffH
	DB	0ffH
	DB	0ffH
	DB	0ffH
	DB	0ffH
	DB	0ffH
	DB	0ffH
	DB	0ffH
	DB	0ffH
	DB	0ffH
	DB	0ffH
	DB	0ffH
	DB	0ffH
	DB	0ffH
	DB	0ffH
	DB	0ffH
	DB	0f4H
	DB	09cH
	DB	086H
	DB	029H
	DB	086H
	DB	029H
	DB	086H
	DB	029H
	DB	086H
	DB	029H
	DB	0e8H
	DB	039H
	DB	0ffH
	DB	0ffH
	DB	0ffH
	DB	0ffH
	DB	0ffH
	DB	0ffH
	DB	0ffH
	DB	0ffH
	DB	0ffH
	DB	0ffH
	DB	0ffH
	DB	0ffH
	DB	0ffH
	DB	0ffH
	DB	0ffH
	DB	0ffH
	DB	0ffH
	DB	0ffH
	DB	0ffH
	DB	0ffH
	DB	0ffH
	DB	0ffH
	DB	0ffH
	DB	0ffH
	DB	0ffH
	DB	0ffH
	DB	0baH
	DB	0d6H
	DB	086H
	DB	029H
	DB	086H
	DB	029H
	DB	086H
	DB	029H
	DB	086H
	DB	029H
	DB	086H
	DB	029H
	DB	01cH
	DB	0e7H
	DB	0ffH
	DB	0ffH
	DB	0ffH
	DB	0ffH
	DB	0ffH
	DB	0ffH
	DB	0ffH
	DB	0ffH
	DB	0ffH
	DB	0ffH
	DB	0ffH
	DB	0ffH
	DB	0ffH
	DB	0ffH
	DB	0ffH
	DB	0ffH
	DB	0ffH
	DB	0ffH
	DB	0ffH
	DB	0ffH
	DB	0ffH
	DB	0ffH
	DB	0ffH
	DB	0ffH
	DB	0ffH
	DB	0ffH
	DB	0ffH
	DB	0ffH
	DB	0ffH
	DB	0ffH
	DB	0ffH
	DB	0ffH
	DB	0ffH
	DB	0ffH
	DB	0ffH
	DB	0ffH
	DB	0ffH
	DB	0ffH
	DB	0ffH
	DB	0ffH
	DB	0ffH
	DB	0ffH
	DB	0ffH
	DB	0ffH
	DB	0ffH
	DB	0ffH
	DB	0ffH
	DB	0ffH
	DB	0ffH
	DB	0ffH
	DB	0ffH
	DB	0ffH
	DB	0b6H
	DB	0b5H
	DB	086H
	DB	029H
	DB	086H
	DB	029H
	DB	086H
	DB	029H
	DB	086H
	DB	029H
	DB	086H
	DB	029H
	DB	0ffH
	DB	0ffH
	DB	0ffH
	DB	0ffH
	DB	0ffH
	DB	0ffH
	DB	0ffH
	DB	0ffH
	DB	0ffH
	DB	0ffH
	DB	0ffH
	DB	0ffH
	DB	0ffH
	DB	0ffH
	DB	0ffH
	DB	0ffH
	DB	0ffH
	DB	0ffH
	DB	0ffH
	DB	0ffH
	DB	0ffH
	DB	0ffH
	DB	0ffH
	DB	0ffH
	DB	0ffH
	DB	0ffH
	DB	07aH
	DB	0ceH
	DB	086H
	DB	029H
	DB	086H
	DB	029H
	DB	086H
	DB	029H
	DB	086H
	DB	029H
	DB	086H
	DB	029H
	DB	05dH
	DB	0efH
	DB	0ffH
	DB	0ffH
	DB	0ffH
	DB	0ffH
	DB	0ffH
	DB	0ffH
	DB	0ffH
	DB	0ffH
	DB	0ffH
	DB	0ffH
	DB	0ffH
	DB	0ffH
	DB	0ffH
	DB	0ffH
	DB	0ffH
	DB	0ffH
	DB	0ffH
	DB	0ffH
	DB	0ffH
	DB	0ffH
	DB	0ffH
	DB	0ffH
	DB	0ffH
	DB	0ffH
	DB	0ffH
	DB	0ffH
	DB	0ffH
	DB	0ffH
	DB	0ffH
	DB	0ffH
	DB	0ffH
	DB	0ffH
	DB	0ffH
	DB	0ffH
	DB	0ffH
	DB	0ffH
	DB	0ffH
	DB	0ffH
	DB	0ffH
	DB	0ffH
	DB	0ffH
	DB	0ffH
	DB	0ffH
	DB	0ffH
	DB	0ffH
	DB	0ffH
	DB	0ffH
	DB	0ffH
	DB	0ffH
	DB	0ffH
	DB	0ffH
	DB	0ffH
	DB	0f7H
	DB	0bdH
	DB	086H
	DB	029H
	DB	086H
	DB	029H
	DB	086H
	DB	029H
	DB	086H
	DB	029H
	DB	086H
	DB	029H
	DB	0ffH
	DB	0ffH
	DB	0ffH
	DB	0ffH
	DB	0ffH
	DB	0ffH
	DB	0ffH
	DB	0ffH
	DB	0ffH
	DB	0ffH
	DB	0ffH
	DB	0ffH
	DB	0ffH
	DB	0ffH
	DB	0ffH
	DB	0ffH
	DB	0ffH
	DB	0ffH
	DB	0ffH
	DB	0ffH
	DB	0ffH
	DB	0ffH
	DB	0ffH
	DB	0ffH
	DB	0ffH
	DB	0ffH
	DB	0dbH
	DB	0deH
	DB	086H
	DB	029H
	DB	086H
	DB	029H
	DB	086H
	DB	029H
	DB	086H
	DB	029H
	DB	086H
	DB	029H
	DB	0fbH
	DB	0deH
	DB	0ffH
	DB	0ffH
	DB	0ffH
	DB	0ffH
	DB	0ffH
	DB	0ffH
	DB	0ffH
	DB	0ffH
	DB	0ffH
	DB	0ffH
	DB	0ffH
	DB	0ffH
	DB	0ffH
	DB	0ffH
	DB	0ffH
	DB	0ffH
	DB	0ffH
	DB	0ffH
	DB	0ffH
	DB	0ffH
	DB	0ffH
	DB	0ffH
	DB	0ffH
	DB	0ffH
	DB	0ffH
	DB	0ffH
	DB	0ffH
	DB	0ffH
	DB	0ffH
	DB	0ffH
	DB	0ffH
	DB	0ffH
	DB	0ffH
	DB	0ffH
	DB	0ffH
	DB	0ffH
	DB	0ffH
	DB	0ffH
	DB	0ffH
	DB	0ffH
	DB	0ffH
	DB	0ffH
	DB	0ffH
	DB	0ffH
	DB	0ffH
	DB	0ffH
	DB	0ffH
	DB	0ffH
	DB	0ffH
	DB	0ffH
	DB	0ffH
	DB	0ffH
	DB	096H
	DB	0b5H
	DB	086H
	DB	029H
	DB	086H
	DB	029H
	DB	086H
	DB	029H
	DB	086H
	DB	029H
	DB	086H
	DB	031H
	DB	0ffH
	DB	0ffH
	DB	0ffH
	DB	0ffH
	DB	0ffH
	DB	0ffH
	DB	0ffH
	DB	0ffH
	DB	0ffH
	DB	0ffH
	DB	0ffH
	DB	0ffH
	DB	0ffH
	DB	0ffH
	DB	0ffH
	DB	0ffH
	DB	0ffH
	DB	0ffH
	DB	0ffH
	DB	0ffH
	DB	0ffH
	DB	0ffH
	DB	0ffH
	DB	0ffH
	DB	0ffH
	DB	0ffH
	DB	03cH
	DB	0e7H
	DB	086H
	DB	029H
	DB	086H
	DB	029H
	DB	086H
	DB	029H
	DB	086H
	DB	029H
	DB	086H
	DB	029H
	DB	0d7H
	DB	0bdH
	DB	0ffH
	DB	0ffH
	DB	0ffH
	DB	0ffH
	DB	0ffH
	DB	0ffH
	DB	0ffH
	DB	0ffH
	DB	0ffH
	DB	0ffH
	DB	0ffH
	DB	0ffH
	DB	0ffH
	DB	0ffH
	DB	0ffH
	DB	0ffH
	DB	0ffH
	DB	0ffH
	DB	0ffH
	DB	0ffH
	DB	0ffH
	DB	0ffH
	DB	0ffH
	DB	0ffH
	DB	0ffH
	DB	0ffH
	DB	0ffH
	DB	0ffH
	DB	0ffH
	DB	0ffH
	DB	0ffH
	DB	0ffH
	DB	0ffH
	DB	0ffH
	DB	0ffH
	DB	0ffH
	DB	0ffH
	DB	0ffH
	DB	0ffH
	DB	0ffH
	DB	0ffH
	DB	0ffH
	DB	0ffH
	DB	0ffH
	DB	0ffH
	DB	0ffH
	DB	0ffH
	DB	0ffH
	DB	0ffH
	DB	0ffH
	DB	0ffH
	DB	0ffH
	DB	092H
	DB	094H
	DB	086H
	DB	029H
	DB	086H
	DB	029H
	DB	086H
	DB	029H
	DB	086H
	DB	029H
	DB	08H
	DB	03aH
	DB	0ffH
	DB	0ffH
	DB	0ffH
	DB	0ffH
	DB	0ffH
	DB	0ffH
	DB	0ffH
	DB	0ffH
	DB	0ffH
	DB	0ffH
	DB	0ffH
	DB	0ffH
	DB	0ffH
	DB	0ffH
	DB	0ffH
	DB	0ffH
	DB	0ffH
	DB	0ffH
	DB	0ffH
	DB	0ffH
	DB	0ffH
	DB	0ffH
	DB	0ffH
	DB	0ffH
	DB	0ffH
	DB	0ffH
	DB	0bfH
	DB	0f7H
	DB	0a7H
	DB	031H
	DB	086H
	DB	029H
	DB	086H
	DB	029H
	DB	086H
	DB	029H
	DB	086H
	DB	029H
	DB	010H
	DB	084H
	DB	0ffH
	DB	0ffH
	DB	0ffH
	DB	0ffH
	DB	0ffH
	DB	0ffH
	DB	0ffH
	DB	0ffH
	DB	0ffH
	DB	0ffH
	DB	0ffH
	DB	0ffH
	DB	0ffH
	DB	0ffH
	DB	0ffH
	DB	0ffH
	DB	0ffH
	DB	0ffH
	DB	0ffH
	DB	0ffH
	DB	0ffH
	DB	0ffH
	DB	0ffH
	DB	0ffH
	DB	0ffH
	DB	0ffH
	DB	0ffH
	DB	0ffH
	DB	0ffH
	DB	0ffH
	DB	0ffH
	DB	0ffH
	DB	0ffH
	DB	0ffH
	DB	0ffH
	DB	0ffH
	DB	0ffH
	DB	0ffH
	DB	0ffH
	DB	0ffH
	DB	0ffH
	DB	0ffH
	DB	0ffH
	DB	0ffH
	DB	0ffH
	DB	0ffH
	DB	0ffH
	DB	0ffH
	DB	0ffH
	DB	0ffH
	DB	0ffH
	DB	0ffH
	DB	0cbH
	DB	052H
	DB	086H
	DB	029H
	DB	086H
	DB	029H
	DB	086H
	DB	029H
	DB	086H
	DB	029H
	DB	0cbH
	DB	05aH
	DB	0ffH
	DB	0ffH
	DB	0ffH
	DB	0ffH
	DB	0ffH
	DB	0ffH
	DB	0ffH
	DB	0ffH
	DB	0ffH
	DB	0ffH
	DB	0ffH
	DB	0ffH
	DB	0ffH
	DB	0ffH
	DB	0ffH
	DB	0ffH
	DB	0ffH
	DB	0ffH
	DB	0ffH
	DB	0ffH
	DB	0ffH
	DB	0ffH
	DB	0ffH
	DB	0ffH
	DB	0ffH
	DB	0ffH
	DB	0ffH
	DB	0ffH
	DB	0abH
	DB	052H
	DB	086H
	DB	029H
	DB	086H
	DB	029H
	DB	086H
	DB	029H
	DB	086H
	DB	029H
	DB	0c7H
	DB	039H
	DB	05dH
	DB	0efH
	DB	0ffH
	DB	0ffH
	DB	0ffH
	DB	0ffH
	DB	0ffH
	DB	0ffH
	DB	0ffH
	DB	0ffH
	DB	0ffH
	DB	0ffH
	DB	0ffH
	DB	0ffH
	DB	0ffH
	DB	0ffH
	DB	0ffH
	DB	0ffH
	DB	0ffH
	DB	0ffH
	DB	0ffH
	DB	0ffH
	DB	0ffH
	DB	0ffH
	DB	0ffH
	DB	0ffH
	DB	0ffH
	DB	0ffH
	DB	0ffH
	DB	0ffH
	DB	0ffH
	DB	0ffH
	DB	0ffH
	DB	0ffH
	DB	0ffH
	DB	0ffH
	DB	0ffH
	DB	0ffH
	DB	0ffH
	DB	0ffH
	DB	0ffH
	DB	0ffH
	DB	0ffH
	DB	0ffH
	DB	0ffH
	DB	0ffH
	DB	0ffH
	DB	0ffH
	DB	0ffH
	DB	0ffH
	DB	059H
	DB	0ceH
	DB	086H
	DB	029H
	DB	086H
	DB	029H
	DB	086H
	DB	029H
	DB	086H
	DB	029H
	DB	086H
	DB	029H
	DB	010H
	DB	07cH
	DB	0ffH
	DB	0ffH
	DB	0ffH
	DB	0ffH
	DB	0ffH
	DB	0ffH
	DB	0ffH
	DB	0ffH
	DB	0ffH
	DB	0ffH
	DB	0ffH
	DB	0ffH
	DB	0ffH
	DB	0ffH
	DB	0ffH
	DB	0ffH
	DB	0ffH
	DB	0ffH
	DB	0ffH
	DB	0ffH
	DB	0ffH
	DB	0ffH
	DB	0ffH
	DB	0ffH
	DB	0ffH
	DB	0ffH
	DB	0ffH
	DB	0ffH
	DB	051H
	DB	08cH
	DB	086H
	DB	029H
	DB	086H
	DB	029H
	DB	086H
	DB	029H
	DB	086H
	DB	029H
	DB	086H
	DB	029H
	DB	02dH
	DB	063H
	DB	0dfH
	DB	0ffH
	DB	0ffH
	DB	0ffH
	DB	0ffH
	DB	0ffH
	DB	0ffH
	DB	0ffH
	DB	0ffH
	DB	0ffH
	DB	0ffH
	DB	0ffH
	DB	0ffH
	DB	0ffH
	DB	0ffH
	DB	0ffH
	DB	0ffH
	DB	0ffH
	DB	0ffH
	DB	0ffH
	DB	0ffH
	DB	0ffH
	DB	0ffH
	DB	0ffH
	DB	0ffH
	DB	0ffH
	DB	0ffH
	DB	0ffH
	DB	0ffH
	DB	0ffH
	DB	0ffH
	DB	0ffH
	DB	0ffH
	DB	0ffH
	DB	0ffH
	DB	0ffH
	DB	0ffH
	DB	0ffH
	DB	0ffH
	DB	0ffH
	DB	0ffH
	DB	0ffH
	DB	0ffH
	DB	0ffH
	DB	0ffH
	DB	0ffH
	DB	05dH
	DB	0efH
	DB	049H
	DB	04aH
	DB	086H
	DB	029H
	DB	086H
	DB	029H
	DB	086H
	DB	029H
	DB	086H
	DB	029H
	DB	086H
	DB	029H
	DB	0b6H
	DB	0b5H
	DB	0ffH
	DB	0ffH
	DB	0ffH
	DB	0ffH
	DB	0ffH
	DB	0ffH
	DB	0ffH
	DB	0ffH
	DB	0ffH
	DB	0ffH
	DB	0ffH
	DB	0ffH
	DB	0ffH
	DB	0ffH
	DB	0ffH
	DB	0ffH
	DB	0ffH
	DB	0ffH
	DB	0ffH
	DB	0ffH
	DB	0ffH
	DB	0ffH
	DB	0ffH
	DB	0ffH
	DB	0ffH
	DB	0ffH
	DB	0ffH
	DB	0ffH
	DB	079H
	DB	0ceH
	DB	086H
	DB	029H
	DB	086H
	DB	029H
	DB	086H
	DB	029H
	DB	086H
	DB	029H
	DB	086H
	DB	029H
	DB	086H
	DB	029H
	DB	0cbH
	DB	05aH
	DB	0baH
	DB	0d6H
	DB	0ffH
	DB	0ffH
	DB	0ffH
	DB	0ffH
	DB	0ffH
	DB	0ffH
	DB	0ffH
	DB	0ffH
	DB	0ffH
	DB	0ffH
	DB	0ffH
	DB	0ffH
	DB	0ffH
	DB	0ffH
	DB	0ffH
	DB	0ffH
	DB	0ffH
	DB	0ffH
	DB	0ffH
	DB	0ffH
	DB	0ffH
	DB	0ffH
	DB	0ffH
	DB	0ffH
	DB	0ffH
	DB	0ffH
	DB	0ffH
	DB	0ffH
	DB	0ffH
	DB	0ffH
	DB	0ffH
	DB	0ffH
	DB	0ffH
	DB	0ffH
	DB	0ffH
	DB	0ffH
	DB	0ffH
	DB	0ffH
	DB	0ffH
	DB	0ffH
	DB	018H
	DB	0c6H
	DB	029H
	DB	042H
	DB	086H
	DB	029H
	DB	086H
	DB	029H
	DB	086H
	DB	029H
	DB	086H
	DB	029H
	DB	086H
	DB	029H
	DB	0a7H
	DB	031H
	DB	09eH
	DB	0f7H
	DB	0ffH
	DB	0ffH
	DB	0ffH
	DB	0ffH
	DB	0ffH
	DB	0ffH
	DB	0ffH
	DB	0ffH
	DB	0ffH
	DB	0ffH
	DB	0ffH
	DB	0ffH
	DB	0ffH
	DB	0ffH
	DB	0ffH
	DB	0ffH
	DB	0ffH
	DB	0ffH
	DB	0ffH
	DB	0ffH
	DB	0ffH
	DB	0ffH
	DB	0ffH
	DB	0ffH
	DB	0ffH
	DB	0ffH
	DB	0ffH
	DB	0ffH
	DB	0ffH
	DB	0ffH
	DB	0cbH
	DB	052H
	DB	086H
	DB	029H
	DB	086H
	DB	029H
	DB	086H
	DB	029H
	DB	086H
	DB	029H
	DB	086H
	DB	029H
	DB	086H
	DB	029H
	DB	086H
	DB	031H
	DB	0ecH
	DB	05aH
	DB	0b3H
	DB	094H
	DB	0f8H
	DB	0bdH
	DB	0dbH
	DB	0deH
	DB	05dH
	DB	0efH
	DB	05dH
	DB	0efH
	DB	05dH
	DB	0efH
	DB	05dH
	DB	0efH
	DB	05dH
	DB	0efH
	DB	05dH
	DB	0efH
	DB	05dH
	DB	0efH
	DB	05dH
	DB	0efH
	DB	05dH
	DB	0efH
	DB	05dH
	DB	0efH
	DB	05dH
	DB	0efH
	DB	03dH
	DB	0e7H
	DB	0baH
	DB	0d6H
	DB	0d7H
	DB	0bdH
	DB	072H
	DB	08cH
	DB	08aH
	DB	04aH
	DB	086H
	DB	029H
	DB	086H
	DB	029H
	DB	086H
	DB	029H
	DB	086H
	DB	029H
	DB	086H
	DB	029H
	DB	086H
	DB	029H
	DB	086H
	DB	029H
	DB	010H
	DB	084H
	DB	0ffH
	DB	0ffH
	DB	0ffH
	DB	0ffH
	DB	0ffH
	DB	0ffH
	DB	0ffH
	DB	0ffH
	DB	0ffH
	DB	0ffH
	DB	0ffH
	DB	0ffH
	DB	0ffH
	DB	0ffH
	DB	0ffH
	DB	0ffH
	DB	0ffH
	DB	0ffH
	DB	0ffH
	DB	0ffH
	DB	0ffH
	DB	0ffH
	DB	0ffH
	DB	0ffH
	DB	0ffH
	DB	0ffH
	DB	0ffH
	DB	0ffH
	DB	0ffH
	DB	0ffH
	DB	0ffH
	DB	0ffH
	DB	059H
	DB	0ceH
	DB	086H
	DB	029H
	DB	086H
	DB	029H
	DB	086H
	DB	029H
	DB	086H
	DB	029H
	DB	086H
	DB	029H
	DB	086H
	DB	029H
	DB	086H
	DB	029H
	DB	086H
	DB	029H
	DB	086H
	DB	029H
	DB	086H
	DB	029H
	DB	086H
	DB	029H
	DB	086H
	DB	029H
	DB	086H
	DB	029H
	DB	086H
	DB	029H
	DB	086H
	DB	029H
	DB	086H
	DB	029H
	DB	086H
	DB	029H
	DB	086H
	DB	029H
	DB	086H
	DB	029H
	DB	086H
	DB	029H
	DB	086H
	DB	029H
	DB	086H
	DB	029H
	DB	086H
	DB	029H
	DB	086H
	DB	029H
	DB	086H
	DB	029H
	DB	086H
	DB	029H
	DB	086H
	DB	029H
	DB	086H
	DB	029H
	DB	086H
	DB	029H
	DB	086H
	DB	029H
	DB	086H
	DB	029H
	DB	086H
	DB	029H
	DB	086H
	DB	029H
	DB	0c7H
	DB	039H
	DB	05dH
	DB	0efH
	DB	0ffH
	DB	0ffH
	DB	0ffH
	DB	0ffH
	DB	0ffH
	DB	0ffH
	DB	0ffH
	DB	0ffH
	DB	0ffH
	DB	0ffH
	DB	0ffH
	DB	0ffH
	DB	0ffH
	DB	0ffH
	DB	0ffH
	DB	0ffH
	DB	0ffH
	DB	0ffH
	DB	0ffH
	DB	0ffH
	DB	0ffH
	DB	0ffH
	DB	0ffH
	DB	0ffH
	DB	0ffH
	DB	0ffH
	DB	0ffH
	DB	0ffH
	DB	0ffH
	DB	0ffH
	DB	0ffH
	DB	0ffH
	DB	0ffH
	DB	0ffH
	DB	071H
	DB	08cH
	DB	086H
	DB	029H
	DB	086H
	DB	029H
	DB	086H
	DB	029H
	DB	086H
	DB	029H
	DB	086H
	DB	029H
	DB	086H
	DB	029H
	DB	086H
	DB	029H
	DB	086H
	DB	029H
	DB	086H
	DB	029H
	DB	086H
	DB	029H
	DB	086H
	DB	029H
	DB	086H
	DB	029H
	DB	086H
	DB	029H
	DB	086H
	DB	029H
	DB	086H
	DB	029H
	DB	086H
	DB	029H
	DB	086H
	DB	029H
	DB	086H
	DB	029H
	DB	086H
	DB	029H
	DB	086H
	DB	029H
	DB	086H
	DB	029H
	DB	086H
	DB	029H
	DB	086H
	DB	029H
	DB	086H
	DB	029H
	DB	086H
	DB	029H
	DB	086H
	DB	029H
	DB	086H
	DB	029H
	DB	086H
	DB	029H
	DB	086H
	DB	029H
	DB	086H
	DB	029H
	DB	086H
	DB	029H
	DB	086H
	DB	029H
	DB	0b7H
	DB	0b5H
	DB	0ffH
	DB	0ffH
	DB	0ffH
	DB	0ffH
	DB	0ffH
	DB	0ffH
	DB	0ffH
	DB	0ffH
	DB	0ffH
	DB	0ffH
	DB	0ffH
	DB	0ffH
	DB	0ffH
	DB	0ffH
	DB	0ffH
	DB	0ffH
	DB	0ffH
	DB	0ffH
	DB	0ffH
	DB	0ffH
	DB	0ffH
	DB	0ffH
	DB	0ffH
	DB	0ffH
	DB	0ffH
	DB	0ffH
	DB	0ffH
	DB	0ffH
	DB	0ffH
	DB	0ffH
	DB	0ffH
	DB	0ffH
	DB	0ffH
	DB	0ffH
	DB	0ffH
	DB	0ffH
	DB	0ffH
	DB	0ffH
	DB	0f0H
	DB	07bH
	DB	086H
	DB	029H
	DB	086H
	DB	029H
	DB	086H
	DB	029H
	DB	086H
	DB	029H
	DB	086H
	DB	029H
	DB	086H
	DB	029H
	DB	086H
	DB	029H
	DB	086H
	DB	029H
	DB	086H
	DB	029H
	DB	086H
	DB	029H
	DB	086H
	DB	029H
	DB	086H
	DB	029H
	DB	086H
	DB	029H
	DB	086H
	DB	029H
	DB	086H
	DB	029H
	DB	086H
	DB	029H
	DB	086H
	DB	029H
	DB	086H
	DB	029H
	DB	086H
	DB	029H
	DB	086H
	DB	029H
	DB	086H
	DB	029H
	DB	086H
	DB	029H
	DB	086H
	DB	029H
	DB	086H
	DB	029H
	DB	086H
	DB	029H
	DB	086H
	DB	029H
	DB	086H
	DB	029H
	DB	086H
	DB	029H
	DB	086H
	DB	029H
	DB	086H
	DB	031H
	DB	034H
	DB	0a5H
	DB	0ffH
	DB	0ffH
	DB	0ffH
	DB	0ffH
	DB	0ffH
	DB	0ffH
	DB	0ffH
	DB	0ffH
	DB	0ffH
	DB	0ffH
	DB	0ffH
	DB	0ffH
	DB	0ffH
	DB	0ffH
	DB	0ffH
	DB	0ffH
	DB	0ffH
	DB	0ffH
	DB	0ffH
	DB	0ffH
	DB	0ffH
	DB	0ffH
	DB	0ffH
	DB	0ffH
	DB	0ffH
	DB	0ffH
	DB	0ffH
	DB	0ffH
	DB	0ffH
	DB	0ffH
	DB	0ffH
	DB	0ffH
	DB	0ffH
	DB	0ffH
	DB	0ffH
	DB	0ffH
	DB	0ffH
	DB	0ffH
	DB	0ffH
	DB	0ffH
	DB	0ffH
	DB	0ffH
	DB	014H
	DB	09dH
	DB	0a7H
	DB	031H
	DB	086H
	DB	029H
	DB	086H
	DB	029H
	DB	086H
	DB	029H
	DB	086H
	DB	029H
	DB	086H
	DB	029H
	DB	086H
	DB	029H
	DB	086H
	DB	029H
	DB	086H
	DB	029H
	DB	086H
	DB	029H
	DB	086H
	DB	029H
	DB	086H
	DB	029H
	DB	086H
	DB	029H
	DB	086H
	DB	029H
	DB	086H
	DB	029H
	DB	086H
	DB	029H
	DB	086H
	DB	029H
	DB	086H
	DB	029H
	DB	086H
	DB	029H
	DB	086H
	DB	029H
	DB	086H
	DB	029H
	DB	086H
	DB	029H
	DB	086H
	DB	029H
	DB	086H
	DB	029H
	DB	086H
	DB	029H
	DB	086H
	DB	029H
	DB	086H
	DB	029H
	DB	08H
	DB	03aH
	DB	0f7H
	DB	0bdH
	DB	0ffH
	DB	0ffH
	DB	0ffH
	DB	0ffH
	DB	0ffH
	DB	0ffH
	DB	0ffH
	DB	0ffH
	DB	0ffH
	DB	0ffH
	DB	0ffH
	DB	0ffH
	DB	0ffH
	DB	0ffH
	DB	0ffH
	DB	0ffH
	DB	0ffH
	DB	0ffH
	DB	0ffH
	DB	0ffH
	DB	0ffH
	DB	0ffH
	DB	0ffH
	DB	0ffH
	DB	0ffH
	DB	0ffH
	DB	0ffH
	DB	0ffH
	DB	0ffH
	DB	0ffH
	DB	0ffH
	DB	0ffH
	DB	0ffH
	DB	0ffH
	DB	0ffH
	DB	0ffH
	DB	0ffH
	DB	0ffH
	DB	0ffH
	DB	0ffH
	DB	0ffH
	DB	0ffH
	DB	0ffH
	DB	0ffH
	DB	0ffH
	DB	0ffH
	DB	01cH
	DB	0e7H
	DB	010H
	DB	084H
	DB	0c7H
	DB	031H
	DB	086H
	DB	029H
	DB	086H
	DB	029H
	DB	086H
	DB	029H
	DB	086H
	DB	029H
	DB	086H
	DB	029H
	DB	086H
	DB	029H
	DB	086H
	DB	029H
	DB	086H
	DB	029H
	DB	086H
	DB	029H
	DB	086H
	DB	029H
	DB	086H
	DB	029H
	DB	086H
	DB	029H
	DB	086H
	DB	029H
	DB	086H
	DB	029H
	DB	086H
	DB	029H
	DB	086H
	DB	029H
	DB	086H
	DB	029H
	DB	086H
	DB	029H
	DB	086H
	DB	029H
	DB	086H
	DB	029H
	DB	086H
	DB	029H
	DB	086H
	DB	029H
	DB	08H
	DB	03aH
	DB	0b2H
	DB	094H
	DB	09eH
	DB	0f7H
	DB	0ffH
	DB	0ffH
	DB	0ffH
	DB	0ffH
	DB	0ffH
	DB	0ffH
	DB	0ffH
	DB	0ffH
	DB	0ffH
	DB	0ffH
	DB	0ffH
	DB	0ffH
	DB	0ffH
	DB	0ffH
	DB	0ffH
	DB	0ffH
	DB	018H
	DB	0c6H
	DB	0d3H
	DB	09cH
	DB	0f3H
	DB	09cH
	DB	0f3H
	DB	09cH
	DB	055H
	DB	0a5H
	DB	0beH
	DB	0f7H
	DB	0ffH
	DB	0ffH
	DB	0ffH
	DB	0ffH
	DB	0ffH
	DB	0ffH
	DB	0ffH
	DB	0ffH
	DB	0ffH
	DB	0ffH
	DB	0ffH
	DB	0ffH
	DB	0ffH
	DB	0ffH
	DB	0ffH
	DB	0ffH
	DB	0ffH
	DB	0ffH
	DB	0ffH
	DB	0ffH
	DB	0ffH
	DB	0ffH
	DB	0ffH
	DB	0ffH
	DB	0beH
	DB	0f7H
	DB	0f8H
	DB	0bdH
	DB	072H
	DB	08cH
	DB	06dH
	DB	06bH
	DB	08aH
	DB	052H
	DB	08H
	DB	03aH
	DB	0c7H
	DB	031H
	DB	0a7H
	DB	031H
	DB	0a7H
	DB	031H
	DB	0a7H
	DB	031H
	DB	0a7H
	DB	031H
	DB	0a7H
	DB	031H
	DB	0a7H
	DB	031H
	DB	0a7H
	DB	031H
	DB	0a7H
	DB	031H
	DB	0a7H
	DB	031H
	DB	0a7H
	DB	031H
	DB	0c7H
	DB	031H
	DB	08H
	DB	042H
	DB	0abH
	DB	052H
	DB	08eH
	DB	06bH
	DB	0b3H
	DB	094H
	DB	059H
	DB	0ceH
	DB	0dfH
	DB	0ffH
	DB	0ffH
	DB	0ffH
	DB	0ffH
	DB	0ffH
	DB	0ffH
	DB	0ffH
	DB	0ffH
	DB	0ffH
	DB	0ffH
	DB	0ffH
	DB	0ffH
	DB	0ffH
	DB	0ffH
	DB	0ffH
	DB	0ffH
	DB	0ffH
	DB	0ffH
	DB	0ffH
	DB	03cH
	DB	0e7H
	DB	086H
	DB	029H
	DB	086H
	DB	029H
	DB	086H
	DB	029H
	DB	086H
	DB	029H
	DB	086H
	DB	029H
	DB	014H
	DB	0a5H
	DB	0ffH
	DB	0ffH
	DB	0ffH
	DB	0ffH
	DB	0ffH
	DB	0ffH
	DB	0ffH
	DB	0ffH
	DB	0ffH
	DB	0ffH
	DB	0ffH
	DB	0ffH
	DB	0ffH
	DB	0ffH
	DB	0ffH
	DB	0ffH
	DB	0ffH
	DB	0ffH
	DB	0ffH
	DB	0ffH
	DB	0ffH
	DB	0ffH
	DB	0ffH
	DB	0ffH
	DB	0ffH
	DB	0ffH
	DB	0ffH
	DB	0ffH
	DB	0ffH
	DB	0ffH
	DB	0ffH
	DB	0ffH
	DB	0ffH
	DB	0ffH
	DB	0ffH
	DB	0ffH
	DB	0ffH
	DB	0ffH
	DB	0ffH
	DB	0ffH
	DB	0ffH
	DB	0ffH
	DB	0ffH
	DB	0ffH
	DB	0ffH
	DB	0ffH
	DB	0ffH
	DB	0ffH
	DB	0ffH
	DB	0ffH
	DB	0ffH
	DB	0ffH
	DB	0ffH
	DB	0ffH
	DB	0ffH
	DB	0ffH
	DB	0ffH
	DB	0ffH
	DB	0ffH
	DB	0ffH
	DB	0ffH
	DB	0ffH
	DB	0ffH
	DB	0ffH
	DB	0ffH
	DB	0ffH
	DB	0ffH
	DB	0ffH
	DB	0ffH
	DB	0ffH
	DB	0ffH
	DB	0ffH
	DB	0ffH
	DB	0ffH
	DB	0ffH
	DB	0ffH
	DB	0ffH
	DB	0ffH
	DB	0ffH
	DB	0ffH
	DB	0ffH
	DB	0ffH
	DB	0ffH
	DB	0ffH
	DB	0ffH
	DB	0ffH
	DB	0ffH
	DB	0ffH
	DB	0ffH
	DB	0ffH
	DB	0bbH
	DB	0d6H
	DB	086H
	DB	029H
	DB	086H
	DB	029H
	DB	086H
	DB	029H
	DB	086H
	DB	029H
	DB	086H
	DB	029H
	DB	0b3H
	DB	094H
	DB	0ffH
	DB	0ffH
	DB	0ffH
	DB	0ffH
	DB	0ffH
	DB	0ffH
	DB	0ffH
	DB	0ffH
	DB	0ffH
	DB	0ffH
	DB	0ffH
	DB	0ffH
	DB	0ffH
	DB	0ffH
	DB	0ffH
	DB	0ffH
	DB	0ffH
	DB	0ffH
	DB	0ffH
	DB	0ffH
	DB	0ffH
	DB	0ffH
	DB	0ffH
	DB	0ffH
	DB	0ffH
	DB	0ffH
	DB	0ffH
	DB	0ffH
	DB	0ffH
	DB	0ffH
	DB	0ffH
	DB	0ffH
	DB	0ffH
	DB	0ffH
	DB	0ffH
	DB	0ffH
	DB	0ffH
	DB	0ffH
	DB	0ffH
	DB	0ffH
	DB	0ffH
	DB	0ffH
	DB	0ffH
	DB	0ffH
	DB	0ffH
	DB	0ffH
	DB	0ffH
	DB	0ffH
	DB	0ffH
	DB	0ffH
	DB	0ffH
	DB	0ffH
	DB	0ffH
	DB	0ffH
	DB	0ffH
	DB	0ffH
	DB	0ffH
	DB	0ffH
	DB	0ffH
	DB	0ffH
	DB	0ffH
	DB	0ffH
	DB	0ffH
	DB	0ffH
	DB	0ffH
	DB	0ffH
	DB	0ffH
	DB	0ffH
	DB	0ffH
	DB	0ffH
	DB	0ffH
	DB	0ffH
	DB	0ffH
	DB	0ffH
	DB	0ffH
	DB	0ffH
	DB	0ffH
	DB	0ffH
	DB	0ffH
	DB	0ffH
	DB	0ffH
	DB	0ffH
	DB	0ffH
	DB	0ffH
	DB	0ffH
	DB	0ffH
	DB	0ffH
	DB	0ffH
	DB	0ffH
	DB	0ffH
	DB	0bbH
	DB	0d6H
	DB	086H
	DB	029H
	DB	086H
	DB	029H
	DB	086H
	DB	029H
	DB	086H
	DB	029H
	DB	086H
	DB	029H
	DB	0b3H
	DB	094H
	DB	0ffH
	DB	0ffH
	DB	0ffH
	DB	0ffH
	DB	0ffH
	DB	0ffH
	DB	0ffH
	DB	0ffH
	DB	0ffH
	DB	0ffH
	DB	0ffH
	DB	0ffH
	DB	0ffH
	DB	0ffH
	DB	0ffH
	DB	0ffH
	DB	0ffH
	DB	0ffH
	DB	0ffH
	DB	0ffH
	DB	0ffH
	DB	0ffH
	DB	0ffH
	DB	0ffH
	DB	0ffH
	DB	0ffH
	DB	0ffH
	DB	0ffH
	DB	0ffH
	DB	0ffH
	DB	0ffH
	DB	0ffH
	DB	0ffH
	DB	0ffH
	DB	0ffH
	DB	0ffH
	DB	0ffH
	DB	0ffH
	DB	0ffH
	DB	0ffH
	DB	0ffH
	DB	0ffH
	DB	0ffH
	DB	0ffH
	DB	0ffH
	DB	0ffH
	DB	0ffH
	DB	0ffH
	DB	0ffH
	DB	0ffH
	DB	0ffH
	DB	0ffH
	DB	0ffH
	DB	0ffH
	DB	0ffH
	DB	0ffH
	DB	0ffH
	DB	0ffH
	DB	0ffH
	DB	0ffH
	DB	0ffH
	DB	0ffH
	DB	0ffH
	DB	0ffH
	DB	0ffH
	DB	0ffH
	DB	0ffH
	DB	0ffH
	DB	0ffH
	DB	0ffH
	DB	0ffH
	DB	0ffH
	DB	0ffH
	DB	0ffH
	DB	0ffH
	DB	0ffH
	DB	0ffH
	DB	0ffH
	DB	0ffH
	DB	0ffH
	DB	0ffH
	DB	0ffH
	DB	0ffH
	DB	0ffH
	DB	0ffH
	DB	0ffH
	DB	0ffH
	DB	0ffH
	DB	0ffH
	DB	0ffH
	DB	0bbH
	DB	0d6H
	DB	086H
	DB	029H
	DB	086H
	DB	029H
	DB	086H
	DB	029H
	DB	086H
	DB	029H
	DB	086H
	DB	029H
	DB	0b3H
	DB	094H
	DB	0ffH
	DB	0ffH
	DB	0ffH
	DB	0ffH
	DB	0ffH
	DB	0ffH
	DB	0ffH
	DB	0ffH
	DB	0ffH
	DB	0ffH
	DB	0ffH
	DB	0ffH
	DB	0ffH
	DB	0ffH
	DB	0ffH
	DB	0ffH
	DB	0ffH
	DB	0ffH
	DB	0ffH
	DB	0ffH
	DB	0ffH
	DB	0ffH
	DB	0ffH
	DB	0ffH
	DB	0ffH
	DB	0ffH
	DB	0ffH
	DB	0ffH
	DB	0ffH
	DB	0ffH
	DB	0ffH
	DB	0ffH
	DB	0ffH
	DB	0ffH
	DB	0ffH
	DB	0ffH
	DB	0ffH
	DB	0ffH
	DB	0ffH
	DB	0ffH
	DB	0ffH
	DB	0ffH
	DB	0ffH
	DB	0ffH
	DB	0ffH
	DB	0ffH
	DB	0ffH
	DB	0ffH
	DB	0ffH
	DB	0ffH
	DB	0ffH
	DB	0ffH
	DB	0ffH
	DB	0ffH
	DB	0ffH
	DB	0ffH
	DB	0ffH
	DB	0ffH
	DB	0ffH
	DB	0ffH
	DB	0ffH
	DB	0ffH
	DB	0ffH
	DB	0ffH
	DB	0ffH
	DB	0ffH
	DB	0ffH
	DB	0ffH
	DB	0ffH
	DB	0ffH
	DB	0ffH
	DB	0ffH
	DB	0ffH
	DB	0ffH
	DB	0ffH
	DB	0ffH
	DB	0ffH
	DB	0ffH
	DB	0ffH
	DB	0ffH
	DB	0ffH
	DB	0ffH
	DB	0ffH
	DB	0ffH
	DB	0ffH
	DB	0ffH
	DB	0ffH
	DB	0ffH
	DB	0ffH
	DB	0ffH
	DB	0bbH
	DB	0d6H
	DB	086H
	DB	029H
	DB	086H
	DB	029H
	DB	086H
	DB	029H
	DB	086H
	DB	029H
	DB	086H
	DB	029H
	DB	0b3H
	DB	094H
	DB	0ffH
	DB	0ffH
	DB	0ffH
	DB	0ffH
	DB	0ffH
	DB	0ffH
	DB	0ffH
	DB	0ffH
	DB	0ffH
	DB	0ffH
	DB	0ffH
	DB	0ffH
	DB	0ffH
	DB	0ffH
	DB	0ffH
	DB	0ffH
	DB	0ffH
	DB	0ffH
	DB	0ffH
	DB	0ffH
	DB	0ffH
	DB	0ffH
	DB	0ffH
	DB	0ffH
	DB	0ffH
	DB	0ffH
	DB	0ffH
	DB	0ffH
	DB	0ffH
	DB	0ffH
	DB	0ffH
	DB	0ffH
	DB	0ffH
	DB	0ffH
	DB	0ffH
	DB	0ffH
	DB	0ffH
	DB	0ffH
	DB	0ffH
	DB	0ffH
	DB	0ffH
	DB	0ffH
	DB	0ffH
	DB	0ffH
	DB	0ffH
	DB	0ffH
	DB	0ffH
	DB	0ffH
	DB	0ffH
	DB	0ffH
	DB	0ffH
	DB	0ffH
	DB	0ffH
	DB	0ffH
	DB	0ffH
	DB	0ffH
	DB	0ffH
	DB	0ffH
	DB	0ffH
	DB	0ffH
	DB	0ffH
	DB	0ffH
	DB	0ffH
	DB	0ffH
	DB	0ffH
	DB	0ffH
	DB	0ffH
	DB	0ffH
	DB	0ffH
	DB	0ffH
	DB	0ffH
	DB	0ffH
	DB	0ffH
	DB	0ffH
	DB	0ffH
	DB	0ffH
	DB	0ffH
	DB	0ffH
	DB	0ffH
	DB	0ffH
	DB	0ffH
	DB	0ffH
	DB	0ffH
	DB	0ffH
	DB	0ffH
	DB	0ffH
	DB	0ffH
	DB	0ffH
	DB	0ffH
	DB	0ffH
	DB	0bbH
	DB	0d6H
	DB	086H
	DB	029H
	DB	086H
	DB	029H
	DB	086H
	DB	029H
	DB	086H
	DB	029H
	DB	086H
	DB	029H
	DB	0b3H
	DB	094H
	DB	0ffH
	DB	0ffH
	DB	0ffH
	DB	0ffH
	DB	0ffH
	DB	0ffH
	DB	0ffH
	DB	0ffH
	DB	0ffH
	DB	0ffH
	DB	0ffH
	DB	0ffH
	DB	0ffH
	DB	0ffH
	DB	0ffH
	DB	0ffH
	DB	0ffH
	DB	0ffH
	DB	0ffH
	DB	0ffH
	DB	0ffH
	DB	0ffH
	DB	0ffH
	DB	0ffH
	DB	0ffH
	DB	0ffH
	DB	0ffH
	DB	0ffH
	DB	0ffH
	DB	0ffH
	DB	0ffH
	DB	0ffH
	DB	0ffH
	DB	0ffH
	DB	0ffH
	DB	0ffH
	DB	0ffH
	DB	0ffH
	DB	0ffH
	DB	0ffH
	DB	0ffH
	DB	0ffH
	DB	0ffH
	DB	0ffH
	DB	0ffH
	DB	0ffH
	DB	0ffH
	DB	0ffH
	DB	0ffH
	DB	0ffH
	DB	0ffH
	DB	0ffH
	DB	0ffH
	DB	0ffH
	DB	0ffH
	DB	0ffH
	DB	0ffH
	DB	0ffH
	DB	0ffH
	DB	0ffH
	DB	0ffH
	DB	0ffH
	DB	0ffH
	DB	0ffH
	DB	0ffH
	DB	0ffH
	DB	0ffH
	DB	0ffH
	DB	0ffH
	DB	0ffH
	DB	0ffH
	DB	0ffH
	DB	0ffH
	DB	0ffH
	DB	0ffH
	DB	0ffH
	DB	0ffH
	DB	0ffH
	DB	0ffH
	DB	0ffH
	DB	0ffH
	DB	0ffH
	DB	0ffH
	DB	0ffH
	DB	0ffH
	DB	0ffH
	DB	0ffH
	DB	0ffH
	DB	0ffH
	DB	0ffH
	DB	0bbH
	DB	0d6H
	DB	086H
	DB	029H
	DB	086H
	DB	029H
	DB	086H
	DB	029H
	DB	086H
	DB	029H
	DB	086H
	DB	029H
	DB	0b3H
	DB	094H
	DB	0ffH
	DB	0ffH
	DB	0ffH
	DB	0ffH
	DB	0ffH
	DB	0ffH
	DB	0ffH
	DB	0ffH
	DB	0ffH
	DB	0ffH
	DB	0ffH
	DB	0ffH
	DB	0ffH
	DB	0ffH
	DB	0ffH
	DB	0ffH
	DB	0ffH
	DB	0ffH
	DB	0ffH
	DB	0ffH
	DB	0ffH
	DB	0ffH
	DB	0ffH
	DB	0ffH
	DB	0ffH
	DB	0ffH
	DB	0ffH
	DB	0ffH
	DB	0ffH
	DB	0ffH
	DB	0ffH
	DB	0ffH
	DB	0ffH
	DB	0ffH
	DB	0ffH
	DB	0ffH
	DB	0ffH
	DB	0ffH
	DB	0ffH
	DB	0ffH
	DB	0ffH
	DB	0ffH
	DB	0ffH
	DB	0ffH
	DB	0ffH
	DB	0ffH
	DB	0ffH
	DB	0ffH
	DB	0ffH
	DB	0ffH
	DB	0ffH
	DB	0ffH
	DB	0ffH
	DB	0ffH
	DB	0ffH
	DB	0ffH
	DB	0ffH
	DB	0ffH
	DB	0ffH
	DB	0ffH
	DB	0ffH
	DB	0ffH
	DB	0ffH
	DB	0ffH
	DB	0ffH
	DB	0ffH
	DB	0ffH
	DB	0ffH
	DB	0ffH
	DB	0ffH
	DB	0ffH
	DB	0ffH
	DB	0ffH
	DB	0ffH
	DB	0ffH
	DB	0ffH
	DB	0ffH
	DB	0ffH
	DB	0ffH
	DB	0ffH
	DB	0ffH
	DB	0ffH
	DB	0ffH
	DB	0ffH
	DB	0ffH
	DB	0ffH
	DB	0ffH
	DB	0ffH
	DB	0ffH
	DB	0ffH
	DB	0bbH
	DB	0d6H
	DB	086H
	DB	029H
	DB	086H
	DB	029H
	DB	086H
	DB	029H
	DB	086H
	DB	029H
	DB	086H
	DB	029H
	DB	0b3H
	DB	094H
	DB	0ffH
	DB	0ffH
	DB	0ffH
	DB	0ffH
	DB	0ffH
	DB	0ffH
	DB	0ffH
	DB	0ffH
	DB	0ffH
	DB	0ffH
	DB	0ffH
	DB	0ffH
	DB	0ffH
	DB	0ffH
	DB	0ffH
	DB	0ffH
	DB	0ffH
	DB	0ffH
	DB	0ffH
	DB	0ffH
	DB	0ffH
	DB	0ffH
	DB	0ffH
	DB	0ffH
	DB	0ffH
	DB	0ffH
	DB	0ffH
	DB	0ffH
	DB	0ffH
	DB	0ffH
	DB	0ffH
	DB	0ffH
	DB	0ffH
	DB	0ffH
	DB	0ffH
	DB	0ffH
	DB	0ffH
	DB	0ffH
	DB	0ffH
	DB	0ffH
	DB	0ffH
	DB	0ffH
	DB	0ffH
	DB	0ffH
	DB	0ffH
	DB	0ffH
	DB	0ffH
	DB	0ffH
	DB	0ffH
	DB	0ffH
	DB	0ffH
	DB	0ffH
	DB	0ffH
	DB	0ffH
	DB	0ffH
	DB	0ffH
	DB	0ffH
	DB	0ffH
	DB	0ffH
	DB	0ffH
	DB	0ffH
	DB	0ffH
	DB	0ffH
	DB	0ffH
	DB	0ffH
	DB	0ffH
	DB	0ffH
	DB	0ffH
	DB	0ffH
	DB	0ffH
	DB	0ffH
	DB	0ffH
	DB	0ffH
	DB	0ffH
	DB	0ffH
	DB	0ffH
	DB	0ffH
	DB	0ffH
	DB	0ffH
	DB	0ffH
	DB	0ffH
	DB	0ffH
	DB	0ffH
	DB	0ffH
	DB	0ffH
	DB	0ffH
	DB	0ffH
	DB	0ffH
	DB	0ffH
	DB	0ffH
	DB	0bbH
	DB	0d6H
	DB	086H
	DB	029H
	DB	086H
	DB	029H
	DB	086H
	DB	029H
	DB	086H
	DB	029H
	DB	086H
	DB	029H
	DB	0b3H
	DB	094H
	DB	0ffH
	DB	0ffH
	DB	0ffH
	DB	0ffH
	DB	0ffH
	DB	0ffH
	DB	0ffH
	DB	0ffH
	DB	0ffH
	DB	0ffH
	DB	0ffH
	DB	0ffH
	DB	0ffH
	DB	0ffH
	DB	0ffH
	DB	0ffH
	DB	0ffH
	DB	0ffH
	DB	0ffH
	DB	0ffH
	DB	0ffH
	DB	0ffH
	DB	0ffH
	DB	0ffH
	DB	0ffH
	DB	0ffH
	DB	0ffH
	DB	0ffH
	DB	0ffH
	DB	0ffH
	DB	0ffH
	DB	0ffH
	DB	0ffH
	DB	0ffH
	DB	0ffH
	DB	0ffH
	DB	0ffH
	DB	0ffH
	DB	0ffH
	DB	0ffH
	DB	0ffH
	DB	0ffH
	DB	0ffH
	DB	0ffH
	DB	0ffH
	DB	0ffH
	DB	0ffH
	DB	0ffH
	DB	0ffH
	DB	0ffH
	DB	0ffH
	DB	0ffH
	DB	0ffH
	DB	0ffH
	DB	0ffH
	DB	0ffH
	DB	0ffH
	DB	0ffH
	DB	0ffH
	DB	0ffH
	DB	0ffH
	DB	0ffH
	DB	0ffH
	DB	0ffH
	DB	0ffH
	DB	0ffH
	DB	0ffH
	DB	0ffH
	DB	0ffH
	DB	0ffH
	DB	0ffH
	DB	0ffH
	DB	0ffH
	DB	0ffH
	DB	0ffH
	DB	0ffH
	DB	0ffH
	DB	0ffH
	DB	0ffH
	DB	0ffH
	DB	0ffH
	DB	0ffH
	DB	0ffH
	DB	0ffH
	DB	0ffH
	DB	0ffH
	DB	0ffH
	DB	0ffH
	DB	0ffH
	DB	0ffH
	DB	0bbH
	DB	0d6H
	DB	086H
	DB	029H
	DB	086H
	DB	029H
	DB	086H
	DB	029H
	DB	086H
	DB	029H
	DB	086H
	DB	029H
	DB	0b3H
	DB	094H
	DB	0ffH
	DB	0ffH
	DB	0ffH
	DB	0ffH
	DB	0ffH
	DB	0ffH
	DB	0ffH
	DB	0ffH
	DB	0ffH
	DB	0ffH
	DB	0ffH
	DB	0ffH
	DB	0ffH
	DB	0ffH
	DB	0ffH
	DB	0ffH
	DB	0ffH
	DB	0ffH
	DB	0ffH
	DB	0ffH
	DB	0ffH
	DB	0ffH
	DB	0ffH
	DB	0ffH
	DB	0ffH
	DB	0ffH
	DB	0ffH
	DB	0ffH
	DB	0ffH
	DB	0ffH
	DB	0ffH
	DB	0ffH
	DB	0ffH
	DB	0ffH
	DB	0ffH
	DB	0ffH
	DB	0ffH
	DB	0ffH
	DB	0ffH
	DB	0ffH
	DB	0ffH
	DB	0ffH
	DB	0ffH
	DB	0ffH
	DB	0ffH
	DB	0ffH
	DB	0ffH
	DB	0ffH
	DB	0ffH
	DB	0ffH
	DB	0ffH
	DB	0ffH
	DB	0ffH
	DB	0ffH
	DB	0ffH
	DB	0ffH
	DB	0ffH
	DB	0ffH
	DB	0ffH
	DB	0ffH
	DB	0ffH
	DB	0ffH
	DB	0ffH
	DB	0ffH
	DB	0ffH
	DB	0ffH
	DB	0ffH
	DB	0ffH
	DB	0ffH
	DB	0ffH
	DB	0ffH
	DB	0ffH
	DB	0ffH
	DB	0ffH
	DB	0ffH
	DB	0ffH
	DB	0ffH
	DB	0ffH
	DB	0ffH
	DB	0ffH
	DB	0ffH
	DB	0ffH
	DB	0ffH
	DB	0ffH
	DB	0ffH
	DB	0ffH
	DB	0ffH
	DB	0ffH
	DB	0ffH
	DB	0ffH
	DB	0bbH
	DB	0d6H
	DB	086H
	DB	029H
	DB	086H
	DB	029H
	DB	086H
	DB	029H
	DB	086H
	DB	029H
	DB	086H
	DB	029H
	DB	0b3H
	DB	094H
	DB	0ffH
	DB	0ffH
	DB	0ffH
	DB	0ffH
	DB	0ffH
	DB	0ffH
	DB	0ffH
	DB	0ffH
	DB	0ffH
	DB	0ffH
	DB	0ffH
	DB	0ffH
	DB	0ffH
	DB	0ffH
	DB	0ffH
	DB	0ffH
	DB	0ffH
	DB	0ffH
	DB	0ffH
	DB	0ffH
	DB	0ffH
	DB	0ffH
	DB	0ffH
	DB	0ffH
	DB	0ffH
	DB	0ffH
	DB	0ffH
	DB	0ffH
	DB	0ffH
	DB	0ffH
	DB	0ffH
	DB	0ffH
	DB	0ffH
	DB	0ffH
	DB	0ffH
	DB	0ffH
	DB	0ffH
	DB	0ffH
	DB	0ffH
	DB	0ffH
	DB	0ffH
	DB	0ffH
	DB	0ffH
	DB	0ffH
	DB	0ffH
	DB	0ffH
	DB	0ffH
	DB	0ffH
	DB	0ffH
	DB	0ffH
	DB	0ffH
	DB	0ffH
	DB	0ffH
	DB	0ffH
	DB	0ffH
	DB	0ffH
	DB	0ffH
	DB	0ffH
	DB	0ffH
	DB	0ffH
	DB	0ffH
	DB	0ffH
	DB	0ffH
	DB	0ffH
	DB	0ffH
	DB	0ffH
	DB	0ffH
	DB	0ffH
	DB	0ffH
	DB	0ffH
	DB	0ffH
	DB	0ffH
	DB	0ffH
	DB	0ffH
	DB	0ffH
	DB	0ffH
	DB	0ffH
	DB	0ffH
	DB	0ffH
	DB	0ffH
	DB	0ffH
	DB	0ffH
	DB	0ffH
	DB	0ffH
	DB	0ffH
	DB	0ffH
	DB	0ffH
	DB	0ffH
	DB	0ffH
	DB	0ffH
	DB	0bbH
	DB	0d6H
	DB	086H
	DB	029H
	DB	086H
	DB	029H
	DB	086H
	DB	029H
	DB	086H
	DB	029H
	DB	086H
	DB	029H
	DB	0b3H
	DB	094H
	DB	0ffH
	DB	0ffH
	DB	0ffH
	DB	0ffH
	DB	0ffH
	DB	0ffH
	DB	0ffH
	DB	0ffH
	DB	0ffH
	DB	0ffH
	DB	0ffH
	DB	0ffH
	DB	0ffH
	DB	0ffH
	DB	0ffH
	DB	0ffH
	DB	0ffH
	DB	0ffH
	DB	0ffH
	DB	0ffH
	DB	0ffH
	DB	0ffH
	DB	0ffH
	DB	0ffH
	DB	0ffH
	DB	0ffH
	DB	0ffH
	DB	0ffH
	DB	0ffH
	DB	0ffH
	DB	0ffH
	DB	0ffH
	DB	0ffH
	DB	0ffH
	DB	0ffH
	DB	0ffH
	DB	0ffH
	DB	0ffH
	DB	0ffH
	DB	0ffH
	DB	0ffH
	DB	0ffH
	DB	0ffH
	DB	0ffH
	DB	0ffH
	DB	0ffH
	DB	0ffH
	DB	0ffH
	DB	0ffH
	DB	0ffH
	DB	0ffH
	DB	0ffH
	DB	0ffH
	DB	0ffH
	DB	0ffH
	DB	0ffH
	DB	0ffH
	DB	0ffH
	DB	0ffH
	DB	0ffH
	DB	0ffH
	DB	0ffH
	DB	0ffH
	DB	0ffH
	DB	0ffH
	DB	0ffH
	DB	0ffH
	DB	0ffH
	DB	0ffH
	DB	0ffH
	DB	0ffH
	DB	0ffH
	DB	0ffH
	DB	0ffH
	DB	0ffH
	DB	0ffH
	DB	0ffH
	DB	0ffH
	DB	0ffH
	DB	0ffH
	DB	0ffH
	DB	0ffH
	DB	0ffH
	DB	0ffH
	DB	0ffH
	DB	0ffH
	DB	0ffH
	DB	0ffH
	DB	0ffH
	DB	0ffH
	DB	0bbH
	DB	0d6H
	DB	086H
	DB	029H
	DB	086H
	DB	029H
	DB	086H
	DB	029H
	DB	086H
	DB	029H
	DB	086H
	DB	029H
	DB	04dH
	DB	06bH
	DB	035H
	DB	0a5H
	DB	035H
	DB	0a5H
	DB	035H
	DB	0a5H
	DB	035H
	DB	0a5H
	DB	035H
	DB	0a5H
	DB	035H
	DB	0a5H
	DB	035H
	DB	0a5H
	DB	035H
	DB	0a5H
	DB	035H
	DB	0a5H
	DB	035H
	DB	0a5H
	DB	035H
	DB	0a5H
	DB	035H
	DB	0a5H
	DB	035H
	DB	0a5H
	DB	035H
	DB	0a5H
	DB	035H
	DB	0a5H
	DB	035H
	DB	0a5H
	DB	035H
	DB	0a5H
	DB	035H
	DB	0a5H
	DB	035H
	DB	0a5H
	DB	035H
	DB	0a5H
	DB	035H
	DB	0a5H
	DB	035H
	DB	0a5H
	DB	035H
	DB	0a5H
	DB	035H
	DB	0a5H
	DB	035H
	DB	0a5H
	DB	035H
	DB	0a5H
	DB	035H
	DB	0a5H
	DB	035H
	DB	0a5H
	DB	035H
	DB	0a5H
	DB	035H
	DB	0a5H
	DB	035H
	DB	0a5H
	DB	035H
	DB	0a5H
	DB	035H
	DB	0a5H
	DB	035H
	DB	0a5H
	DB	035H
	DB	0a5H
	DB	035H
	DB	0a5H
	DB	035H
	DB	0a5H
	DB	035H
	DB	0a5H
	DB	035H
	DB	0a5H
	DB	035H
	DB	0a5H
	DB	035H
	DB	0a5H
	DB	018H
	DB	0beH
	DB	0ffH
	DB	0ffH
	DB	0ffH
	DB	0ffH
	DB	0ffH
	DB	0ffH
	DB	0bbH
	DB	0d6H
	DB	086H
	DB	029H
	DB	086H
	DB	029H
	DB	086H
	DB	029H
	DB	086H
	DB	029H
	DB	086H
	DB	029H
	DB	086H
	DB	029H
	DB	086H
	DB	029H
	DB	086H
	DB	029H
	DB	086H
	DB	029H
	DB	086H
	DB	029H
	DB	086H
	DB	029H
	DB	086H
	DB	029H
	DB	086H
	DB	029H
	DB	086H
	DB	029H
	DB	086H
	DB	029H
	DB	086H
	DB	029H
	DB	086H
	DB	029H
	DB	086H
	DB	029H
	DB	086H
	DB	029H
	DB	086H
	DB	029H
	DB	086H
	DB	029H
	DB	086H
	DB	029H
	DB	086H
	DB	029H
	DB	086H
	DB	029H
	DB	086H
	DB	029H
	DB	086H
	DB	029H
	DB	086H
	DB	029H
	DB	086H
	DB	029H
	DB	086H
	DB	029H
	DB	086H
	DB	029H
	DB	086H
	DB	029H
	DB	086H
	DB	029H
	DB	086H
	DB	029H
	DB	086H
	DB	029H
	DB	086H
	DB	029H
	DB	086H
	DB	029H
	DB	086H
	DB	029H
	DB	086H
	DB	029H
	DB	086H
	DB	029H
	DB	086H
	DB	029H
	DB	086H
	DB	029H
	DB	086H
	DB	029H
	DB	086H
	DB	029H
	DB	086H
	DB	029H
	DB	086H
	DB	029H
	DB	086H
	DB	029H
	DB	086H
	DB	029H
	DB	086H
	DB	029H
	DB	079H
	DB	0ceH
	DB	0ffH
	DB	0ffH
	DB	0ffH
	DB	0ffH
	DB	0bbH
	DB	0d6H
	DB	086H
	DB	029H
	DB	086H
	DB	029H
	DB	086H
	DB	029H
	DB	086H
	DB	029H
	DB	086H
	DB	029H
	DB	086H
	DB	029H
	DB	086H
	DB	029H
	DB	086H
	DB	029H
	DB	086H
	DB	029H
	DB	086H
	DB	029H
	DB	086H
	DB	029H
	DB	086H
	DB	029H
	DB	086H
	DB	029H
	DB	086H
	DB	029H
	DB	086H
	DB	029H
	DB	086H
	DB	029H
	DB	086H
	DB	029H
	DB	086H
	DB	029H
	DB	086H
	DB	029H
	DB	086H
	DB	029H
	DB	086H
	DB	029H
	DB	086H
	DB	029H
	DB	086H
	DB	029H
	DB	086H
	DB	029H
	DB	086H
	DB	029H
	DB	086H
	DB	029H
	DB	086H
	DB	029H
	DB	086H
	DB	029H
	DB	086H
	DB	029H
	DB	086H
	DB	029H
	DB	086H
	DB	029H
	DB	086H
	DB	029H
	DB	086H
	DB	029H
	DB	086H
	DB	029H
	DB	086H
	DB	029H
	DB	086H
	DB	029H
	DB	086H
	DB	029H
	DB	086H
	DB	029H
	DB	086H
	DB	029H
	DB	086H
	DB	029H
	DB	086H
	DB	029H
	DB	086H
	DB	029H
	DB	086H
	DB	029H
	DB	086H
	DB	029H
	DB	086H
	DB	029H
	DB	086H
	DB	029H
	DB	086H
	DB	029H
	DB	086H
	DB	029H
	DB	018H
	DB	0c6H
	DB	0ffH
	DB	0ffH
	DB	0ffH
	DB	0ffH
	DB	0bbH
	DB	0d6H
	DB	086H
	DB	029H
	DB	086H
	DB	029H
	DB	086H
	DB	029H
	DB	086H
	DB	029H
	DB	086H
	DB	029H
	DB	086H
	DB	029H
	DB	086H
	DB	029H
	DB	086H
	DB	029H
	DB	086H
	DB	029H
	DB	086H
	DB	029H
	DB	086H
	DB	029H
	DB	086H
	DB	029H
	DB	086H
	DB	029H
	DB	086H
	DB	029H
	DB	086H
	DB	029H
	DB	086H
	DB	029H
	DB	086H
	DB	029H
	DB	086H
	DB	029H
	DB	086H
	DB	029H
	DB	086H
	DB	029H
	DB	086H
	DB	029H
	DB	086H
	DB	029H
	DB	086H
	DB	029H
	DB	086H
	DB	029H
	DB	086H
	DB	029H
	DB	086H
	DB	029H
	DB	086H
	DB	029H
	DB	086H
	DB	029H
	DB	086H
	DB	029H
	DB	086H
	DB	029H
	DB	086H
	DB	029H
	DB	086H
	DB	029H
	DB	086H
	DB	029H
	DB	086H
	DB	029H
	DB	086H
	DB	029H
	DB	086H
	DB	029H
	DB	086H
	DB	029H
	DB	086H
	DB	029H
	DB	086H
	DB	029H
	DB	086H
	DB	029H
	DB	086H
	DB	029H
	DB	086H
	DB	029H
	DB	086H
	DB	029H
	DB	086H
	DB	029H
	DB	086H
	DB	029H
	DB	086H
	DB	029H
	DB	086H
	DB	029H
	DB	086H
	DB	029H
	DB	018H
	DB	0c6H
	DB	0ffH
	DB	0ffH
	DB	0ffH
	DB	0ffH
	DB	0bbH
	DB	0d6H
	DB	086H
	DB	029H
	DB	086H
	DB	029H
	DB	086H
	DB	029H
	DB	086H
	DB	029H
	DB	086H
	DB	029H
	DB	086H
	DB	029H
	DB	086H
	DB	029H
	DB	086H
	DB	029H
	DB	086H
	DB	029H
	DB	086H
	DB	029H
	DB	086H
	DB	029H
	DB	086H
	DB	029H
	DB	086H
	DB	029H
	DB	086H
	DB	029H
	DB	086H
	DB	029H
	DB	086H
	DB	029H
	DB	086H
	DB	029H
	DB	086H
	DB	029H
	DB	086H
	DB	029H
	DB	086H
	DB	029H
	DB	086H
	DB	029H
	DB	086H
	DB	029H
	DB	086H
	DB	029H
	DB	086H
	DB	029H
	DB	086H
	DB	029H
	DB	086H
	DB	029H
	DB	086H
	DB	029H
	DB	086H
	DB	029H
	DB	086H
	DB	029H
	DB	086H
	DB	029H
	DB	086H
	DB	029H
	DB	086H
	DB	029H
	DB	086H
	DB	029H
	DB	086H
	DB	029H
	DB	086H
	DB	029H
	DB	086H
	DB	029H
	DB	086H
	DB	029H
	DB	086H
	DB	029H
	DB	086H
	DB	029H
	DB	086H
	DB	029H
	DB	086H
	DB	029H
	DB	086H
	DB	029H
	DB	086H
	DB	029H
	DB	086H
	DB	029H
	DB	086H
	DB	029H
	DB	086H
	DB	029H
	DB	086H
	DB	029H
	DB	086H
	DB	029H
	DB	018H
	DB	0c6H
	DB	0ffH
	DB	0ffH
	DB	0ffH
	DB	0ffH
	DB	0bbH
	DB	0d6H
	DB	086H
	DB	029H
	DB	086H
	DB	029H
	DB	086H
	DB	029H
	DB	086H
	DB	029H
	DB	086H
	DB	029H
	DB	086H
	DB	029H
	DB	086H
	DB	029H
	DB	086H
	DB	029H
	DB	086H
	DB	029H
	DB	086H
	DB	029H
	DB	086H
	DB	029H
	DB	086H
	DB	029H
	DB	086H
	DB	029H
	DB	086H
	DB	029H
	DB	086H
	DB	029H
	DB	086H
	DB	029H
	DB	086H
	DB	029H
	DB	086H
	DB	029H
	DB	086H
	DB	029H
	DB	086H
	DB	029H
	DB	086H
	DB	029H
	DB	086H
	DB	029H
	DB	086H
	DB	029H
	DB	086H
	DB	029H
	DB	086H
	DB	029H
	DB	086H
	DB	029H
	DB	086H
	DB	029H
	DB	086H
	DB	029H
	DB	086H
	DB	029H
	DB	086H
	DB	029H
	DB	086H
	DB	029H
	DB	086H
	DB	029H
	DB	086H
	DB	029H
	DB	086H
	DB	029H
	DB	086H
	DB	029H
	DB	086H
	DB	029H
	DB	086H
	DB	029H
	DB	086H
	DB	029H
	DB	086H
	DB	029H
	DB	086H
	DB	029H
	DB	086H
	DB	029H
	DB	086H
	DB	029H
	DB	086H
	DB	029H
	DB	086H
	DB	029H
	DB	086H
	DB	029H
	DB	086H
	DB	029H
	DB	086H
	DB	029H
	DB	086H
	DB	029H
	DB	018H
	DB	0c6H
	DB	0ffH
	DB	0ffH
	DB	0ffH
	DB	0ffH
	DB	0bbH
	DB	0d6H
	DB	086H
	DB	029H
	DB	086H
	DB	029H
	DB	086H
	DB	029H
	DB	086H
	DB	029H
	DB	086H
	DB	029H
	DB	086H
	DB	029H
	DB	086H
	DB	029H
	DB	086H
	DB	029H
	DB	086H
	DB	029H
	DB	086H
	DB	029H
	DB	086H
	DB	029H
	DB	086H
	DB	029H
	DB	086H
	DB	029H
	DB	086H
	DB	029H
	DB	086H
	DB	029H
	DB	086H
	DB	029H
	DB	086H
	DB	029H
	DB	086H
	DB	029H
	DB	086H
	DB	029H
	DB	086H
	DB	029H
	DB	086H
	DB	029H
	DB	086H
	DB	029H
	DB	086H
	DB	029H
	DB	086H
	DB	029H
	DB	086H
	DB	029H
	DB	086H
	DB	029H
	DB	086H
	DB	029H
	DB	086H
	DB	029H
	DB	086H
	DB	029H
	DB	086H
	DB	029H
	DB	086H
	DB	029H
	DB	086H
	DB	029H
	DB	086H
	DB	029H
	DB	086H
	DB	029H
	DB	086H
	DB	029H
	DB	086H
	DB	029H
	DB	086H
	DB	029H
	DB	086H
	DB	029H
	DB	086H
	DB	029H
	DB	086H
	DB	029H
	DB	086H
	DB	029H
	DB	086H
	DB	029H
	DB	086H
	DB	029H
	DB	086H
	DB	029H
	DB	086H
	DB	029H
	DB	086H
	DB	029H
	DB	086H
	DB	029H
	DB	049H
	DB	04aH
	DB	05dH
	DB	0efH
	DB	0ffH
	DB	0ffH
	DB	0ffH
	DB	0ffH
	DB	0bbH
	DB	0d6H
	DB	086H
	DB	029H
	DB	086H
	DB	029H
	DB	086H
	DB	029H
	DB	086H
	DB	029H
	DB	086H
	DB	029H
	DB	0b3H
	DB	094H
	DB	0ffH
	DB	0ffH
	DB	0ffH
	DB	0ffH
	DB	0ffH
	DB	0ffH
	DB	0ffH
	DB	0ffH
	DB	0ffH
	DB	0ffH
	DB	0ffH
	DB	0ffH
	DB	0ffH
	DB	0ffH
	DB	0ffH
	DB	0ffH
	DB	0ffH
	DB	0ffH
	DB	0ffH
	DB	0ffH
	DB	0ffH
	DB	0ffH
	DB	0ffH
	DB	0ffH
	DB	0ffH
	DB	0ffH
	DB	0ffH
	DB	0ffH
	DB	0ffH
	DB	0ffH
	DB	0ffH
	DB	0ffH
	DB	0ffH
	DB	0ffH
	DB	0ffH
	DB	0ffH
	DB	0ffH
	DB	0ffH
	DB	0ffH
	DB	0ffH
	DB	0ffH
	DB	0ffH
	DB	0ffH
	DB	0ffH
	DB	0ffH
	DB	0ffH
	DB	0ffH
	DB	0ffH
	DB	0ffH
	DB	0ffH
	DB	0ffH
	DB	0ffH
	DB	0ffH
	DB	0ffH
	DB	0ffH
	DB	0ffH
	DB	0ffH
	DB	0ffH
	DB	0ffH
	DB	0ffH
	DB	0ffH
	DB	0ffH
	DB	0ffH
	DB	0ffH
	DB	0ffH
	DB	0ffH
	DB	0ffH
	DB	0ffH
	DB	0ffH
	DB	0ffH
	DB	0ffH
	DB	0ffH
	DB	0ffH
	DB	0ffH
	DB	0ffH
	DB	0ffH
	DB	0ffH
	DB	0ffH
	DB	0ffH
	DB	0ffH
	DB	0ffH
	DB	0ffH
	DB	0ffH
	DB	0ffH
	DB	0ffH
	DB	0ffH
	DB	0ffH
	DB	0ffH
	DB	0ffH
	DB	0ffH
	DB	0bbH
	DB	0d6H
	DB	086H
	DB	029H
	DB	086H
	DB	029H
	DB	086H
	DB	029H
	DB	086H
	DB	029H
	DB	086H
	DB	029H
	DB	0b3H
	DB	094H
	DB	0ffH
	DB	0ffH
	DB	0ffH
	DB	0ffH
	DB	0ffH
	DB	0ffH
	DB	0ffH
	DB	0ffH
	DB	0ffH
	DB	0ffH
	DB	0ffH
	DB	0ffH
	DB	0ffH
	DB	0ffH
	DB	0ffH
	DB	0ffH
	DB	0ffH
	DB	0ffH
	DB	0ffH
	DB	0ffH
	DB	0ffH
	DB	0ffH
	DB	0ffH
	DB	0ffH
	DB	0ffH
	DB	0ffH
	DB	0ffH
	DB	0ffH
	DB	0ffH
	DB	0ffH
	DB	0ffH
	DB	0ffH
	DB	0ffH
	DB	0ffH
	DB	0ffH
	DB	0ffH
	DB	0ffH
	DB	0ffH
	DB	0ffH
	DB	0ffH
	DB	0ffH
	DB	0ffH
	DB	0ffH
	DB	0ffH
	DB	0ffH
	DB	0ffH
	DB	0ffH
	DB	0ffH
	DB	0ffH
	DB	0ffH
	DB	0ffH
	DB	0ffH
	DB	0ffH
	DB	0ffH
	DB	0ffH
	DB	0ffH
	DB	0ffH
	DB	0ffH
	DB	0ffH
	DB	0ffH
	DB	0ffH
	DB	0ffH
	DB	0ffH
	DB	0ffH
	DB	0ffH
	DB	0ffH
	DB	0ffH
	DB	0ffH
	DB	0ffH
	DB	0ffH
	DB	0ffH
	DB	0ffH
	DB	0ffH
	DB	0ffH
	DB	0ffH
	DB	0ffH
	DB	0ffH
	DB	0ffH
	DB	0ffH
	DB	0ffH
	DB	0ffH
	DB	0ffH
	DB	0ffH
	DB	0ffH
	DB	0ffH
	DB	0ffH
	DB	0ffH
	DB	0ffH
	DB	0ffH
	DB	0ffH
	DB	0bbH
	DB	0d6H
	DB	086H
	DB	029H
	DB	086H
	DB	029H
	DB	086H
	DB	029H
	DB	086H
	DB	029H
	DB	086H
	DB	029H
	DB	0b3H
	DB	094H
	DB	0ffH
	DB	0ffH
	DB	0ffH
	DB	0ffH
	DB	0ffH
	DB	0ffH
	DB	0ffH
	DB	0ffH
	DB	0ffH
	DB	0ffH
	DB	0ffH
	DB	0ffH
	DB	0ffH
	DB	0ffH
	DB	0ffH
	DB	0ffH
	DB	0ffH
	DB	0ffH
	DB	0ffH
	DB	0ffH
	DB	0ffH
	DB	0ffH
	DB	0ffH
	DB	0ffH
	DB	0ffH
	DB	0ffH
	DB	0ffH
	DB	0ffH
	DB	0ffH
	DB	0ffH
	DB	0ffH
	DB	0ffH
	DB	0ffH
	DB	0ffH
	DB	0ffH
	DB	0ffH
	DB	0ffH
	DB	0ffH
	DB	0ffH
	DB	0ffH
	DB	0ffH
	DB	0ffH
	DB	0ffH
	DB	0ffH
	DB	0ffH
	DB	0ffH
	DB	0ffH
	DB	0ffH
	DB	0ffH
	DB	0ffH
	DB	0ffH
	DB	0ffH
	DB	0ffH
	DB	0ffH
	DB	0ffH
	DB	0ffH
	DB	0ffH
	DB	0ffH
	DB	0ffH
	DB	0ffH
	DB	0ffH
	DB	0ffH
	DB	0ffH
	DB	0ffH
	DB	0ffH
	DB	0ffH
	DB	0ffH
	DB	0ffH
	DB	0ffH
	DB	0ffH
	DB	0ffH
	DB	0ffH
	DB	0ffH
	DB	0ffH
	DB	0ffH
	DB	0ffH
	DB	0ffH
	DB	0ffH
	DB	0ffH
	DB	0ffH
	DB	0ffH
	DB	0ffH
	DB	0ffH
	DB	0ffH
	DB	0ffH
	DB	0ffH
	DB	0ffH
	DB	0ffH
	DB	0ffH
	DB	0ffH
	DB	0bbH
	DB	0d6H
	DB	086H
	DB	029H
	DB	086H
	DB	029H
	DB	086H
	DB	029H
	DB	086H
	DB	029H
	DB	086H
	DB	029H
	DB	0b3H
	DB	094H
	DB	0ffH
	DB	0ffH
	DB	0ffH
	DB	0ffH
	DB	0ffH
	DB	0ffH
	DB	0ffH
	DB	0ffH
	DB	0ffH
	DB	0ffH
	DB	0ffH
	DB	0ffH
	DB	0ffH
	DB	0ffH
	DB	0ffH
	DB	0ffH
	DB	0ffH
	DB	0ffH
	DB	0ffH
	DB	0ffH
	DB	0ffH
	DB	0ffH
	DB	0ffH
	DB	0ffH
	DB	0ffH
	DB	0ffH
	DB	0ffH
	DB	0ffH
	DB	0ffH
	DB	0ffH
	DB	0ffH
	DB	0ffH
	DB	0ffH
	DB	0ffH
	DB	0ffH
	DB	0ffH
	DB	0ffH
	DB	0ffH
	DB	0ffH
	DB	0ffH
	DB	0ffH
	DB	0ffH
	DB	0ffH
	DB	0ffH
	DB	0ffH
	DB	0ffH
	DB	0ffH
	DB	0ffH
	DB	0ffH
	DB	0ffH
	DB	0ffH
	DB	0ffH
	DB	0ffH
	DB	0ffH
	DB	0ffH
	DB	0ffH
	DB	0ffH
	DB	0ffH
	DB	0ffH
	DB	0ffH
	DB	0ffH
	DB	0ffH
	DB	0ffH
	DB	0ffH
	DB	0ffH
	DB	0ffH
	DB	0ffH
	DB	0ffH
	DB	0ffH
	DB	0ffH
	DB	0ffH
	DB	0ffH
	DB	0ffH
	DB	0ffH
	DB	0ffH
	DB	0ffH
	DB	0ffH
	DB	0ffH
	DB	0ffH
	DB	0ffH
	DB	0ffH
	DB	0ffH
	DB	0ffH
	DB	0ffH
	DB	0ffH
	DB	0ffH
	DB	0ffH
	DB	0ffH
	DB	0ffH
	DB	0ffH
	DB	0bbH
	DB	0d6H
	DB	086H
	DB	029H
	DB	086H
	DB	029H
	DB	086H
	DB	029H
	DB	086H
	DB	029H
	DB	086H
	DB	029H
	DB	0b3H
	DB	094H
	DB	0ffH
	DB	0ffH
	DB	0ffH
	DB	0ffH
	DB	0ffH
	DB	0ffH
	DB	0ffH
	DB	0ffH
	DB	0ffH
	DB	0ffH
	DB	0ffH
	DB	0ffH
	DB	0ffH
	DB	0ffH
	DB	0ffH
	DB	0ffH
	DB	0ffH
	DB	0ffH
	DB	0ffH
	DB	0ffH
	DB	0ffH
	DB	0ffH
	DB	0ffH
	DB	0ffH
	DB	0ffH
	DB	0ffH
	DB	0ffH
	DB	0ffH
	DB	0ffH
	DB	0ffH
	DB	0ffH
	DB	0ffH
	DB	0ffH
	DB	0ffH
	DB	0ffH
	DB	0ffH
	DB	0ffH
	DB	0ffH
	DB	0ffH
	DB	0ffH
	DB	0ffH
	DB	0ffH
	DB	0ffH
	DB	0ffH
	DB	0ffH
	DB	0ffH
	DB	0ffH
	DB	0ffH
	DB	0ffH
	DB	0ffH
	DB	0ffH
	DB	0ffH
	DB	0ffH
	DB	0ffH
	DB	0ffH
	DB	0ffH
	DB	0ffH
	DB	0ffH
	DB	0ffH
	DB	0ffH
	DB	0ffH
	DB	0ffH
	DB	0ffH
	DB	0ffH
	DB	0ffH
	DB	0ffH
	DB	0ffH
	DB	0ffH
	DB	0ffH
	DB	0ffH
	DB	0ffH
	DB	0ffH
	DB	0ffH
	DB	0ffH
	DB	0ffH
	DB	0ffH
	DB	0ffH
	DB	0ffH
	DB	0ffH
	DB	0ffH
	DB	0ffH
	DB	0ffH
	DB	0ffH
	DB	0ffH
	DB	0ffH
	DB	0ffH
	DB	0ffH
	DB	0ffH
	DB	0ffH
	DB	0ffH
	DB	0bbH
	DB	0d6H
	DB	086H
	DB	029H
	DB	086H
	DB	029H
	DB	086H
	DB	029H
	DB	086H
	DB	029H
	DB	086H
	DB	029H
	DB	0b3H
	DB	094H
	DB	0ffH
	DB	0ffH
	DB	0ffH
	DB	0ffH
	DB	0ffH
	DB	0ffH
	DB	0ffH
	DB	0ffH
	DB	0ffH
	DB	0ffH
	DB	0ffH
	DB	0ffH
	DB	0ffH
	DB	0ffH
	DB	0ffH
	DB	0ffH
	DB	0ffH
	DB	0ffH
	DB	0ffH
	DB	0ffH
	DB	0ffH
	DB	0ffH
	DB	0ffH
	DB	0ffH
	DB	0ffH
	DB	0ffH
	DB	0ffH
	DB	0ffH
	DB	0ffH
	DB	0ffH
	DB	0ffH
	DB	0ffH
	DB	0ffH
	DB	0ffH
	DB	0ffH
	DB	0ffH
	DB	0ffH
	DB	0ffH
	DB	0ffH
	DB	0ffH
	DB	0ffH
	DB	0ffH
	DB	0ffH
	DB	0ffH
	DB	0ffH
	DB	0ffH
	DB	0ffH
	DB	0ffH
	DB	0ffH
	DB	0ffH
	DB	0ffH
	DB	0ffH
	DB	0ffH
	DB	0ffH
	DB	0ffH
	DB	0ffH
	DB	0ffH
	DB	0ffH
	DB	0ffH
	DB	0ffH
	DB	0ffH
	DB	0ffH
	DB	0ffH
	DB	0ffH
	DB	0ffH
	DB	0ffH
	DB	0ffH
	DB	0ffH
	DB	0ffH
	DB	0ffH
	DB	0ffH
	DB	0ffH
	DB	0ffH
	DB	0ffH
	DB	0ffH
	DB	0ffH
	DB	0ffH
	DB	0ffH
	DB	0ffH
	DB	0ffH
	DB	0ffH
	DB	0ffH
	DB	0ffH
	DB	0ffH
	DB	0ffH
	DB	0ffH
	DB	0ffH
	DB	0ffH
	DB	0ffH
	DB	0ffH
	DB	0bbH
	DB	0d6H
	DB	086H
	DB	029H
	DB	086H
	DB	029H
	DB	086H
	DB	029H
	DB	086H
	DB	029H
	DB	086H
	DB	029H
	DB	0b3H
	DB	094H
	DB	0ffH
	DB	0ffH
	DB	0ffH
	DB	0ffH
	DB	0ffH
	DB	0ffH
	DB	0ffH
	DB	0ffH
	DB	0ffH
	DB	0ffH
	DB	0ffH
	DB	0ffH
	DB	0ffH
	DB	0ffH
	DB	0ffH
	DB	0ffH
	DB	0ffH
	DB	0ffH
	DB	0ffH
	DB	0ffH
	DB	0ffH
	DB	0ffH
	DB	0ffH
	DB	0ffH
	DB	0ffH
	DB	0ffH
	DB	0ffH
	DB	0ffH
	DB	0ffH
	DB	0ffH
	DB	0ffH
	DB	0ffH
	DB	0ffH
	DB	0ffH
	DB	0ffH
	DB	0ffH
	DB	0ffH
	DB	0ffH
	DB	0ffH
	DB	0ffH
	DB	0ffH
	DB	0ffH
	DB	0ffH
	DB	0ffH
	DB	0ffH
	DB	0ffH
	DB	0ffH
	DB	0ffH
	DB	0ffH
	DB	0ffH
	DB	0ffH
	DB	0ffH
	DB	0ffH
	DB	0ffH
	DB	0ffH
	DB	0ffH
	DB	0ffH
	DB	0ffH
	DB	0ffH
	DB	0ffH
	DB	0ffH
	DB	0ffH
	DB	0ffH
	DB	0ffH
	DB	0ffH
	DB	0ffH
	DB	0ffH
	DB	0ffH
	DB	0ffH
	DB	0ffH
	DB	0ffH
	DB	0ffH
	DB	0ffH
	DB	0ffH
	DB	0ffH
	DB	0ffH
	DB	0ffH
	DB	0ffH
	DB	0ffH
	DB	0ffH
	DB	0ffH
	DB	0ffH
	DB	0ffH
	DB	0ffH
	DB	0ffH
	DB	0ffH
	DB	0ffH
	DB	0ffH
	DB	0ffH
	DB	0ffH
	DB	0bbH
	DB	0d6H
	DB	086H
	DB	029H
	DB	086H
	DB	029H
	DB	086H
	DB	029H
	DB	086H
	DB	029H
	DB	086H
	DB	029H
	DB	0b3H
	DB	094H
	DB	0ffH
	DB	0ffH
	DB	0ffH
	DB	0ffH
	DB	0ffH
	DB	0ffH
	DB	0ffH
	DB	0ffH
	DB	0ffH
	DB	0ffH
	DB	0ffH
	DB	0ffH
	DB	0ffH
	DB	0ffH
	DB	0ffH
	DB	0ffH
	DB	0ffH
	DB	0ffH
	DB	0ffH
	DB	0ffH
	DB	0ffH
	DB	0ffH
	DB	0ffH
	DB	0ffH
	DB	0ffH
	DB	0ffH
	DB	0ffH
	DB	0ffH
	DB	0ffH
	DB	0ffH
	DB	0ffH
	DB	0ffH
	DB	0ffH
	DB	0ffH
	DB	0ffH
	DB	0ffH
	DB	0ffH
	DB	0ffH
	DB	0ffH
	DB	0ffH
	DB	0ffH
	DB	0ffH
	DB	0ffH
	DB	0ffH
	DB	0ffH
	DB	0ffH
	DB	0ffH
	DB	0ffH
	DB	0ffH
	DB	0ffH
	DB	0ffH
	DB	0ffH
	DB	0ffH
	DB	0ffH
	DB	0ffH
	DB	0ffH
	DB	0ffH
	DB	0ffH
	DB	0ffH
	DB	0ffH
	DB	0ffH
	DB	0ffH
	DB	0ffH
	DB	0ffH
	DB	0ffH
	DB	0ffH
	DB	0ffH
	DB	0ffH
	DB	0ffH
	DB	0ffH
	DB	0ffH
	DB	0ffH
	DB	0ffH
	DB	0ffH
	DB	0ffH
	DB	0ffH
	DB	0ffH
	DB	0ffH
	DB	0ffH
	DB	0ffH
	DB	0ffH
	DB	0ffH
	DB	0ffH
	DB	0ffH
	DB	0ffH
	DB	0ffH
	DB	0ffH
	DB	0ffH
	DB	0ffH
	DB	0ffH
	DB	0bbH
	DB	0d6H
	DB	086H
	DB	029H
	DB	086H
	DB	029H
	DB	086H
	DB	029H
	DB	086H
	DB	029H
	DB	086H
	DB	029H
	DB	0b3H
	DB	094H
	DB	0ffH
	DB	0ffH
	DB	0ffH
	DB	0ffH
	DB	0ffH
	DB	0ffH
	DB	0ffH
	DB	0ffH
	DB	0ffH
	DB	0ffH
	DB	0ffH
	DB	0ffH
	DB	0ffH
	DB	0ffH
	DB	0ffH
	DB	0ffH
	DB	0ffH
	DB	0ffH
	DB	0ffH
	DB	0ffH
	DB	0ffH
	DB	0ffH
	DB	0ffH
	DB	0ffH
	DB	0ffH
	DB	0ffH
	DB	0ffH
	DB	0ffH
	DB	0ffH
	DB	0ffH
	DB	0ffH
	DB	0ffH
	DB	0ffH
	DB	0ffH
	DB	0ffH
	DB	0ffH
	DB	0ffH
	DB	0ffH
	DB	0ffH
	DB	0ffH
	DB	0ffH
	DB	0ffH
	DB	0ffH
	DB	0ffH
	DB	0ffH
	DB	0ffH
	DB	0ffH
	DB	0ffH
	DB	0ffH
	DB	0ffH
	DB	0ffH
	DB	0ffH
	DB	0ffH
	DB	0ffH
	DB	0ffH
	DB	0ffH
	DB	0ffH
	DB	0ffH
	DB	0ffH
	DB	0ffH
	DB	0ffH
	DB	0ffH
	DB	0ffH
	DB	0ffH
	DB	0ffH
	DB	0ffH
	DB	0ffH
	DB	0ffH
	DB	0ffH
	DB	0ffH
	DB	0ffH
	DB	0ffH
	DB	0ffH
	DB	0ffH
	DB	0ffH
	DB	0ffH
	DB	0ffH
	DB	0ffH
	DB	0ffH
	DB	0ffH
	DB	0ffH
	DB	0ffH
	DB	0ffH
	DB	0ffH
	DB	0ffH
	DB	0ffH
	DB	0ffH
	DB	0ffH
	DB	0ffH
	DB	0ffH
	DB	0bbH
	DB	0d6H
	DB	086H
	DB	029H
	DB	086H
	DB	029H
	DB	086H
	DB	029H
	DB	086H
	DB	029H
	DB	086H
	DB	029H
	DB	0b3H
	DB	094H
	DB	0ffH
	DB	0ffH
	DB	0ffH
	DB	0ffH
	DB	0ffH
	DB	0ffH
	DB	0ffH
	DB	0ffH
	DB	0ffH
	DB	0ffH
	DB	0ffH
	DB	0ffH
	DB	0ffH
	DB	0ffH
	DB	0ffH
	DB	0ffH
	DB	0ffH
	DB	0ffH
	DB	0ffH
	DB	0ffH
	DB	0ffH
	DB	0ffH
	DB	0ffH
	DB	0ffH
	DB	0ffH
	DB	0ffH
	DB	0ffH
	DB	0ffH
	DB	0ffH
	DB	0ffH
	DB	0ffH
	DB	0ffH
	DB	0ffH
	DB	0ffH
	DB	0ffH
	DB	0ffH
	DB	0ffH
	DB	0ffH
	DB	0ffH
	DB	0ffH
	DB	0ffH
	DB	0ffH
	DB	0ffH
	DB	0ffH
	DB	0ffH
	DB	0ffH
	DB	0ffH
	DB	0ffH
	DB	0ffH
	DB	0ffH
	DB	0ffH
	DB	0ffH
	DB	0ffH
	DB	0ffH
	DB	0ffH
	DB	0ffH
	DB	0ffH
	DB	0ffH
	DB	0ffH
	DB	0ffH
	DB	0ffH
	DB	0ffH
	DB	0ffH
	DB	0ffH
	DB	0ffH
	DB	0ffH
	DB	0ffH
	DB	0ffH
	DB	0ffH
	DB	0ffH
	DB	0ffH
	DB	0ffH
	DB	0ffH
	DB	0ffH
	DB	0ffH
	DB	0ffH
	DB	0ffH
	DB	0ffH
	DB	0ffH
	DB	0ffH
	DB	0ffH
	DB	0ffH
	DB	0ffH
	DB	0ffH
	DB	0ffH
	DB	0ffH
	DB	0ffH
	DB	0ffH
	DB	0ffH
	DB	0ffH
	DB	0bbH
	DB	0d6H
	DB	086H
	DB	029H
	DB	086H
	DB	029H
	DB	086H
	DB	029H
	DB	086H
	DB	029H
	DB	086H
	DB	029H
	DB	0b3H
	DB	094H
	DB	0ffH
	DB	0ffH
	DB	0ffH
	DB	0ffH
	DB	0ffH
	DB	0ffH
	DB	0ffH
	DB	0ffH
	DB	0ffH
	DB	0ffH
	DB	0ffH
	DB	0ffH
	DB	0ffH
	DB	0ffH
	DB	0ffH
	DB	0ffH
	DB	0ffH
	DB	0ffH
	DB	0ffH
	DB	0ffH
	DB	0ffH
	DB	0ffH
	DB	0ffH
	DB	0ffH
	DB	0ffH
	DB	0ffH
	DB	0ffH
	DB	0ffH
	DB	0ffH
	DB	0ffH
	DB	0ffH
	DB	0ffH
	DB	0ffH
	DB	0ffH
	DB	0ffH
	DB	0ffH
	DB	0ffH
	DB	0ffH
	DB	0ffH
	DB	0ffH
	DB	0ffH
	DB	0ffH
	DB	0ffH
	DB	0ffH
	DB	0ffH
	DB	0ffH
	DB	0ffH
	DB	0ffH
	DB	0ffH
	DB	0ffH
	DB	0ffH
	DB	0ffH
	DB	0ffH
	DB	0ffH
	DB	0ffH
	DB	0ffH
	DB	0ffH
	DB	0ffH
	DB	0ffH
	DB	0ffH
	DB	0ffH
	DB	0ffH
	DB	0ffH
	DB	0ffH
	DB	0ffH
	DB	0ffH
	DB	0ffH
	DB	0ffH
	DB	0ffH
	DB	0ffH
	DB	0ffH
	DB	0ffH
	DB	0ffH
	DB	0ffH
	DB	0ffH
	DB	0ffH
	DB	0ffH
	DB	0ffH
	DB	0ffH
	DB	0ffH
	DB	0ffH
	DB	0ffH
	DB	0ffH
	DB	0ffH
	DB	0ffH
	DB	0ffH
	DB	0ffH
	DB	0ffH
	DB	0ffH
	DB	0ffH
	DB	0dbH
	DB	0deH
	DB	086H
	DB	029H
	DB	086H
	DB	029H
	DB	086H
	DB	029H
	DB	086H
	DB	029H
	DB	086H
	DB	029H
	DB	0b3H
	DB	094H
	DB	0ffH
	DB	0ffH
	DB	0ffH
	DB	0ffH
	DB	0ffH
	DB	0ffH
	DB	0ffH
	DB	0ffH
	DB	0ffH
	DB	0ffH
	DB	0ffH
	DB	0ffH
	DB	0ffH
	DB	0ffH
	DB	0ffH
	DB	0ffH
	DB	0ffH
	DB	0ffH
	DB	0ffH
	DB	0ffH
	DB	0ffH
	DB	0ffH
	DB	0ffH
	DB	0ffH
	DB	0ffH
	DB	0ffH
	DB	0ffH
	DB	0ffH
	DB	0ffH
	DB	0ffH
	DB	0ffH
	DB	0ffH
	DB	0ffH
	DB	0ffH
	DB	0ffH
	DB	0ffH
	DB	0ffH
	DB	0ffH
	DB	0ffH
	DB	0ffH
	DB	0ffH
	DB	0ffH
	DB	0ffH
	DB	0ffH
	DB	0ffH
	DB	0ffH
	DB	0ffH
	DB	0ffH
	DB	0ffH
	DB	0ffH
	DB	0ffH
	DB	0ffH
	DB	0ffH
	DB	0ffH
	DB	0ffH
	DB	0ffH
	DB	0ffH
	DB	0ffH
	DB	0ffH
	DB	0ffH
	DB	0ffH
	DB	0ffH
	DB	0ffH
	DB	0ffH
	DB	0ffH
	DB	0ffH
	DB	0ffH
	DB	0ffH
	DB	0ffH
	DB	0ffH
	DB	0ffH
	DB	0ffH
	DB	0ffH
	DB	0ffH
	DB	0ffH
	DB	0ffH
	DB	0ffH
	DB	0ffH
	DB	0ffH
	DB	0ffH
	DB	0ffH
	DB	0ffH
	DB	0ffH
	DB	0ffH
	DB	0ffH
	DB	0ffH
	DB	0ffH
	DB	0ffH
	DB	0ffH
	DB	0ffH
	DB	0beH
	DB	0f7H
	DB	06aH
	DB	04aH
	DB	086H
	DB	029H
	DB	086H
	DB	029H
	DB	086H
	DB	029H
	DB	0c7H
	DB	031H
	DB	059H
	DB	0c6H
	DB	0ffH
	DB	0ffH
	DB	0ffH
	DB	0ffH
	DB	0ffH
	DB	0ffH
	DB	0ffH
	DB	0ffH
	DB	0ffH
	DB	0ffH
	DB	0ffH
	DB	0ffH
	DB	0ffH
	DB	0ffH
	DB	0ffH
	DB	0ffH
	DB	0ffH
	DB	0ffH
	DB	0ffH
	DB	0ffH
	DB	0ffH
	DB	0ffH
	DB	0ffH
	DB	0ffH
	DB	0ffH
	DB	0ffH
	DB	0ffH
	DB	0ffH
	DB	0ffH
	DB	0ffH
	DB	0ffH
	DB	0ffH
	DB	0ffH
	DB	0ffH
	DB	0ffH
	DB	0ffH
	DB	0ffH
	DB	0ffH
	DB	0ffH
	DB	0ffH
	DB	0ffH
	DB	0ffH
	DB	0ffH
	DB	0ffH
	DB	0ffH
	DB	0ffH
	DB	0ffH
	DB	0ffH
	DB	0ffH
	DB	0ffH
	DB	0ffH
	DB	0ffH
	DB	0ffH
	DB	0ffH
	DB	0ffH
	DB	0ffH
	DB	0ffH
	DB	0ffH
	DB	0ffH
	DB	0ffH
	DB	0ffH
	DB	0ffH
	DB	0ffH
	DB	0ffH
	DB	0ffH
	DB	0ffH
	DB	0ffH
	DB	0ffH
	DB	0ffH
	DB	0ffH
	DB	0ffH
	DB	0ffH
	DB	0ffH
	DB	0ffH
	DB	0ffH
	DB	0ffH
	DB	0ffH
	DB	0ffH
	DB	0ffH
	DB	0ffH
	DB	0ffH
	DB	0ffH
	DB	0ffH
	DB	0ffH
	DB	0ffH
	DB	0ffH
CONST	ENDS
END
