; Listing generated by Microsoft (R) Optimizing Compiler Version 19.30.30705.0 

	TITLE	D:\学习\毕业设计\方案1_GFX+底板\官方例程\DISPLAY\TouchGFX\build\Debug\obj\image_subDemoIcon_Image.obj
	.686P
	.XMM
	include listing.inc
	.model	flat

INCLUDELIB MSVCRTD
INCLUDELIB OLDNAMES

PUBLIC	?image_subdemoicon_image@@3QBEB			; image_subdemoicon_image
msvcjmc	SEGMENT
__BA83647B_Config@hpp DB 01H
__1C16E6D0_image_subDemoIcon_Image@cpp DB 01H
msvcjmc	ENDS
CONST	SEGMENT
?image_subdemoicon_image@@3QBEB DB 0ffH			; image_subdemoicon_image
	DB	0ffH
	DB	0ffH
	DB	0ffH
	DB	0ffH
	DB	0ffH
	DB	0ffH
	DB	0ffH
	DB	0ffH
	DB	0ffH
	DB	0ffH
	DB	0ffH
	DB	0ffH
	DB	0ffH
	DB	0ffH
	DB	0ffH
	DB	0ffH
	DB	0ffH
	DB	0ffH
	DB	0ffH
	DB	0dfH
	DB	0ffH
	DB	0dfH
	DB	0ffH
	DB	0ffH
	DB	0ffH
	DB	0dfH
	DB	0ffH
	DB	0dfH
	DB	0ffH
	DB	0ffH
	DB	0ffH
	DB	0dfH
	DB	0ffH
	DB	0ffH
	DB	0ffH
	DB	0dfH
	DB	0ffH
	DB	0dfH
	DB	0ffH
	DB	0ffH
	DB	0ffH
	DB	0dfH
	DB	0ffH
	DB	0dfH
	DB	0ffH
	DB	075H
	DB	014H
	DB	075H
	DB	014H
	DB	075H
	DB	014H
	DB	075H
	DB	014H
	DB	075H
	DB	014H
	DB	075H
	DB	014H
	DB	075H
	DB	014H
	DB	075H
	DB	014H
	DB	075H
	DB	014H
	DB	075H
	DB	014H
	DB	075H
	DB	014H
	DB	075H
	DB	014H
	DB	075H
	DB	014H
	DB	075H
	DB	014H
	DB	075H
	DB	014H
	DB	075H
	DB	014H
	DB	075H
	DB	014H
	DB	075H
	DB	014H
	DB	075H
	DB	014H
	DB	075H
	DB	014H
	DB	075H
	DB	014H
	DB	075H
	DB	014H
	DB	075H
	DB	014H
	DB	075H
	DB	014H
	DB	075H
	DB	014H
	DB	075H
	DB	014H
	DB	075H
	DB	014H
	DB	075H
	DB	014H
	DB	075H
	DB	014H
	DB	075H
	DB	014H
	DB	075H
	DB	014H
	DB	075H
	DB	014H
	DB	075H
	DB	014H
	DB	075H
	DB	014H
	DB	075H
	DB	014H
	DB	075H
	DB	014H
	DB	075H
	DB	014H
	DB	075H
	DB	014H
	DB	075H
	DB	014H
	DB	075H
	DB	014H
	DB	075H
	DB	014H
	DB	075H
	DB	014H
	DB	0ffH
	DB	0ffH
	DB	0ffH
	DB	0ffH
	DB	0ffH
	DB	0ffH
	DB	0ffH
	DB	0ffH
	DB	0ffH
	DB	0ffH
	DB	0ffH
	DB	0ffH
	DB	0ffH
	DB	0ffH
	DB	0ffH
	DB	0ffH
	DB	0ffH
	DB	0ffH
	DB	0ffH
	DB	0ffH
	DB	0ffH
	DB	0ffH
	DB	0ffH
	DB	0ffH
	DB	0ffH
	DB	0ffH
	DB	0ffH
	DB	0ffH
	DB	0ffH
	DB	0ffH
	DB	0ffH
	DB	0ffH
	DB	0ffH
	DB	0ffH
	DB	0ffH
	DB	0ffH
	DB	0ffH
	DB	0ffH
	DB	0ffH
	DB	0ffH
	DB	0dfH
	DB	0ffH
	DB	0ffH
	DB	0ffH
	DB	0ffH
	DB	0ffH
	DB	0dfH
	DB	0ffH
	DB	0ffH
	DB	0ffH
	DB	0ffH
	DB	0ffH
	DB	0ffH
	DB	0ffH
	DB	0dfH
	DB	0ffH
	DB	0ffH
	DB	0ffH
	DB	0ffH
	DB	0ffH
	DB	0dfH
	DB	0ffH
	DB	0ffH
	DB	0ffH
	DB	075H
	DB	014H
	DB	075H
	DB	014H
	DB	075H
	DB	014H
	DB	075H
	DB	014H
	DB	075H
	DB	014H
	DB	075H
	DB	014H
	DB	075H
	DB	014H
	DB	075H
	DB	014H
	DB	075H
	DB	014H
	DB	075H
	DB	014H
	DB	075H
	DB	014H
	DB	075H
	DB	014H
	DB	075H
	DB	014H
	DB	075H
	DB	014H
	DB	075H
	DB	014H
	DB	075H
	DB	014H
	DB	075H
	DB	014H
	DB	075H
	DB	014H
	DB	075H
	DB	014H
	DB	075H
	DB	014H
	DB	075H
	DB	014H
	DB	075H
	DB	014H
	DB	075H
	DB	014H
	DB	075H
	DB	014H
	DB	075H
	DB	014H
	DB	075H
	DB	014H
	DB	075H
	DB	014H
	DB	075H
	DB	014H
	DB	075H
	DB	014H
	DB	075H
	DB	014H
	DB	075H
	DB	014H
	DB	075H
	DB	014H
	DB	075H
	DB	014H
	DB	075H
	DB	014H
	DB	075H
	DB	014H
	DB	075H
	DB	014H
	DB	075H
	DB	014H
	DB	075H
	DB	014H
	DB	075H
	DB	014H
	DB	075H
	DB	014H
	DB	075H
	DB	014H
	DB	075H
	DB	014H
	DB	0ffH
	DB	0ffH
	DB	0ffH
	DB	0ffH
	DB	0ffH
	DB	0ffH
	DB	0ffH
	DB	0ffH
	DB	0ffH
	DB	0ffH
	DB	0ffH
	DB	0ffH
	DB	0ffH
	DB	0ffH
	DB	0ffH
	DB	0ffH
	DB	0ffH
	DB	0ffH
	DB	0ffH
	DB	0ffH
	DB	0ffH
	DB	0ffH
	DB	0ffH
	DB	0ffH
	DB	0ffH
	DB	0ffH
	DB	0ffH
	DB	0ffH
	DB	0ffH
	DB	0ffH
	DB	0ffH
	DB	0ffH
	DB	0ffH
	DB	0ffH
	DB	0ffH
	DB	0ffH
	DB	0dfH
	DB	0ffH
	DB	0dfH
	DB	0ffH
	DB	0beH
	DB	0f7H
	DB	0dfH
	DB	0ffH
	DB	0dfH
	DB	0ffH
	DB	0beH
	DB	0f7H
	DB	0ffH
	DB	0ffH
	DB	0beH
	DB	0f7H
	DB	0dfH
	DB	0ffH
	DB	0dfH
	DB	0ffH
	DB	0dfH
	DB	0ffH
	DB	0dfH
	DB	0ffH
	DB	0fbH
	DB	045H
	DB	0fbH
	DB	045H
	DB	0fbH
	DB	045H
	DB	0fbH
	DB	045H
	DB	0fbH
	DB	045H
	DB	0fbH
	DB	045H
	DB	0fbH
	DB	045H
	DB	0fbH
	DB	045H
	DB	0fbH
	DB	045H
	DB	0fbH
	DB	045H
	DB	0fbH
	DB	045H
	DB	0fbH
	DB	045H
	DB	0fbH
	DB	045H
	DB	0fbH
	DB	045H
	DB	0fbH
	DB	045H
	DB	0fbH
	DB	045H
	DB	0fbH
	DB	045H
	DB	0fbH
	DB	045H
	DB	0fbH
	DB	045H
	DB	0fbH
	DB	045H
	DB	0fbH
	DB	045H
	DB	0fbH
	DB	045H
	DB	0fbH
	DB	045H
	DB	0fbH
	DB	045H
	DB	0fbH
	DB	045H
	DB	0fbH
	DB	045H
	DB	0fbH
	DB	045H
	DB	0fbH
	DB	045H
	DB	0fbH
	DB	045H
	DB	0fbH
	DB	045H
	DB	0fbH
	DB	045H
	DB	0fbH
	DB	045H
	DB	0fbH
	DB	045H
	DB	0fbH
	DB	045H
	DB	0fbH
	DB	045H
	DB	0fbH
	DB	045H
	DB	0fbH
	DB	045H
	DB	0fbH
	DB	045H
	DB	0fbH
	DB	045H
	DB	0fbH
	DB	045H
	DB	0fbH
	DB	045H
	DB	0fbH
	DB	045H
	DB	075H
	DB	014H
	DB	055H
	DB	014H
	DB	0ffH
	DB	0ffH
	DB	0ffH
	DB	0ffH
	DB	0ffH
	DB	0ffH
	DB	0ffH
	DB	0ffH
	DB	0ffH
	DB	0ffH
	DB	0ffH
	DB	0ffH
	DB	0ffH
	DB	0ffH
	DB	0ffH
	DB	0ffH
	DB	0ffH
	DB	0ffH
	DB	0ffH
	DB	0ffH
	DB	0ffH
	DB	0ffH
	DB	0ffH
	DB	0ffH
	DB	0ffH
	DB	0ffH
	DB	0ffH
	DB	0ffH
	DB	0ffH
	DB	0ffH
	DB	0ffH
	DB	0ffH
	DB	0ffH
	DB	0ffH
	DB	0ffH
	DB	0ffH
	DB	0dfH
	DB	0ffH
	DB	0dfH
	DB	0ffH
	DB	0dfH
	DB	0ffH
	DB	0dfH
	DB	0ffH
	DB	0dfH
	DB	0ffH
	DB	0dfH
	DB	0ffH
	DB	0ffH
	DB	0ffH
	DB	0beH
	DB	0f7H
	DB	0ffH
	DB	0ffH
	DB	0dfH
	DB	0ffH
	DB	0beH
	DB	0f7H
	DB	0ffH
	DB	0ffH
	DB	0fbH
	DB	045H
	DB	0fbH
	DB	045H
	DB	0fbH
	DB	045H
	DB	0fbH
	DB	045H
	DB	0fbH
	DB	045H
	DB	0fbH
	DB	045H
	DB	0fbH
	DB	045H
	DB	0fbH
	DB	045H
	DB	0fbH
	DB	045H
	DB	0fbH
	DB	045H
	DB	0fbH
	DB	045H
	DB	0fbH
	DB	045H
	DB	0fbH
	DB	045H
	DB	0fbH
	DB	045H
	DB	0fbH
	DB	045H
	DB	0fbH
	DB	045H
	DB	0fbH
	DB	045H
	DB	0fbH
	DB	045H
	DB	0fbH
	DB	045H
	DB	0fbH
	DB	045H
	DB	0fbH
	DB	045H
	DB	0fbH
	DB	045H
	DB	0fbH
	DB	045H
	DB	0fbH
	DB	045H
	DB	0fbH
	DB	045H
	DB	0fbH
	DB	045H
	DB	0fbH
	DB	045H
	DB	0fbH
	DB	045H
	DB	0fbH
	DB	045H
	DB	0fbH
	DB	045H
	DB	0fbH
	DB	045H
	DB	0fbH
	DB	045H
	DB	0fbH
	DB	045H
	DB	0fbH
	DB	045H
	DB	0fbH
	DB	045H
	DB	0fbH
	DB	045H
	DB	0fbH
	DB	045H
	DB	0fbH
	DB	045H
	DB	0fbH
	DB	045H
	DB	0fbH
	DB	045H
	DB	0fbH
	DB	045H
	DB	0fbH
	DB	045H
	DB	075H
	DB	014H
	DB	055H
	DB	014H
	DB	0ffH
	DB	0ffH
	DB	0ffH
	DB	0ffH
	DB	0ffH
	DB	0ffH
	DB	0ffH
	DB	0ffH
	DB	0ffH
	DB	0ffH
	DB	0ffH
	DB	0ffH
	DB	0ffH
	DB	0ffH
	DB	0ffH
	DB	0ffH
	DB	0ffH
	DB	0ffH
	DB	0ffH
	DB	0ffH
	DB	0ffH
	DB	0ffH
	DB	0ffH
	DB	0ffH
	DB	0ffH
	DB	0ffH
	DB	0ffH
	DB	0ffH
	DB	0ffH
	DB	0ffH
	DB	0ffH
	DB	0ffH
	DB	0ffH
	DB	0ffH
	DB	0ffH
	DB	0ffH
	DB	0dfH
	DB	0ffH
	DB	0ffH
	DB	0ffH
	DB	0beH
	DB	0f7H
	DB	0dfH
	DB	0ffH
	DB	0ffH
	DB	0ffH
	DB	0beH
	DB	0f7H
	DB	0ffH
	DB	0ffH
	DB	0dfH
	DB	0ffH
	DB	0ffH
	DB	0ffH
	DB	0dfH
	DB	0ffH
	DB	0dfH
	DB	0ffH
	DB	0ffH
	DB	0ffH
	DB	0fbH
	DB	045H
	DB	0fbH
	DB	045H
	DB	0fbH
	DB	045H
	DB	0fbH
	DB	045H
	DB	0fbH
	DB	045H
	DB	0fbH
	DB	045H
	DB	0fbH
	DB	045H
	DB	0fbH
	DB	045H
	DB	0fbH
	DB	045H
	DB	0fbH
	DB	045H
	DB	0fbH
	DB	045H
	DB	0fbH
	DB	045H
	DB	0fbH
	DB	045H
	DB	0fbH
	DB	045H
	DB	0fbH
	DB	045H
	DB	0fbH
	DB	045H
	DB	0fbH
	DB	045H
	DB	0fbH
	DB	045H
	DB	0fbH
	DB	045H
	DB	0fbH
	DB	045H
	DB	0fbH
	DB	045H
	DB	0fbH
	DB	045H
	DB	0fbH
	DB	045H
	DB	0fbH
	DB	045H
	DB	0fbH
	DB	045H
	DB	0fbH
	DB	045H
	DB	0fbH
	DB	045H
	DB	0fbH
	DB	045H
	DB	0fbH
	DB	045H
	DB	0fbH
	DB	045H
	DB	0fbH
	DB	045H
	DB	0fbH
	DB	045H
	DB	0fbH
	DB	045H
	DB	0fbH
	DB	045H
	DB	0fbH
	DB	045H
	DB	0fbH
	DB	045H
	DB	0fbH
	DB	045H
	DB	0fbH
	DB	045H
	DB	0fbH
	DB	045H
	DB	0fbH
	DB	045H
	DB	0fbH
	DB	045H
	DB	0fbH
	DB	045H
	DB	075H
	DB	014H
	DB	055H
	DB	0cH
	DB	0ffH
	DB	0ffH
	DB	0ffH
	DB	0ffH
	DB	0ffH
	DB	0ffH
	DB	0ffH
	DB	0ffH
	DB	0ffH
	DB	0ffH
	DB	0ffH
	DB	0ffH
	DB	0ffH
	DB	0ffH
	DB	0ffH
	DB	0ffH
	DB	0ffH
	DB	0ffH
	DB	0ffH
	DB	0ffH
	DB	0ffH
	DB	0ffH
	DB	0ffH
	DB	0ffH
	DB	0ffH
	DB	0ffH
	DB	0ffH
	DB	0ffH
	DB	0ffH
	DB	0ffH
	DB	0ffH
	DB	0ffH
	DB	0ffH
	DB	0ffH
	DB	0ffH
	DB	0ffH
	DB	0dfH
	DB	0ffH
	DB	0dfH
	DB	0ffH
	DB	0beH
	DB	0f7H
	DB	0dfH
	DB	0ffH
	DB	0dfH
	DB	0ffH
	DB	0beH
	DB	0f7H
	DB	0ffH
	DB	0ffH
	DB	0beH
	DB	0f7H
	DB	0dfH
	DB	0ffH
	DB	0dfH
	DB	0ffH
	DB	0dfH
	DB	0ffH
	DB	0dfH
	DB	0ffH
	DB	0fbH
	DB	045H
	DB	0fbH
	DB	045H
	DB	0fbH
	DB	045H
	DB	0fbH
	DB	045H
	DB	0fbH
	DB	045H
	DB	0fbH
	DB	045H
	DB	0fbH
	DB	045H
	DB	0fbH
	DB	045H
	DB	0fbH
	DB	045H
	DB	0fbH
	DB	045H
	DB	0fbH
	DB	045H
	DB	0fbH
	DB	045H
	DB	0fbH
	DB	045H
	DB	0fbH
	DB	045H
	DB	0fbH
	DB	045H
	DB	0fbH
	DB	045H
	DB	0fbH
	DB	045H
	DB	0fbH
	DB	045H
	DB	0fbH
	DB	045H
	DB	0fbH
	DB	045H
	DB	0fbH
	DB	045H
	DB	0fbH
	DB	045H
	DB	0fbH
	DB	045H
	DB	0fbH
	DB	045H
	DB	0fbH
	DB	045H
	DB	0fbH
	DB	045H
	DB	0fbH
	DB	045H
	DB	0fbH
	DB	045H
	DB	0fbH
	DB	045H
	DB	0fbH
	DB	045H
	DB	0fbH
	DB	045H
	DB	0fbH
	DB	045H
	DB	0fbH
	DB	045H
	DB	0fbH
	DB	045H
	DB	0fbH
	DB	045H
	DB	0fbH
	DB	045H
	DB	0fbH
	DB	045H
	DB	0fbH
	DB	045H
	DB	0fbH
	DB	045H
	DB	0fbH
	DB	045H
	DB	0fbH
	DB	045H
	DB	0fbH
	DB	045H
	DB	075H
	DB	014H
	DB	055H
	DB	014H
	DB	0ffH
	DB	0ffH
	DB	0ffH
	DB	0ffH
	DB	0ffH
	DB	0ffH
	DB	0ffH
	DB	0ffH
	DB	0ffH
	DB	0ffH
	DB	0ffH
	DB	0ffH
	DB	0ffH
	DB	0ffH
	DB	0ffH
	DB	0ffH
	DB	0ffH
	DB	0ffH
	DB	0ffH
	DB	0ffH
	DB	0ffH
	DB	0ffH
	DB	0ffH
	DB	0ffH
	DB	0ffH
	DB	0ffH
	DB	0ffH
	DB	0ffH
	DB	0ffH
	DB	0ffH
	DB	0ffH
	DB	0ffH
	DB	0ffH
	DB	0ffH
	DB	0ffH
	DB	0ffH
	DB	0dfH
	DB	0ffH
	DB	0dfH
	DB	0ffH
	DB	0dfH
	DB	0ffH
	DB	0dfH
	DB	0ffH
	DB	0dfH
	DB	0ffH
	DB	0dfH
	DB	0ffH
	DB	0ffH
	DB	0ffH
	DB	0beH
	DB	0f7H
	DB	0ffH
	DB	0ffH
	DB	0dfH
	DB	0ffH
	DB	0beH
	DB	0f7H
	DB	0ffH
	DB	0ffH
	DB	0fbH
	DB	045H
	DB	0fbH
	DB	045H
	DB	0fbH
	DB	045H
	DB	0fbH
	DB	045H
	DB	0fbH
	DB	045H
	DB	0fbH
	DB	045H
	DB	0fbH
	DB	045H
	DB	0fbH
	DB	045H
	DB	0fbH
	DB	045H
	DB	0fbH
	DB	045H
	DB	0fbH
	DB	045H
	DB	0fbH
	DB	045H
	DB	0fbH
	DB	045H
	DB	0fbH
	DB	045H
	DB	0fbH
	DB	045H
	DB	0fbH
	DB	045H
	DB	0fbH
	DB	045H
	DB	0fbH
	DB	045H
	DB	0fbH
	DB	045H
	DB	0fbH
	DB	045H
	DB	0fbH
	DB	045H
	DB	0fbH
	DB	045H
	DB	0fbH
	DB	045H
	DB	0fbH
	DB	045H
	DB	0fbH
	DB	045H
	DB	0fbH
	DB	045H
	DB	0fbH
	DB	045H
	DB	0fbH
	DB	045H
	DB	0fbH
	DB	045H
	DB	0fbH
	DB	045H
	DB	0fbH
	DB	045H
	DB	0fbH
	DB	045H
	DB	0fbH
	DB	045H
	DB	0fbH
	DB	045H
	DB	0fbH
	DB	045H
	DB	0fbH
	DB	045H
	DB	0fbH
	DB	045H
	DB	0fbH
	DB	045H
	DB	0fbH
	DB	045H
	DB	0fbH
	DB	045H
	DB	0fbH
	DB	045H
	DB	0fbH
	DB	045H
	DB	075H
	DB	014H
	DB	055H
	DB	014H
	DB	0ffH
	DB	0ffH
	DB	0ffH
	DB	0ffH
	DB	0ffH
	DB	0ffH
	DB	0ffH
	DB	0ffH
	DB	0ffH
	DB	0ffH
	DB	0ffH
	DB	0ffH
	DB	0ffH
	DB	0ffH
	DB	0ffH
	DB	0ffH
	DB	0ffH
	DB	0ffH
	DB	0ffH
	DB	0ffH
	DB	0ffH
	DB	0ffH
	DB	0ffH
	DB	0ffH
	DB	0ffH
	DB	0ffH
	DB	0ffH
	DB	0ffH
	DB	0ffH
	DB	0ffH
	DB	0ffH
	DB	0ffH
	DB	0ffH
	DB	0ffH
	DB	0ffH
	DB	0ffH
	DB	0dfH
	DB	0ffH
	DB	0ffH
	DB	0ffH
	DB	0beH
	DB	0f7H
	DB	0dfH
	DB	0ffH
	DB	0ffH
	DB	0ffH
	DB	0beH
	DB	0f7H
	DB	0ffH
	DB	0ffH
	DB	0dfH
	DB	0ffH
	DB	0ffH
	DB	0ffH
	DB	0dfH
	DB	0ffH
	DB	0dfH
	DB	0ffH
	DB	0ffH
	DB	0ffH
	DB	0fbH
	DB	045H
	DB	0fbH
	DB	045H
	DB	0fbH
	DB	045H
	DB	0fbH
	DB	045H
	DB	0fbH
	DB	045H
	DB	0fbH
	DB	045H
	DB	0fbH
	DB	045H
	DB	0fbH
	DB	045H
	DB	0fbH
	DB	045H
	DB	0fbH
	DB	045H
	DB	0fbH
	DB	045H
	DB	0fbH
	DB	045H
	DB	0fbH
	DB	045H
	DB	0fbH
	DB	045H
	DB	0fbH
	DB	045H
	DB	0fbH
	DB	045H
	DB	0fbH
	DB	045H
	DB	0fbH
	DB	045H
	DB	0fbH
	DB	045H
	DB	0fbH
	DB	045H
	DB	0fbH
	DB	045H
	DB	0fbH
	DB	045H
	DB	0fbH
	DB	045H
	DB	0fbH
	DB	045H
	DB	0fbH
	DB	045H
	DB	0fbH
	DB	045H
	DB	0fbH
	DB	045H
	DB	0fbH
	DB	045H
	DB	0fbH
	DB	045H
	DB	0fbH
	DB	045H
	DB	0fbH
	DB	045H
	DB	0fbH
	DB	045H
	DB	0fbH
	DB	045H
	DB	0fbH
	DB	045H
	DB	0fbH
	DB	045H
	DB	0fbH
	DB	045H
	DB	0fbH
	DB	045H
	DB	0fbH
	DB	045H
	DB	0fbH
	DB	045H
	DB	0fbH
	DB	045H
	DB	0fbH
	DB	045H
	DB	0fbH
	DB	045H
	DB	075H
	DB	014H
	DB	055H
	DB	0cH
	DB	0ffH
	DB	0ffH
	DB	0ffH
	DB	0ffH
	DB	0ffH
	DB	0ffH
	DB	0ffH
	DB	0ffH
	DB	0ffH
	DB	0ffH
	DB	0ffH
	DB	0ffH
	DB	0ffH
	DB	0ffH
	DB	0ffH
	DB	0ffH
	DB	0ffH
	DB	0ffH
	DB	0ffH
	DB	0ffH
	DB	0ffH
	DB	0ffH
	DB	0ffH
	DB	0ffH
	DB	0ffH
	DB	0ffH
	DB	0ffH
	DB	0ffH
	DB	0ffH
	DB	0ffH
	DB	0ffH
	DB	0ffH
	DB	0ffH
	DB	0ffH
	DB	0ffH
	DB	0ffH
	DB	0dfH
	DB	0ffH
	DB	0dfH
	DB	0ffH
	DB	0beH
	DB	0f7H
	DB	0dfH
	DB	0ffH
	DB	0dfH
	DB	0ffH
	DB	0beH
	DB	0f7H
	DB	0ffH
	DB	0ffH
	DB	0beH
	DB	0f7H
	DB	0dfH
	DB	0ffH
	DB	0dfH
	DB	0ffH
	DB	0dfH
	DB	0ffH
	DB	0dfH
	DB	0ffH
	DB	0fbH
	DB	045H
	DB	0fbH
	DB	045H
	DB	0fbH
	DB	045H
	DB	0fbH
	DB	045H
	DB	0fbH
	DB	045H
	DB	0fbH
	DB	045H
	DB	075H
	DB	014H
	DB	055H
	DB	014H
	DB	0dfH
	DB	0ffH
	DB	0dfH
	DB	0ffH
	DB	0dfH
	DB	0ffH
	DB	0dfH
	DB	0ffH
	DB	0dfH
	DB	0ffH
	DB	0beH
	DB	0f7H
	DB	0dfH
	DB	0ffH
	DB	0dfH
	DB	0ffH
	DB	0beH
	DB	0f7H
	DB	0dfH
	DB	0ffH
	DB	0dfH
	DB	0ffH
	DB	0beH
	DB	0f7H
	DB	0dfH
	DB	0ffH
	DB	0dfH
	DB	0ffH
	DB	0beH
	DB	0f7H
	DB	0dfH
	DB	0ffH
	DB	0dfH
	DB	0ffH
	DB	0beH
	DB	0f7H
	DB	0dfH
	DB	0ffH
	DB	0dfH
	DB	0ffH
	DB	0beH
	DB	0f7H
	DB	0dfH
	DB	0ffH
	DB	0dfH
	DB	0ffH
	DB	0beH
	DB	0f7H
	DB	0dfH
	DB	0ffH
	DB	0dfH
	DB	0ffH
	DB	0beH
	DB	0f7H
	DB	0dfH
	DB	0ffH
	DB	0fbH
	DB	045H
	DB	0fbH
	DB	045H
	DB	0fbH
	DB	045H
	DB	0fbH
	DB	045H
	DB	0fbH
	DB	045H
	DB	0fbH
	DB	045H
	DB	075H
	DB	014H
	DB	055H
	DB	014H
	DB	0ffH
	DB	0ffH
	DB	0ffH
	DB	0ffH
	DB	0ffH
	DB	0ffH
	DB	0ffH
	DB	0ffH
	DB	0ffH
	DB	0ffH
	DB	0ffH
	DB	0ffH
	DB	0ffH
	DB	0ffH
	DB	0ffH
	DB	0ffH
	DB	0ffH
	DB	0ffH
	DB	0ffH
	DB	0ffH
	DB	0ffH
	DB	0ffH
	DB	0ffH
	DB	0ffH
	DB	0ffH
	DB	0ffH
	DB	0ffH
	DB	0ffH
	DB	0ffH
	DB	0ffH
	DB	0ffH
	DB	0ffH
	DB	0ffH
	DB	0ffH
	DB	0ffH
	DB	0ffH
	DB	0dfH
	DB	0ffH
	DB	0dfH
	DB	0ffH
	DB	075H
	DB	014H
	DB	055H
	DB	0cH
	DB	075H
	DB	014H
	DB	075H
	DB	014H
	DB	075H
	DB	014H
	DB	055H
	DB	014H
	DB	0ffH
	DB	0ffH
	DB	0dfH
	DB	0ffH
	DB	0beH
	DB	0f7H
	DB	0ffH
	DB	0ffH
	DB	0fbH
	DB	045H
	DB	0fbH
	DB	045H
	DB	0fbH
	DB	045H
	DB	0fbH
	DB	045H
	DB	0fbH
	DB	045H
	DB	0fbH
	DB	045H
	DB	075H
	DB	014H
	DB	055H
	DB	014H
	DB	0ffH
	DB	0ffH
	DB	0dfH
	DB	0ffH
	DB	0beH
	DB	0f7H
	DB	0ffH
	DB	0ffH
	DB	0dfH
	DB	0ffH
	DB	0beH
	DB	0f7H
	DB	0ffH
	DB	0ffH
	DB	0dfH
	DB	0ffH
	DB	0beH
	DB	0f7H
	DB	0ffH
	DB	0ffH
	DB	0dfH
	DB	0ffH
	DB	0beH
	DB	0f7H
	DB	0ffH
	DB	0ffH
	DB	0dfH
	DB	0ffH
	DB	0beH
	DB	0f7H
	DB	0ffH
	DB	0ffH
	DB	0dfH
	DB	0ffH
	DB	0beH
	DB	0f7H
	DB	0ffH
	DB	0ffH
	DB	0dfH
	DB	0ffH
	DB	0beH
	DB	0f7H
	DB	0ffH
	DB	0ffH
	DB	0dfH
	DB	0ffH
	DB	0beH
	DB	0f7H
	DB	0ffH
	DB	0ffH
	DB	0dfH
	DB	0ffH
	DB	0beH
	DB	0f7H
	DB	0ffH
	DB	0ffH
	DB	0fbH
	DB	045H
	DB	0fbH
	DB	045H
	DB	0fbH
	DB	045H
	DB	0fbH
	DB	045H
	DB	0fbH
	DB	045H
	DB	0fbH
	DB	045H
	DB	075H
	DB	014H
	DB	055H
	DB	014H
	DB	0ffH
	DB	0ffH
	DB	0ffH
	DB	0ffH
	DB	0ffH
	DB	0ffH
	DB	0ffH
	DB	0ffH
	DB	0ffH
	DB	0ffH
	DB	0ffH
	DB	0ffH
	DB	0ffH
	DB	0ffH
	DB	0ffH
	DB	0ffH
	DB	0ffH
	DB	0ffH
	DB	0ffH
	DB	0ffH
	DB	0ffH
	DB	0ffH
	DB	0ffH
	DB	0ffH
	DB	0ffH
	DB	0ffH
	DB	0ffH
	DB	0ffH
	DB	0ffH
	DB	0ffH
	DB	0ffH
	DB	0ffH
	DB	0ffH
	DB	0ffH
	DB	0ffH
	DB	0ffH
	DB	0dfH
	DB	0ffH
	DB	0ffH
	DB	0ffH
	DB	055H
	DB	014H
	DB	055H
	DB	0cH
	DB	075H
	DB	014H
	DB	055H
	DB	014H
	DB	075H
	DB	014H
	DB	055H
	DB	0cH
	DB	0ffH
	DB	0ffH
	DB	0dfH
	DB	0ffH
	DB	0dfH
	DB	0ffH
	DB	0ffH
	DB	0ffH
	DB	0fbH
	DB	045H
	DB	0fbH
	DB	045H
	DB	0fbH
	DB	045H
	DB	0fbH
	DB	045H
	DB	0fbH
	DB	045H
	DB	0fbH
	DB	045H
	DB	075H
	DB	014H
	DB	055H
	DB	0cH
	DB	0ffH
	DB	0ffH
	DB	0dfH
	DB	0ffH
	DB	0dfH
	DB	0ffH
	DB	0dfH
	DB	0ffH
	DB	0dfH
	DB	0ffH
	DB	0dfH
	DB	0ffH
	DB	0dfH
	DB	0ffH
	DB	0dfH
	DB	0ffH
	DB	0dfH
	DB	0ffH
	DB	0dfH
	DB	0ffH
	DB	0dfH
	DB	0ffH
	DB	0dfH
	DB	0ffH
	DB	0dfH
	DB	0ffH
	DB	0dfH
	DB	0ffH
	DB	0dfH
	DB	0ffH
	DB	0dfH
	DB	0ffH
	DB	0dfH
	DB	0ffH
	DB	0dfH
	DB	0ffH
	DB	0dfH
	DB	0ffH
	DB	0dfH
	DB	0ffH
	DB	0dfH
	DB	0ffH
	DB	0dfH
	DB	0ffH
	DB	0dfH
	DB	0ffH
	DB	0dfH
	DB	0ffH
	DB	0dfH
	DB	0ffH
	DB	0dfH
	DB	0ffH
	DB	0dfH
	DB	0ffH
	DB	0dfH
	DB	0ffH
	DB	0fbH
	DB	045H
	DB	0fbH
	DB	045H
	DB	0fbH
	DB	045H
	DB	0fbH
	DB	045H
	DB	0fbH
	DB	045H
	DB	0fbH
	DB	045H
	DB	075H
	DB	014H
	DB	055H
	DB	0cH
	DB	0ffH
	DB	0ffH
	DB	0ffH
	DB	0ffH
	DB	0ffH
	DB	0ffH
	DB	0ffH
	DB	0ffH
	DB	0ffH
	DB	0ffH
	DB	0ffH
	DB	0ffH
	DB	0ffH
	DB	0ffH
	DB	0ffH
	DB	0ffH
	DB	0ffH
	DB	0ffH
	DB	0ffH
	DB	0ffH
	DB	0ffH
	DB	0ffH
	DB	0ffH
	DB	0ffH
	DB	0ffH
	DB	0ffH
	DB	0ffH
	DB	0ffH
	DB	0ffH
	DB	0ffH
	DB	0ffH
	DB	0ffH
	DB	0ffH
	DB	0ffH
	DB	0ffH
	DB	0ffH
	DB	0fbH
	DB	045H
	DB	0fbH
	DB	045H
	DB	0fbH
	DB	045H
	DB	0fbH
	DB	045H
	DB	0fbH
	DB	045H
	DB	0fbH
	DB	045H
	DB	075H
	DB	014H
	DB	055H
	DB	014H
	DB	0dfH
	DB	0ffH
	DB	0dfH
	DB	0ffH
	DB	0beH
	DB	0f7H
	DB	0dfH
	DB	0ffH
	DB	0fbH
	DB	045H
	DB	0fbH
	DB	045H
	DB	0fbH
	DB	045H
	DB	0fbH
	DB	045H
	DB	0fbH
	DB	045H
	DB	0fbH
	DB	045H
	DB	075H
	DB	014H
	DB	055H
	DB	014H
	DB	0dfH
	DB	0ffH
	DB	0dfH
	DB	0ffH
	DB	0beH
	DB	0f7H
	DB	0dfH
	DB	0ffH
	DB	0dfH
	DB	0ffH
	DB	0beH
	DB	0f7H
	DB	0dfH
	DB	0ffH
	DB	0dfH
	DB	0ffH
	DB	0beH
	DB	0f7H
	DB	0dfH
	DB	0ffH
	DB	0dfH
	DB	0ffH
	DB	0beH
	DB	0f7H
	DB	0dfH
	DB	0ffH
	DB	0dfH
	DB	0ffH
	DB	0beH
	DB	0f7H
	DB	0dfH
	DB	0ffH
	DB	0dfH
	DB	0ffH
	DB	0beH
	DB	0f7H
	DB	0dfH
	DB	0ffH
	DB	0dfH
	DB	0ffH
	DB	0beH
	DB	0f7H
	DB	0dfH
	DB	0ffH
	DB	0dfH
	DB	0ffH
	DB	0beH
	DB	0f7H
	DB	0dfH
	DB	0ffH
	DB	0dfH
	DB	0ffH
	DB	0beH
	DB	0f7H
	DB	0dfH
	DB	0ffH
	DB	0fbH
	DB	045H
	DB	0fbH
	DB	045H
	DB	0fbH
	DB	045H
	DB	0fbH
	DB	045H
	DB	0fbH
	DB	045H
	DB	0fbH
	DB	045H
	DB	075H
	DB	014H
	DB	055H
	DB	0cH
	DB	0ffH
	DB	0ffH
	DB	0ffH
	DB	0ffH
	DB	0ffH
	DB	0ffH
	DB	0ffH
	DB	0ffH
	DB	0ffH
	DB	0ffH
	DB	0ffH
	DB	0ffH
	DB	0ffH
	DB	0ffH
	DB	0ffH
	DB	0ffH
	DB	0ffH
	DB	0ffH
	DB	0ffH
	DB	0ffH
	DB	0ffH
	DB	0ffH
	DB	0ffH
	DB	0ffH
	DB	0ffH
	DB	0ffH
	DB	0ffH
	DB	0ffH
	DB	0ffH
	DB	0ffH
	DB	0ffH
	DB	0ffH
	DB	0ffH
	DB	0ffH
	DB	0ffH
	DB	0ffH
	DB	0fbH
	DB	045H
	DB	0fbH
	DB	045H
	DB	0fbH
	DB	045H
	DB	0fbH
	DB	045H
	DB	0fbH
	DB	045H
	DB	0fbH
	DB	045H
	DB	075H
	DB	014H
	DB	055H
	DB	014H
	DB	0ffH
	DB	0ffH
	DB	0dfH
	DB	0ffH
	DB	0beH
	DB	0f7H
	DB	0ffH
	DB	0ffH
	DB	0fbH
	DB	045H
	DB	0fbH
	DB	045H
	DB	0fbH
	DB	045H
	DB	0fbH
	DB	045H
	DB	0fbH
	DB	045H
	DB	0fbH
	DB	045H
	DB	075H
	DB	014H
	DB	055H
	DB	014H
	DB	0ffH
	DB	0ffH
	DB	0dfH
	DB	0ffH
	DB	0beH
	DB	0f7H
	DB	0ffH
	DB	0ffH
	DB	0dfH
	DB	0ffH
	DB	0beH
	DB	0f7H
	DB	0ffH
	DB	0ffH
	DB	0dfH
	DB	0ffH
	DB	0beH
	DB	0f7H
	DB	0ffH
	DB	0ffH
	DB	0dfH
	DB	0ffH
	DB	0beH
	DB	0f7H
	DB	0ffH
	DB	0ffH
	DB	0dfH
	DB	0ffH
	DB	0beH
	DB	0f7H
	DB	0ffH
	DB	0ffH
	DB	0dfH
	DB	0ffH
	DB	0beH
	DB	0f7H
	DB	0ffH
	DB	0ffH
	DB	0dfH
	DB	0ffH
	DB	0beH
	DB	0f7H
	DB	0ffH
	DB	0ffH
	DB	0dfH
	DB	0ffH
	DB	0beH
	DB	0f7H
	DB	0ffH
	DB	0ffH
	DB	0dfH
	DB	0ffH
	DB	0beH
	DB	0f7H
	DB	0ffH
	DB	0ffH
	DB	0fbH
	DB	045H
	DB	0fbH
	DB	045H
	DB	0fbH
	DB	045H
	DB	0fbH
	DB	045H
	DB	0fbH
	DB	045H
	DB	0fbH
	DB	045H
	DB	075H
	DB	014H
	DB	055H
	DB	014H
	DB	0ffH
	DB	0ffH
	DB	0ffH
	DB	0ffH
	DB	0ffH
	DB	0ffH
	DB	0ffH
	DB	0ffH
	DB	0ffH
	DB	0ffH
	DB	0ffH
	DB	0ffH
	DB	0ffH
	DB	0ffH
	DB	0ffH
	DB	0ffH
	DB	0ffH
	DB	0ffH
	DB	0ffH
	DB	0ffH
	DB	0ffH
	DB	0ffH
	DB	0ffH
	DB	0ffH
	DB	0ffH
	DB	0ffH
	DB	0ffH
	DB	0ffH
	DB	0ffH
	DB	0ffH
	DB	0ffH
	DB	0ffH
	DB	0ffH
	DB	0ffH
	DB	0ffH
	DB	0ffH
	DB	0fbH
	DB	045H
	DB	0fbH
	DB	045H
	DB	0fbH
	DB	045H
	DB	0fbH
	DB	045H
	DB	0fbH
	DB	045H
	DB	0fbH
	DB	045H
	DB	075H
	DB	014H
	DB	055H
	DB	0cH
	DB	0dfH
	DB	0ffH
	DB	0dfH
	DB	0ffH
	DB	0dfH
	DB	0ffH
	DB	0dfH
	DB	0ffH
	DB	0fbH
	DB	045H
	DB	0fbH
	DB	045H
	DB	0fbH
	DB	045H
	DB	0fbH
	DB	045H
	DB	0fbH
	DB	045H
	DB	0fbH
	DB	045H
	DB	075H
	DB	014H
	DB	055H
	DB	0cH
	DB	0dfH
	DB	0ffH
	DB	0dfH
	DB	0ffH
	DB	0dfH
	DB	0ffH
	DB	0dfH
	DB	0ffH
	DB	0dfH
	DB	0ffH
	DB	0dfH
	DB	0ffH
	DB	0dfH
	DB	0ffH
	DB	0dfH
	DB	0ffH
	DB	0dfH
	DB	0ffH
	DB	0dfH
	DB	0ffH
	DB	0dfH
	DB	0ffH
	DB	0dfH
	DB	0ffH
	DB	0dfH
	DB	0ffH
	DB	0dfH
	DB	0ffH
	DB	0dfH
	DB	0ffH
	DB	0dfH
	DB	0ffH
	DB	0dfH
	DB	0ffH
	DB	0dfH
	DB	0ffH
	DB	0dfH
	DB	0ffH
	DB	0dfH
	DB	0ffH
	DB	0dfH
	DB	0ffH
	DB	0dfH
	DB	0ffH
	DB	0dfH
	DB	0ffH
	DB	0dfH
	DB	0ffH
	DB	0dfH
	DB	0ffH
	DB	0dfH
	DB	0ffH
	DB	0dfH
	DB	0ffH
	DB	0dfH
	DB	0ffH
	DB	0fbH
	DB	045H
	DB	0fbH
	DB	045H
	DB	0fbH
	DB	045H
	DB	0fbH
	DB	045H
	DB	0fbH
	DB	045H
	DB	0fbH
	DB	045H
	DB	075H
	DB	014H
	DB	055H
	DB	0cH
	DB	0ffH
	DB	0ffH
	DB	0ffH
	DB	0ffH
	DB	0ffH
	DB	0ffH
	DB	0ffH
	DB	0ffH
	DB	0ffH
	DB	0ffH
	DB	0ffH
	DB	0ffH
	DB	0ffH
	DB	0ffH
	DB	0ffH
	DB	0ffH
	DB	0ffH
	DB	0ffH
	DB	0ffH
	DB	0ffH
	DB	0ffH
	DB	0ffH
	DB	0ffH
	DB	0ffH
	DB	0ffH
	DB	0ffH
	DB	0ffH
	DB	0ffH
	DB	0ffH
	DB	0ffH
	DB	0ffH
	DB	0ffH
	DB	0ffH
	DB	0ffH
	DB	0ffH
	DB	0ffH
	DB	0fbH
	DB	045H
	DB	0fbH
	DB	045H
	DB	0fbH
	DB	045H
	DB	0fbH
	DB	045H
	DB	0fbH
	DB	045H
	DB	0fbH
	DB	045H
	DB	075H
	DB	014H
	DB	055H
	DB	014H
	DB	0dfH
	DB	0ffH
	DB	0dfH
	DB	0ffH
	DB	0beH
	DB	0f7H
	DB	0dfH
	DB	0ffH
	DB	0fbH
	DB	045H
	DB	0fbH
	DB	045H
	DB	0fbH
	DB	045H
	DB	0fbH
	DB	045H
	DB	0fbH
	DB	045H
	DB	0fbH
	DB	045H
	DB	075H
	DB	014H
	DB	055H
	DB	014H
	DB	0dfH
	DB	0ffH
	DB	0dfH
	DB	0ffH
	DB	0beH
	DB	0f7H
	DB	0dfH
	DB	0ffH
	DB	0dfH
	DB	0ffH
	DB	0beH
	DB	0f7H
	DB	0dfH
	DB	0ffH
	DB	0dfH
	DB	0ffH
	DB	0beH
	DB	0f7H
	DB	0dfH
	DB	0ffH
	DB	0dfH
	DB	0ffH
	DB	0beH
	DB	0f7H
	DB	0dfH
	DB	0ffH
	DB	0dfH
	DB	0ffH
	DB	0beH
	DB	0f7H
	DB	0dfH
	DB	0ffH
	DB	0dfH
	DB	0ffH
	DB	0beH
	DB	0f7H
	DB	0dfH
	DB	0ffH
	DB	0dfH
	DB	0ffH
	DB	0beH
	DB	0f7H
	DB	0dfH
	DB	0ffH
	DB	0dfH
	DB	0ffH
	DB	0beH
	DB	0f7H
	DB	0dfH
	DB	0ffH
	DB	0dfH
	DB	0ffH
	DB	0beH
	DB	0f7H
	DB	0dfH
	DB	0ffH
	DB	0fbH
	DB	045H
	DB	0fbH
	DB	045H
	DB	0fbH
	DB	045H
	DB	0fbH
	DB	045H
	DB	0fbH
	DB	045H
	DB	0fbH
	DB	045H
	DB	075H
	DB	014H
	DB	055H
	DB	0cH
	DB	0ffH
	DB	0ffH
	DB	0ffH
	DB	0ffH
	DB	0ffH
	DB	0ffH
	DB	0ffH
	DB	0ffH
	DB	0ffH
	DB	0ffH
	DB	0ffH
	DB	0ffH
	DB	0ffH
	DB	0ffH
	DB	0ffH
	DB	0ffH
	DB	0ffH
	DB	0ffH
	DB	0ffH
	DB	0ffH
	DB	0ffH
	DB	0ffH
	DB	0ffH
	DB	0ffH
	DB	0ffH
	DB	0ffH
	DB	0ffH
	DB	0ffH
	DB	0ffH
	DB	0ffH
	DB	0ffH
	DB	0ffH
	DB	0ffH
	DB	0ffH
	DB	0ffH
	DB	0ffH
	DB	0fbH
	DB	045H
	DB	0fbH
	DB	045H
	DB	0fbH
	DB	045H
	DB	0fbH
	DB	045H
	DB	0fbH
	DB	045H
	DB	0fbH
	DB	045H
	DB	075H
	DB	014H
	DB	055H
	DB	014H
	DB	0ffH
	DB	0ffH
	DB	0dfH
	DB	0ffH
	DB	0beH
	DB	0f7H
	DB	0ffH
	DB	0ffH
	DB	0fbH
	DB	045H
	DB	0fbH
	DB	045H
	DB	0fbH
	DB	045H
	DB	0fbH
	DB	045H
	DB	0fbH
	DB	045H
	DB	0fbH
	DB	045H
	DB	075H
	DB	014H
	DB	055H
	DB	014H
	DB	0ffH
	DB	0ffH
	DB	0dfH
	DB	0ffH
	DB	0beH
	DB	0f7H
	DB	0ffH
	DB	0ffH
	DB	0dfH
	DB	0ffH
	DB	0beH
	DB	0f7H
	DB	0ffH
	DB	0ffH
	DB	0dfH
	DB	0ffH
	DB	0beH
	DB	0f7H
	DB	0ffH
	DB	0ffH
	DB	0dfH
	DB	0ffH
	DB	0beH
	DB	0f7H
	DB	0ffH
	DB	0ffH
	DB	0dfH
	DB	0ffH
	DB	0beH
	DB	0f7H
	DB	0ffH
	DB	0ffH
	DB	0dfH
	DB	0ffH
	DB	0beH
	DB	0f7H
	DB	0ffH
	DB	0ffH
	DB	0dfH
	DB	0ffH
	DB	0beH
	DB	0f7H
	DB	0ffH
	DB	0ffH
	DB	0dfH
	DB	0f7H
	DB	098H
	DB	065H
	DB	0ffH
	DB	0ffH
	DB	0dfH
	DB	0ffH
	DB	0beH
	DB	0f7H
	DB	0ffH
	DB	0ffH
	DB	0fbH
	DB	045H
	DB	0fbH
	DB	045H
	DB	0fbH
	DB	045H
	DB	0fbH
	DB	045H
	DB	0fbH
	DB	045H
	DB	0fbH
	DB	045H
	DB	075H
	DB	014H
	DB	055H
	DB	014H
	DB	0ffH
	DB	0ffH
	DB	0ffH
	DB	0ffH
	DB	0ffH
	DB	0ffH
	DB	0ffH
	DB	0ffH
	DB	0ffH
	DB	0ffH
	DB	0ffH
	DB	0ffH
	DB	0ffH
	DB	0ffH
	DB	0ffH
	DB	0ffH
	DB	0ffH
	DB	0ffH
	DB	0ffH
	DB	0ffH
	DB	0ffH
	DB	0ffH
	DB	0ffH
	DB	0ffH
	DB	0ffH
	DB	0ffH
	DB	0ffH
	DB	0ffH
	DB	0ffH
	DB	0ffH
	DB	0ffH
	DB	0ffH
	DB	0ffH
	DB	0ffH
	DB	0ffH
	DB	0ffH
	DB	0fbH
	DB	045H
	DB	0fbH
	DB	045H
	DB	0fbH
	DB	045H
	DB	0fbH
	DB	045H
	DB	0fbH
	DB	045H
	DB	0fbH
	DB	045H
	DB	075H
	DB	014H
	DB	055H
	DB	0cH
	DB	0dfH
	DB	0ffH
	DB	0dfH
	DB	0ffH
	DB	0dfH
	DB	0ffH
	DB	0dfH
	DB	0ffH
	DB	0fbH
	DB	045H
	DB	0fbH
	DB	045H
	DB	0fbH
	DB	045H
	DB	0fbH
	DB	045H
	DB	0fbH
	DB	045H
	DB	0fbH
	DB	045H
	DB	075H
	DB	014H
	DB	055H
	DB	0cH
	DB	0dfH
	DB	0ffH
	DB	0dfH
	DB	0ffH
	DB	0dfH
	DB	0ffH
	DB	0dfH
	DB	0ffH
	DB	0dfH
	DB	0ffH
	DB	0dfH
	DB	0ffH
	DB	0dfH
	DB	0ffH
	DB	0dfH
	DB	0ffH
	DB	0dfH
	DB	0ffH
	DB	0dfH
	DB	0ffH
	DB	0dfH
	DB	0ffH
	DB	0dfH
	DB	0ffH
	DB	0dfH
	DB	0ffH
	DB	0dfH
	DB	0ffH
	DB	0dfH
	DB	0ffH
	DB	0dfH
	DB	0ffH
	DB	0dfH
	DB	0ffH
	DB	0dfH
	DB	0ffH
	DB	0dfH
	DB	0ffH
	DB	0dfH
	DB	0ffH
	DB	0dfH
	DB	0ffH
	DB	05dH
	DB	0d7H
	DB	0f7H
	DB	034H
	DB	055H
	DB	0cH
	DB	0dfH
	DB	0ffH
	DB	0dfH
	DB	0ffH
	DB	0dfH
	DB	0ffH
	DB	0dfH
	DB	0ffH
	DB	0fbH
	DB	045H
	DB	0fbH
	DB	045H
	DB	0fbH
	DB	045H
	DB	0fbH
	DB	045H
	DB	0fbH
	DB	045H
	DB	0fbH
	DB	045H
	DB	075H
	DB	014H
	DB	055H
	DB	0cH
	DB	0ffH
	DB	0ffH
	DB	0ffH
	DB	0ffH
	DB	0ffH
	DB	0ffH
	DB	0ffH
	DB	0ffH
	DB	0ffH
	DB	0ffH
	DB	0ffH
	DB	0ffH
	DB	0ffH
	DB	0ffH
	DB	0ffH
	DB	0ffH
	DB	0ffH
	DB	0ffH
	DB	0ffH
	DB	0ffH
	DB	0ffH
	DB	0ffH
	DB	0ffH
	DB	0ffH
	DB	0ffH
	DB	0ffH
	DB	0ffH
	DB	0ffH
	DB	0ffH
	DB	0ffH
	DB	0ffH
	DB	0ffH
	DB	0ffH
	DB	0ffH
	DB	0ffH
	DB	0ffH
	DB	0fbH
	DB	045H
	DB	0fbH
	DB	045H
	DB	0fbH
	DB	045H
	DB	0fbH
	DB	045H
	DB	0fbH
	DB	045H
	DB	0fbH
	DB	045H
	DB	075H
	DB	014H
	DB	055H
	DB	014H
	DB	0dfH
	DB	0ffH
	DB	0dfH
	DB	0ffH
	DB	0beH
	DB	0f7H
	DB	0dfH
	DB	0ffH
	DB	0fbH
	DB	045H
	DB	0fbH
	DB	045H
	DB	0fbH
	DB	045H
	DB	0fbH
	DB	045H
	DB	0fbH
	DB	045H
	DB	0fbH
	DB	045H
	DB	075H
	DB	014H
	DB	055H
	DB	014H
	DB	0dfH
	DB	0ffH
	DB	0dfH
	DB	0ffH
	DB	0beH
	DB	0f7H
	DB	0dfH
	DB	0ffH
	DB	0dfH
	DB	0ffH
	DB	0beH
	DB	0f7H
	DB	0dfH
	DB	0ffH
	DB	0dfH
	DB	0ffH
	DB	0beH
	DB	0f7H
	DB	0dfH
	DB	0ffH
	DB	0dfH
	DB	0ffH
	DB	0beH
	DB	0f7H
	DB	0dfH
	DB	0ffH
	DB	0dfH
	DB	0ffH
	DB	0beH
	DB	0f7H
	DB	0dfH
	DB	0ffH
	DB	0dfH
	DB	0ffH
	DB	0beH
	DB	0f7H
	DB	0dfH
	DB	0ffH
	DB	0dfH
	DB	0ffH
	DB	0bcH
	DB	0a6H
	DB	079H
	DB	035H
	DB	075H
	DB	014H
	DB	055H
	DB	014H
	DB	0dfH
	DB	0ffH
	DB	0dfH
	DB	0ffH
	DB	0beH
	DB	0f7H
	DB	0dfH
	DB	0ffH
	DB	0fbH
	DB	045H
	DB	0fbH
	DB	045H
	DB	0fbH
	DB	045H
	DB	0fbH
	DB	045H
	DB	0fbH
	DB	045H
	DB	0fbH
	DB	045H
	DB	075H
	DB	014H
	DB	055H
	DB	0cH
	DB	0ffH
	DB	0ffH
	DB	0ffH
	DB	0ffH
	DB	0ffH
	DB	0ffH
	DB	0ffH
	DB	0ffH
	DB	0ffH
	DB	0ffH
	DB	0ffH
	DB	0ffH
	DB	0ffH
	DB	0ffH
	DB	0ffH
	DB	0ffH
	DB	0ffH
	DB	0ffH
	DB	0ffH
	DB	0ffH
	DB	0ffH
	DB	0ffH
	DB	0ffH
	DB	0ffH
	DB	0ffH
	DB	0ffH
	DB	0ffH
	DB	0ffH
	DB	0ffH
	DB	0ffH
	DB	0ffH
	DB	0ffH
	DB	0ffH
	DB	0ffH
	DB	0ffH
	DB	0ffH
	DB	0fbH
	DB	045H
	DB	0fbH
	DB	045H
	DB	0fbH
	DB	045H
	DB	0fbH
	DB	045H
	DB	0fbH
	DB	045H
	DB	0fbH
	DB	045H
	DB	075H
	DB	014H
	DB	055H
	DB	014H
	DB	0ffH
	DB	0ffH
	DB	0dfH
	DB	0ffH
	DB	0beH
	DB	0f7H
	DB	0ffH
	DB	0ffH
	DB	0fbH
	DB	045H
	DB	0fbH
	DB	045H
	DB	0fbH
	DB	045H
	DB	0fbH
	DB	045H
	DB	0fbH
	DB	045H
	DB	0fbH
	DB	045H
	DB	075H
	DB	014H
	DB	055H
	DB	014H
	DB	0ffH
	DB	0ffH
	DB	0dfH
	DB	0ffH
	DB	0beH
	DB	0f7H
	DB	0ffH
	DB	0ffH
	DB	0dfH
	DB	0ffH
	DB	0beH
	DB	0f7H
	DB	0ffH
	DB	0ffH
	DB	0dfH
	DB	0ffH
	DB	0beH
	DB	0f7H
	DB	0ffH
	DB	0ffH
	DB	0dfH
	DB	0ffH
	DB	0beH
	DB	0f7H
	DB	0ffH
	DB	0ffH
	DB	0dfH
	DB	0ffH
	DB	0beH
	DB	0f7H
	DB	0ffH
	DB	0ffH
	DB	0dfH
	DB	0ffH
	DB	0beH
	DB	0f7H
	DB	0dfH
	DB	0ffH
	DB	0daH
	DB	06dH
	DB	0baH
	DB	03dH
	DB	0fbH
	DB	045H
	DB	075H
	DB	014H
	DB	055H
	DB	014H
	DB	0ffH
	DB	0ffH
	DB	0dfH
	DB	0ffH
	DB	0beH
	DB	0f7H
	DB	0ffH
	DB	0ffH
	DB	0fbH
	DB	045H
	DB	0fbH
	DB	045H
	DB	0fbH
	DB	045H
	DB	0fbH
	DB	045H
	DB	0fbH
	DB	045H
	DB	0fbH
	DB	045H
	DB	075H
	DB	014H
	DB	055H
	DB	014H
	DB	0ffH
	DB	0ffH
	DB	0ffH
	DB	0ffH
	DB	0ffH
	DB	0ffH
	DB	0ffH
	DB	0ffH
	DB	0ffH
	DB	0ffH
	DB	0ffH
	DB	0ffH
	DB	0ffH
	DB	0ffH
	DB	0ffH
	DB	0ffH
	DB	0ffH
	DB	0ffH
	DB	0ffH
	DB	0ffH
	DB	0ffH
	DB	0ffH
	DB	0ffH
	DB	0ffH
	DB	0ffH
	DB	0ffH
	DB	0ffH
	DB	0ffH
	DB	0ffH
	DB	0ffH
	DB	0ffH
	DB	0ffH
	DB	0ffH
	DB	0ffH
	DB	0ffH
	DB	0ffH
	DB	0fbH
	DB	045H
	DB	0fbH
	DB	045H
	DB	0fbH
	DB	045H
	DB	0fbH
	DB	045H
	DB	0fbH
	DB	045H
	DB	0fbH
	DB	045H
	DB	075H
	DB	014H
	DB	055H
	DB	0cH
	DB	0dfH
	DB	0ffH
	DB	0dfH
	DB	0ffH
	DB	0dfH
	DB	0ffH
	DB	0dfH
	DB	0ffH
	DB	0fbH
	DB	045H
	DB	0fbH
	DB	045H
	DB	0fbH
	DB	045H
	DB	0fbH
	DB	045H
	DB	0fbH
	DB	045H
	DB	0fbH
	DB	045H
	DB	075H
	DB	014H
	DB	055H
	DB	0cH
	DB	0dfH
	DB	0ffH
	DB	0dfH
	DB	0ffH
	DB	0dfH
	DB	0ffH
	DB	0dfH
	DB	0ffH
	DB	0dfH
	DB	0ffH
	DB	0dfH
	DB	0ffH
	DB	0dfH
	DB	0ffH
	DB	0dfH
	DB	0ffH
	DB	0dfH
	DB	0ffH
	DB	0dfH
	DB	0ffH
	DB	0dfH
	DB	0ffH
	DB	0dfH
	DB	0ffH
	DB	0dfH
	DB	0ffH
	DB	0dfH
	DB	0ffH
	DB	0dfH
	DB	0ffH
	DB	0dfH
	DB	0ffH
	DB	0dfH
	DB	0ffH
	DB	07eH
	DB	0dfH
	DB	078H
	DB	045H
	DB	0dbH
	DB	03dH
	DB	0fbH
	DB	045H
	DB	0fbH
	DB	045H
	DB	075H
	DB	014H
	DB	055H
	DB	0cH
	DB	0dfH
	DB	0ffH
	DB	0dfH
	DB	0ffH
	DB	0dfH
	DB	0ffH
	DB	0dfH
	DB	0ffH
	DB	0fbH
	DB	045H
	DB	0fbH
	DB	045H
	DB	0fbH
	DB	045H
	DB	0fbH
	DB	045H
	DB	0fbH
	DB	045H
	DB	0fbH
	DB	045H
	DB	075H
	DB	014H
	DB	055H
	DB	0cH
	DB	0ffH
	DB	0ffH
	DB	0ffH
	DB	0ffH
	DB	0ffH
	DB	0ffH
	DB	0ffH
	DB	0ffH
	DB	0ffH
	DB	0ffH
	DB	0ffH
	DB	0ffH
	DB	0ffH
	DB	0ffH
	DB	0ffH
	DB	0ffH
	DB	0ffH
	DB	0ffH
	DB	0ffH
	DB	0ffH
	DB	0ffH
	DB	0ffH
	DB	0ffH
	DB	0ffH
	DB	0ffH
	DB	0ffH
	DB	0ffH
	DB	0ffH
	DB	0ffH
	DB	0ffH
	DB	0ffH
	DB	0ffH
	DB	0ffH
	DB	0ffH
	DB	0ffH
	DB	0ffH
	DB	0fbH
	DB	045H
	DB	0fbH
	DB	045H
	DB	0fbH
	DB	045H
	DB	0fbH
	DB	045H
	DB	0fbH
	DB	045H
	DB	0fbH
	DB	045H
	DB	075H
	DB	014H
	DB	055H
	DB	014H
	DB	0dfH
	DB	0ffH
	DB	0dfH
	DB	0ffH
	DB	0beH
	DB	0f7H
	DB	0dfH
	DB	0ffH
	DB	0fbH
	DB	045H
	DB	0fbH
	DB	045H
	DB	0fbH
	DB	045H
	DB	0fbH
	DB	045H
	DB	0fbH
	DB	045H
	DB	0fbH
	DB	045H
	DB	075H
	DB	014H
	DB	055H
	DB	014H
	DB	0dfH
	DB	0ffH
	DB	0dfH
	DB	0ffH
	DB	0beH
	DB	0f7H
	DB	0dfH
	DB	0ffH
	DB	0dfH
	DB	0ffH
	DB	0beH
	DB	0f7H
	DB	0dfH
	DB	0ffH
	DB	0dfH
	DB	0ffH
	DB	0beH
	DB	0f7H
	DB	0dfH
	DB	0ffH
	DB	0dfH
	DB	0ffH
	DB	0beH
	DB	0f7H
	DB	0dfH
	DB	0ffH
	DB	0dfH
	DB	0ffH
	DB	0beH
	DB	0f7H
	DB	0dfH
	DB	0ffH
	DB	0dcH
	DB	0b6H
	DB	079H
	DB	035H
	DB	0fbH
	DB	045H
	DB	0fbH
	DB	045H
	DB	0fbH
	DB	045H
	DB	0fbH
	DB	045H
	DB	075H
	DB	014H
	DB	055H
	DB	014H
	DB	0dfH
	DB	0ffH
	DB	0dfH
	DB	0ffH
	DB	0beH
	DB	0f7H
	DB	0dfH
	DB	0ffH
	DB	0fbH
	DB	045H
	DB	0fbH
	DB	045H
	DB	0fbH
	DB	045H
	DB	0fbH
	DB	045H
	DB	0fbH
	DB	045H
	DB	0fbH
	DB	045H
	DB	075H
	DB	014H
	DB	055H
	DB	0cH
	DB	0ffH
	DB	0ffH
	DB	0ffH
	DB	0ffH
	DB	0ffH
	DB	0ffH
	DB	0ffH
	DB	0ffH
	DB	0ffH
	DB	0ffH
	DB	0ffH
	DB	0ffH
	DB	0ffH
	DB	0ffH
	DB	0ffH
	DB	0ffH
	DB	0ffH
	DB	0ffH
	DB	0ffH
	DB	0ffH
	DB	0ffH
	DB	0ffH
	DB	0ffH
	DB	0ffH
	DB	0ffH
	DB	0ffH
	DB	0ffH
	DB	0ffH
	DB	0ffH
	DB	0ffH
	DB	0ffH
	DB	0ffH
	DB	0ffH
	DB	0ffH
	DB	0ffH
	DB	0ffH
	DB	0fbH
	DB	045H
	DB	0fbH
	DB	045H
	DB	0fbH
	DB	045H
	DB	0fbH
	DB	045H
	DB	0fbH
	DB	045H
	DB	0fbH
	DB	045H
	DB	075H
	DB	014H
	DB	055H
	DB	014H
	DB	0ffH
	DB	0ffH
	DB	0dfH
	DB	0ffH
	DB	0beH
	DB	0f7H
	DB	0ffH
	DB	0ffH
	DB	0fbH
	DB	045H
	DB	0fbH
	DB	045H
	DB	0fbH
	DB	045H
	DB	0fbH
	DB	045H
	DB	0fbH
	DB	045H
	DB	0fbH
	DB	045H
	DB	075H
	DB	014H
	DB	055H
	DB	014H
	DB	0ffH
	DB	0ffH
	DB	0dfH
	DB	0ffH
	DB	0beH
	DB	0f7H
	DB	0ffH
	DB	0ffH
	DB	0dfH
	DB	0ffH
	DB	0beH
	DB	0f7H
	DB	0ffH
	DB	0ffH
	DB	0dfH
	DB	0ffH
	DB	0beH
	DB	0f7H
	DB	0ffH
	DB	0ffH
	DB	0dfH
	DB	0ffH
	DB	0beH
	DB	0f7H
	DB	0ffH
	DB	0ffH
	DB	0dfH
	DB	0ffH
	DB	0bfH
	DB	0f7H
	DB	01aH
	DB	076H
	DB	0baH
	DB	035H
	DB	0fbH
	DB	045H
	DB	0fbH
	DB	045H
	DB	0fbH
	DB	045H
	DB	0fbH
	DB	045H
	DB	0fbH
	DB	045H
	DB	075H
	DB	014H
	DB	055H
	DB	014H
	DB	0ffH
	DB	0ffH
	DB	0dfH
	DB	0ffH
	DB	0beH
	DB	0f7H
	DB	0ffH
	DB	0ffH
	DB	0fbH
	DB	045H
	DB	0fbH
	DB	045H
	DB	0fbH
	DB	045H
	DB	0fbH
	DB	045H
	DB	0fbH
	DB	045H
	DB	0fbH
	DB	045H
	DB	075H
	DB	014H
	DB	055H
	DB	014H
	DB	0ffH
	DB	0ffH
	DB	0ffH
	DB	0ffH
	DB	0ffH
	DB	0ffH
	DB	0ffH
	DB	0ffH
	DB	0ffH
	DB	0ffH
	DB	0ffH
	DB	0ffH
	DB	0ffH
	DB	0ffH
	DB	0ffH
	DB	0ffH
	DB	0ffH
	DB	0ffH
	DB	0ffH
	DB	0ffH
	DB	0ffH
	DB	0ffH
	DB	0ffH
	DB	0ffH
	DB	0ffH
	DB	0ffH
	DB	0ffH
	DB	0ffH
	DB	0ffH
	DB	0ffH
	DB	0ffH
	DB	0ffH
	DB	0ffH
	DB	0ffH
	DB	0ffH
	DB	0ffH
	DB	0fbH
	DB	045H
	DB	0fbH
	DB	045H
	DB	0fbH
	DB	045H
	DB	0fbH
	DB	045H
	DB	0fbH
	DB	045H
	DB	0fbH
	DB	045H
	DB	075H
	DB	014H
	DB	055H
	DB	0cH
	DB	0dfH
	DB	0ffH
	DB	0dfH
	DB	0ffH
	DB	0dfH
	DB	0ffH
	DB	0dfH
	DB	0ffH
	DB	0fbH
	DB	045H
	DB	0fbH
	DB	045H
	DB	0fbH
	DB	045H
	DB	0fbH
	DB	045H
	DB	0fbH
	DB	045H
	DB	0fbH
	DB	045H
	DB	075H
	DB	014H
	DB	055H
	DB	0cH
	DB	0dfH
	DB	0ffH
	DB	0dfH
	DB	0ffH
	DB	0dfH
	DB	0ffH
	DB	0dfH
	DB	0ffH
	DB	0dfH
	DB	0ffH
	DB	0dfH
	DB	0ffH
	DB	0dfH
	DB	0ffH
	DB	0dfH
	DB	0ffH
	DB	0dfH
	DB	0ffH
	DB	0dfH
	DB	0ffH
	DB	0dfH
	DB	0ffH
	DB	0dfH
	DB	0ffH
	DB	0dfH
	DB	0ffH
	DB	09eH
	DB	0e7H
	DB	079H
	DB	045H
	DB	0dbH
	DB	03dH
	DB	0fbH
	DB	045H
	DB	0fbH
	DB	045H
	DB	0fbH
	DB	045H
	DB	0fbH
	DB	045H
	DB	0fbH
	DB	045H
	DB	0fbH
	DB	045H
	DB	075H
	DB	014H
	DB	055H
	DB	0cH
	DB	0dfH
	DB	0ffH
	DB	0dfH
	DB	0ffH
	DB	0dfH
	DB	0ffH
	DB	0dfH
	DB	0ffH
	DB	0fbH
	DB	045H
	DB	0fbH
	DB	045H
	DB	0fbH
	DB	045H
	DB	0fbH
	DB	045H
	DB	0fbH
	DB	045H
	DB	0fbH
	DB	045H
	DB	075H
	DB	014H
	DB	055H
	DB	0cH
	DB	0ffH
	DB	0ffH
	DB	0ffH
	DB	0ffH
	DB	0ffH
	DB	0ffH
	DB	0ffH
	DB	0ffH
	DB	0ffH
	DB	0ffH
	DB	0ffH
	DB	0ffH
	DB	0ffH
	DB	0ffH
	DB	0ffH
	DB	0ffH
	DB	0ffH
	DB	0ffH
	DB	0ffH
	DB	0ffH
	DB	0ffH
	DB	0ffH
	DB	0ffH
	DB	0ffH
	DB	0ffH
	DB	0ffH
	DB	0ffH
	DB	0ffH
	DB	0ffH
	DB	0ffH
	DB	0ffH
	DB	0ffH
	DB	0ffH
	DB	0ffH
	DB	0ffH
	DB	0ffH
	DB	0fbH
	DB	045H
	DB	0fbH
	DB	045H
	DB	0fbH
	DB	045H
	DB	0fbH
	DB	045H
	DB	0fbH
	DB	045H
	DB	0fbH
	DB	045H
	DB	075H
	DB	014H
	DB	055H
	DB	014H
	DB	0dfH
	DB	0ffH
	DB	0dfH
	DB	0ffH
	DB	0beH
	DB	0f7H
	DB	0dfH
	DB	0ffH
	DB	0fbH
	DB	045H
	DB	0fbH
	DB	045H
	DB	0fbH
	DB	045H
	DB	0fbH
	DB	045H
	DB	0fbH
	DB	045H
	DB	0fbH
	DB	045H
	DB	075H
	DB	014H
	DB	055H
	DB	014H
	DB	0dfH
	DB	0ffH
	DB	0dfH
	DB	0ffH
	DB	0beH
	DB	0f7H
	DB	0dfH
	DB	0ffH
	DB	0dfH
	DB	0ffH
	DB	0beH
	DB	0f7H
	DB	0dfH
	DB	0ffH
	DB	0dfH
	DB	0ffH
	DB	0beH
	DB	0f7H
	DB	0dfH
	DB	0ffH
	DB	0dfH
	DB	0ffH
	DB	0beH
	DB	0f7H
	DB	0fcH
	DB	0beH
	DB	059H
	DB	035H
	DB	0fbH
	DB	045H
	DB	0fbH
	DB	045H
	DB	0fbH
	DB	045H
	DB	0fbH
	DB	045H
	DB	0fbH
	DB	045H
	DB	0fbH
	DB	045H
	DB	0fbH
	DB	045H
	DB	0fbH
	DB	045H
	DB	075H
	DB	014H
	DB	055H
	DB	014H
	DB	0dfH
	DB	0ffH
	DB	0dfH
	DB	0ffH
	DB	0beH
	DB	0f7H
	DB	0dfH
	DB	0ffH
	DB	0fbH
	DB	045H
	DB	0fbH
	DB	045H
	DB	0fbH
	DB	045H
	DB	0fbH
	DB	045H
	DB	0fbH
	DB	045H
	DB	0fbH
	DB	045H
	DB	075H
	DB	014H
	DB	055H
	DB	0cH
	DB	0ffH
	DB	0ffH
	DB	0ffH
	DB	0ffH
	DB	0ffH
	DB	0ffH
	DB	0ffH
	DB	0ffH
	DB	0ffH
	DB	0ffH
	DB	0ffH
	DB	0ffH
	DB	0ffH
	DB	0ffH
	DB	0ffH
	DB	0ffH
	DB	0ffH
	DB	0ffH
	DB	0ffH
	DB	0ffH
	DB	0ffH
	DB	0ffH
	DB	0ffH
	DB	0ffH
	DB	0ffH
	DB	0ffH
	DB	0ffH
	DB	0ffH
	DB	0ffH
	DB	0ffH
	DB	0ffH
	DB	0ffH
	DB	0ffH
	DB	0ffH
	DB	0ffH
	DB	0ffH
	DB	0fbH
	DB	045H
	DB	0fbH
	DB	045H
	DB	0fbH
	DB	045H
	DB	0fbH
	DB	045H
	DB	0fbH
	DB	045H
	DB	0fbH
	DB	045H
	DB	075H
	DB	014H
	DB	055H
	DB	014H
	DB	0ffH
	DB	0ffH
	DB	0dfH
	DB	0ffH
	DB	0beH
	DB	0f7H
	DB	0ffH
	DB	0ffH
	DB	0fbH
	DB	045H
	DB	0fbH
	DB	045H
	DB	0fbH
	DB	045H
	DB	0fbH
	DB	045H
	DB	0fbH
	DB	045H
	DB	0fbH
	DB	045H
	DB	075H
	DB	014H
	DB	055H
	DB	014H
	DB	0ffH
	DB	0ffH
	DB	0dfH
	DB	0ffH
	DB	0beH
	DB	0f7H
	DB	0ffH
	DB	0ffH
	DB	0dfH
	DB	0ffH
	DB	0beH
	DB	0f7H
	DB	0ffH
	DB	0ffH
	DB	0dfH
	DB	0ffH
	DB	0beH
	DB	0f7H
	DB	0ffH
	DB	0ffH
	DB	0ffH
	DB	0ffH
	DB	01aH
	DB	07eH
	DB	09aH
	DB	035H
	DB	0fbH
	DB	045H
	DB	0fbH
	DB	045H
	DB	0fbH
	DB	045H
	DB	0fbH
	DB	045H
	DB	0fbH
	DB	045H
	DB	0fbH
	DB	045H
	DB	0fbH
	DB	045H
	DB	0fbH
	DB	045H
	DB	0fbH
	DB	045H
	DB	075H
	DB	014H
	DB	055H
	DB	014H
	DB	0ffH
	DB	0ffH
	DB	0dfH
	DB	0ffH
	DB	0beH
	DB	0f7H
	DB	0ffH
	DB	0ffH
	DB	0fbH
	DB	045H
	DB	0fbH
	DB	045H
	DB	0fbH
	DB	045H
	DB	0fbH
	DB	045H
	DB	0fbH
	DB	045H
	DB	0fbH
	DB	045H
	DB	075H
	DB	014H
	DB	055H
	DB	014H
	DB	0ffH
	DB	0ffH
	DB	0ffH
	DB	0ffH
	DB	0ffH
	DB	0ffH
	DB	0ffH
	DB	0ffH
	DB	0ffH
	DB	0ffH
	DB	0ffH
	DB	0ffH
	DB	0ffH
	DB	0ffH
	DB	0ffH
	DB	0ffH
	DB	0ffH
	DB	0ffH
	DB	0ffH
	DB	0ffH
	DB	0ffH
	DB	0ffH
	DB	0ffH
	DB	0ffH
	DB	0ffH
	DB	0ffH
	DB	0ffH
	DB	0ffH
	DB	0ffH
	DB	0ffH
	DB	0ffH
	DB	0ffH
	DB	0ffH
	DB	0ffH
	DB	0ffH
	DB	0ffH
	DB	0fbH
	DB	045H
	DB	0fbH
	DB	045H
	DB	0fbH
	DB	045H
	DB	0fbH
	DB	045H
	DB	0fbH
	DB	045H
	DB	0fbH
	DB	045H
	DB	075H
	DB	014H
	DB	055H
	DB	0cH
	DB	0dfH
	DB	0ffH
	DB	0dfH
	DB	0ffH
	DB	0dfH
	DB	0ffH
	DB	0dfH
	DB	0ffH
	DB	0fbH
	DB	045H
	DB	0fbH
	DB	045H
	DB	0fbH
	DB	045H
	DB	0fbH
	DB	045H
	DB	0fbH
	DB	045H
	DB	0fbH
	DB	045H
	DB	075H
	DB	014H
	DB	055H
	DB	0cH
	DB	0dfH
	DB	0ffH
	DB	0dfH
	DB	0ffH
	DB	0dfH
	DB	0ffH
	DB	0dfH
	DB	0ffH
	DB	0dfH
	DB	0ffH
	DB	0dfH
	DB	0ffH
	DB	0dfH
	DB	0ffH
	DB	0dfH
	DB	0ffH
	DB	0dfH
	DB	0ffH
	DB	09eH
	DB	0e7H
	DB	079H
	DB	04dH
	DB	0dbH
	DB	03dH
	DB	0fbH
	DB	045H
	DB	0fbH
	DB	045H
	DB	0fbH
	DB	045H
	DB	0fbH
	DB	045H
	DB	0fbH
	DB	045H
	DB	0fbH
	DB	045H
	DB	0fbH
	DB	045H
	DB	0fbH
	DB	045H
	DB	0fbH
	DB	045H
	DB	0fbH
	DB	045H
	DB	075H
	DB	014H
	DB	055H
	DB	0cH
	DB	0dfH
	DB	0ffH
	DB	0dfH
	DB	0ffH
	DB	0dfH
	DB	0ffH
	DB	0dfH
	DB	0ffH
	DB	0fbH
	DB	045H
	DB	0fbH
	DB	045H
	DB	0fbH
	DB	045H
	DB	0fbH
	DB	045H
	DB	0fbH
	DB	045H
	DB	0fbH
	DB	045H
	DB	075H
	DB	014H
	DB	055H
	DB	0cH
	DB	0ffH
	DB	0ffH
	DB	0ffH
	DB	0ffH
	DB	0ffH
	DB	0ffH
	DB	0ffH
	DB	0ffH
	DB	0ffH
	DB	0ffH
	DB	0ffH
	DB	0ffH
	DB	0ffH
	DB	0ffH
	DB	0ffH
	DB	0ffH
	DB	0ffH
	DB	0ffH
	DB	0ffH
	DB	0ffH
	DB	0ffH
	DB	0ffH
	DB	0ffH
	DB	0ffH
	DB	0ffH
	DB	0ffH
	DB	0ffH
	DB	0ffH
	DB	0ffH
	DB	0ffH
	DB	0ffH
	DB	0ffH
	DB	0ffH
	DB	0ffH
	DB	0ffH
	DB	0ffH
	DB	0fbH
	DB	045H
	DB	0fbH
	DB	045H
	DB	0fbH
	DB	045H
	DB	0fbH
	DB	045H
	DB	0fbH
	DB	045H
	DB	0fbH
	DB	045H
	DB	075H
	DB	014H
	DB	055H
	DB	014H
	DB	0dfH
	DB	0ffH
	DB	0dfH
	DB	0ffH
	DB	0beH
	DB	0f7H
	DB	0dfH
	DB	0ffH
	DB	0fbH
	DB	045H
	DB	0fbH
	DB	045H
	DB	0fbH
	DB	045H
	DB	0fbH
	DB	045H
	DB	0fbH
	DB	045H
	DB	0fbH
	DB	045H
	DB	075H
	DB	014H
	DB	055H
	DB	014H
	DB	0dfH
	DB	0ffH
	DB	0dfH
	DB	0ffH
	DB	0beH
	DB	0f7H
	DB	0dfH
	DB	0ffH
	DB	0dfH
	DB	0ffH
	DB	0beH
	DB	0f7H
	DB	0dfH
	DB	0ffH
	DB	0dfH
	DB	0ffH
	DB	0dfH
	DB	0f7H
	DB	0daH
	DB	055H
	DB	0fbH
	DB	045H
	DB	0fbH
	DB	045H
	DB	0fbH
	DB	045H
	DB	0fbH
	DB	045H
	DB	0fbH
	DB	045H
	DB	0fbH
	DB	045H
	DB	0fbH
	DB	045H
	DB	0fbH
	DB	045H
	DB	0fbH
	DB	045H
	DB	0fbH
	DB	045H
	DB	0fbH
	DB	045H
	DB	0fbH
	DB	045H
	DB	075H
	DB	014H
	DB	055H
	DB	014H
	DB	0dfH
	DB	0ffH
	DB	0dfH
	DB	0ffH
	DB	0beH
	DB	0f7H
	DB	0dfH
	DB	0ffH
	DB	0fbH
	DB	045H
	DB	0fbH
	DB	045H
	DB	0fbH
	DB	045H
	DB	0fbH
	DB	045H
	DB	0fbH
	DB	045H
	DB	0fbH
	DB	045H
	DB	075H
	DB	014H
	DB	055H
	DB	0cH
	DB	0ffH
	DB	0ffH
	DB	0ffH
	DB	0ffH
	DB	0ffH
	DB	0ffH
	DB	0ffH
	DB	0ffH
	DB	0ffH
	DB	0ffH
	DB	0ffH
	DB	0ffH
	DB	0ffH
	DB	0ffH
	DB	0ffH
	DB	0ffH
	DB	0ffH
	DB	0ffH
	DB	0ffH
	DB	0ffH
	DB	0ffH
	DB	0ffH
	DB	0ffH
	DB	0ffH
	DB	0ffH
	DB	0ffH
	DB	0ffH
	DB	0ffH
	DB	0ffH
	DB	0ffH
	DB	0ffH
	DB	0ffH
	DB	0ffH
	DB	0ffH
	DB	0ffH
	DB	0ffH
	DB	0fbH
	DB	045H
	DB	0fbH
	DB	045H
	DB	0fbH
	DB	045H
	DB	0fbH
	DB	045H
	DB	0fbH
	DB	045H
	DB	0fbH
	DB	045H
	DB	075H
	DB	014H
	DB	055H
	DB	014H
	DB	0ffH
	DB	0ffH
	DB	0dfH
	DB	0ffH
	DB	0beH
	DB	0f7H
	DB	0ffH
	DB	0ffH
	DB	0fbH
	DB	045H
	DB	0fbH
	DB	045H
	DB	0fbH
	DB	045H
	DB	0fbH
	DB	045H
	DB	0fbH
	DB	045H
	DB	0fbH
	DB	045H
	DB	075H
	DB	014H
	DB	055H
	DB	014H
	DB	0ffH
	DB	0ffH
	DB	0dfH
	DB	0ffH
	DB	0beH
	DB	0f7H
	DB	0ffH
	DB	0ffH
	DB	0dfH
	DB	0ffH
	DB	0beH
	DB	0f7H
	DB	0ffH
	DB	0ffH
	DB	0beH
	DB	0efH
	DB	07cH
	DB	06eH
	DB	0fbH
	DB	045H
	DB	0fbH
	DB	045H
	DB	0fbH
	DB	045H
	DB	0fbH
	DB	045H
	DB	0fbH
	DB	045H
	DB	0fbH
	DB	045H
	DB	0fbH
	DB	045H
	DB	0fbH
	DB	045H
	DB	0fbH
	DB	045H
	DB	0fbH
	DB	045H
	DB	0fbH
	DB	045H
	DB	0fbH
	DB	045H
	DB	0fbH
	DB	045H
	DB	075H
	DB	014H
	DB	055H
	DB	014H
	DB	0ffH
	DB	0ffH
	DB	0dfH
	DB	0ffH
	DB	0beH
	DB	0f7H
	DB	0ffH
	DB	0ffH
	DB	0fbH
	DB	045H
	DB	0fbH
	DB	045H
	DB	0fbH
	DB	045H
	DB	0fbH
	DB	045H
	DB	0fbH
	DB	045H
	DB	0fbH
	DB	045H
	DB	075H
	DB	014H
	DB	055H
	DB	014H
	DB	0ffH
	DB	0ffH
	DB	0ffH
	DB	0ffH
	DB	0ffH
	DB	0ffH
	DB	0ffH
	DB	0ffH
	DB	0ffH
	DB	0ffH
	DB	0ffH
	DB	0ffH
	DB	0ffH
	DB	0ffH
	DB	0ffH
	DB	0ffH
	DB	0ffH
	DB	0ffH
	DB	0ffH
	DB	0ffH
	DB	0ffH
	DB	0ffH
	DB	0ffH
	DB	0ffH
	DB	0ffH
	DB	0ffH
	DB	0ffH
	DB	0ffH
	DB	0ffH
	DB	0ffH
	DB	0ffH
	DB	0ffH
	DB	0ffH
	DB	0ffH
	DB	0ffH
	DB	0ffH
	DB	0fbH
	DB	045H
	DB	0fbH
	DB	045H
	DB	0fbH
	DB	045H
	DB	0fbH
	DB	045H
	DB	0fbH
	DB	045H
	DB	0fbH
	DB	045H
	DB	075H
	DB	014H
	DB	055H
	DB	0cH
	DB	0dfH
	DB	0ffH
	DB	0dfH
	DB	0ffH
	DB	0dfH
	DB	0ffH
	DB	0dfH
	DB	0ffH
	DB	0fbH
	DB	045H
	DB	0fbH
	DB	045H
	DB	0fbH
	DB	045H
	DB	0fbH
	DB	045H
	DB	0fbH
	DB	045H
	DB	0fbH
	DB	045H
	DB	075H
	DB	014H
	DB	055H
	DB	0cH
	DB	0dfH
	DB	0ffH
	DB	0dfH
	DB	0ffH
	DB	0dfH
	DB	0ffH
	DB	0dfH
	DB	0ffH
	DB	0dfH
	DB	0ffH
	DB	0dfH
	DB	0ffH
	DB	0dfH
	DB	0ffH
	DB	0bdH
	DB	086H
	DB	0fbH
	DB	045H
	DB	0fbH
	DB	045H
	DB	0fbH
	DB	045H
	DB	0fbH
	DB	045H
	DB	0fbH
	DB	045H
	DB	0fbH
	DB	045H
	DB	0fbH
	DB	045H
	DB	0fbH
	DB	045H
	DB	0fbH
	DB	045H
	DB	0fbH
	DB	045H
	DB	0fbH
	DB	045H
	DB	0fbH
	DB	045H
	DB	0fbH
	DB	045H
	DB	0fbH
	DB	045H
	DB	075H
	DB	014H
	DB	055H
	DB	0cH
	DB	0dfH
	DB	0ffH
	DB	0dfH
	DB	0ffH
	DB	0dfH
	DB	0ffH
	DB	0dfH
	DB	0ffH
	DB	0fbH
	DB	045H
	DB	0fbH
	DB	045H
	DB	0fbH
	DB	045H
	DB	0fbH
	DB	045H
	DB	0fbH
	DB	045H
	DB	0fbH
	DB	045H
	DB	075H
	DB	014H
	DB	055H
	DB	0cH
	DB	0ffH
	DB	0ffH
	DB	0ffH
	DB	0ffH
	DB	0ffH
	DB	0ffH
	DB	0ffH
	DB	0ffH
	DB	0ffH
	DB	0ffH
	DB	0ffH
	DB	0ffH
	DB	0ffH
	DB	0ffH
	DB	0ffH
	DB	0ffH
	DB	0ffH
	DB	0ffH
	DB	0ffH
	DB	0ffH
	DB	0ffH
	DB	0ffH
	DB	0ffH
	DB	0ffH
	DB	0ffH
	DB	0ffH
	DB	0ffH
	DB	0ffH
	DB	0ffH
	DB	0ffH
	DB	0ffH
	DB	0ffH
	DB	0ffH
	DB	0ffH
	DB	0ffH
	DB	0ffH
	DB	0fbH
	DB	045H
	DB	0fbH
	DB	045H
	DB	0fbH
	DB	045H
	DB	0fbH
	DB	045H
	DB	0fbH
	DB	045H
	DB	0fbH
	DB	045H
	DB	075H
	DB	014H
	DB	055H
	DB	014H
	DB	0dfH
	DB	0ffH
	DB	0dfH
	DB	0ffH
	DB	0beH
	DB	0f7H
	DB	0dfH
	DB	0ffH
	DB	0fbH
	DB	045H
	DB	0fbH
	DB	045H
	DB	0fbH
	DB	045H
	DB	0fbH
	DB	045H
	DB	0fbH
	DB	045H
	DB	0fbH
	DB	045H
	DB	075H
	DB	014H
	DB	055H
	DB	014H
	DB	0dfH
	DB	0ffH
	DB	0dfH
	DB	0ffH
	DB	0beH
	DB	0f7H
	DB	0dfH
	DB	0ffH
	DB	0dfH
	DB	0ffH
	DB	0beH
	DB	0f7H
	DB	0dfH
	DB	0ffH
	DB	0dfH
	DB	0ffH
	DB	01dH
	DB	0b7H
	DB	01bH
	DB	04eH
	DB	0fbH
	DB	045H
	DB	0fbH
	DB	045H
	DB	0fbH
	DB	045H
	DB	0fbH
	DB	045H
	DB	0fbH
	DB	045H
	DB	0fbH
	DB	045H
	DB	0fbH
	DB	045H
	DB	0fbH
	DB	045H
	DB	0fbH
	DB	045H
	DB	0fbH
	DB	045H
	DB	0fbH
	DB	045H
	DB	0fbH
	DB	045H
	DB	075H
	DB	014H
	DB	055H
	DB	014H
	DB	0dfH
	DB	0ffH
	DB	0dfH
	DB	0ffH
	DB	0beH
	DB	0f7H
	DB	0dfH
	DB	0ffH
	DB	0fbH
	DB	045H
	DB	0fbH
	DB	045H
	DB	0fbH
	DB	045H
	DB	0fbH
	DB	045H
	DB	0fbH
	DB	045H
	DB	0fbH
	DB	045H
	DB	075H
	DB	014H
	DB	055H
	DB	0cH
	DB	0ffH
	DB	0ffH
	DB	0ffH
	DB	0ffH
	DB	0ffH
	DB	0ffH
	DB	0ffH
	DB	0ffH
	DB	0ffH
	DB	0ffH
	DB	0ffH
	DB	0ffH
	DB	0ffH
	DB	0ffH
	DB	0ffH
	DB	0ffH
	DB	0ffH
	DB	0ffH
	DB	0ffH
	DB	0ffH
	DB	0ffH
	DB	0ffH
	DB	0ffH
	DB	0ffH
	DB	0ffH
	DB	0ffH
	DB	0ffH
	DB	0ffH
	DB	0ffH
	DB	0ffH
	DB	0ffH
	DB	0ffH
	DB	0ffH
	DB	0ffH
	DB	0ffH
	DB	0ffH
	DB	0fbH
	DB	045H
	DB	0fbH
	DB	045H
	DB	0fbH
	DB	045H
	DB	0fbH
	DB	045H
	DB	0fbH
	DB	045H
	DB	0fbH
	DB	045H
	DB	075H
	DB	014H
	DB	055H
	DB	014H
	DB	0ffH
	DB	0ffH
	DB	0dfH
	DB	0ffH
	DB	0beH
	DB	0f7H
	DB	0ffH
	DB	0ffH
	DB	0fbH
	DB	045H
	DB	0fbH
	DB	045H
	DB	0fbH
	DB	045H
	DB	0fbH
	DB	045H
	DB	0fbH
	DB	045H
	DB	0fbH
	DB	045H
	DB	075H
	DB	014H
	DB	055H
	DB	014H
	DB	0ffH
	DB	0ffH
	DB	0dfH
	DB	0ffH
	DB	0beH
	DB	0f7H
	DB	0ffH
	DB	0ffH
	DB	0dfH
	DB	0ffH
	DB	0beH
	DB	0f7H
	DB	0ffH
	DB	0ffH
	DB	0dfH
	DB	0ffH
	DB	0beH
	DB	0f7H
	DB	0dfH
	DB	0efH
	DB	09cH
	DB	07eH
	DB	0fbH
	DB	045H
	DB	0fbH
	DB	045H
	DB	0fbH
	DB	045H
	DB	0fbH
	DB	045H
	DB	0fbH
	DB	045H
	DB	0fbH
	DB	045H
	DB	0fbH
	DB	045H
	DB	0fbH
	DB	045H
	DB	0fbH
	DB	045H
	DB	0fbH
	DB	045H
	DB	0fbH
	DB	045H
	DB	075H
	DB	014H
	DB	055H
	DB	014H
	DB	0ffH
	DB	0ffH
	DB	0dfH
	DB	0ffH
	DB	0beH
	DB	0f7H
	DB	0ffH
	DB	0ffH
	DB	0fbH
	DB	045H
	DB	0fbH
	DB	045H
	DB	0fbH
	DB	045H
	DB	0fbH
	DB	045H
	DB	0fbH
	DB	045H
	DB	0fbH
	DB	045H
	DB	075H
	DB	014H
	DB	055H
	DB	014H
	DB	0ffH
	DB	0ffH
	DB	0ffH
	DB	0ffH
	DB	0ffH
	DB	0ffH
	DB	0ffH
	DB	0ffH
	DB	0ffH
	DB	0ffH
	DB	0ffH
	DB	0ffH
	DB	0ffH
	DB	0ffH
	DB	0ffH
	DB	0ffH
	DB	0ffH
	DB	0ffH
	DB	0ffH
	DB	0ffH
	DB	0ffH
	DB	0ffH
	DB	0ffH
	DB	0ffH
	DB	0ffH
	DB	0ffH
	DB	0ffH
	DB	0ffH
	DB	0ffH
	DB	0ffH
	DB	0ffH
	DB	0ffH
	DB	0ffH
	DB	0ffH
	DB	0ffH
	DB	0ffH
	DB	0fbH
	DB	045H
	DB	0fbH
	DB	045H
	DB	0fbH
	DB	045H
	DB	0fbH
	DB	045H
	DB	0fbH
	DB	045H
	DB	0fbH
	DB	045H
	DB	075H
	DB	014H
	DB	055H
	DB	0cH
	DB	0dfH
	DB	0ffH
	DB	0dfH
	DB	0ffH
	DB	0dfH
	DB	0ffH
	DB	0dfH
	DB	0ffH
	DB	0fbH
	DB	045H
	DB	0fbH
	DB	045H
	DB	0fbH
	DB	045H
	DB	0fbH
	DB	045H
	DB	0fbH
	DB	045H
	DB	0fbH
	DB	045H
	DB	075H
	DB	014H
	DB	055H
	DB	0cH
	DB	0dfH
	DB	0ffH
	DB	0dfH
	DB	0ffH
	DB	0dfH
	DB	0ffH
	DB	0dfH
	DB	0ffH
	DB	0dfH
	DB	0ffH
	DB	0dfH
	DB	0ffH
	DB	0dfH
	DB	0ffH
	DB	0dfH
	DB	0ffH
	DB	0dfH
	DB	0ffH
	DB	0dfH
	DB	0ffH
	DB	0dfH
	DB	0ffH
	DB	05eH
	DB	0bfH
	DB	01cH
	DB	04eH
	DB	0fbH
	DB	045H
	DB	0fbH
	DB	045H
	DB	0fbH
	DB	045H
	DB	0fbH
	DB	045H
	DB	0fbH
	DB	045H
	DB	0fbH
	DB	045H
	DB	0fbH
	DB	045H
	DB	0fbH
	DB	045H
	DB	0fbH
	DB	045H
	DB	075H
	DB	014H
	DB	055H
	DB	0cH
	DB	0dfH
	DB	0ffH
	DB	0dfH
	DB	0ffH
	DB	0dfH
	DB	0ffH
	DB	0dfH
	DB	0ffH
	DB	0fbH
	DB	045H
	DB	0fbH
	DB	045H
	DB	0fbH
	DB	045H
	DB	0fbH
	DB	045H
	DB	0fbH
	DB	045H
	DB	0fbH
	DB	045H
	DB	075H
	DB	014H
	DB	055H
	DB	0cH
	DB	0ffH
	DB	0ffH
	DB	0ffH
	DB	0ffH
	DB	0ffH
	DB	0ffH
	DB	0ffH
	DB	0ffH
	DB	0ffH
	DB	0ffH
	DB	0ffH
	DB	0ffH
	DB	0ffH
	DB	0ffH
	DB	0ffH
	DB	0ffH
	DB	0ffH
	DB	0ffH
	DB	0ffH
	DB	0ffH
	DB	0ffH
	DB	0ffH
	DB	0ffH
	DB	0ffH
	DB	0ffH
	DB	0ffH
	DB	0ffH
	DB	0ffH
	DB	0ffH
	DB	0ffH
	DB	0ffH
	DB	0ffH
	DB	0ffH
	DB	0ffH
	DB	0ffH
	DB	0ffH
	DB	0fbH
	DB	045H
	DB	0fbH
	DB	045H
	DB	0fbH
	DB	045H
	DB	0fbH
	DB	045H
	DB	0fbH
	DB	045H
	DB	0fbH
	DB	045H
	DB	075H
	DB	014H
	DB	055H
	DB	014H
	DB	0dfH
	DB	0ffH
	DB	0dfH
	DB	0ffH
	DB	0beH
	DB	0f7H
	DB	0dfH
	DB	0ffH
	DB	0fbH
	DB	045H
	DB	0fbH
	DB	045H
	DB	0fbH
	DB	045H
	DB	0fbH
	DB	045H
	DB	0fbH
	DB	045H
	DB	0fbH
	DB	045H
	DB	075H
	DB	014H
	DB	055H
	DB	014H
	DB	0dfH
	DB	0ffH
	DB	0dfH
	DB	0ffH
	DB	0beH
	DB	0f7H
	DB	0dfH
	DB	0ffH
	DB	0dfH
	DB	0ffH
	DB	0beH
	DB	0f7H
	DB	0dfH
	DB	0ffH
	DB	0dfH
	DB	0ffH
	DB	0beH
	DB	0f7H
	DB	0dfH
	DB	0ffH
	DB	0dfH
	DB	0ffH
	DB	0beH
	DB	0f7H
	DB	0dfH
	DB	0efH
	DB	09cH
	DB	086H
	DB	0fbH
	DB	045H
	DB	0fbH
	DB	045H
	DB	0fbH
	DB	045H
	DB	0fbH
	DB	045H
	DB	0fbH
	DB	045H
	DB	0fbH
	DB	045H
	DB	0fbH
	DB	045H
	DB	0fbH
	DB	045H
	DB	075H
	DB	014H
	DB	055H
	DB	014H
	DB	0dfH
	DB	0ffH
	DB	0dfH
	DB	0ffH
	DB	0beH
	DB	0f7H
	DB	0dfH
	DB	0ffH
	DB	0fbH
	DB	045H
	DB	0fbH
	DB	045H
	DB	0fbH
	DB	045H
	DB	0fbH
	DB	045H
	DB	0fbH
	DB	045H
	DB	0fbH
	DB	045H
	DB	075H
	DB	014H
	DB	055H
	DB	0cH
	DB	0ffH
	DB	0ffH
	DB	0ffH
	DB	0ffH
	DB	0ffH
	DB	0ffH
	DB	0ffH
	DB	0ffH
	DB	0ffH
	DB	0ffH
	DB	0ffH
	DB	0ffH
	DB	0ffH
	DB	0ffH
	DB	0ffH
	DB	0ffH
	DB	0ffH
	DB	0ffH
	DB	0ffH
	DB	0ffH
	DB	0ffH
	DB	0ffH
	DB	0ffH
	DB	0ffH
	DB	0ffH
	DB	0ffH
	DB	0ffH
	DB	0ffH
	DB	0ffH
	DB	0ffH
	DB	0ffH
	DB	0ffH
	DB	0ffH
	DB	0ffH
	DB	0ffH
	DB	0ffH
	DB	0fbH
	DB	045H
	DB	0fbH
	DB	045H
	DB	0fbH
	DB	045H
	DB	0fbH
	DB	045H
	DB	0fbH
	DB	045H
	DB	0fbH
	DB	045H
	DB	075H
	DB	014H
	DB	055H
	DB	014H
	DB	0ffH
	DB	0ffH
	DB	0dfH
	DB	0ffH
	DB	0beH
	DB	0f7H
	DB	0ffH
	DB	0ffH
	DB	0fbH
	DB	045H
	DB	0fbH
	DB	045H
	DB	0fbH
	DB	045H
	DB	0fbH
	DB	045H
	DB	0fbH
	DB	045H
	DB	0fbH
	DB	045H
	DB	075H
	DB	014H
	DB	055H
	DB	014H
	DB	0ffH
	DB	0ffH
	DB	0dfH
	DB	0ffH
	DB	0beH
	DB	0f7H
	DB	0ffH
	DB	0ffH
	DB	0dfH
	DB	0ffH
	DB	0beH
	DB	0f7H
	DB	0ffH
	DB	0ffH
	DB	0dfH
	DB	0ffH
	DB	0beH
	DB	0f7H
	DB	0ffH
	DB	0ffH
	DB	0dfH
	DB	0ffH
	DB	0beH
	DB	0f7H
	DB	0ffH
	DB	0ffH
	DB	0dfH
	DB	0f7H
	DB	0daH
	DB	055H
	DB	0fbH
	DB	045H
	DB	0fbH
	DB	045H
	DB	0fbH
	DB	045H
	DB	0fbH
	DB	045H
	DB	0fbH
	DB	045H
	DB	0fbH
	DB	045H
	DB	0fbH
	DB	045H
	DB	075H
	DB	014H
	DB	055H
	DB	014H
	DB	0ffH
	DB	0ffH
	DB	0dfH
	DB	0ffH
	DB	0beH
	DB	0f7H
	DB	0ffH
	DB	0ffH
	DB	0fbH
	DB	045H
	DB	0fbH
	DB	045H
	DB	0fbH
	DB	045H
	DB	0fbH
	DB	045H
	DB	0fbH
	DB	045H
	DB	0fbH
	DB	045H
	DB	075H
	DB	014H
	DB	055H
	DB	014H
	DB	0ffH
	DB	0ffH
	DB	0ffH
	DB	0ffH
	DB	0ffH
	DB	0ffH
	DB	0ffH
	DB	0ffH
	DB	0ffH
	DB	0ffH
	DB	0ffH
	DB	0ffH
	DB	0ffH
	DB	0ffH
	DB	0ffH
	DB	0ffH
	DB	0ffH
	DB	0ffH
	DB	0ffH
	DB	0ffH
	DB	0ffH
	DB	0ffH
	DB	0ffH
	DB	0ffH
	DB	0ffH
	DB	0ffH
	DB	0ffH
	DB	0ffH
	DB	0ffH
	DB	0ffH
	DB	0ffH
	DB	0ffH
	DB	0ffH
	DB	0ffH
	DB	0ffH
	DB	0ffH
	DB	0fbH
	DB	045H
	DB	0fbH
	DB	045H
	DB	0fbH
	DB	045H
	DB	0fbH
	DB	045H
	DB	0fbH
	DB	045H
	DB	0fbH
	DB	045H
	DB	075H
	DB	014H
	DB	055H
	DB	0cH
	DB	0dfH
	DB	0ffH
	DB	0dfH
	DB	0ffH
	DB	0dfH
	DB	0ffH
	DB	0dfH
	DB	0ffH
	DB	0fbH
	DB	045H
	DB	0fbH
	DB	045H
	DB	0fbH
	DB	045H
	DB	0fbH
	DB	045H
	DB	0fbH
	DB	045H
	DB	0fbH
	DB	045H
	DB	075H
	DB	014H
	DB	055H
	DB	0cH
	DB	0dfH
	DB	0ffH
	DB	0dfH
	DB	0ffH
	DB	0dfH
	DB	0ffH
	DB	0dfH
	DB	0ffH
	DB	0dfH
	DB	0ffH
	DB	0dfH
	DB	0ffH
	DB	0dfH
	DB	0ffH
	DB	0dfH
	DB	0ffH
	DB	0dfH
	DB	0ffH
	DB	0dfH
	DB	0ffH
	DB	0dfH
	DB	0ffH
	DB	0dfH
	DB	0ffH
	DB	09eH
	DB	0e7H
	DB	079H
	DB	03dH
	DB	0fbH
	DB	045H
	DB	0fbH
	DB	045H
	DB	0fbH
	DB	045H
	DB	0fbH
	DB	045H
	DB	0fbH
	DB	045H
	DB	0fbH
	DB	045H
	DB	0fbH
	DB	045H
	DB	0fbH
	DB	045H
	DB	075H
	DB	014H
	DB	055H
	DB	0cH
	DB	0dfH
	DB	0ffH
	DB	0dfH
	DB	0ffH
	DB	0dfH
	DB	0ffH
	DB	0dfH
	DB	0ffH
	DB	0fbH
	DB	045H
	DB	0fbH
	DB	045H
	DB	0fbH
	DB	045H
	DB	0fbH
	DB	045H
	DB	0fbH
	DB	045H
	DB	0fbH
	DB	045H
	DB	075H
	DB	014H
	DB	055H
	DB	0cH
	DB	0ffH
	DB	0ffH
	DB	0ffH
	DB	0ffH
	DB	0ffH
	DB	0ffH
	DB	0ffH
	DB	0ffH
	DB	0ffH
	DB	0ffH
	DB	0ffH
	DB	0ffH
	DB	0ffH
	DB	0ffH
	DB	0ffH
	DB	0ffH
	DB	0ffH
	DB	0ffH
	DB	0ffH
	DB	0ffH
	DB	0ffH
	DB	0ffH
	DB	0ffH
	DB	0ffH
	DB	0ffH
	DB	0ffH
	DB	0ffH
	DB	0ffH
	DB	0ffH
	DB	0ffH
	DB	0ffH
	DB	0ffH
	DB	0ffH
	DB	0ffH
	DB	0ffH
	DB	0ffH
	DB	0fbH
	DB	045H
	DB	0fbH
	DB	045H
	DB	0fbH
	DB	045H
	DB	0fbH
	DB	045H
	DB	0fbH
	DB	045H
	DB	0fbH
	DB	045H
	DB	075H
	DB	014H
	DB	055H
	DB	014H
	DB	0dfH
	DB	0ffH
	DB	0dfH
	DB	0ffH
	DB	0beH
	DB	0f7H
	DB	0dfH
	DB	0ffH
	DB	0fbH
	DB	045H
	DB	0fbH
	DB	045H
	DB	0fbH
	DB	045H
	DB	0fbH
	DB	045H
	DB	0fbH
	DB	045H
	DB	0fbH
	DB	045H
	DB	075H
	DB	014H
	DB	055H
	DB	014H
	DB	0dfH
	DB	0ffH
	DB	0dfH
	DB	0ffH
	DB	0beH
	DB	0f7H
	DB	0dfH
	DB	0ffH
	DB	0dfH
	DB	0ffH
	DB	0beH
	DB	0f7H
	DB	0dfH
	DB	0ffH
	DB	0dfH
	DB	0ffH
	DB	0beH
	DB	0f7H
	DB	0dfH
	DB	0ffH
	DB	0dfH
	DB	0ffH
	DB	0dfH
	DB	0f7H
	DB	0daH
	DB	04dH
	DB	0fbH
	DB	045H
	DB	0fbH
	DB	045H
	DB	0fbH
	DB	045H
	DB	0fbH
	DB	045H
	DB	0fbH
	DB	045H
	DB	0fbH
	DB	045H
	DB	0fbH
	DB	045H
	DB	0fbH
	DB	045H
	DB	0fbH
	DB	045H
	DB	075H
	DB	014H
	DB	055H
	DB	014H
	DB	0dfH
	DB	0ffH
	DB	0dfH
	DB	0ffH
	DB	0beH
	DB	0f7H
	DB	0dfH
	DB	0ffH
	DB	0fbH
	DB	045H
	DB	0fbH
	DB	045H
	DB	0fbH
	DB	045H
	DB	0fbH
	DB	045H
	DB	0fbH
	DB	045H
	DB	0fbH
	DB	045H
	DB	075H
	DB	014H
	DB	055H
	DB	0cH
	DB	0ffH
	DB	0ffH
	DB	0ffH
	DB	0ffH
	DB	0ffH
	DB	0ffH
	DB	0ffH
	DB	0ffH
	DB	0ffH
	DB	0ffH
	DB	0ffH
	DB	0ffH
	DB	0ffH
	DB	0ffH
	DB	0ffH
	DB	0ffH
	DB	0ffH
	DB	0ffH
	DB	0ffH
	DB	0ffH
	DB	0ffH
	DB	0ffH
	DB	0ffH
	DB	0ffH
	DB	0ffH
	DB	0ffH
	DB	0ffH
	DB	0ffH
	DB	0ffH
	DB	0ffH
	DB	0ffH
	DB	0ffH
	DB	0ffH
	DB	0ffH
	DB	0ffH
	DB	0ffH
	DB	0fbH
	DB	045H
	DB	0fbH
	DB	045H
	DB	0fbH
	DB	045H
	DB	0fbH
	DB	045H
	DB	0fbH
	DB	045H
	DB	0fbH
	DB	045H
	DB	075H
	DB	014H
	DB	055H
	DB	014H
	DB	0ffH
	DB	0ffH
	DB	0dfH
	DB	0ffH
	DB	0beH
	DB	0f7H
	DB	0ffH
	DB	0ffH
	DB	0fbH
	DB	045H
	DB	0fbH
	DB	045H
	DB	0fbH
	DB	045H
	DB	0fbH
	DB	045H
	DB	0fbH
	DB	045H
	DB	0fbH
	DB	045H
	DB	075H
	DB	014H
	DB	055H
	DB	014H
	DB	0ffH
	DB	0ffH
	DB	0dfH
	DB	0ffH
	DB	0beH
	DB	0f7H
	DB	0ffH
	DB	0ffH
	DB	0dfH
	DB	0ffH
	DB	0beH
	DB	0f7H
	DB	0ffH
	DB	0ffH
	DB	0dfH
	DB	0ffH
	DB	0beH
	DB	0f7H
	DB	0ffH
	DB	0ffH
	DB	09eH
	DB	0e7H
	DB	05cH
	DB	066H
	DB	0fbH
	DB	045H
	DB	0fbH
	DB	045H
	DB	0fbH
	DB	045H
	DB	0fbH
	DB	045H
	DB	0fbH
	DB	045H
	DB	0fbH
	DB	045H
	DB	0fbH
	DB	045H
	DB	0fbH
	DB	045H
	DB	0fbH
	DB	045H
	DB	0fbH
	DB	045H
	DB	075H
	DB	014H
	DB	055H
	DB	014H
	DB	0ffH
	DB	0ffH
	DB	0dfH
	DB	0ffH
	DB	0beH
	DB	0f7H
	DB	0ffH
	DB	0ffH
	DB	0fbH
	DB	045H
	DB	0fbH
	DB	045H
	DB	0fbH
	DB	045H
	DB	0fbH
	DB	045H
	DB	0fbH
	DB	045H
	DB	0fbH
	DB	045H
	DB	075H
	DB	014H
	DB	055H
	DB	014H
	DB	0ffH
	DB	0ffH
	DB	0ffH
	DB	0ffH
	DB	0ffH
	DB	0ffH
	DB	0ffH
	DB	0ffH
	DB	0ffH
	DB	0ffH
	DB	0ffH
	DB	0ffH
	DB	0ffH
	DB	0ffH
	DB	0ffH
	DB	0ffH
	DB	0ffH
	DB	0ffH
	DB	0ffH
	DB	0ffH
	DB	0ffH
	DB	0ffH
	DB	0ffH
	DB	0ffH
	DB	0ffH
	DB	0ffH
	DB	0ffH
	DB	0ffH
	DB	0ffH
	DB	0ffH
	DB	0ffH
	DB	0ffH
	DB	0ffH
	DB	0ffH
	DB	0ffH
	DB	0ffH
	DB	0fbH
	DB	045H
	DB	0fbH
	DB	045H
	DB	0fbH
	DB	045H
	DB	0fbH
	DB	045H
	DB	0fbH
	DB	045H
	DB	0fbH
	DB	045H
	DB	075H
	DB	014H
	DB	055H
	DB	0cH
	DB	0dfH
	DB	0ffH
	DB	0dfH
	DB	0ffH
	DB	0dfH
	DB	0ffH
	DB	0dfH
	DB	0ffH
	DB	0fbH
	DB	045H
	DB	0fbH
	DB	045H
	DB	0fbH
	DB	045H
	DB	0fbH
	DB	045H
	DB	0fbH
	DB	045H
	DB	0fbH
	DB	045H
	DB	075H
	DB	014H
	DB	055H
	DB	0cH
	DB	0dfH
	DB	0ffH
	DB	0dfH
	DB	0ffH
	DB	0dfH
	DB	0ffH
	DB	0dfH
	DB	0ffH
	DB	0dfH
	DB	0ffH
	DB	0dfH
	DB	0ffH
	DB	0dfH
	DB	0ffH
	DB	0dfH
	DB	0ffH
	DB	0dfH
	DB	0ffH
	DB	0dfH
	DB	0ffH
	DB	09cH
	DB	07eH
	DB	0fbH
	DB	045H
	DB	0fbH
	DB	045H
	DB	0fbH
	DB	045H
	DB	0fbH
	DB	045H
	DB	0fbH
	DB	045H
	DB	0fbH
	DB	045H
	DB	0fbH
	DB	045H
	DB	0fbH
	DB	045H
	DB	0fbH
	DB	045H
	DB	0fbH
	DB	045H
	DB	0fbH
	DB	045H
	DB	075H
	DB	014H
	DB	055H
	DB	0cH
	DB	0dfH
	DB	0ffH
	DB	0dfH
	DB	0ffH
	DB	0dfH
	DB	0ffH
	DB	0dfH
	DB	0ffH
	DB	0fbH
	DB	045H
	DB	0fbH
	DB	045H
	DB	0fbH
	DB	045H
	DB	0fbH
	DB	045H
	DB	0fbH
	DB	045H
	DB	0fbH
	DB	045H
	DB	075H
	DB	014H
	DB	055H
	DB	0cH
	DB	0ffH
	DB	0ffH
	DB	0ffH
	DB	0ffH
	DB	0ffH
	DB	0ffH
	DB	0ffH
	DB	0ffH
	DB	0ffH
	DB	0ffH
	DB	0ffH
	DB	0ffH
	DB	0ffH
	DB	0ffH
	DB	0ffH
	DB	0ffH
	DB	0ffH
	DB	0ffH
	DB	0ffH
	DB	0ffH
	DB	0ffH
	DB	0ffH
	DB	0ffH
	DB	0ffH
	DB	0ffH
	DB	0ffH
	DB	0ffH
	DB	0ffH
	DB	0ffH
	DB	0ffH
	DB	0ffH
	DB	0ffH
	DB	0ffH
	DB	0ffH
	DB	0ffH
	DB	0ffH
	DB	0fbH
	DB	045H
	DB	0fbH
	DB	045H
	DB	0fbH
	DB	045H
	DB	0fbH
	DB	045H
	DB	0fbH
	DB	045H
	DB	0fbH
	DB	045H
	DB	075H
	DB	014H
	DB	055H
	DB	014H
	DB	0dfH
	DB	0ffH
	DB	0dfH
	DB	0ffH
	DB	0beH
	DB	0f7H
	DB	0dfH
	DB	0ffH
	DB	0fbH
	DB	045H
	DB	0fbH
	DB	045H
	DB	0fbH
	DB	045H
	DB	0fbH
	DB	045H
	DB	0fbH
	DB	045H
	DB	0fbH
	DB	045H
	DB	075H
	DB	014H
	DB	055H
	DB	014H
	DB	0dfH
	DB	0ffH
	DB	0dfH
	DB	0ffH
	DB	0beH
	DB	0f7H
	DB	0dfH
	DB	0ffH
	DB	0dfH
	DB	0ffH
	DB	0beH
	DB	0f7H
	DB	0dfH
	DB	0ffH
	DB	0dfH
	DB	0ffH
	DB	0beH
	DB	0f7H
	DB	0dfH
	DB	0ffH
	DB	0dfH
	DB	0f7H
	DB	0bdH
	DB	086H
	DB	0fbH
	DB	045H
	DB	0fbH
	DB	045H
	DB	0fbH
	DB	045H
	DB	0fbH
	DB	045H
	DB	0fbH
	DB	045H
	DB	0fbH
	DB	045H
	DB	0fbH
	DB	045H
	DB	0fbH
	DB	045H
	DB	0fbH
	DB	045H
	DB	0fbH
	DB	045H
	DB	075H
	DB	014H
	DB	055H
	DB	014H
	DB	0dfH
	DB	0ffH
	DB	0dfH
	DB	0ffH
	DB	0beH
	DB	0f7H
	DB	0dfH
	DB	0ffH
	DB	0fbH
	DB	045H
	DB	0fbH
	DB	045H
	DB	0fbH
	DB	045H
	DB	0fbH
	DB	045H
	DB	0fbH
	DB	045H
	DB	0fbH
	DB	045H
	DB	075H
	DB	014H
	DB	055H
	DB	0cH
	DB	0ffH
	DB	0ffH
	DB	0ffH
	DB	0ffH
	DB	0ffH
	DB	0ffH
	DB	0ffH
	DB	0ffH
	DB	0ffH
	DB	0ffH
	DB	0ffH
	DB	0ffH
	DB	0ffH
	DB	0ffH
	DB	0ffH
	DB	0ffH
	DB	0ffH
	DB	0ffH
	DB	0ffH
	DB	0ffH
	DB	0ffH
	DB	0ffH
	DB	0ffH
	DB	0ffH
	DB	0ffH
	DB	0ffH
	DB	0ffH
	DB	0ffH
	DB	0ffH
	DB	0ffH
	DB	0ffH
	DB	0ffH
	DB	0ffH
	DB	0ffH
	DB	0ffH
	DB	0ffH
	DB	0fbH
	DB	045H
	DB	0fbH
	DB	045H
	DB	0fbH
	DB	045H
	DB	0fbH
	DB	045H
	DB	0fbH
	DB	045H
	DB	0fbH
	DB	045H
	DB	075H
	DB	014H
	DB	055H
	DB	014H
	DB	0ffH
	DB	0ffH
	DB	0dfH
	DB	0ffH
	DB	0beH
	DB	0f7H
	DB	0ffH
	DB	0ffH
	DB	0fbH
	DB	045H
	DB	0fbH
	DB	045H
	DB	0fbH
	DB	045H
	DB	0fbH
	DB	045H
	DB	0fbH
	DB	045H
	DB	0fbH
	DB	045H
	DB	075H
	DB	014H
	DB	055H
	DB	014H
	DB	0ffH
	DB	0ffH
	DB	0dfH
	DB	0ffH
	DB	0beH
	DB	0f7H
	DB	0ffH
	DB	0ffH
	DB	0dfH
	DB	0ffH
	DB	0beH
	DB	0f7H
	DB	0dfH
	DB	0f7H
	DB	0d9H
	DB	075H
	DB	075H
	DB	01cH
	DB	095H
	DB	01cH
	DB	0d9H
	DB	075H
	DB	0dfH
	DB	0f7H
	DB	03eH
	DB	0b7H
	DB	0fbH
	DB	045H
	DB	0fbH
	DB	045H
	DB	0fbH
	DB	045H
	DB	0fbH
	DB	045H
	DB	0fbH
	DB	045H
	DB	0fbH
	DB	045H
	DB	0fbH
	DB	045H
	DB	0fbH
	DB	045H
	DB	0fbH
	DB	045H
	DB	075H
	DB	014H
	DB	055H
	DB	014H
	DB	0ffH
	DB	0ffH
	DB	0dfH
	DB	0ffH
	DB	0beH
	DB	0f7H
	DB	0ffH
	DB	0ffH
	DB	0fbH
	DB	045H
	DB	0fbH
	DB	045H
	DB	0fbH
	DB	045H
	DB	0fbH
	DB	045H
	DB	0fbH
	DB	045H
	DB	0fbH
	DB	045H
	DB	075H
	DB	014H
	DB	055H
	DB	014H
	DB	0ffH
	DB	0ffH
	DB	0ffH
	DB	0ffH
	DB	0ffH
	DB	0ffH
	DB	0ffH
	DB	0ffH
	DB	0ffH
	DB	0ffH
	DB	0ffH
	DB	0ffH
	DB	0ffH
	DB	0ffH
	DB	0ffH
	DB	0ffH
	DB	0ffH
	DB	0ffH
	DB	0ffH
	DB	0ffH
	DB	0ffH
	DB	0ffH
	DB	0ffH
	DB	0ffH
	DB	0ffH
	DB	0ffH
	DB	0ffH
	DB	0ffH
	DB	0ffH
	DB	0ffH
	DB	0ffH
	DB	0ffH
	DB	0ffH
	DB	0ffH
	DB	0ffH
	DB	0ffH
	DB	0fbH
	DB	045H
	DB	0fbH
	DB	045H
	DB	0fbH
	DB	045H
	DB	0fbH
	DB	045H
	DB	0fbH
	DB	045H
	DB	0fbH
	DB	045H
	DB	075H
	DB	014H
	DB	055H
	DB	0cH
	DB	0dfH
	DB	0ffH
	DB	0dfH
	DB	0ffH
	DB	0dfH
	DB	0ffH
	DB	0dfH
	DB	0ffH
	DB	0fbH
	DB	045H
	DB	0fbH
	DB	045H
	DB	0fbH
	DB	045H
	DB	0fbH
	DB	045H
	DB	0fbH
	DB	045H
	DB	0fbH
	DB	045H
	DB	075H
	DB	014H
	DB	055H
	DB	0cH
	DB	0dfH
	DB	0ffH
	DB	0dfH
	DB	0ffH
	DB	0dfH
	DB	0ffH
	DB	0dfH
	DB	0ffH
	DB	0dfH
	DB	0ffH
	DB	0dfH
	DB	0ffH
	DB	0d9H
	DB	075H
	DB	075H
	DB	014H
	DB	055H
	DB	0cH
	DB	055H
	DB	0cH
	DB	075H
	DB	014H
	DB	0d9H
	DB	075H
	DB	0dfH
	DB	0ffH
	DB	07eH
	DB	0d7H
	DB	01cH
	DB	04eH
	DB	0fbH
	DB	045H
	DB	0fbH
	DB	045H
	DB	0fbH
	DB	045H
	DB	0fbH
	DB	045H
	DB	0fbH
	DB	045H
	DB	0fbH
	DB	045H
	DB	0fbH
	DB	045H
	DB	075H
	DB	014H
	DB	055H
	DB	0cH
	DB	0dfH
	DB	0ffH
	DB	0dfH
	DB	0ffH
	DB	0dfH
	DB	0ffH
	DB	0dfH
	DB	0ffH
	DB	0fbH
	DB	045H
	DB	0fbH
	DB	045H
	DB	0fbH
	DB	045H
	DB	0fbH
	DB	045H
	DB	0fbH
	DB	045H
	DB	0fbH
	DB	045H
	DB	075H
	DB	014H
	DB	055H
	DB	0cH
	DB	0ffH
	DB	0ffH
	DB	0ffH
	DB	0ffH
	DB	0ffH
	DB	0ffH
	DB	0ffH
	DB	0ffH
	DB	0ffH
	DB	0ffH
	DB	0ffH
	DB	0ffH
	DB	0ffH
	DB	0ffH
	DB	0ffH
	DB	0ffH
	DB	0ffH
	DB	0ffH
	DB	0ffH
	DB	0ffH
	DB	0ffH
	DB	0ffH
	DB	0ffH
	DB	0ffH
	DB	0ffH
	DB	0ffH
	DB	0ffH
	DB	0ffH
	DB	0ffH
	DB	0ffH
	DB	0ffH
	DB	0ffH
	DB	0ffH
	DB	0ffH
	DB	0ffH
	DB	0ffH
	DB	0fbH
	DB	045H
	DB	0fbH
	DB	045H
	DB	0fbH
	DB	045H
	DB	0fbH
	DB	045H
	DB	0fbH
	DB	045H
	DB	0fbH
	DB	045H
	DB	075H
	DB	014H
	DB	055H
	DB	014H
	DB	0dfH
	DB	0ffH
	DB	0dfH
	DB	0ffH
	DB	0beH
	DB	0f7H
	DB	0dfH
	DB	0ffH
	DB	0fbH
	DB	045H
	DB	0fbH
	DB	045H
	DB	0fbH
	DB	045H
	DB	0fbH
	DB	045H
	DB	0fbH
	DB	045H
	DB	0fbH
	DB	045H
	DB	075H
	DB	014H
	DB	055H
	DB	014H
	DB	0dfH
	DB	0ffH
	DB	0dfH
	DB	0ffH
	DB	0beH
	DB	0f7H
	DB	0dfH
	DB	0ffH
	DB	0dfH
	DB	0f7H
	DB	0bdH
	DB	08eH
	DB	0fbH
	DB	03dH
	DB	0dbH
	DB	03dH
	DB	059H
	DB	02dH
	DB	075H
	DB	014H
	DB	075H
	DB	014H
	DB	075H
	DB	01cH
	DB	0dfH
	DB	0ffH
	DB	0dfH
	DB	0ffH
	DB	09eH
	DB	0e7H
	DB	05cH
	DB	066H
	DB	0fbH
	DB	045H
	DB	0fbH
	DB	045H
	DB	0fbH
	DB	045H
	DB	0fbH
	DB	045H
	DB	0fbH
	DB	045H
	DB	0fbH
	DB	045H
	DB	075H
	DB	014H
	DB	055H
	DB	014H
	DB	0dfH
	DB	0ffH
	DB	0dfH
	DB	0ffH
	DB	0beH
	DB	0f7H
	DB	0dfH
	DB	0ffH
	DB	0fbH
	DB	045H
	DB	0fbH
	DB	045H
	DB	0fbH
	DB	045H
	DB	0fbH
	DB	045H
	DB	0fbH
	DB	045H
	DB	0fbH
	DB	045H
	DB	075H
	DB	014H
	DB	055H
	DB	0cH
	DB	0ffH
	DB	0ffH
	DB	0ffH
	DB	0ffH
	DB	0ffH
	DB	0ffH
	DB	0ffH
	DB	0ffH
	DB	0ffH
	DB	0ffH
	DB	0ffH
	DB	0ffH
	DB	0ffH
	DB	0ffH
	DB	0ffH
	DB	0ffH
	DB	0ffH
	DB	0ffH
	DB	0ffH
	DB	0ffH
	DB	0ffH
	DB	0ffH
	DB	0ffH
	DB	0ffH
	DB	0ffH
	DB	0ffH
	DB	0ffH
	DB	0ffH
	DB	0ffH
	DB	0ffH
	DB	0ffH
	DB	0ffH
	DB	0ffH
	DB	0ffH
	DB	0ffH
	DB	0ffH
	DB	0fbH
	DB	045H
	DB	0fbH
	DB	045H
	DB	0fbH
	DB	045H
	DB	0fbH
	DB	045H
	DB	0fbH
	DB	045H
	DB	0fbH
	DB	045H
	DB	075H
	DB	014H
	DB	055H
	DB	014H
	DB	0ffH
	DB	0ffH
	DB	0dfH
	DB	0ffH
	DB	0beH
	DB	0f7H
	DB	0ffH
	DB	0ffH
	DB	0fbH
	DB	045H
	DB	0fbH
	DB	045H
	DB	0fbH
	DB	045H
	DB	0fbH
	DB	045H
	DB	0fbH
	DB	045H
	DB	0fbH
	DB	045H
	DB	075H
	DB	014H
	DB	055H
	DB	014H
	DB	0ffH
	DB	0ffH
	DB	0dfH
	DB	0ffH
	DB	0beH
	DB	0f7H
	DB	0ffH
	DB	0ffH
	DB	0bdH
	DB	08eH
	DB	0fbH
	DB	045H
	DB	0fbH
	DB	045H
	DB	0fbH
	DB	045H
	DB	0fbH
	DB	045H
	DB	059H
	DB	02dH
	DB	075H
	DB	014H
	DB	075H
	DB	01cH
	DB	0ffH
	DB	0ffH
	DB	0dfH
	DB	0ffH
	DB	0beH
	DB	0f7H
	DB	0ffH
	DB	0ffH
	DB	0bdH
	DB	08eH
	DB	0fbH
	DB	045H
	DB	0fbH
	DB	045H
	DB	0fbH
	DB	045H
	DB	0fbH
	DB	045H
	DB	0fbH
	DB	045H
	DB	075H
	DB	014H
	DB	055H
	DB	014H
	DB	0ffH
	DB	0ffH
	DB	0dfH
	DB	0ffH
	DB	0beH
	DB	0f7H
	DB	0ffH
	DB	0ffH
	DB	0fbH
	DB	045H
	DB	0fbH
	DB	045H
	DB	0fbH
	DB	045H
	DB	0fbH
	DB	045H
	DB	0fbH
	DB	045H
	DB	0fbH
	DB	045H
	DB	075H
	DB	014H
	DB	055H
	DB	014H
	DB	0ffH
	DB	0ffH
	DB	0ffH
	DB	0ffH
	DB	0ffH
	DB	0ffH
	DB	0ffH
	DB	0ffH
	DB	0ffH
	DB	0ffH
	DB	0ffH
	DB	0ffH
	DB	0ffH
	DB	0ffH
	DB	0ffH
	DB	0ffH
	DB	0ffH
	DB	0ffH
	DB	0ffH
	DB	0ffH
	DB	0ffH
	DB	0ffH
	DB	0ffH
	DB	0ffH
	DB	0ffH
	DB	0ffH
	DB	0ffH
	DB	0ffH
	DB	0ffH
	DB	0ffH
	DB	0ffH
	DB	0ffH
	DB	0ffH
	DB	0ffH
	DB	0ffH
	DB	0ffH
	DB	0fbH
	DB	045H
	DB	0fbH
	DB	045H
	DB	0fbH
	DB	045H
	DB	0fbH
	DB	045H
	DB	0fbH
	DB	045H
	DB	0fbH
	DB	045H
	DB	075H
	DB	014H
	DB	055H
	DB	0cH
	DB	0dfH
	DB	0ffH
	DB	0dfH
	DB	0ffH
	DB	0dfH
	DB	0ffH
	DB	0dfH
	DB	0ffH
	DB	0fbH
	DB	045H
	DB	0fbH
	DB	045H
	DB	0fbH
	DB	045H
	DB	0fbH
	DB	045H
	DB	0fbH
	DB	045H
	DB	0fbH
	DB	045H
	DB	075H
	DB	014H
	DB	055H
	DB	014H
	DB	0dfH
	DB	0ffH
	DB	0dfH
	DB	0ffH
	DB	0dfH
	DB	0ffH
	DB	0dfH
	DB	0ffH
	DB	01bH
	DB	04eH
	DB	0fbH
	DB	045H
	DB	0fbH
	DB	045H
	DB	0fbH
	DB	045H
	DB	0fbH
	DB	045H
	DB	0fbH
	DB	03dH
	DB	075H
	DB	014H
	DB	0d9H
	DB	075H
	DB	0dfH
	DB	0ffH
	DB	0dfH
	DB	0ffH
	DB	0dfH
	DB	0ffH
	DB	0dfH
	DB	0ffH
	DB	0dfH
	DB	0ffH
	DB	01eH
	DB	0afH
	DB	0fbH
	DB	045H
	DB	0fbH
	DB	045H
	DB	0fbH
	DB	045H
	DB	0fbH
	DB	045H
	DB	037H
	DB	045H
	DB	055H
	DB	0cH
	DB	0dfH
	DB	0ffH
	DB	0dfH
	DB	0ffH
	DB	0dfH
	DB	0ffH
	DB	0dfH
	DB	0ffH
	DB	0fbH
	DB	045H
	DB	0fbH
	DB	045H
	DB	0fbH
	DB	045H
	DB	0fbH
	DB	045H
	DB	0fbH
	DB	045H
	DB	0fbH
	DB	045H
	DB	075H
	DB	014H
	DB	055H
	DB	0cH
	DB	0ffH
	DB	0ffH
	DB	0ffH
	DB	0ffH
	DB	0ffH
	DB	0ffH
	DB	0ffH
	DB	0ffH
	DB	0ffH
	DB	0ffH
	DB	0ffH
	DB	0ffH
	DB	0ffH
	DB	0ffH
	DB	0ffH
	DB	0ffH
	DB	0ffH
	DB	0ffH
	DB	0ffH
	DB	0ffH
	DB	0ffH
	DB	0ffH
	DB	0ffH
	DB	0ffH
	DB	0ffH
	DB	0ffH
	DB	0ffH
	DB	0ffH
	DB	0ffH
	DB	0ffH
	DB	0ffH
	DB	0ffH
	DB	0ffH
	DB	0ffH
	DB	0ffH
	DB	0ffH
	DB	0fbH
	DB	045H
	DB	0fbH
	DB	045H
	DB	0fbH
	DB	045H
	DB	0fbH
	DB	045H
	DB	0fbH
	DB	045H
	DB	0fbH
	DB	045H
	DB	075H
	DB	014H
	DB	055H
	DB	014H
	DB	0dfH
	DB	0ffH
	DB	0dfH
	DB	0ffH
	DB	0beH
	DB	0f7H
	DB	0dfH
	DB	0ffH
	DB	0fbH
	DB	045H
	DB	0fbH
	DB	045H
	DB	0fbH
	DB	045H
	DB	0fbH
	DB	045H
	DB	0fbH
	DB	045H
	DB	0fbH
	DB	045H
	DB	075H
	DB	014H
	DB	055H
	DB	014H
	DB	0dfH
	DB	0ffH
	DB	0dfH
	DB	0ffH
	DB	0beH
	DB	0f7H
	DB	0dfH
	DB	0ffH
	DB	01bH
	DB	04eH
	DB	0fbH
	DB	045H
	DB	0fbH
	DB	045H
	DB	0fbH
	DB	045H
	DB	0fbH
	DB	045H
	DB	0fbH
	DB	03dH
	DB	0d9H
	DB	075H
	DB	0bfH
	DB	0f7H
	DB	0dfH
	DB	0ffH
	DB	0dfH
	DB	0ffH
	DB	0beH
	DB	0f7H
	DB	0dfH
	DB	0ffH
	DB	0dfH
	DB	0ffH
	DB	0beH
	DB	0f7H
	DB	07eH
	DB	0d7H
	DB	01cH
	DB	056H
	DB	0fbH
	DB	045H
	DB	0fbH
	DB	045H
	DB	0dfH
	DB	0f7H
	DB	0b9H
	DB	06dH
	DB	0dfH
	DB	0ffH
	DB	0dfH
	DB	0ffH
	DB	0beH
	DB	0f7H
	DB	0dfH
	DB	0ffH
	DB	0fbH
	DB	045H
	DB	0fbH
	DB	045H
	DB	0fbH
	DB	045H
	DB	0fbH
	DB	045H
	DB	0fbH
	DB	045H
	DB	0fbH
	DB	045H
	DB	075H
	DB	014H
	DB	055H
	DB	014H
	DB	0ffH
	DB	0ffH
	DB	0ffH
	DB	0ffH
	DB	0ffH
	DB	0ffH
	DB	0ffH
	DB	0ffH
	DB	0ffH
	DB	0ffH
	DB	0ffH
	DB	0ffH
	DB	0ffH
	DB	0ffH
	DB	0ffH
	DB	0ffH
	DB	0ffH
	DB	0ffH
	DB	0ffH
	DB	0ffH
	DB	0ffH
	DB	0ffH
	DB	0ffH
	DB	0ffH
	DB	0ffH
	DB	0ffH
	DB	0ffH
	DB	0ffH
	DB	0ffH
	DB	0ffH
	DB	0ffH
	DB	0ffH
	DB	0ffH
	DB	0ffH
	DB	0ffH
	DB	0ffH
	DB	0fbH
	DB	045H
	DB	0fbH
	DB	045H
	DB	0fbH
	DB	045H
	DB	0fbH
	DB	045H
	DB	0fbH
	DB	045H
	DB	0fbH
	DB	045H
	DB	075H
	DB	014H
	DB	055H
	DB	014H
	DB	0ffH
	DB	0ffH
	DB	0dfH
	DB	0ffH
	DB	0beH
	DB	0f7H
	DB	0ffH
	DB	0ffH
	DB	0fbH
	DB	045H
	DB	0fbH
	DB	045H
	DB	0fbH
	DB	045H
	DB	0fbH
	DB	045H
	DB	0fbH
	DB	045H
	DB	0fbH
	DB	045H
	DB	075H
	DB	014H
	DB	055H
	DB	014H
	DB	0ffH
	DB	0ffH
	DB	0dfH
	DB	0ffH
	DB	0beH
	DB	0f7H
	DB	0ffH
	DB	0ffH
	DB	0bdH
	DB	08eH
	DB	0fbH
	DB	045H
	DB	0fbH
	DB	045H
	DB	0fbH
	DB	045H
	DB	0fbH
	DB	045H
	DB	0ddH
	DB	08eH
	DB	0dfH
	DB	0ffH
	DB	0beH
	DB	0f7H
	DB	0ffH
	DB	0ffH
	DB	0dfH
	DB	0ffH
	DB	0beH
	DB	0f7H
	DB	0ffH
	DB	0ffH
	DB	0dfH
	DB	0ffH
	DB	0beH
	DB	0f7H
	DB	0ffH
	DB	0ffH
	DB	0beH
	DB	0e7H
	DB	05cH
	DB	066H
	DB	0fbH
	DB	045H
	DB	0dfH
	DB	0ffH
	DB	0beH
	DB	0f7H
	DB	0ffH
	DB	0ffH
	DB	0dfH
	DB	0ffH
	DB	0beH
	DB	0f7H
	DB	0ffH
	DB	0ffH
	DB	0fbH
	DB	045H
	DB	0fbH
	DB	045H
	DB	0fbH
	DB	045H
	DB	0fbH
	DB	045H
	DB	0fbH
	DB	045H
	DB	0fbH
	DB	045H
	DB	075H
	DB	014H
	DB	055H
	DB	014H
	DB	0ffH
	DB	0ffH
	DB	0ffH
	DB	0ffH
	DB	0ffH
	DB	0ffH
	DB	0ffH
	DB	0ffH
	DB	0ffH
	DB	0ffH
	DB	0ffH
	DB	0ffH
	DB	0ffH
	DB	0ffH
	DB	0ffH
	DB	0ffH
	DB	0ffH
	DB	0ffH
	DB	0ffH
	DB	0ffH
	DB	0ffH
	DB	0ffH
	DB	0ffH
	DB	0ffH
	DB	0ffH
	DB	0ffH
	DB	0ffH
	DB	0ffH
	DB	0ffH
	DB	0ffH
	DB	0ffH
	DB	0ffH
	DB	0ffH
	DB	0ffH
	DB	0ffH
	DB	0ffH
	DB	0fbH
	DB	045H
	DB	0fbH
	DB	045H
	DB	0fbH
	DB	045H
	DB	0fbH
	DB	045H
	DB	0fbH
	DB	045H
	DB	0fbH
	DB	045H
	DB	075H
	DB	014H
	DB	055H
	DB	0cH
	DB	0dfH
	DB	0ffH
	DB	0dfH
	DB	0ffH
	DB	0dfH
	DB	0ffH
	DB	0dfH
	DB	0ffH
	DB	0fbH
	DB	045H
	DB	0fbH
	DB	045H
	DB	0fbH
	DB	045H
	DB	0fbH
	DB	045H
	DB	0fbH
	DB	045H
	DB	0fbH
	DB	045H
	DB	075H
	DB	014H
	DB	055H
	DB	014H
	DB	0dfH
	DB	0ffH
	DB	0dfH
	DB	0ffH
	DB	0dfH
	DB	0ffH
	DB	0dfH
	DB	0ffH
	DB	0dfH
	DB	0f7H
	DB	0ddH
	DB	08eH
	DB	01bH
	DB	04eH
	DB	01bH
	DB	04eH
	DB	0ddH
	DB	08eH
	DB	0ffH
	DB	0ffH
	DB	0dfH
	DB	0ffH
	DB	0dfH
	DB	0ffH
	DB	0dfH
	DB	0ffH
	DB	0dfH
	DB	0ffH
	DB	0dfH
	DB	0ffH
	DB	0dfH
	DB	0ffH
	DB	0dfH
	DB	0ffH
	DB	0dfH
	DB	0ffH
	DB	0dfH
	DB	0ffH
	DB	0dfH
	DB	0ffH
	DB	0ffH
	DB	0ffH
	DB	0bdH
	DB	08eH
	DB	0dfH
	DB	0ffH
	DB	0dfH
	DB	0ffH
	DB	0dfH
	DB	0ffH
	DB	0dfH
	DB	0ffH
	DB	0dfH
	DB	0ffH
	DB	0dfH
	DB	0ffH
	DB	0fbH
	DB	045H
	DB	0fbH
	DB	045H
	DB	0fbH
	DB	045H
	DB	0fbH
	DB	045H
	DB	0fbH
	DB	045H
	DB	0fbH
	DB	045H
	DB	075H
	DB	014H
	DB	055H
	DB	0cH
	DB	0ffH
	DB	0ffH
	DB	0ffH
	DB	0ffH
	DB	0ffH
	DB	0ffH
	DB	0ffH
	DB	0ffH
	DB	0ffH
	DB	0ffH
	DB	0ffH
	DB	0ffH
	DB	0ffH
	DB	0ffH
	DB	0ffH
	DB	0ffH
	DB	0ffH
	DB	0ffH
	DB	0ffH
	DB	0ffH
	DB	0ffH
	DB	0ffH
	DB	0ffH
	DB	0ffH
	DB	0ffH
	DB	0ffH
	DB	0ffH
	DB	0ffH
	DB	0ffH
	DB	0ffH
	DB	0ffH
	DB	0ffH
	DB	0ffH
	DB	0ffH
	DB	0ffH
	DB	0ffH
	DB	0fbH
	DB	045H
	DB	0fbH
	DB	045H
	DB	0fbH
	DB	045H
	DB	0fbH
	DB	045H
	DB	0fbH
	DB	045H
	DB	0fbH
	DB	045H
	DB	075H
	DB	014H
	DB	055H
	DB	014H
	DB	0dfH
	DB	0ffH
	DB	0dfH
	DB	0ffH
	DB	0beH
	DB	0f7H
	DB	0dfH
	DB	0ffH
	DB	0fbH
	DB	045H
	DB	0fbH
	DB	045H
	DB	0fbH
	DB	045H
	DB	0fbH
	DB	045H
	DB	0fbH
	DB	045H
	DB	0fbH
	DB	045H
	DB	075H
	DB	014H
	DB	055H
	DB	014H
	DB	0dfH
	DB	0ffH
	DB	0dfH
	DB	0ffH
	DB	0beH
	DB	0f7H
	DB	0dfH
	DB	0ffH
	DB	0dfH
	DB	0ffH
	DB	0beH
	DB	0f7H
	DB	0dfH
	DB	0ffH
	DB	0dfH
	DB	0ffH
	DB	0beH
	DB	0f7H
	DB	0dfH
	DB	0ffH
	DB	0dfH
	DB	0ffH
	DB	0beH
	DB	0f7H
	DB	0dfH
	DB	0ffH
	DB	0dfH
	DB	0ffH
	DB	0beH
	DB	0f7H
	DB	0dfH
	DB	0ffH
	DB	0dfH
	DB	0ffH
	DB	0beH
	DB	0f7H
	DB	0dfH
	DB	0ffH
	DB	0dfH
	DB	0ffH
	DB	0beH
	DB	0f7H
	DB	0dfH
	DB	0ffH
	DB	0dfH
	DB	0ffH
	DB	0beH
	DB	0f7H
	DB	0dfH
	DB	0ffH
	DB	0dfH
	DB	0ffH
	DB	0beH
	DB	0f7H
	DB	0dfH
	DB	0ffH
	DB	0fbH
	DB	045H
	DB	0fbH
	DB	045H
	DB	0fbH
	DB	045H
	DB	0fbH
	DB	045H
	DB	0fbH
	DB	045H
	DB	0fbH
	DB	045H
	DB	075H
	DB	014H
	DB	055H
	DB	014H
	DB	0ffH
	DB	0ffH
	DB	0ffH
	DB	0ffH
	DB	0ffH
	DB	0ffH
	DB	0ffH
	DB	0ffH
	DB	0ffH
	DB	0ffH
	DB	0ffH
	DB	0ffH
	DB	0ffH
	DB	0ffH
	DB	0ffH
	DB	0ffH
	DB	0ffH
	DB	0ffH
	DB	0ffH
	DB	0ffH
	DB	0ffH
	DB	0ffH
	DB	0ffH
	DB	0ffH
	DB	0ffH
	DB	0ffH
	DB	0ffH
	DB	0ffH
	DB	0ffH
	DB	0ffH
	DB	0ffH
	DB	0ffH
	DB	0ffH
	DB	0ffH
	DB	0ffH
	DB	0ffH
	DB	0fbH
	DB	045H
	DB	0fbH
	DB	045H
	DB	0fbH
	DB	045H
	DB	0fbH
	DB	045H
	DB	0fbH
	DB	045H
	DB	0fbH
	DB	045H
	DB	075H
	DB	014H
	DB	055H
	DB	014H
	DB	0ffH
	DB	0ffH
	DB	0dfH
	DB	0ffH
	DB	0beH
	DB	0f7H
	DB	0ffH
	DB	0ffH
	DB	0fbH
	DB	045H
	DB	0fbH
	DB	045H
	DB	0fbH
	DB	045H
	DB	0fbH
	DB	045H
	DB	0fbH
	DB	045H
	DB	0fbH
	DB	045H
	DB	075H
	DB	014H
	DB	055H
	DB	014H
	DB	0ffH
	DB	0ffH
	DB	0dfH
	DB	0ffH
	DB	0beH
	DB	0f7H
	DB	0ffH
	DB	0ffH
	DB	0dfH
	DB	0ffH
	DB	0beH
	DB	0f7H
	DB	0ffH
	DB	0ffH
	DB	0dfH
	DB	0ffH
	DB	0beH
	DB	0f7H
	DB	0ffH
	DB	0ffH
	DB	0dfH
	DB	0ffH
	DB	0beH
	DB	0f7H
	DB	0ffH
	DB	0ffH
	DB	0dfH
	DB	0ffH
	DB	0beH
	DB	0f7H
	DB	0ffH
	DB	0ffH
	DB	0dfH
	DB	0ffH
	DB	0beH
	DB	0f7H
	DB	0ffH
	DB	0ffH
	DB	0dfH
	DB	0ffH
	DB	0beH
	DB	0f7H
	DB	0ffH
	DB	0ffH
	DB	0dfH
	DB	0ffH
	DB	0beH
	DB	0f7H
	DB	0ffH
	DB	0ffH
	DB	0dfH
	DB	0ffH
	DB	0beH
	DB	0f7H
	DB	0ffH
	DB	0ffH
	DB	0fbH
	DB	045H
	DB	0fbH
	DB	045H
	DB	0fbH
	DB	045H
	DB	0fbH
	DB	045H
	DB	0fbH
	DB	045H
	DB	0fbH
	DB	045H
	DB	075H
	DB	014H
	DB	055H
	DB	014H
	DB	0ffH
	DB	0ffH
	DB	0ffH
	DB	0ffH
	DB	0ffH
	DB	0ffH
	DB	0ffH
	DB	0ffH
	DB	0ffH
	DB	0ffH
	DB	0ffH
	DB	0ffH
	DB	0ffH
	DB	0ffH
	DB	0ffH
	DB	0ffH
	DB	0ffH
	DB	0ffH
	DB	0ffH
	DB	0ffH
	DB	0ffH
	DB	0ffH
	DB	0ffH
	DB	0ffH
	DB	0ffH
	DB	0ffH
	DB	0ffH
	DB	0ffH
	DB	0ffH
	DB	0ffH
	DB	0ffH
	DB	0ffH
	DB	0ffH
	DB	0ffH
	DB	0ffH
	DB	0ffH
	DB	0fbH
	DB	045H
	DB	0fbH
	DB	045H
	DB	0fbH
	DB	045H
	DB	0fbH
	DB	045H
	DB	0fbH
	DB	045H
	DB	0fbH
	DB	045H
	DB	075H
	DB	014H
	DB	055H
	DB	0cH
	DB	0dfH
	DB	0ffH
	DB	0dfH
	DB	0ffH
	DB	0dfH
	DB	0ffH
	DB	0dfH
	DB	0ffH
	DB	0fbH
	DB	045H
	DB	0fbH
	DB	045H
	DB	0fbH
	DB	045H
	DB	0fbH
	DB	045H
	DB	0fbH
	DB	045H
	DB	0fbH
	DB	045H
	DB	075H
	DB	014H
	DB	055H
	DB	014H
	DB	0dfH
	DB	0ffH
	DB	0dfH
	DB	0ffH
	DB	0dfH
	DB	0ffH
	DB	0dfH
	DB	0ffH
	DB	0dfH
	DB	0ffH
	DB	0dfH
	DB	0ffH
	DB	0dfH
	DB	0ffH
	DB	0dfH
	DB	0ffH
	DB	0dfH
	DB	0ffH
	DB	0dfH
	DB	0ffH
	DB	0dfH
	DB	0ffH
	DB	0dfH
	DB	0ffH
	DB	0dfH
	DB	0ffH
	DB	0dfH
	DB	0ffH
	DB	0dfH
	DB	0ffH
	DB	0dfH
	DB	0ffH
	DB	0dfH
	DB	0ffH
	DB	0dfH
	DB	0ffH
	DB	0dfH
	DB	0ffH
	DB	0dfH
	DB	0ffH
	DB	0dfH
	DB	0ffH
	DB	0dfH
	DB	0ffH
	DB	0dfH
	DB	0ffH
	DB	0dfH
	DB	0ffH
	DB	0dfH
	DB	0ffH
	DB	0dfH
	DB	0ffH
	DB	0dfH
	DB	0ffH
	DB	0dfH
	DB	0ffH
	DB	0fbH
	DB	045H
	DB	0fbH
	DB	045H
	DB	0fbH
	DB	045H
	DB	0fbH
	DB	045H
	DB	0fbH
	DB	045H
	DB	0fbH
	DB	045H
	DB	075H
	DB	014H
	DB	055H
	DB	0cH
	DB	0ffH
	DB	0ffH
	DB	0ffH
	DB	0ffH
	DB	0ffH
	DB	0ffH
	DB	0ffH
	DB	0ffH
	DB	0ffH
	DB	0ffH
	DB	0ffH
	DB	0ffH
	DB	0ffH
	DB	0ffH
	DB	0ffH
	DB	0ffH
	DB	0ffH
	DB	0ffH
	DB	0ffH
	DB	0ffH
	DB	0ffH
	DB	0ffH
	DB	0ffH
	DB	0ffH
	DB	0ffH
	DB	0ffH
	DB	0ffH
	DB	0ffH
	DB	0ffH
	DB	0ffH
	DB	0ffH
	DB	0ffH
	DB	0ffH
	DB	0ffH
	DB	0ffH
	DB	0ffH
	DB	0fbH
	DB	045H
	DB	0fbH
	DB	045H
	DB	0fbH
	DB	045H
	DB	0fbH
	DB	045H
	DB	0fbH
	DB	045H
	DB	0fbH
	DB	045H
	DB	075H
	DB	014H
	DB	055H
	DB	014H
	DB	0dfH
	DB	0ffH
	DB	0dfH
	DB	0ffH
	DB	0beH
	DB	0f7H
	DB	0dfH
	DB	0ffH
	DB	0fbH
	DB	045H
	DB	0fbH
	DB	045H
	DB	0fbH
	DB	045H
	DB	0fbH
	DB	045H
	DB	0fbH
	DB	045H
	DB	0fbH
	DB	045H
	DB	075H
	DB	014H
	DB	055H
	DB	014H
	DB	0dfH
	DB	0ffH
	DB	0dfH
	DB	0ffH
	DB	0beH
	DB	0f7H
	DB	0dfH
	DB	0ffH
	DB	0dfH
	DB	0ffH
	DB	0beH
	DB	0f7H
	DB	0dfH
	DB	0ffH
	DB	0dfH
	DB	0ffH
	DB	0beH
	DB	0f7H
	DB	0dfH
	DB	0ffH
	DB	0dfH
	DB	0ffH
	DB	0beH
	DB	0f7H
	DB	0dfH
	DB	0ffH
	DB	0dfH
	DB	0ffH
	DB	0beH
	DB	0f7H
	DB	0dfH
	DB	0ffH
	DB	0dfH
	DB	0ffH
	DB	0beH
	DB	0f7H
	DB	0dfH
	DB	0ffH
	DB	0dfH
	DB	0ffH
	DB	0beH
	DB	0f7H
	DB	0dfH
	DB	0ffH
	DB	0dfH
	DB	0ffH
	DB	0beH
	DB	0f7H
	DB	0dfH
	DB	0ffH
	DB	0dfH
	DB	0ffH
	DB	0beH
	DB	0f7H
	DB	0dfH
	DB	0ffH
	DB	0fbH
	DB	045H
	DB	0fbH
	DB	045H
	DB	0fbH
	DB	045H
	DB	0fbH
	DB	045H
	DB	0fbH
	DB	045H
	DB	0fbH
	DB	045H
	DB	075H
	DB	014H
	DB	055H
	DB	014H
	DB	0ffH
	DB	0ffH
	DB	0ffH
	DB	0ffH
	DB	0ffH
	DB	0ffH
	DB	0ffH
	DB	0ffH
	DB	0ffH
	DB	0ffH
	DB	0ffH
	DB	0ffH
	DB	0ffH
	DB	0ffH
	DB	0ffH
	DB	0ffH
	DB	0ffH
	DB	0ffH
	DB	0ffH
	DB	0ffH
	DB	0ffH
	DB	0ffH
	DB	0ffH
	DB	0ffH
	DB	0ffH
	DB	0ffH
	DB	0ffH
	DB	0ffH
	DB	0ffH
	DB	0ffH
	DB	0ffH
	DB	0ffH
	DB	0ffH
	DB	0ffH
	DB	0ffH
	DB	0ffH
	DB	0fbH
	DB	045H
	DB	0fbH
	DB	045H
	DB	0fbH
	DB	045H
	DB	0fbH
	DB	045H
	DB	0fbH
	DB	045H
	DB	0fbH
	DB	045H
	DB	075H
	DB	014H
	DB	055H
	DB	014H
	DB	0ffH
	DB	0ffH
	DB	0dfH
	DB	0ffH
	DB	0beH
	DB	0f7H
	DB	0ffH
	DB	0ffH
	DB	0fbH
	DB	045H
	DB	0fbH
	DB	045H
	DB	0fbH
	DB	045H
	DB	0fbH
	DB	045H
	DB	0fbH
	DB	045H
	DB	0fbH
	DB	045H
	DB	075H
	DB	014H
	DB	055H
	DB	014H
	DB	0ffH
	DB	0ffH
	DB	0dfH
	DB	0ffH
	DB	0beH
	DB	0f7H
	DB	0ffH
	DB	0ffH
	DB	0dfH
	DB	0ffH
	DB	0beH
	DB	0f7H
	DB	0ffH
	DB	0ffH
	DB	0dfH
	DB	0ffH
	DB	0beH
	DB	0f7H
	DB	0ffH
	DB	0ffH
	DB	0dfH
	DB	0ffH
	DB	0beH
	DB	0f7H
	DB	0ffH
	DB	0ffH
	DB	0dfH
	DB	0ffH
	DB	0beH
	DB	0f7H
	DB	0ffH
	DB	0ffH
	DB	0dfH
	DB	0ffH
	DB	0beH
	DB	0f7H
	DB	0ffH
	DB	0ffH
	DB	0dfH
	DB	0ffH
	DB	0beH
	DB	0f7H
	DB	0ffH
	DB	0ffH
	DB	0dfH
	DB	0ffH
	DB	0beH
	DB	0f7H
	DB	0ffH
	DB	0ffH
	DB	0dfH
	DB	0ffH
	DB	0beH
	DB	0f7H
	DB	0ffH
	DB	0ffH
	DB	0fbH
	DB	045H
	DB	0fbH
	DB	045H
	DB	0fbH
	DB	045H
	DB	0fbH
	DB	045H
	DB	0fbH
	DB	045H
	DB	0fbH
	DB	045H
	DB	075H
	DB	014H
	DB	055H
	DB	014H
	DB	0ffH
	DB	0ffH
	DB	0ffH
	DB	0ffH
	DB	0ffH
	DB	0ffH
	DB	0ffH
	DB	0ffH
	DB	0ffH
	DB	0ffH
	DB	0ffH
	DB	0ffH
	DB	0ffH
	DB	0ffH
	DB	0ffH
	DB	0ffH
	DB	0ffH
	DB	0ffH
	DB	0ffH
	DB	0ffH
	DB	0ffH
	DB	0ffH
	DB	0ffH
	DB	0ffH
	DB	0ffH
	DB	0ffH
	DB	0ffH
	DB	0ffH
	DB	0ffH
	DB	0ffH
	DB	0ffH
	DB	0ffH
	DB	0ffH
	DB	0ffH
	DB	0ffH
	DB	0ffH
	DB	0fbH
	DB	045H
	DB	0fbH
	DB	045H
	DB	0fbH
	DB	045H
	DB	0fbH
	DB	045H
	DB	0fbH
	DB	045H
	DB	0fbH
	DB	045H
	DB	075H
	DB	014H
	DB	055H
	DB	0cH
	DB	0dfH
	DB	0ffH
	DB	0dfH
	DB	0ffH
	DB	0dfH
	DB	0ffH
	DB	0dfH
	DB	0ffH
	DB	0fbH
	DB	045H
	DB	0fbH
	DB	045H
	DB	0fbH
	DB	045H
	DB	0fbH
	DB	045H
	DB	0fbH
	DB	045H
	DB	0fbH
	DB	045H
	DB	075H
	DB	014H
	DB	055H
	DB	014H
	DB	0dfH
	DB	0ffH
	DB	0dfH
	DB	0ffH
	DB	0dfH
	DB	0ffH
	DB	0dfH
	DB	0ffH
	DB	0dfH
	DB	0ffH
	DB	0dfH
	DB	0ffH
	DB	0dfH
	DB	0ffH
	DB	0dfH
	DB	0ffH
	DB	0dfH
	DB	0ffH
	DB	0dfH
	DB	0ffH
	DB	0dfH
	DB	0ffH
	DB	0dfH
	DB	0ffH
	DB	0dfH
	DB	0ffH
	DB	0dfH
	DB	0ffH
	DB	0dfH
	DB	0ffH
	DB	0dfH
	DB	0ffH
	DB	0dfH
	DB	0ffH
	DB	0dfH
	DB	0ffH
	DB	0dfH
	DB	0ffH
	DB	0dfH
	DB	0ffH
	DB	0dfH
	DB	0ffH
	DB	0dfH
	DB	0ffH
	DB	0dfH
	DB	0ffH
	DB	0dfH
	DB	0ffH
	DB	0dfH
	DB	0ffH
	DB	0dfH
	DB	0ffH
	DB	0dfH
	DB	0ffH
	DB	0dfH
	DB	0ffH
	DB	0fbH
	DB	045H
	DB	0fbH
	DB	045H
	DB	0fbH
	DB	045H
	DB	0fbH
	DB	045H
	DB	0fbH
	DB	045H
	DB	0fbH
	DB	045H
	DB	075H
	DB	014H
	DB	055H
	DB	0cH
	DB	0ffH
	DB	0ffH
	DB	0ffH
	DB	0ffH
	DB	0ffH
	DB	0ffH
	DB	0ffH
	DB	0ffH
	DB	0ffH
	DB	0ffH
	DB	0ffH
	DB	0ffH
	DB	0ffH
	DB	0ffH
	DB	0ffH
	DB	0ffH
	DB	0ffH
	DB	0ffH
	DB	0ffH
	DB	0ffH
	DB	0ffH
	DB	0ffH
	DB	0ffH
	DB	0ffH
	DB	0ffH
	DB	0ffH
	DB	0ffH
	DB	0ffH
	DB	0ffH
	DB	0ffH
	DB	0ffH
	DB	0ffH
	DB	0ffH
	DB	0ffH
	DB	0ffH
	DB	0ffH
	DB	0fbH
	DB	045H
	DB	0fbH
	DB	045H
	DB	0fbH
	DB	045H
	DB	0fbH
	DB	045H
	DB	0fbH
	DB	045H
	DB	0fbH
	DB	045H
	DB	075H
	DB	014H
	DB	055H
	DB	014H
	DB	0dfH
	DB	0ffH
	DB	0dfH
	DB	0ffH
	DB	0beH
	DB	0f7H
	DB	0dfH
	DB	0ffH
	DB	0fbH
	DB	045H
	DB	0fbH
	DB	045H
	DB	0fbH
	DB	045H
	DB	0fbH
	DB	045H
	DB	0fbH
	DB	045H
	DB	0fbH
	DB	045H
	DB	075H
	DB	014H
	DB	055H
	DB	014H
	DB	0dfH
	DB	0ffH
	DB	0dfH
	DB	0ffH
	DB	0beH
	DB	0f7H
	DB	0dfH
	DB	0ffH
	DB	0dfH
	DB	0ffH
	DB	0beH
	DB	0f7H
	DB	0dfH
	DB	0ffH
	DB	0dfH
	DB	0ffH
	DB	0beH
	DB	0f7H
	DB	0dfH
	DB	0ffH
	DB	0dfH
	DB	0ffH
	DB	0beH
	DB	0f7H
	DB	0dfH
	DB	0ffH
	DB	0dfH
	DB	0ffH
	DB	0beH
	DB	0f7H
	DB	0dfH
	DB	0ffH
	DB	0dfH
	DB	0ffH
	DB	0beH
	DB	0f7H
	DB	0dfH
	DB	0ffH
	DB	0dfH
	DB	0ffH
	DB	0beH
	DB	0f7H
	DB	0dfH
	DB	0ffH
	DB	0dfH
	DB	0ffH
	DB	0beH
	DB	0f7H
	DB	0dfH
	DB	0ffH
	DB	0dfH
	DB	0ffH
	DB	0beH
	DB	0f7H
	DB	0dfH
	DB	0ffH
	DB	0fbH
	DB	045H
	DB	0fbH
	DB	045H
	DB	0fbH
	DB	045H
	DB	0fbH
	DB	045H
	DB	0fbH
	DB	045H
	DB	0fbH
	DB	045H
	DB	075H
	DB	014H
	DB	055H
	DB	014H
	DB	0ffH
	DB	0ffH
	DB	0ffH
	DB	0ffH
	DB	0ffH
	DB	0ffH
	DB	0ffH
	DB	0ffH
	DB	0ffH
	DB	0ffH
	DB	0ffH
	DB	0ffH
	DB	0ffH
	DB	0ffH
	DB	0ffH
	DB	0ffH
	DB	0ffH
	DB	0ffH
	DB	0ffH
	DB	0ffH
	DB	0ffH
	DB	0ffH
	DB	0ffH
	DB	0ffH
	DB	0ffH
	DB	0ffH
	DB	0ffH
	DB	0ffH
	DB	0ffH
	DB	0ffH
	DB	0ffH
	DB	0ffH
	DB	0ffH
	DB	0ffH
	DB	0ffH
	DB	0ffH
	DB	0fbH
	DB	045H
	DB	0fbH
	DB	045H
	DB	0fbH
	DB	045H
	DB	0fbH
	DB	045H
	DB	0fbH
	DB	045H
	DB	0fbH
	DB	045H
	DB	075H
	DB	014H
	DB	055H
	DB	014H
	DB	0ffH
	DB	0ffH
	DB	0dfH
	DB	0ffH
	DB	0beH
	DB	0f7H
	DB	0ffH
	DB	0ffH
	DB	0fbH
	DB	045H
	DB	0fbH
	DB	045H
	DB	0fbH
	DB	045H
	DB	0fbH
	DB	045H
	DB	0fbH
	DB	045H
	DB	0fbH
	DB	045H
	DB	075H
	DB	014H
	DB	055H
	DB	014H
	DB	075H
	DB	014H
	DB	075H
	DB	014H
	DB	055H
	DB	014H
	DB	075H
	DB	014H
	DB	075H
	DB	014H
	DB	055H
	DB	014H
	DB	075H
	DB	014H
	DB	075H
	DB	014H
	DB	055H
	DB	014H
	DB	075H
	DB	014H
	DB	075H
	DB	014H
	DB	055H
	DB	014H
	DB	075H
	DB	014H
	DB	075H
	DB	014H
	DB	055H
	DB	014H
	DB	075H
	DB	014H
	DB	075H
	DB	014H
	DB	055H
	DB	014H
	DB	075H
	DB	014H
	DB	075H
	DB	014H
	DB	055H
	DB	014H
	DB	075H
	DB	014H
	DB	075H
	DB	014H
	DB	055H
	DB	014H
	DB	075H
	DB	014H
	DB	075H
	DB	014H
	DB	055H
	DB	014H
	DB	075H
	DB	014H
	DB	0fbH
	DB	045H
	DB	0fbH
	DB	045H
	DB	0fbH
	DB	045H
	DB	0fbH
	DB	045H
	DB	0fbH
	DB	045H
	DB	0fbH
	DB	045H
	DB	075H
	DB	014H
	DB	055H
	DB	014H
	DB	0ffH
	DB	0ffH
	DB	0ffH
	DB	0ffH
	DB	0ffH
	DB	0ffH
	DB	0ffH
	DB	0ffH
	DB	0ffH
	DB	0ffH
	DB	0ffH
	DB	0ffH
	DB	0ffH
	DB	0ffH
	DB	0ffH
	DB	0ffH
	DB	0ffH
	DB	0ffH
	DB	0ffH
	DB	0ffH
	DB	0ffH
	DB	0ffH
	DB	0ffH
	DB	0ffH
	DB	0ffH
	DB	0ffH
	DB	0ffH
	DB	0ffH
	DB	0ffH
	DB	0ffH
	DB	0ffH
	DB	0ffH
	DB	0ffH
	DB	0ffH
	DB	0ffH
	DB	0ffH
	DB	0fbH
	DB	045H
	DB	0fbH
	DB	045H
	DB	0fbH
	DB	045H
	DB	0fbH
	DB	045H
	DB	0fbH
	DB	045H
	DB	0fbH
	DB	045H
	DB	075H
	DB	014H
	DB	055H
	DB	0cH
	DB	0dfH
	DB	0ffH
	DB	0dfH
	DB	0ffH
	DB	0dfH
	DB	0ffH
	DB	0dfH
	DB	0ffH
	DB	0fbH
	DB	045H
	DB	0fbH
	DB	045H
	DB	0fbH
	DB	045H
	DB	0fbH
	DB	045H
	DB	0fbH
	DB	045H
	DB	0fbH
	DB	045H
	DB	075H
	DB	014H
	DB	055H
	DB	014H
	DB	055H
	DB	0cH
	DB	075H
	DB	014H
	DB	055H
	DB	014H
	DB	055H
	DB	0cH
	DB	075H
	DB	014H
	DB	055H
	DB	0cH
	DB	055H
	DB	0cH
	DB	075H
	DB	014H
	DB	055H
	DB	0cH
	DB	055H
	DB	0cH
	DB	075H
	DB	014H
	DB	055H
	DB	0cH
	DB	055H
	DB	0cH
	DB	075H
	DB	014H
	DB	055H
	DB	0cH
	DB	055H
	DB	0cH
	DB	075H
	DB	014H
	DB	055H
	DB	0cH
	DB	055H
	DB	0cH
	DB	075H
	DB	014H
	DB	055H
	DB	0cH
	DB	055H
	DB	0cH
	DB	075H
	DB	014H
	DB	055H
	DB	0cH
	DB	055H
	DB	0cH
	DB	075H
	DB	014H
	DB	055H
	DB	0cH
	DB	055H
	DB	0cH
	DB	0fbH
	DB	045H
	DB	0fbH
	DB	045H
	DB	0fbH
	DB	045H
	DB	0fbH
	DB	045H
	DB	0fbH
	DB	045H
	DB	0fbH
	DB	045H
	DB	075H
	DB	014H
	DB	055H
	DB	0cH
	DB	0ffH
	DB	0ffH
	DB	0ffH
	DB	0ffH
	DB	0ffH
	DB	0ffH
	DB	0ffH
	DB	0ffH
	DB	0ffH
	DB	0ffH
	DB	0ffH
	DB	0ffH
	DB	0ffH
	DB	0ffH
	DB	0ffH
	DB	0ffH
	DB	0ffH
	DB	0ffH
	DB	0ffH
	DB	0ffH
	DB	0ffH
	DB	0ffH
	DB	0ffH
	DB	0ffH
	DB	0ffH
	DB	0ffH
	DB	0ffH
	DB	0ffH
	DB	0ffH
	DB	0ffH
	DB	0ffH
	DB	0ffH
	DB	0ffH
	DB	0ffH
	DB	0ffH
	DB	0ffH
	DB	0fbH
	DB	045H
	DB	0fbH
	DB	045H
	DB	0fbH
	DB	045H
	DB	0fbH
	DB	045H
	DB	0fbH
	DB	045H
	DB	0fbH
	DB	045H
	DB	075H
	DB	014H
	DB	055H
	DB	014H
	DB	0dfH
	DB	0ffH
	DB	0dfH
	DB	0ffH
	DB	0beH
	DB	0f7H
	DB	0dfH
	DB	0ffH
	DB	0fbH
	DB	045H
	DB	0fbH
	DB	045H
	DB	0fbH
	DB	045H
	DB	0fbH
	DB	045H
	DB	0fbH
	DB	045H
	DB	0fbH
	DB	045H
	DB	0fbH
	DB	045H
	DB	0fbH
	DB	045H
	DB	0fbH
	DB	045H
	DB	0fbH
	DB	045H
	DB	0fbH
	DB	045H
	DB	0fbH
	DB	045H
	DB	0fbH
	DB	045H
	DB	0fbH
	DB	045H
	DB	0fbH
	DB	045H
	DB	0fbH
	DB	045H
	DB	0fbH
	DB	045H
	DB	0fbH
	DB	045H
	DB	0fbH
	DB	045H
	DB	0fbH
	DB	045H
	DB	0fbH
	DB	045H
	DB	0fbH
	DB	045H
	DB	0fbH
	DB	045H
	DB	0fbH
	DB	045H
	DB	0fbH
	DB	045H
	DB	0fbH
	DB	045H
	DB	0fbH
	DB	045H
	DB	0fbH
	DB	045H
	DB	0fbH
	DB	045H
	DB	0fbH
	DB	045H
	DB	0fbH
	DB	045H
	DB	0fbH
	DB	045H
	DB	0fbH
	DB	045H
	DB	0fbH
	DB	045H
	DB	0fbH
	DB	045H
	DB	0fbH
	DB	045H
	DB	0fbH
	DB	045H
	DB	0fbH
	DB	045H
	DB	0fbH
	DB	045H
	DB	0fbH
	DB	045H
	DB	0fbH
	DB	045H
	DB	0fbH
	DB	045H
	DB	075H
	DB	014H
	DB	055H
	DB	014H
	DB	0ffH
	DB	0ffH
	DB	0ffH
	DB	0ffH
	DB	0ffH
	DB	0ffH
	DB	0ffH
	DB	0ffH
	DB	0ffH
	DB	0ffH
	DB	0ffH
	DB	0ffH
	DB	0ffH
	DB	0ffH
	DB	0ffH
	DB	0ffH
	DB	0ffH
	DB	0ffH
	DB	0ffH
	DB	0ffH
	DB	0ffH
	DB	0ffH
	DB	0ffH
	DB	0ffH
	DB	0ffH
	DB	0ffH
	DB	0ffH
	DB	0ffH
	DB	0ffH
	DB	0ffH
	DB	0ffH
	DB	0ffH
	DB	0ffH
	DB	0ffH
	DB	0ffH
	DB	0ffH
	DB	0fbH
	DB	045H
	DB	0fbH
	DB	045H
	DB	0fbH
	DB	045H
	DB	0fbH
	DB	045H
	DB	0fbH
	DB	045H
	DB	0fbH
	DB	045H
	DB	075H
	DB	014H
	DB	055H
	DB	014H
	DB	0ffH
	DB	0ffH
	DB	0dfH
	DB	0ffH
	DB	0beH
	DB	0f7H
	DB	0ffH
	DB	0ffH
	DB	0fbH
	DB	045H
	DB	0fbH
	DB	045H
	DB	0fbH
	DB	045H
	DB	0fbH
	DB	045H
	DB	0fbH
	DB	045H
	DB	0fbH
	DB	045H
	DB	0fbH
	DB	045H
	DB	0fbH
	DB	045H
	DB	0fbH
	DB	045H
	DB	0fbH
	DB	045H
	DB	0fbH
	DB	045H
	DB	0fbH
	DB	045H
	DB	0fbH
	DB	045H
	DB	0fbH
	DB	045H
	DB	0fbH
	DB	045H
	DB	0fbH
	DB	045H
	DB	0fbH
	DB	045H
	DB	0fbH
	DB	045H
	DB	0fbH
	DB	045H
	DB	0fbH
	DB	045H
	DB	0fbH
	DB	045H
	DB	0fbH
	DB	045H
	DB	0fbH
	DB	045H
	DB	0fbH
	DB	045H
	DB	0fbH
	DB	045H
	DB	0fbH
	DB	045H
	DB	0fbH
	DB	045H
	DB	0fbH
	DB	045H
	DB	0fbH
	DB	045H
	DB	0fbH
	DB	045H
	DB	0fbH
	DB	045H
	DB	0fbH
	DB	045H
	DB	0fbH
	DB	045H
	DB	0fbH
	DB	045H
	DB	0fbH
	DB	045H
	DB	0fbH
	DB	045H
	DB	0fbH
	DB	045H
	DB	0fbH
	DB	045H
	DB	0fbH
	DB	045H
	DB	0fbH
	DB	045H
	DB	0fbH
	DB	045H
	DB	0fbH
	DB	045H
	DB	075H
	DB	014H
	DB	055H
	DB	014H
	DB	0ffH
	DB	0ffH
	DB	0ffH
	DB	0ffH
	DB	0ffH
	DB	0ffH
	DB	0ffH
	DB	0ffH
	DB	0ffH
	DB	0ffH
	DB	0ffH
	DB	0ffH
	DB	0ffH
	DB	0ffH
	DB	0ffH
	DB	0ffH
	DB	0ffH
	DB	0ffH
	DB	0ffH
	DB	0ffH
	DB	0ffH
	DB	0ffH
	DB	0ffH
	DB	0ffH
	DB	0ffH
	DB	0ffH
	DB	0ffH
	DB	0ffH
	DB	0ffH
	DB	0ffH
	DB	0ffH
	DB	0ffH
	DB	0ffH
	DB	0ffH
	DB	0ffH
	DB	0ffH
	DB	0fbH
	DB	045H
	DB	0fbH
	DB	045H
	DB	0fbH
	DB	045H
	DB	0fbH
	DB	045H
	DB	0fbH
	DB	045H
	DB	0fbH
	DB	045H
	DB	075H
	DB	014H
	DB	055H
	DB	0cH
	DB	0dfH
	DB	0ffH
	DB	0dfH
	DB	0ffH
	DB	0dfH
	DB	0ffH
	DB	0dfH
	DB	0ffH
	DB	0fbH
	DB	045H
	DB	0fbH
	DB	045H
	DB	0fbH
	DB	045H
	DB	0fbH
	DB	045H
	DB	0fbH
	DB	045H
	DB	0fbH
	DB	045H
	DB	0fbH
	DB	045H
	DB	0fbH
	DB	045H
	DB	0fbH
	DB	045H
	DB	0fbH
	DB	045H
	DB	0fbH
	DB	045H
	DB	0fbH
	DB	045H
	DB	0fbH
	DB	045H
	DB	0fbH
	DB	045H
	DB	0fbH
	DB	045H
	DB	0fbH
	DB	045H
	DB	0fbH
	DB	045H
	DB	0fbH
	DB	045H
	DB	0fbH
	DB	045H
	DB	0fbH
	DB	045H
	DB	0fbH
	DB	045H
	DB	0fbH
	DB	045H
	DB	0fbH
	DB	045H
	DB	0fbH
	DB	045H
	DB	0fbH
	DB	045H
	DB	0fbH
	DB	045H
	DB	0fbH
	DB	045H
	DB	0fbH
	DB	045H
	DB	0fbH
	DB	045H
	DB	0fbH
	DB	045H
	DB	0fbH
	DB	045H
	DB	0fbH
	DB	045H
	DB	0fbH
	DB	045H
	DB	0fbH
	DB	045H
	DB	0fbH
	DB	045H
	DB	0fbH
	DB	045H
	DB	0fbH
	DB	045H
	DB	0fbH
	DB	045H
	DB	0fbH
	DB	045H
	DB	0fbH
	DB	045H
	DB	0fbH
	DB	045H
	DB	0fbH
	DB	045H
	DB	075H
	DB	014H
	DB	055H
	DB	0cH
	DB	0ffH
	DB	0ffH
	DB	0ffH
	DB	0ffH
	DB	0ffH
	DB	0ffH
	DB	0ffH
	DB	0ffH
	DB	0ffH
	DB	0ffH
	DB	0ffH
	DB	0ffH
	DB	0ffH
	DB	0ffH
	DB	0ffH
	DB	0ffH
	DB	0ffH
	DB	0ffH
	DB	0ffH
	DB	0ffH
	DB	0ffH
	DB	0ffH
	DB	0ffH
	DB	0ffH
	DB	0ffH
	DB	0ffH
	DB	0ffH
	DB	0ffH
	DB	0ffH
	DB	0ffH
	DB	0ffH
	DB	0ffH
	DB	0ffH
	DB	0ffH
	DB	0ffH
	DB	0ffH
	DB	0fbH
	DB	045H
	DB	0fbH
	DB	045H
	DB	0fbH
	DB	045H
	DB	0fbH
	DB	045H
	DB	0fbH
	DB	045H
	DB	0fbH
	DB	045H
	DB	075H
	DB	014H
	DB	055H
	DB	014H
	DB	0dfH
	DB	0ffH
	DB	0dfH
	DB	0ffH
	DB	0beH
	DB	0f7H
	DB	0dfH
	DB	0ffH
	DB	0fbH
	DB	045H
	DB	0fbH
	DB	045H
	DB	0fbH
	DB	045H
	DB	0fbH
	DB	045H
	DB	0fbH
	DB	045H
	DB	0fbH
	DB	045H
	DB	0fbH
	DB	045H
	DB	0fbH
	DB	045H
	DB	0fbH
	DB	045H
	DB	0fbH
	DB	045H
	DB	0fbH
	DB	045H
	DB	0fbH
	DB	045H
	DB	0fbH
	DB	045H
	DB	0fbH
	DB	045H
	DB	0fbH
	DB	045H
	DB	0fbH
	DB	045H
	DB	0fbH
	DB	045H
	DB	0fbH
	DB	045H
	DB	0fbH
	DB	045H
	DB	0fbH
	DB	045H
	DB	0fbH
	DB	045H
	DB	0fbH
	DB	045H
	DB	0fbH
	DB	045H
	DB	0fbH
	DB	045H
	DB	0fbH
	DB	045H
	DB	0fbH
	DB	045H
	DB	0fbH
	DB	045H
	DB	0fbH
	DB	045H
	DB	0fbH
	DB	045H
	DB	0fbH
	DB	045H
	DB	0fbH
	DB	045H
	DB	0fbH
	DB	045H
	DB	0fbH
	DB	045H
	DB	0fbH
	DB	045H
	DB	0fbH
	DB	045H
	DB	0fbH
	DB	045H
	DB	0fbH
	DB	045H
	DB	0fbH
	DB	045H
	DB	0fbH
	DB	045H
	DB	0fbH
	DB	045H
	DB	0fbH
	DB	045H
	DB	0fbH
	DB	045H
	DB	075H
	DB	014H
	DB	055H
	DB	014H
	DB	0ffH
	DB	0ffH
	DB	0ffH
	DB	0ffH
	DB	0ffH
	DB	0ffH
	DB	0ffH
	DB	0ffH
	DB	0ffH
	DB	0ffH
	DB	0ffH
	DB	0ffH
	DB	0ffH
	DB	0ffH
	DB	0ffH
	DB	0ffH
	DB	0ffH
	DB	0ffH
	DB	0ffH
	DB	0ffH
	DB	0ffH
	DB	0ffH
	DB	0ffH
	DB	0ffH
	DB	0ffH
	DB	0ffH
	DB	0ffH
	DB	0ffH
	DB	0ffH
	DB	0ffH
	DB	0ffH
	DB	0ffH
	DB	0ffH
	DB	0ffH
	DB	0ffH
	DB	0ffH
	DB	0fbH
	DB	045H
	DB	0fbH
	DB	045H
	DB	0fbH
	DB	045H
	DB	0fbH
	DB	045H
	DB	0fbH
	DB	045H
	DB	0fbH
	DB	045H
	DB	075H
	DB	014H
	DB	055H
	DB	014H
	DB	0ffH
	DB	0ffH
	DB	0dfH
	DB	0ffH
	DB	0beH
	DB	0f7H
	DB	0ffH
	DB	0ffH
	DB	0fbH
	DB	045H
	DB	0fbH
	DB	045H
	DB	0fbH
	DB	045H
	DB	0fbH
	DB	045H
	DB	0fbH
	DB	045H
	DB	0fbH
	DB	045H
	DB	0fbH
	DB	045H
	DB	0fbH
	DB	045H
	DB	0fbH
	DB	045H
	DB	0fbH
	DB	045H
	DB	0fbH
	DB	045H
	DB	0fbH
	DB	045H
	DB	0fbH
	DB	045H
	DB	0fbH
	DB	045H
	DB	0fbH
	DB	045H
	DB	0fbH
	DB	045H
	DB	0fbH
	DB	045H
	DB	0fbH
	DB	045H
	DB	0fbH
	DB	045H
	DB	0fbH
	DB	045H
	DB	0fbH
	DB	045H
	DB	0fbH
	DB	045H
	DB	0fbH
	DB	045H
	DB	0fbH
	DB	045H
	DB	0fbH
	DB	045H
	DB	0fbH
	DB	045H
	DB	0fbH
	DB	045H
	DB	0fbH
	DB	045H
	DB	0fbH
	DB	045H
	DB	0fbH
	DB	045H
	DB	0fbH
	DB	045H
	DB	0fbH
	DB	045H
	DB	0fbH
	DB	045H
	DB	0fbH
	DB	045H
	DB	0fbH
	DB	045H
	DB	0fbH
	DB	045H
	DB	0fbH
	DB	045H
	DB	0fbH
	DB	045H
	DB	0fbH
	DB	045H
	DB	0fbH
	DB	045H
	DB	0fbH
	DB	045H
	DB	0fbH
	DB	045H
	DB	0dfH
	DB	0ffH
	DB	0beH
	DB	0f7H
	DB	0ffH
	DB	0ffH
	DB	0ffH
	DB	0ffH
	DB	0ffH
	DB	0ffH
	DB	0ffH
	DB	0ffH
	DB	0ffH
	DB	0ffH
	DB	0ffH
	DB	0ffH
	DB	0ffH
	DB	0ffH
	DB	0ffH
	DB	0ffH
	DB	0ffH
	DB	0ffH
	DB	0ffH
	DB	0ffH
	DB	0ffH
	DB	0ffH
	DB	0ffH
	DB	0ffH
	DB	0ffH
	DB	0ffH
	DB	0ffH
	DB	0ffH
	DB	0ffH
	DB	0ffH
	DB	0ffH
	DB	0ffH
	DB	0ffH
	DB	0ffH
	DB	0ffH
	DB	0ffH
	DB	0fbH
	DB	045H
	DB	0fbH
	DB	045H
	DB	0fbH
	DB	045H
	DB	0fbH
	DB	045H
	DB	0fbH
	DB	045H
	DB	0fbH
	DB	045H
	DB	075H
	DB	014H
	DB	055H
	DB	0cH
	DB	0dfH
	DB	0ffH
	DB	0dfH
	DB	0ffH
	DB	0dfH
	DB	0ffH
	DB	0dfH
	DB	0ffH
	DB	0fbH
	DB	045H
	DB	0fbH
	DB	045H
	DB	0fbH
	DB	045H
	DB	0fbH
	DB	045H
	DB	0fbH
	DB	045H
	DB	0fbH
	DB	045H
	DB	0fbH
	DB	045H
	DB	0fbH
	DB	045H
	DB	0fbH
	DB	045H
	DB	0fbH
	DB	045H
	DB	0fbH
	DB	045H
	DB	0fbH
	DB	045H
	DB	0fbH
	DB	045H
	DB	0fbH
	DB	045H
	DB	0fbH
	DB	045H
	DB	0fbH
	DB	045H
	DB	0fbH
	DB	045H
	DB	0fbH
	DB	045H
	DB	0fbH
	DB	045H
	DB	0fbH
	DB	045H
	DB	0fbH
	DB	045H
	DB	0fbH
	DB	045H
	DB	0fbH
	DB	045H
	DB	0fbH
	DB	045H
	DB	0fbH
	DB	045H
	DB	0fbH
	DB	045H
	DB	0fbH
	DB	045H
	DB	0fbH
	DB	045H
	DB	0fbH
	DB	045H
	DB	0fbH
	DB	045H
	DB	0fbH
	DB	045H
	DB	0fbH
	DB	045H
	DB	0fbH
	DB	045H
	DB	0fbH
	DB	045H
	DB	0fbH
	DB	045H
	DB	0fbH
	DB	045H
	DB	0fbH
	DB	045H
	DB	0fbH
	DB	045H
	DB	0fbH
	DB	045H
	DB	0fbH
	DB	045H
	DB	0fbH
	DB	045H
	DB	0fbH
	DB	045H
	DB	0dfH
	DB	0ffH
	DB	0dfH
	DB	0ffH
	DB	0ffH
	DB	0ffH
	DB	0ffH
	DB	0ffH
	DB	0ffH
	DB	0ffH
	DB	0ffH
	DB	0ffH
	DB	0ffH
	DB	0ffH
	DB	0ffH
	DB	0ffH
	DB	0ffH
	DB	0ffH
	DB	0ffH
	DB	0ffH
	DB	0ffH
	DB	0ffH
	DB	0ffH
	DB	0ffH
	DB	0ffH
	DB	0ffH
	DB	0ffH
	DB	0ffH
	DB	0ffH
	DB	0ffH
	DB	0ffH
	DB	0ffH
	DB	0ffH
	DB	0ffH
	DB	0ffH
	DB	0ffH
	DB	0ffH
	DB	0ffH
	DB	0ffH
	DB	0ffH
	DB	0fbH
	DB	045H
	DB	0fbH
	DB	045H
	DB	0fbH
	DB	045H
	DB	0fbH
	DB	045H
	DB	0fbH
	DB	045H
	DB	0fbH
	DB	045H
	DB	075H
	DB	014H
	DB	055H
	DB	014H
	DB	0dfH
	DB	0ffH
	DB	0dfH
	DB	0ffH
	DB	0beH
	DB	0f7H
	DB	0dfH
	DB	0ffH
	DB	0dfH
	DB	0ffH
	DB	0beH
	DB	0f7H
	DB	0dfH
	DB	0ffH
	DB	0dfH
	DB	0ffH
	DB	0beH
	DB	0f7H
	DB	0dfH
	DB	0ffH
	DB	0dfH
	DB	0ffH
	DB	0beH
	DB	0f7H
	DB	0dfH
	DB	0ffH
	DB	0dfH
	DB	0ffH
	DB	0beH
	DB	0f7H
	DB	0dfH
	DB	0ffH
	DB	0dfH
	DB	0ffH
	DB	0beH
	DB	0f7H
	DB	0dfH
	DB	0ffH
	DB	0dfH
	DB	0ffH
	DB	0beH
	DB	0f7H
	DB	0dfH
	DB	0ffH
	DB	0dfH
	DB	0ffH
	DB	0beH
	DB	0f7H
	DB	0dfH
	DB	0ffH
	DB	0dfH
	DB	0ffH
	DB	0beH
	DB	0f7H
	DB	0dfH
	DB	0ffH
	DB	0dfH
	DB	0ffH
	DB	0beH
	DB	0f7H
	DB	0dfH
	DB	0ffH
	DB	0dfH
	DB	0ffH
	DB	0beH
	DB	0f7H
	DB	0dfH
	DB	0ffH
	DB	0dfH
	DB	0ffH
	DB	0beH
	DB	0f7H
	DB	0dfH
	DB	0ffH
	DB	0dfH
	DB	0ffH
	DB	0beH
	DB	0f7H
	DB	0dfH
	DB	0ffH
	DB	0dfH
	DB	0ffH
	DB	0beH
	DB	0f7H
	DB	0dfH
	DB	0ffH
	DB	0dfH
	DB	0ffH
	DB	0beH
	DB	0f7H
	DB	0dfH
	DB	0ffH
	DB	0dfH
	DB	0ffH
	DB	0beH
	DB	0f7H
	DB	0ffH
	DB	0ffH
	DB	0ffH
	DB	0ffH
	DB	0ffH
	DB	0ffH
	DB	0ffH
	DB	0ffH
	DB	0ffH
	DB	0ffH
	DB	0ffH
	DB	0ffH
	DB	0ffH
	DB	0ffH
	DB	0ffH
	DB	0ffH
	DB	0ffH
	DB	0ffH
	DB	0ffH
	DB	0ffH
	DB	0ffH
	DB	0ffH
	DB	0ffH
	DB	0ffH
	DB	0ffH
	DB	0ffH
	DB	0ffH
	DB	0ffH
	DB	0ffH
	DB	0ffH
	DB	0ffH
	DB	0ffH
	DB	0ffH
	DB	0ffH
	DB	0ffH
	DB	0ffH
	DB	0fbH
	DB	045H
	DB	0fbH
	DB	045H
	DB	0fbH
	DB	045H
	DB	0fbH
	DB	045H
	DB	0fbH
	DB	045H
	DB	0fbH
	DB	045H
	DB	075H
	DB	014H
	DB	055H
	DB	014H
	DB	0ffH
	DB	0ffH
	DB	0dfH
	DB	0ffH
	DB	0beH
	DB	0f7H
	DB	0ffH
	DB	0ffH
	DB	0dfH
	DB	0ffH
	DB	0beH
	DB	0f7H
	DB	0ffH
	DB	0ffH
	DB	0dfH
	DB	0ffH
	DB	0beH
	DB	0f7H
	DB	0ffH
	DB	0ffH
	DB	0dfH
	DB	0ffH
	DB	0beH
	DB	0f7H
	DB	0ffH
	DB	0ffH
	DB	0dfH
	DB	0ffH
	DB	0beH
	DB	0f7H
	DB	0ffH
	DB	0ffH
	DB	0dfH
	DB	0ffH
	DB	0beH
	DB	0f7H
	DB	0ffH
	DB	0ffH
	DB	0dfH
	DB	0ffH
	DB	0beH
	DB	0f7H
	DB	0ffH
	DB	0ffH
	DB	0dfH
	DB	0ffH
	DB	0beH
	DB	0f7H
	DB	0ffH
	DB	0ffH
	DB	0dfH
	DB	0ffH
	DB	0beH
	DB	0f7H
	DB	0ffH
	DB	0ffH
	DB	0dfH
	DB	0ffH
	DB	0beH
	DB	0f7H
	DB	0ffH
	DB	0ffH
	DB	0dfH
	DB	0ffH
	DB	0beH
	DB	0f7H
	DB	0ffH
	DB	0ffH
	DB	0dfH
	DB	0ffH
	DB	0beH
	DB	0f7H
	DB	0ffH
	DB	0ffH
	DB	0dfH
	DB	0ffH
	DB	0beH
	DB	0f7H
	DB	0ffH
	DB	0ffH
	DB	0dfH
	DB	0ffH
	DB	0beH
	DB	0f7H
	DB	0ffH
	DB	0ffH
	DB	0dfH
	DB	0ffH
	DB	0beH
	DB	0f7H
	DB	0ffH
	DB	0ffH
	DB	0dfH
	DB	0ffH
	DB	0beH
	DB	0f7H
	DB	0ffH
	DB	0ffH
	DB	0ffH
	DB	0ffH
	DB	0ffH
	DB	0ffH
	DB	0ffH
	DB	0ffH
	DB	0ffH
	DB	0ffH
	DB	0ffH
	DB	0ffH
	DB	0ffH
	DB	0ffH
	DB	0ffH
	DB	0ffH
	DB	0ffH
	DB	0ffH
	DB	0ffH
	DB	0ffH
	DB	0ffH
	DB	0ffH
	DB	0ffH
	DB	0ffH
	DB	0ffH
	DB	0ffH
	DB	0ffH
	DB	0ffH
	DB	0ffH
	DB	0ffH
	DB	0ffH
	DB	0ffH
	DB	0ffH
	DB	0ffH
	DB	0ffH
	DB	0ffH
	DB	0fbH
	DB	045H
	DB	0fbH
	DB	045H
	DB	0fbH
	DB	045H
	DB	0fbH
	DB	045H
	DB	0fbH
	DB	045H
	DB	0fbH
	DB	045H
	DB	075H
	DB	014H
	DB	055H
	DB	0cH
	DB	0dfH
	DB	0ffH
	DB	0dfH
	DB	0ffH
	DB	0beH
	DB	0f7H
	DB	0dfH
	DB	0ffH
	DB	0dfH
	DB	0ffH
	DB	0beH
	DB	0f7H
	DB	0dfH
	DB	0ffH
	DB	0dfH
	DB	0ffH
	DB	0beH
	DB	0f7H
	DB	0dfH
	DB	0ffH
	DB	0dfH
	DB	0ffH
	DB	0beH
	DB	0f7H
	DB	0dfH
	DB	0ffH
	DB	0dfH
	DB	0ffH
	DB	0beH
	DB	0f7H
	DB	0dfH
	DB	0ffH
	DB	0dfH
	DB	0ffH
	DB	0beH
	DB	0f7H
	DB	0dfH
	DB	0ffH
	DB	0dfH
	DB	0ffH
	DB	0beH
	DB	0f7H
	DB	0dfH
	DB	0ffH
	DB	0dfH
	DB	0ffH
	DB	0beH
	DB	0f7H
	DB	0dfH
	DB	0ffH
	DB	0dfH
	DB	0ffH
	DB	0beH
	DB	0f7H
	DB	0dfH
	DB	0ffH
	DB	0dfH
	DB	0ffH
	DB	0beH
	DB	0f7H
	DB	0dfH
	DB	0ffH
	DB	0dfH
	DB	0ffH
	DB	0beH
	DB	0f7H
	DB	0dfH
	DB	0ffH
	DB	0dfH
	DB	0ffH
	DB	0beH
	DB	0f7H
	DB	0dfH
	DB	0ffH
	DB	0dfH
	DB	0ffH
	DB	0beH
	DB	0f7H
	DB	0dfH
	DB	0ffH
	DB	0dfH
	DB	0ffH
	DB	0beH
	DB	0f7H
	DB	0dfH
	DB	0ffH
	DB	0dfH
	DB	0ffH
	DB	0beH
	DB	0f7H
	DB	0dfH
	DB	0ffH
	DB	0dfH
	DB	0ffH
	DB	0beH
	DB	0f7H
	DB	0ffH
	DB	0ffH
	DB	0ffH
	DB	0ffH
	DB	0ffH
	DB	0ffH
	DB	0ffH
	DB	0ffH
	DB	0ffH
	DB	0ffH
	DB	0ffH
	DB	0ffH
	DB	0ffH
	DB	0ffH
	DB	0ffH
	DB	0ffH
	DB	0ffH
	DB	0ffH
	DB	0ffH
	DB	0ffH
	DB	0ffH
	DB	0ffH
	DB	0ffH
	DB	0ffH
	DB	0ffH
	DB	0ffH
	DB	0ffH
	DB	0ffH
	DB	0ffH
	DB	0ffH
	DB	0ffH
	DB	0ffH
	DB	0ffH
	DB	0ffH
	DB	0ffH
	DB	0ffH
	DB	0fbH
	DB	045H
	DB	0fbH
	DB	045H
	DB	0fbH
	DB	045H
	DB	0fbH
	DB	045H
	DB	0fbH
	DB	045H
	DB	0fbH
	DB	045H
	DB	075H
	DB	014H
	DB	055H
	DB	0cH
	DB	0dfH
	DB	0ffH
	DB	0dfH
	DB	0ffH
	DB	0dfH
	DB	0ffH
	DB	0dfH
	DB	0ffH
	DB	0dfH
	DB	0ffH
	DB	0dfH
	DB	0ffH
	DB	0dfH
	DB	0ffH
	DB	0dfH
	DB	0ffH
	DB	0dfH
	DB	0ffH
	DB	0dfH
	DB	0ffH
	DB	0dfH
	DB	0ffH
	DB	0dfH
	DB	0ffH
	DB	0dfH
	DB	0ffH
	DB	0dfH
	DB	0ffH
	DB	0dfH
	DB	0ffH
	DB	0dfH
	DB	0ffH
	DB	0dfH
	DB	0ffH
	DB	0dfH
	DB	0ffH
	DB	0dfH
	DB	0ffH
	DB	0dfH
	DB	0ffH
	DB	0dfH
	DB	0ffH
	DB	0dfH
	DB	0ffH
	DB	0dfH
	DB	0ffH
	DB	0dfH
	DB	0ffH
	DB	0dfH
	DB	0ffH
	DB	0dfH
	DB	0ffH
	DB	0dfH
	DB	0ffH
	DB	0dfH
	DB	0ffH
	DB	0dfH
	DB	0ffH
	DB	0dfH
	DB	0ffH
	DB	0dfH
	DB	0ffH
	DB	0dfH
	DB	0ffH
	DB	0dfH
	DB	0ffH
	DB	0dfH
	DB	0ffH
	DB	0dfH
	DB	0ffH
	DB	0dfH
	DB	0ffH
	DB	0dfH
	DB	0ffH
	DB	0dfH
	DB	0ffH
	DB	0dfH
	DB	0ffH
	DB	0dfH
	DB	0ffH
	DB	0dfH
	DB	0ffH
	DB	0dfH
	DB	0ffH
	DB	0dfH
	DB	0ffH
	DB	0dfH
	DB	0ffH
	DB	0dfH
	DB	0ffH
	DB	0dfH
	DB	0ffH
	DB	0dfH
	DB	0ffH
	DB	0dfH
	DB	0ffH
	DB	0ffH
	DB	0ffH
	DB	0ffH
	DB	0ffH
	DB	0ffH
	DB	0ffH
	DB	0ffH
	DB	0ffH
	DB	0ffH
	DB	0ffH
	DB	0ffH
	DB	0ffH
	DB	0ffH
	DB	0ffH
	DB	0ffH
	DB	0ffH
	DB	0ffH
	DB	0ffH
	DB	0ffH
	DB	0ffH
	DB	0ffH
	DB	0ffH
	DB	0ffH
	DB	0ffH
	DB	0ffH
	DB	0ffH
	DB	0ffH
	DB	0ffH
	DB	0ffH
	DB	0ffH
	DB	0ffH
	DB	0ffH
	DB	0ffH
	DB	0ffH
	DB	0ffH
	DB	0ffH
	DB	0fbH
	DB	045H
	DB	0fbH
	DB	045H
	DB	0fbH
	DB	045H
	DB	0fbH
	DB	045H
	DB	0fbH
	DB	045H
	DB	0fbH
	DB	045H
	DB	075H
	DB	014H
	DB	055H
	DB	0cH
	DB	055H
	DB	0cH
	DB	075H
	DB	014H
	DB	055H
	DB	0cH
	DB	055H
	DB	0cH
	DB	075H
	DB	014H
	DB	055H
	DB	0cH
	DB	055H
	DB	0cH
	DB	075H
	DB	014H
	DB	055H
	DB	0cH
	DB	055H
	DB	0cH
	DB	075H
	DB	014H
	DB	055H
	DB	0cH
	DB	055H
	DB	0cH
	DB	075H
	DB	014H
	DB	055H
	DB	0cH
	DB	055H
	DB	0cH
	DB	075H
	DB	014H
	DB	055H
	DB	0cH
	DB	055H
	DB	0cH
	DB	075H
	DB	014H
	DB	055H
	DB	0cH
	DB	055H
	DB	0cH
	DB	075H
	DB	014H
	DB	055H
	DB	0cH
	DB	055H
	DB	0cH
	DB	075H
	DB	014H
	DB	055H
	DB	0cH
	DB	055H
	DB	0cH
	DB	075H
	DB	014H
	DB	055H
	DB	0cH
	DB	055H
	DB	0cH
	DB	075H
	DB	014H
	DB	055H
	DB	0cH
	DB	055H
	DB	0cH
	DB	075H
	DB	014H
	DB	055H
	DB	0cH
	DB	055H
	DB	0cH
	DB	075H
	DB	014H
	DB	055H
	DB	0cH
	DB	0dfH
	DB	0ffH
	DB	0dfH
	DB	0ffH
	DB	0dfH
	DB	0ffH
	DB	0dfH
	DB	0ffH
	DB	0dfH
	DB	0ffH
	DB	0dfH
	DB	0ffH
	DB	0dfH
	DB	0ffH
	DB	0dfH
	DB	0ffH
	DB	0dfH
	DB	0ffH
	DB	0ffH
	DB	0ffH
	DB	0ffH
	DB	0ffH
	DB	0ffH
	DB	0ffH
	DB	0ffH
	DB	0ffH
	DB	0ffH
	DB	0ffH
	DB	0ffH
	DB	0ffH
	DB	0ffH
	DB	0ffH
	DB	0ffH
	DB	0ffH
	DB	0ffH
	DB	0ffH
	DB	0ffH
	DB	0ffH
	DB	0ffH
	DB	0ffH
	DB	0ffH
	DB	0ffH
	DB	0ffH
	DB	0ffH
	DB	0ffH
	DB	0ffH
	DB	0ffH
	DB	0ffH
	DB	0ffH
	DB	0ffH
	DB	0ffH
	DB	0ffH
	DB	0ffH
	DB	0ffH
	DB	0fbH
	DB	045H
	DB	0fbH
	DB	045H
	DB	0fbH
	DB	045H
	DB	0fbH
	DB	045H
	DB	0fbH
	DB	045H
	DB	0fbH
	DB	045H
	DB	075H
	DB	014H
	DB	055H
	DB	014H
	DB	075H
	DB	014H
	DB	075H
	DB	014H
	DB	055H
	DB	014H
	DB	075H
	DB	014H
	DB	075H
	DB	014H
	DB	055H
	DB	014H
	DB	075H
	DB	014H
	DB	075H
	DB	014H
	DB	055H
	DB	014H
	DB	075H
	DB	014H
	DB	075H
	DB	014H
	DB	055H
	DB	014H
	DB	075H
	DB	014H
	DB	075H
	DB	014H
	DB	055H
	DB	014H
	DB	075H
	DB	014H
	DB	075H
	DB	014H
	DB	055H
	DB	014H
	DB	075H
	DB	014H
	DB	075H
	DB	014H
	DB	055H
	DB	014H
	DB	075H
	DB	014H
	DB	075H
	DB	014H
	DB	055H
	DB	014H
	DB	075H
	DB	014H
	DB	075H
	DB	014H
	DB	055H
	DB	014H
	DB	075H
	DB	014H
	DB	075H
	DB	014H
	DB	055H
	DB	014H
	DB	075H
	DB	014H
	DB	075H
	DB	014H
	DB	055H
	DB	014H
	DB	075H
	DB	014H
	DB	075H
	DB	014H
	DB	055H
	DB	014H
	DB	075H
	DB	014H
	DB	075H
	DB	014H
	DB	055H
	DB	014H
	DB	0ffH
	DB	0ffH
	DB	0dfH
	DB	0ffH
	DB	0beH
	DB	0f7H
	DB	0ffH
	DB	0ffH
	DB	0dfH
	DB	0ffH
	DB	0beH
	DB	0f7H
	DB	0ffH
	DB	0ffH
	DB	0dfH
	DB	0ffH
	DB	0beH
	DB	0f7H
	DB	0ffH
	DB	0ffH
	DB	0ffH
	DB	0ffH
	DB	0ffH
	DB	0ffH
	DB	0ffH
	DB	0ffH
	DB	0ffH
	DB	0ffH
	DB	0ffH
	DB	0ffH
	DB	0ffH
	DB	0ffH
	DB	0ffH
	DB	0ffH
	DB	0ffH
	DB	0ffH
	DB	0ffH
	DB	0ffH
	DB	0ffH
	DB	0ffH
	DB	0ffH
	DB	0ffH
	DB	0ffH
	DB	0ffH
	DB	0ffH
	DB	0ffH
	DB	0ffH
	DB	0ffH
	DB	0ffH
	DB	0ffH
	DB	0ffH
	DB	0ffH
	DB	0ffH
	DB	0ffH
	DB	0fbH
	DB	045H
	DB	0fbH
	DB	045H
	DB	0fbH
	DB	045H
	DB	0fbH
	DB	045H
	DB	0fbH
	DB	045H
	DB	0fbH
	DB	045H
	DB	0fbH
	DB	045H
	DB	0fbH
	DB	045H
	DB	0fbH
	DB	045H
	DB	0fbH
	DB	045H
	DB	0fbH
	DB	045H
	DB	0fbH
	DB	045H
	DB	0fbH
	DB	045H
	DB	0fbH
	DB	045H
	DB	0fbH
	DB	045H
	DB	0fbH
	DB	045H
	DB	0fbH
	DB	045H
	DB	0fbH
	DB	045H
	DB	0fbH
	DB	045H
	DB	0fbH
	DB	045H
	DB	0fbH
	DB	045H
	DB	0fbH
	DB	045H
	DB	0fbH
	DB	045H
	DB	0fbH
	DB	045H
	DB	0fbH
	DB	045H
	DB	0fbH
	DB	045H
	DB	0fbH
	DB	045H
	DB	0fbH
	DB	045H
	DB	0fbH
	DB	045H
	DB	0fbH
	DB	045H
	DB	0fbH
	DB	045H
	DB	0fbH
	DB	045H
	DB	0fbH
	DB	045H
	DB	0fbH
	DB	045H
	DB	0fbH
	DB	045H
	DB	0fbH
	DB	045H
	DB	0fbH
	DB	045H
	DB	0fbH
	DB	045H
	DB	0fbH
	DB	045H
	DB	0fbH
	DB	045H
	DB	0fbH
	DB	045H
	DB	0fbH
	DB	045H
	DB	0fbH
	DB	045H
	DB	0fbH
	DB	045H
	DB	0fbH
	DB	045H
	DB	075H
	DB	014H
	DB	055H
	DB	0cH
	DB	0ffH
	DB	0ffH
	DB	0dfH
	DB	0ffH
	DB	0dfH
	DB	0ffH
	DB	0ffH
	DB	0ffH
	DB	0dfH
	DB	0ffH
	DB	0dfH
	DB	0ffH
	DB	0ffH
	DB	0ffH
	DB	0dfH
	DB	0ffH
	DB	0dfH
	DB	0ffH
	DB	0ffH
	DB	0ffH
	DB	0ffH
	DB	0ffH
	DB	0ffH
	DB	0ffH
	DB	0ffH
	DB	0ffH
	DB	0ffH
	DB	0ffH
	DB	0ffH
	DB	0ffH
	DB	0ffH
	DB	0ffH
	DB	0ffH
	DB	0ffH
	DB	0ffH
	DB	0ffH
	DB	0ffH
	DB	0ffH
	DB	0ffH
	DB	0ffH
	DB	0ffH
	DB	0ffH
	DB	0ffH
	DB	0ffH
	DB	0ffH
	DB	0ffH
	DB	0ffH
	DB	0ffH
	DB	0ffH
	DB	0ffH
	DB	0ffH
	DB	0ffH
	DB	0ffH
	DB	0ffH
	DB	0fbH
	DB	045H
	DB	0fbH
	DB	045H
	DB	0fbH
	DB	045H
	DB	0fbH
	DB	045H
	DB	0fbH
	DB	045H
	DB	0fbH
	DB	045H
	DB	0fbH
	DB	045H
	DB	0fbH
	DB	045H
	DB	0fbH
	DB	045H
	DB	0fbH
	DB	045H
	DB	0fbH
	DB	045H
	DB	0fbH
	DB	045H
	DB	0fbH
	DB	045H
	DB	0fbH
	DB	045H
	DB	0fbH
	DB	045H
	DB	0fbH
	DB	045H
	DB	0fbH
	DB	045H
	DB	0fbH
	DB	045H
	DB	0fbH
	DB	045H
	DB	0fbH
	DB	045H
	DB	0fbH
	DB	045H
	DB	0fbH
	DB	045H
	DB	0fbH
	DB	045H
	DB	0fbH
	DB	045H
	DB	0fbH
	DB	045H
	DB	0fbH
	DB	045H
	DB	0fbH
	DB	045H
	DB	0fbH
	DB	045H
	DB	0fbH
	DB	045H
	DB	0fbH
	DB	045H
	DB	0fbH
	DB	045H
	DB	0fbH
	DB	045H
	DB	0fbH
	DB	045H
	DB	0fbH
	DB	045H
	DB	0fbH
	DB	045H
	DB	0fbH
	DB	045H
	DB	0fbH
	DB	045H
	DB	0fbH
	DB	045H
	DB	0fbH
	DB	045H
	DB	0fbH
	DB	045H
	DB	0fbH
	DB	045H
	DB	0fbH
	DB	045H
	DB	0fbH
	DB	045H
	DB	0fbH
	DB	045H
	DB	0fbH
	DB	045H
	DB	075H
	DB	014H
	DB	055H
	DB	0cH
	DB	0dfH
	DB	0ffH
	DB	0dfH
	DB	0ffH
	DB	0dfH
	DB	0ffH
	DB	0dfH
	DB	0ffH
	DB	0dfH
	DB	0ffH
	DB	0dfH
	DB	0ffH
	DB	0dfH
	DB	0ffH
	DB	0dfH
	DB	0ffH
	DB	0dfH
	DB	0ffH
	DB	0ffH
	DB	0ffH
	DB	0ffH
	DB	0ffH
	DB	0ffH
	DB	0ffH
	DB	0ffH
	DB	0ffH
	DB	0ffH
	DB	0ffH
	DB	0ffH
	DB	0ffH
	DB	0ffH
	DB	0ffH
	DB	0ffH
	DB	0ffH
	DB	0ffH
	DB	0ffH
	DB	0ffH
	DB	0ffH
	DB	0ffH
	DB	0ffH
	DB	0ffH
	DB	0ffH
	DB	0ffH
	DB	0ffH
	DB	0ffH
	DB	0ffH
	DB	0ffH
	DB	0ffH
	DB	0ffH
	DB	0ffH
	DB	0ffH
	DB	0ffH
	DB	0ffH
	DB	0ffH
	DB	0fbH
	DB	045H
	DB	0fbH
	DB	045H
	DB	0fbH
	DB	045H
	DB	0fbH
	DB	045H
	DB	0fbH
	DB	045H
	DB	0fbH
	DB	045H
	DB	0fbH
	DB	045H
	DB	0fbH
	DB	045H
	DB	0fbH
	DB	045H
	DB	0fbH
	DB	045H
	DB	0fbH
	DB	045H
	DB	0fbH
	DB	045H
	DB	0fbH
	DB	045H
	DB	0fbH
	DB	045H
	DB	0fbH
	DB	045H
	DB	0fbH
	DB	045H
	DB	0fbH
	DB	045H
	DB	0fbH
	DB	045H
	DB	0fbH
	DB	045H
	DB	0fbH
	DB	045H
	DB	0fbH
	DB	045H
	DB	0fbH
	DB	045H
	DB	0fbH
	DB	045H
	DB	0fbH
	DB	045H
	DB	0fbH
	DB	045H
	DB	0fbH
	DB	045H
	DB	0fbH
	DB	045H
	DB	0fbH
	DB	045H
	DB	0fbH
	DB	045H
	DB	0fbH
	DB	045H
	DB	0fbH
	DB	045H
	DB	0fbH
	DB	045H
	DB	0fbH
	DB	045H
	DB	0fbH
	DB	045H
	DB	0fbH
	DB	045H
	DB	0fbH
	DB	045H
	DB	0fbH
	DB	045H
	DB	0fbH
	DB	045H
	DB	0fbH
	DB	045H
	DB	0fbH
	DB	045H
	DB	0fbH
	DB	045H
	DB	0fbH
	DB	045H
	DB	0fbH
	DB	045H
	DB	0fbH
	DB	045H
	DB	0fbH
	DB	045H
	DB	075H
	DB	014H
	DB	055H
	DB	014H
	DB	0ffH
	DB	0ffH
	DB	0dfH
	DB	0ffH
	DB	0beH
	DB	0f7H
	DB	0ffH
	DB	0ffH
	DB	0dfH
	DB	0ffH
	DB	0beH
	DB	0f7H
	DB	0ffH
	DB	0ffH
	DB	0dfH
	DB	0ffH
	DB	0beH
	DB	0f7H
	DB	0ffH
	DB	0ffH
	DB	0ffH
	DB	0ffH
	DB	0ffH
	DB	0ffH
	DB	0ffH
	DB	0ffH
	DB	0ffH
	DB	0ffH
	DB	0ffH
	DB	0ffH
	DB	0ffH
	DB	0ffH
	DB	0ffH
	DB	0ffH
	DB	0ffH
	DB	0ffH
	DB	0ffH
	DB	0ffH
	DB	0ffH
	DB	0ffH
	DB	0ffH
	DB	0ffH
	DB	0ffH
	DB	0ffH
	DB	0ffH
	DB	0ffH
	DB	0ffH
	DB	0ffH
	DB	0ffH
	DB	0ffH
	DB	0ffH
	DB	0ffH
	DB	0ffH
	DB	0ffH
	DB	0fbH
	DB	045H
	DB	0fbH
	DB	045H
	DB	0fbH
	DB	045H
	DB	0fbH
	DB	045H
	DB	0fbH
	DB	045H
	DB	0fbH
	DB	045H
	DB	0fbH
	DB	045H
	DB	0fbH
	DB	045H
	DB	0fbH
	DB	045H
	DB	0fbH
	DB	045H
	DB	0fbH
	DB	045H
	DB	0fbH
	DB	045H
	DB	0fbH
	DB	045H
	DB	0fbH
	DB	045H
	DB	0fbH
	DB	045H
	DB	0fbH
	DB	045H
	DB	0fbH
	DB	045H
	DB	0fbH
	DB	045H
	DB	0fbH
	DB	045H
	DB	0fbH
	DB	045H
	DB	0fbH
	DB	045H
	DB	0fbH
	DB	045H
	DB	0fbH
	DB	045H
	DB	0fbH
	DB	045H
	DB	0fbH
	DB	045H
	DB	0fbH
	DB	045H
	DB	0fbH
	DB	045H
	DB	0fbH
	DB	045H
	DB	0fbH
	DB	045H
	DB	0fbH
	DB	045H
	DB	0fbH
	DB	045H
	DB	0fbH
	DB	045H
	DB	0fbH
	DB	045H
	DB	0fbH
	DB	045H
	DB	0fbH
	DB	045H
	DB	0fbH
	DB	045H
	DB	0fbH
	DB	045H
	DB	0fbH
	DB	045H
	DB	0fbH
	DB	045H
	DB	0fbH
	DB	045H
	DB	0fbH
	DB	045H
	DB	0fbH
	DB	045H
	DB	0fbH
	DB	045H
	DB	0fbH
	DB	045H
	DB	0fbH
	DB	045H
	DB	075H
	DB	014H
	DB	055H
	DB	0cH
	DB	0ffH
	DB	0ffH
	DB	0dfH
	DB	0ffH
	DB	0dfH
	DB	0ffH
	DB	0ffH
	DB	0ffH
	DB	0dfH
	DB	0ffH
	DB	0dfH
	DB	0ffH
	DB	0ffH
	DB	0ffH
	DB	0dfH
	DB	0ffH
	DB	0dfH
	DB	0ffH
	DB	0ffH
	DB	0ffH
	DB	0ffH
	DB	0ffH
	DB	0ffH
	DB	0ffH
	DB	0ffH
	DB	0ffH
	DB	0ffH
	DB	0ffH
	DB	0ffH
	DB	0ffH
	DB	0ffH
	DB	0ffH
	DB	0ffH
	DB	0ffH
	DB	0ffH
	DB	0ffH
	DB	0ffH
	DB	0ffH
	DB	0ffH
	DB	0ffH
	DB	0ffH
	DB	0ffH
	DB	0ffH
	DB	0ffH
	DB	0ffH
	DB	0ffH
	DB	0ffH
	DB	0ffH
	DB	0ffH
	DB	0ffH
	DB	0ffH
	DB	0ffH
	DB	0ffH
	DB	0ffH
	DB	0fbH
	DB	045H
	DB	0fbH
	DB	045H
	DB	0fbH
	DB	045H
	DB	0fbH
	DB	045H
	DB	0fbH
	DB	045H
	DB	0fbH
	DB	045H
	DB	0fbH
	DB	045H
	DB	0fbH
	DB	045H
	DB	0fbH
	DB	045H
	DB	0fbH
	DB	045H
	DB	0fbH
	DB	045H
	DB	0fbH
	DB	045H
	DB	0fbH
	DB	045H
	DB	0fbH
	DB	045H
	DB	0fbH
	DB	045H
	DB	0fbH
	DB	045H
	DB	0fbH
	DB	045H
	DB	0fbH
	DB	045H
	DB	0fbH
	DB	045H
	DB	0fbH
	DB	045H
	DB	0fbH
	DB	045H
	DB	0fbH
	DB	045H
	DB	0fbH
	DB	045H
	DB	0fbH
	DB	045H
	DB	0fbH
	DB	045H
	DB	0fbH
	DB	045H
	DB	0fbH
	DB	045H
	DB	0fbH
	DB	045H
	DB	0fbH
	DB	045H
	DB	0fbH
	DB	045H
	DB	0fbH
	DB	045H
	DB	0fbH
	DB	045H
	DB	0fbH
	DB	045H
	DB	0fbH
	DB	045H
	DB	0fbH
	DB	045H
	DB	0fbH
	DB	045H
	DB	0fbH
	DB	045H
	DB	0fbH
	DB	045H
	DB	0fbH
	DB	045H
	DB	0fbH
	DB	045H
	DB	0fbH
	DB	045H
	DB	0fbH
	DB	045H
	DB	0fbH
	DB	045H
	DB	0fbH
	DB	045H
	DB	0fbH
	DB	045H
	DB	0ffH
	DB	0ffH
	DB	0dfH
	DB	0ffH
	DB	0dfH
	DB	0ffH
	DB	0ffH
	DB	0ffH
	DB	0dfH
	DB	0ffH
	DB	0dfH
	DB	0ffH
	DB	0ffH
	DB	0ffH
	DB	0dfH
	DB	0ffH
	DB	0dfH
	DB	0ffH
	DB	0ffH
	DB	0ffH
	DB	0dfH
	DB	0ffH
	DB	0ffH
	DB	0ffH
	DB	0ffH
	DB	0ffH
	DB	0ffH
	DB	0ffH
	DB	0ffH
	DB	0ffH
	DB	0ffH
	DB	0ffH
	DB	0ffH
	DB	0ffH
	DB	0ffH
	DB	0ffH
	DB	0ffH
	DB	0ffH
	DB	0ffH
	DB	0ffH
	DB	0ffH
	DB	0ffH
	DB	0ffH
	DB	0ffH
	DB	0ffH
	DB	0ffH
	DB	0ffH
	DB	0ffH
	DB	0ffH
	DB	0ffH
	DB	0ffH
	DB	0ffH
	DB	0ffH
	DB	0ffH
	DB	0ffH
	DB	0ffH
	DB	0ffH
	DB	0ffH
	DB	0fbH
	DB	045H
	DB	0fbH
	DB	045H
	DB	0fbH
	DB	045H
	DB	0fbH
	DB	045H
	DB	0fbH
	DB	045H
	DB	0fbH
	DB	045H
	DB	0fbH
	DB	045H
	DB	0fbH
	DB	045H
	DB	0fbH
	DB	045H
	DB	0fbH
	DB	045H
	DB	0fbH
	DB	045H
	DB	0fbH
	DB	045H
	DB	0fbH
	DB	045H
	DB	0fbH
	DB	045H
	DB	0fbH
	DB	045H
	DB	0fbH
	DB	045H
	DB	0fbH
	DB	045H
	DB	0fbH
	DB	045H
	DB	0fbH
	DB	045H
	DB	0fbH
	DB	045H
	DB	0fbH
	DB	045H
	DB	0fbH
	DB	045H
	DB	0fbH
	DB	045H
	DB	0fbH
	DB	045H
	DB	0fbH
	DB	045H
	DB	0fbH
	DB	045H
	DB	0fbH
	DB	045H
	DB	0fbH
	DB	045H
	DB	0fbH
	DB	045H
	DB	0fbH
	DB	045H
	DB	0fbH
	DB	045H
	DB	0fbH
	DB	045H
	DB	0fbH
	DB	045H
	DB	0fbH
	DB	045H
	DB	0fbH
	DB	045H
	DB	0fbH
	DB	045H
	DB	0fbH
	DB	045H
	DB	0fbH
	DB	045H
	DB	0fbH
	DB	045H
	DB	0fbH
	DB	045H
	DB	0fbH
	DB	045H
	DB	0fbH
	DB	045H
	DB	0fbH
	DB	045H
	DB	0fbH
	DB	045H
	DB	0fbH
	DB	045H
	DB	0ffH
	DB	0ffH
	DB	0dfH
	DB	0ffH
	DB	0ffH
	DB	0ffH
	DB	0ffH
	DB	0ffH
	DB	0dfH
	DB	0ffH
	DB	0ffH
	DB	0ffH
	DB	0ffH
	DB	0ffH
	DB	0dfH
	DB	0ffH
	DB	0ffH
	DB	0ffH
	DB	0ffH
	DB	0ffH
	DB	0dfH
	DB	0ffH
	DB	0ffH
	DB	0ffH
	DB	0ffH
	DB	0ffH
	DB	0ffH
	DB	0ffH
	DB	0ffH
	DB	0ffH
	DB	0ffH
	DB	0ffH
	DB	0ffH
	DB	0ffH
	DB	0ffH
	DB	0ffH
	DB	0ffH
	DB	0ffH
	DB	0ffH
	DB	0ffH
CONST	ENDS
END
