; Listing generated by Microsoft (R) Optimizing Compiler Version 19.30.30705.0 

	TITLE	D:\学习\毕业设计\方案1_GFX+底板\官方例程\DISPLAY\TouchGFX\build\Debug\obj\image_tiledBackground.obj
	.686P
	.XMM
	include listing.inc
	.model	flat

INCLUDELIB MSVCRTD
INCLUDELIB OLDNAMES

PUBLIC	?image_tiledbackground@@3QBEB			; image_tiledbackground
msvcjmc	SEGMENT
__BA83647B_Config@hpp DB 01H
__42993667_image_tiledBackground@cpp DB 01H
msvcjmc	ENDS
CONST	SEGMENT
?image_tiledbackground@@3QBEB DB 096H			; image_tiledbackground
	DB	0b5H
	DB	0d7H
	DB	0bdH
	DB	038H
	DB	0c6H
	DB	0d7H
	DB	0bdH
	DB	0f7H
	DB	0bdH
	DB	018H
	DB	0c6H
	DB	096H
	DB	0b5H
	DB	0b6H
	DB	0b5H
	DB	0d7H
	DB	0bdH
	DB	0f7H
	DB	0bdH
	DB	038H
	DB	0c6H
	DB	0d7H
	DB	0bdH
	DB	0d7H
	DB	0bdH
	DB	018H
	DB	0c6H
	DB	0d7H
	DB	0bdH
	DB	0d7H
	DB	0bdH
	DB	0b6H
	DB	0b5H
	DB	055H
	DB	0adH
	DB	038H
	DB	0c6H
	DB	038H
	DB	0c6H
	DB	0f7H
	DB	0bdH
	DB	0b6H
	DB	0b5H
	DB	0b6H
	DB	0b5H
	DB	038H
	DB	0c6H
	DB	0b6H
	DB	0b5H
	DB	0d7H
	DB	0bdH
	DB	038H
	DB	0c6H
	DB	0b6H
	DB	0b5H
	DB	0d7H
	DB	0bdH
	DB	0b6H
	DB	0b5H
	DB	018H
	DB	0c6H
	DB	018H
	DB	0c6H
	DB	0b6H
	DB	0b5H
	DB	0b6H
	DB	0b5H
	DB	018H
	DB	0c6H
	DB	0f7H
	DB	0bdH
	DB	018H
	DB	0c6H
	DB	0d7H
	DB	0bdH
	DB	075H
	DB	0adH
	DB	038H
	DB	0c6H
	DB	038H
	DB	0c6H
	DB	0f7H
	DB	0bdH
	DB	0b6H
	DB	0b5H
	DB	038H
	DB	0c6H
	DB	0d7H
	DB	0bdH
	DB	0b6H
	DB	0b5H
	DB	038H
	DB	0c6H
	DB	0b6H
	DB	0b5H
	DB	096H
	DB	0b5H
	DB	038H
	DB	0c6H
	DB	038H
	DB	0c6H
	DB	0f7H
	DB	0bdH
	DB	0b6H
	DB	0b5H
	DB	0f7H
	DB	0bdH
	DB	0b6H
	DB	0b5H
	DB	0b6H
	DB	0b5H
	DB	018H
	DB	0c6H
	DB	0d7H
	DB	0bdH
	DB	0d7H
	DB	0bdH
	DB	018H
	DB	0c6H
	DB	0d7H
	DB	0bdH
	DB	0d7H
	DB	0bdH
	DB	0b6H
	DB	0b5H
	DB	0f7H
	DB	0bdH
	DB	0f7H
	DB	0bdH
	DB	096H
	DB	0b5H
	DB	0f7H
	DB	0bdH
	DB	0d7H
	DB	0bdH
	DB	038H
	DB	0c6H
	DB	018H
	DB	0c6H
	DB	0b6H
	DB	0b5H
	DB	0f7H
	DB	0bdH
	DB	0f7H
	DB	0bdH
	DB	0d7H
	DB	0bdH
	DB	0f7H
	DB	0bdH
	DB	0f7H
	DB	0bdH
	DB	0f7H
	DB	0bdH
	DB	0b6H
	DB	0b5H
	DB	018H
	DB	0c6H
	DB	0f7H
	DB	0bdH
	DB	0f7H
	DB	0bdH
	DB	038H
	DB	0c6H
	DB	0d7H
	DB	0bdH
	DB	0b6H
	DB	0b5H
	DB	096H
	DB	0b5H
	DB	059H
	DB	0ceH
	DB	0f7H
	DB	0bdH
	DB	096H
	DB	0b5H
	DB	0f7H
	DB	0bdH
	DB	0f7H
	DB	0bdH
	DB	018H
	DB	0c6H
	DB	0b6H
	DB	0b5H
	DB	0d7H
	DB	0bdH
	DB	075H
	DB	0adH
	DB	0d7H
	DB	0bdH
	DB	059H
	DB	0ceH
	DB	018H
	DB	0c6H
	DB	096H
	DB	0b5H
	DB	0b6H
	DB	0b5H
	DB	018H
	DB	0c6H
	DB	0d7H
	DB	0bdH
	DB	018H
	DB	0c6H
	DB	038H
	DB	0c6H
	DB	0b6H
	DB	0b5H
	DB	096H
	DB	0b5H
	DB	018H
	DB	0c6H
	DB	0d7H
	DB	0bdH
	DB	0f7H
	DB	0bdH
	DB	0f7H
	DB	0bdH
	DB	018H
	DB	0c6H
	DB	0f7H
	DB	0bdH
	DB	0d7H
	DB	0bdH
	DB	0b6H
	DB	0b5H
	DB	0b6H
	DB	0b5H
	DB	018H
	DB	0c6H
	DB	0f7H
	DB	0bdH
	DB	0d7H
	DB	0bdH
	DB	0b6H
	DB	0b5H
	DB	018H
	DB	0c6H
	DB	0d7H
	DB	0bdH
	DB	018H
	DB	0c6H
	DB	018H
	DB	0c6H
	DB	055H
	DB	0adH
	DB	018H
	DB	0c6H
	DB	038H
	DB	0c6H
	DB	0b6H
	DB	0b5H
	DB	0b6H
	DB	0b5H
	DB	0d7H
	DB	0bdH
	DB	038H
	DB	0c6H
	DB	0b6H
	DB	0b5H
	DB	0f7H
	DB	0bdH
	DB	0b6H
	DB	0b5H
	DB	0b6H
	DB	0b5H
	DB	018H
	DB	0c6H
	DB	0b6H
	DB	0b5H
	DB	0d7H
	DB	0bdH
	DB	0f7H
	DB	0bdH
	DB	0b6H
	DB	0b5H
	DB	018H
	DB	0c6H
	DB	0b6H
	DB	0b5H
	DB	0f7H
	DB	0bdH
	DB	0d7H
	DB	0bdH
	DB	0b6H
	DB	0b5H
	DB	0b6H
	DB	0b5H
	DB	0d7H
	DB	0bdH
	DB	018H
	DB	0c6H
	DB	038H
	DB	0c6H
	DB	0d7H
	DB	0bdH
	DB	0f7H
	DB	0bdH
	DB	0d7H
	DB	0bdH
	DB	0b6H
	DB	0b5H
	DB	0b6H
	DB	0b5H
	DB	018H
	DB	0c6H
	DB	0d7H
	DB	0bdH
	DB	018H
	DB	0c6H
	DB	0d7H
	DB	0bdH
	DB	0b6H
	DB	0b5H
	DB	018H
	DB	0c6H
	DB	0f7H
	DB	0bdH
	DB	0d7H
	DB	0bdH
	DB	0f7H
	DB	0bdH
	DB	0f7H
	DB	0bdH
	DB	0b6H
	DB	0b5H
	DB	0b6H
	DB	0b5H
	DB	0f7H
	DB	0bdH
	DB	0f7H
	DB	0bdH
	DB	0d7H
	DB	0bdH
	DB	075H
	DB	0adH
	DB	0b6H
	DB	0b5H
	DB	038H
	DB	0c6H
	DB	018H
	DB	0c6H
	DB	0d7H
	DB	0bdH
	DB	0d7H
	DB	0bdH
	DB	096H
	DB	0b5H
	DB	018H
	DB	0c6H
	DB	018H
	DB	0c6H
	DB	096H
	DB	0b5H
	DB	0b6H
	DB	0b5H
	DB	0d7H
	DB	0bdH
	DB	018H
	DB	0c6H
	DB	038H
	DB	0c6H
	DB	018H
	DB	0c6H
	DB	0b6H
	DB	0b5H
	DB	0d7H
	DB	0bdH
	DB	075H
	DB	0adH
	DB	0f7H
	DB	0bdH
	DB	018H
	DB	0c6H
	DB	0d7H
	DB	0bdH
	DB	0f7H
	DB	0bdH
	DB	0d7H
	DB	0bdH
	DB	0b6H
	DB	0b5H
	DB	018H
	DB	0c6H
	DB	0b6H
	DB	0b5H
	DB	0d7H
	DB	0bdH
	DB	0f7H
	DB	0bdH
	DB	018H
	DB	0c6H
	DB	0f7H
	DB	0bdH
	DB	018H
	DB	0c6H
	DB	0d7H
	DB	0bdH
	DB	0d7H
	DB	0bdH
	DB	0f7H
	DB	0bdH
	DB	0f7H
	DB	0bdH
	DB	0f7H
	DB	0bdH
	DB	075H
	DB	0adH
	DB	038H
	DB	0c6H
	DB	018H
	DB	0c6H
	DB	0b6H
	DB	0b5H
	DB	0f7H
	DB	0bdH
	DB	0d7H
	DB	0bdH
	DB	075H
	DB	0adH
	DB	018H
	DB	0c6H
	DB	018H
	DB	0c6H
	DB	0f7H
	DB	0bdH
	DB	0d7H
	DB	0bdH
	DB	0b6H
	DB	0b5H
	DB	018H
	DB	0c6H
	DB	0b6H
	DB	0b5H
	DB	075H
	DB	0adH
	DB	038H
	DB	0c6H
	DB	0f7H
	DB	0bdH
	DB	0b6H
	DB	0b5H
	DB	0f7H
	DB	0bdH
	DB	0f7H
	DB	0bdH
	DB	0d7H
	DB	0bdH
	DB	0b6H
	DB	0b5H
	DB	018H
	DB	0c6H
	DB	0f7H
	DB	0bdH
	DB	096H
	DB	0b5H
	DB	018H
	DB	0c6H
	DB	038H
	DB	0c6H
	DB	0d7H
	DB	0bdH
	DB	096H
	DB	0b5H
	DB	0b6H
	DB	0b5H
	DB	018H
	DB	0c6H
	DB	0b6H
	DB	0b5H
	DB	0f7H
	DB	0bdH
	DB	038H
	DB	0c6H
	DB	0f7H
	DB	0bdH
	DB	0f7H
	DB	0bdH
	DB	0b6H
	DB	0b5H
	DB	0d7H
	DB	0bdH
	DB	018H
	DB	0c6H
	DB	0b6H
	DB	0b5H
	DB	0f7H
	DB	0bdH
	DB	0f7H
	DB	0bdH
	DB	055H
	DB	0adH
	DB	055H
	DB	0adH
	DB	038H
	DB	0c6H
	DB	038H
	DB	0c6H
	DB	018H
	DB	0c6H
	DB	0f7H
	DB	0bdH
	DB	0f7H
	DB	0bdH
	DB	0d7H
	DB	0bdH
	DB	096H
	DB	0b5H
	DB	0d7H
	DB	0bdH
	DB	0b6H
	DB	0b5H
	DB	0f7H
	DB	0bdH
	DB	038H
	DB	0c6H
	DB	0f7H
	DB	0bdH
	DB	0f7H
	DB	0bdH
	DB	0b6H
	DB	0b5H
	DB	096H
	DB	0b5H
	DB	059H
	DB	0ceH
	DB	0d7H
	DB	0bdH
	DB	0f7H
	DB	0bdH
	DB	018H
	DB	0c6H
	DB	0b6H
	DB	0b5H
	DB	0b6H
	DB	0b5H
	DB	0d7H
	DB	0bdH
	DB	018H
	DB	0c6H
	DB	038H
	DB	0c6H
	DB	018H
	DB	0c6H
	DB	0d7H
	DB	0bdH
	DB	0b6H
	DB	0b5H
	DB	0b6H
	DB	0b5H
	DB	038H
	DB	0c6H
	DB	018H
	DB	0c6H
	DB	0b6H
	DB	0b5H
	DB	0f7H
	DB	0bdH
	DB	096H
	DB	0b5H
	DB	038H
	DB	0c6H
	DB	0f7H
	DB	0bdH
	DB	0d7H
	DB	0bdH
	DB	018H
	DB	0c6H
	DB	0d7H
	DB	0bdH
	DB	0d7H
	DB	0bdH
	DB	0b6H
	DB	0b5H
	DB	038H
	DB	0c6H
	DB	0f7H
	DB	0bdH
	DB	018H
	DB	0c6H
	DB	0b6H
	DB	0b5H
	DB	0f7H
	DB	0bdH
	DB	0f7H
	DB	0bdH
	DB	096H
	DB	0b5H
	DB	0b6H
	DB	0b5H
	DB	0f7H
	DB	0bdH
	DB	018H
	DB	0c6H
	DB	038H
	DB	0c6H
	DB	018H
	DB	0c6H
	DB	0f7H
	DB	0bdH
	DB	0d7H
	DB	0bdH
	DB	0b6H
	DB	0b5H
	DB	0f7H
	DB	0bdH
	DB	018H
	DB	0c6H
	DB	0d7H
	DB	0bdH
	DB	0d7H
	DB	0bdH
	DB	096H
	DB	0b5H
	DB	075H
	DB	0adH
	DB	018H
	DB	0c6H
	DB	018H
	DB	0c6H
	DB	038H
	DB	0c6H
	DB	0d7H
	DB	0bdH
	DB	096H
	DB	0b5H
	DB	038H
	DB	0c6H
	DB	0f7H
	DB	0bdH
	DB	0d7H
	DB	0bdH
	DB	075H
	DB	0adH
	DB	0b6H
	DB	0b5H
	DB	018H
	DB	0c6H
	DB	018H
	DB	0c6H
	DB	018H
	DB	0c6H
	DB	0b6H
	DB	0b5H
	DB	0f7H
	DB	0bdH
	DB	0f7H
	DB	0bdH
	DB	0b6H
	DB	0b5H
	DB	0b6H
	DB	0b5H
	DB	0d7H
	DB	0bdH
	DB	096H
	DB	0b5H
	DB	0f7H
	DB	0bdH
	DB	0f7H
	DB	0bdH
	DB	018H
	DB	0c6H
	DB	038H
	DB	0c6H
	DB	0b6H
	DB	0b5H
	DB	0b6H
	DB	0b5H
	DB	0d7H
	DB	0bdH
	DB	0b6H
	DB	0b5H
	DB	038H
	DB	0c6H
	DB	0d7H
	DB	0bdH
	DB	096H
	DB	0b5H
	DB	038H
	DB	0c6H
	DB	0f7H
	DB	0bdH
	DB	0d7H
	DB	0bdH
	DB	075H
	DB	0adH
	DB	018H
	DB	0c6H
	DB	018H
	DB	0c6H
	DB	0f7H
	DB	0bdH
	DB	0f7H
	DB	0bdH
	DB	0d7H
	DB	0bdH
	DB	055H
	DB	0adH
	DB	0b6H
	DB	0b5H
	DB	059H
	DB	0ceH
	DB	0f7H
	DB	0bdH
	DB	0d7H
	DB	0bdH
	DB	0f7H
	DB	0bdH
	DB	0b6H
	DB	0b5H
	DB	0b6H
	DB	0b5H
	DB	018H
	DB	0c6H
	DB	075H
	DB	0adH
	DB	018H
	DB	0c6H
	DB	059H
	DB	0ceH
	DB	0d7H
	DB	0bdH
	DB	0f7H
	DB	0bdH
	DB	0d7H
	DB	0bdH
	DB	0b6H
	DB	0b5H
	DB	0d7H
	DB	0bdH
	DB	034H
	DB	0a5H
	DB	0f7H
	DB	0bdH
	DB	018H
	DB	0c6H
	DB	0f7H
	DB	0bdH
	DB	038H
	DB	0c6H
	DB	0d7H
	DB	0bdH
	DB	0d7H
	DB	0bdH
	DB	0f7H
	DB	0bdH
	DB	0f7H
	DB	0bdH
	DB	0f7H
	DB	0bdH
	DB	0b6H
	DB	0b5H
	DB	0b6H
	DB	0b5H
	DB	0d7H
	DB	0bdH
	DB	038H
	DB	0c6H
	DB	0b6H
	DB	0b5H
	DB	018H
	DB	0c6H
	DB	018H
	DB	0c6H
	DB	0f7H
	DB	0bdH
	DB	0b6H
	DB	0b5H
	DB	055H
	DB	0adH
	DB	038H
	DB	0c6H
	DB	0f7H
	DB	0bdH
	DB	0b6H
	DB	0b5H
	DB	018H
	DB	0c6H
	DB	0f7H
	DB	0bdH
	DB	0f7H
	DB	0bdH
	DB	0d7H
	DB	0bdH
	DB	0f7H
	DB	0bdH
	DB	055H
	DB	0adH
	DB	0d7H
	DB	0bdH
	DB	038H
	DB	0c6H
	DB	018H
	DB	0c6H
	DB	0b6H
	DB	0b5H
	DB	096H
	DB	0b5H
	DB	0f7H
	DB	0bdH
	DB	038H
	DB	0c6H
	DB	018H
	DB	0c6H
	DB	0f7H
	DB	0bdH
	DB	0d7H
	DB	0bdH
	DB	096H
	DB	0b5H
	DB	0d7H
	DB	0bdH
	DB	038H
	DB	0c6H
	DB	0b6H
	DB	0b5H
	DB	018H
	DB	0c6H
	DB	038H
	DB	0c6H
	DB	0f7H
	DB	0bdH
	DB	0d7H
	DB	0bdH
	DB	0b6H
	DB	0b5H
	DB	0d7H
	DB	0bdH
	DB	038H
	DB	0c6H
	DB	0f7H
	DB	0bdH
	DB	096H
	DB	0b5H
	DB	0b6H
	DB	0b5H
	DB	038H
	DB	0c6H
	DB	018H
	DB	0c6H
	DB	018H
	DB	0c6H
	DB	0f7H
	DB	0bdH
	DB	075H
	DB	0adH
	DB	0d7H
	DB	0bdH
	DB	038H
	DB	0c6H
	DB	0d7H
	DB	0bdH
	DB	096H
	DB	0b5H
	DB	0d7H
	DB	0bdH
	DB	038H
	DB	0c6H
	DB	0d7H
	DB	0bdH
	DB	0d7H
	DB	0bdH
	DB	0b6H
	DB	0b5H
	DB	0d7H
	DB	0bdH
	DB	0d7H
	DB	0bdH
	DB	0b6H
	DB	0b5H
	DB	0f7H
	DB	0bdH
	DB	038H
	DB	0c6H
	DB	0b6H
	DB	0b5H
	DB	018H
	DB	0c6H
	DB	0d7H
	DB	0bdH
	DB	0d7H
	DB	0bdH
	DB	0f7H
	DB	0bdH
	DB	096H
	DB	0b5H
	DB	055H
	DB	0adH
	DB	0f7H
	DB	0bdH
	DB	038H
	DB	0c6H
	DB	059H
	DB	0ceH
	DB	0d7H
	DB	0bdH
	DB	0b6H
	DB	0b5H
	DB	0d7H
	DB	0bdH
	DB	0f7H
	DB	0bdH
	DB	0f7H
	DB	0bdH
	DB	038H
	DB	0c6H
	DB	0b6H
	DB	0b5H
	DB	0f7H
	DB	0bdH
	DB	0f7H
	DB	0bdH
	DB	0b6H
	DB	0b5H
	DB	018H
	DB	0c6H
	DB	0b6H
	DB	0b5H
	DB	0d7H
	DB	0bdH
	DB	038H
	DB	0c6H
	DB	0b6H
	DB	0b5H
	DB	0b6H
	DB	0b5H
	DB	0d7H
	DB	0bdH
	DB	038H
	DB	0c6H
	DB	0f7H
	DB	0bdH
	DB	018H
	DB	0c6H
	DB	0b6H
	DB	0b5H
	DB	0f7H
	DB	0bdH
	DB	0f7H
	DB	0bdH
	DB	018H
	DB	0c6H
	DB	0b6H
	DB	0b5H
	DB	0d7H
	DB	0bdH
	DB	0b6H
	DB	0b5H
	DB	0b6H
	DB	0b5H
	DB	0f7H
	DB	0bdH
	DB	0f7H
	DB	0bdH
	DB	018H
	DB	0c6H
	DB	0f7H
	DB	0bdH
	DB	018H
	DB	0c6H
	DB	0f7H
	DB	0bdH
	DB	0f7H
	DB	0bdH
	DB	0d7H
	DB	0bdH
	DB	018H
	DB	0c6H
	DB	096H
	DB	0b5H
	DB	0b6H
	DB	0b5H
	DB	018H
	DB	0c6H
	DB	018H
	DB	0c6H
	DB	0d7H
	DB	0bdH
	DB	0d7H
	DB	0bdH
	DB	096H
	DB	0b5H
	DB	0f7H
	DB	0bdH
	DB	0b6H
	DB	0b5H
	DB	0f7H
	DB	0bdH
	DB	038H
	DB	0c6H
	DB	0d7H
	DB	0bdH
	DB	0d7H
	DB	0bdH
	DB	018H
	DB	0c6H
	DB	0d7H
	DB	0bdH
	DB	0d7H
	DB	0bdH
	DB	0d7H
	DB	0bdH
	DB	0f7H
	DB	0bdH
	DB	0b6H
	DB	0b5H
	DB	096H
	DB	0b5H
	DB	038H
	DB	0c6H
	DB	018H
	DB	0c6H
	DB	075H
	DB	0adH
	DB	0f7H
	DB	0bdH
	DB	0f7H
	DB	0bdH
	DB	096H
	DB	0b5H
	DB	038H
	DB	0c6H
	DB	018H
	DB	0c6H
	DB	0f7H
	DB	0bdH
	DB	0d7H
	DB	0bdH
	DB	0b6H
	DB	0b5H
	DB	018H
	DB	0c6H
	DB	096H
	DB	0b5H
	DB	0b6H
	DB	0b5H
	DB	059H
	DB	0ceH
	DB	0f7H
	DB	0bdH
	DB	0b6H
	DB	0b5H
	DB	0d7H
	DB	0bdH
	DB	0f7H
	DB	0bdH
	DB	0d7H
	DB	0bdH
	DB	0d7H
	DB	0bdH
	DB	0b6H
	DB	0b5H
	DB	0b6H
	DB	0b5H
	DB	018H
	DB	0c6H
	DB	038H
	DB	0c6H
	DB	0d7H
	DB	0bdH
	DB	0d7H
	DB	0bdH
	DB	0d7H
	DB	0bdH
	DB	096H
	DB	0b5H
	DB	096H
	DB	0b5H
	DB	0f7H
	DB	0bdH
	DB	018H
	DB	0c6H
	DB	038H
	DB	0c6H
	DB	018H
	DB	0c6H
	DB	0d7H
	DB	0bdH
	DB	0d7H
	DB	0bdH
	DB	0d7H
	DB	0bdH
	DB	038H
	DB	0c6H
	DB	0f7H
	DB	0bdH
	DB	0d7H
	DB	0bdH
	DB	0b6H
	DB	0b5H
	DB	034H
	DB	0a5H
	DB	0f7H
	DB	0bdH
	DB	0f7H
	DB	0bdH
	DB	018H
	DB	0c6H
	DB	018H
	DB	0c6H
	DB	038H
	DB	0c6H
	DB	018H
	DB	0c6H
	DB	0d7H
	DB	0bdH
	DB	0d7H
	DB	0bdH
	DB	0b6H
	DB	0b5H
	DB	096H
	DB	0b5H
	DB	038H
	DB	0c6H
	DB	018H
	DB	0c6H
	DB	0b6H
	DB	0b5H
	DB	096H
	DB	0b5H
	DB	0f7H
	DB	0bdH
	DB	0d7H
	DB	0bdH
	DB	038H
	DB	0c6H
	DB	0f7H
	DB	0bdH
	DB	0b6H
	DB	0b5H
	DB	0f7H
	DB	0bdH
	DB	0d7H
	DB	0bdH
	DB	0f7H
	DB	0bdH
	DB	075H
	DB	0adH
	DB	038H
	DB	0c6H
	DB	018H
	DB	0c6H
	DB	0d7H
	DB	0bdH
	DB	0d7H
	DB	0bdH
	DB	0b6H
	DB	0b5H
	DB	018H
	DB	0c6H
	DB	0f7H
	DB	0bdH
	DB	018H
	DB	0c6H
	DB	0d7H
	DB	0bdH
	DB	0f7H
	DB	0bdH
	DB	096H
	DB	0b5H
	DB	038H
	DB	0c6H
	DB	0f7H
	DB	0bdH
	DB	0d7H
	DB	0bdH
	DB	0f7H
	DB	0bdH
	DB	096H
	DB	0b5H
	DB	096H
	DB	0b5H
	DB	0f7H
	DB	0bdH
	DB	059H
	DB	0ceH
	DB	0f7H
	DB	0bdH
	DB	0b6H
	DB	0b5H
	DB	0f7H
	DB	0bdH
	DB	0f7H
	DB	0bdH
	DB	0d7H
	DB	0bdH
	DB	0d7H
	DB	0bdH
	DB	075H
	DB	0adH
	DB	0d7H
	DB	0bdH
	DB	018H
	DB	0c6H
	DB	059H
	DB	0ceH
	DB	0f7H
	DB	0bdH
	DB	0d7H
	DB	0bdH
	DB	038H
	DB	0c6H
	DB	096H
	DB	0b5H
	DB	0f7H
	DB	0bdH
	DB	0f7H
	DB	0bdH
	DB	0f7H
	DB	0bdH
	DB	0d7H
	DB	0bdH
	DB	018H
	DB	0c6H
	DB	0d7H
	DB	0bdH
	DB	0f7H
	DB	0bdH
	DB	018H
	DB	0c6H
	DB	018H
	DB	0c6H
	DB	0f7H
	DB	0bdH
	DB	075H
	DB	0adH
	DB	018H
	DB	0c6H
	DB	0f7H
	DB	0bdH
	DB	0d7H
	DB	0bdH
	DB	075H
	DB	0adH
	DB	0f7H
	DB	0bdH
	DB	018H
	DB	0c6H
	DB	0b6H
	DB	0b5H
	DB	018H
	DB	0c6H
	DB	0f7H
	DB	0bdH
	DB	038H
	DB	0c6H
	DB	0d7H
	DB	0bdH
	DB	0b6H
	DB	0b5H
	DB	096H
	DB	0b5H
	DB	0f7H
	DB	0bdH
	DB	0f7H
	DB	0bdH
	DB	0f7H
	DB	0bdH
	DB	0f7H
	DB	0bdH
	DB	0f7H
	DB	0bdH
	DB	018H
	DB	0c6H
	DB	0d7H
	DB	0bdH
	DB	018H
	DB	0c6H
	DB	0f7H
	DB	0bdH
	DB	075H
	DB	0adH
	DB	0d7H
	DB	0bdH
	DB	018H
	DB	0c6H
	DB	0f7H
	DB	0bdH
	DB	038H
	DB	0c6H
	DB	0b6H
	DB	0b5H
	DB	0d7H
	DB	0bdH
	DB	096H
	DB	0b5H
	DB	038H
	DB	0c6H
	DB	018H
	DB	0c6H
	DB	018H
	DB	0c6H
	DB	0d7H
	DB	0bdH
	DB	0d7H
	DB	0bdH
	DB	096H
	DB	0b5H
	DB	0b6H
	DB	0b5H
	DB	059H
	DB	0ceH
	DB	0f7H
	DB	0bdH
	DB	0d7H
	DB	0bdH
	DB	0f7H
	DB	0bdH
	DB	096H
	DB	0b5H
	DB	0b6H
	DB	0b5H
	DB	018H
	DB	0c6H
	DB	0b6H
	DB	0b5H
	DB	0f7H
	DB	0bdH
	DB	018H
	DB	0c6H
	DB	0f7H
	DB	0bdH
	DB	0f7H
	DB	0bdH
	DB	038H
	DB	0c6H
	DB	0f7H
	DB	0bdH
	DB	0d7H
	DB	0bdH
	DB	034H
	DB	0a5H
	DB	018H
	DB	0c6H
	DB	018H
	DB	0c6H
	DB	096H
	DB	0b5H
	DB	038H
	DB	0c6H
	DB	038H
	DB	0c6H
	DB	096H
	DB	0b5H
	DB	0d7H
	DB	0bdH
	DB	018H
	DB	0c6H
	DB	0f7H
	DB	0bdH
	DB	0d7H
	DB	0bdH
	DB	075H
	DB	0adH
	DB	0b6H
	DB	0b5H
	DB	059H
	DB	0ceH
	DB	096H
	DB	0b5H
	DB	0f7H
	DB	0bdH
	DB	038H
	DB	0c6H
	DB	0f7H
	DB	0bdH
	DB	096H
	DB	0b5H
	DB	096H
	DB	0b5H
	DB	038H
	DB	0c6H
	DB	0d7H
	DB	0bdH
	DB	0b6H
	DB	0b5H
	DB	018H
	DB	0c6H
	DB	018H
	DB	0c6H
	DB	0d7H
	DB	0bdH
	DB	0b6H
	DB	0b5H
	DB	0f7H
	DB	0bdH
	DB	096H
	DB	0b5H
	DB	018H
	DB	0c6H
	DB	018H
	DB	0c6H
	DB	0d7H
	DB	0bdH
	DB	0d7H
	DB	0bdH
	DB	018H
	DB	0c6H
	DB	0b6H
	DB	0b5H
	DB	0b6H
	DB	0b5H
	DB	038H
	DB	0c6H
	DB	0f7H
	DB	0bdH
	DB	0d7H
	DB	0bdH
	DB	0d7H
	DB	0bdH
	DB	0b6H
	DB	0b5H
	DB	0d7H
	DB	0bdH
	DB	018H
	DB	0c6H
	DB	018H
	DB	0c6H
	DB	0f7H
	DB	0bdH
	DB	0d7H
	DB	0bdH
	DB	0d7H
	DB	0bdH
	DB	0f7H
	DB	0bdH
	DB	0d7H
	DB	0bdH
	DB	0d7H
	DB	0bdH
	DB	018H
	DB	0c6H
	DB	096H
	DB	0b5H
	DB	096H
	DB	0b5H
	DB	059H
	DB	0ceH
	DB	018H
	DB	0c6H
	DB	0d7H
	DB	0bdH
	DB	0d7H
	DB	0bdH
	DB	075H
	DB	0adH
	DB	018H
	DB	0c6H
	DB	018H
	DB	0c6H
	DB	0d7H
	DB	0bdH
	DB	075H
	DB	0adH
	DB	096H
	DB	0b5H
	DB	018H
	DB	0c6H
	DB	018H
	DB	0c6H
	DB	0b6H
	DB	0b5H
	DB	0f7H
	DB	0bdH
	DB	0f7H
	DB	0bdH
	DB	0b6H
	DB	0b5H
	DB	0b6H
	DB	0b5H
	DB	0f7H
	DB	0bdH
	DB	038H
	DB	0c6H
	DB	096H
	DB	0b5H
	DB	0f7H
	DB	0bdH
	DB	018H
	DB	0c6H
	DB	0b6H
	DB	0b5H
	DB	0d7H
	DB	0bdH
	DB	0b6H
	DB	0b5H
	DB	0f7H
	DB	0bdH
	DB	0f7H
	DB	0bdH
	DB	0b6H
	DB	0b5H
	DB	038H
	DB	0c6H
	DB	018H
	DB	0c6H
	DB	0b6H
	DB	0b5H
	DB	0b6H
	DB	0b5H
	DB	0f7H
	DB	0bdH
	DB	018H
	DB	0c6H
	DB	018H
	DB	0c6H
	DB	0b6H
	DB	0b5H
	DB	0f7H
	DB	0bdH
	DB	0f7H
	DB	0bdH
	DB	0d7H
	DB	0bdH
	DB	018H
	DB	0c6H
	DB	0d7H
	DB	0bdH
	DB	0b6H
	DB	0b5H
	DB	0f7H
	DB	0bdH
	DB	0b6H
	DB	0b5H
	DB	018H
	DB	0c6H
	DB	0f7H
	DB	0bdH
	DB	0f7H
	DB	0bdH
	DB	0f7H
	DB	0bdH
	DB	0f7H
	DB	0bdH
	DB	0d7H
	DB	0bdH
	DB	018H
	DB	0c6H
	DB	0d7H
	DB	0bdH
	DB	0b6H
	DB	0b5H
	DB	0b6H
	DB	0b5H
	DB	018H
	DB	0c6H
	DB	0f7H
	DB	0bdH
	DB	0b6H
	DB	0b5H
	DB	0b6H
	DB	0b5H
	DB	018H
	DB	0c6H
	DB	018H
	DB	0c6H
	DB	0d7H
	DB	0bdH
	DB	0d7H
	DB	0bdH
	DB	0f7H
	DB	0bdH
	DB	0f7H
	DB	0bdH
	DB	0d7H
	DB	0bdH
	DB	0d7H
	DB	0bdH
	DB	0d7H
	DB	0bdH
	DB	0d7H
	DB	0bdH
	DB	0f7H
	DB	0bdH
	DB	038H
	DB	0c6H
	DB	0f7H
	DB	0bdH
	DB	0b6H
	DB	0b5H
	DB	0d7H
	DB	0bdH
	DB	0f7H
	DB	0bdH
	DB	0b6H
	DB	0b5H
	DB	0d7H
	DB	0bdH
	DB	0f7H
	DB	0bdH
	DB	0f7H
	DB	0bdH
	DB	0b6H
	DB	0b5H
	DB	018H
	DB	0c6H
	DB	0f7H
	DB	0bdH
	DB	038H
	DB	0c6H
	DB	0f7H
	DB	0bdH
	DB	0d7H
	DB	0bdH
	DB	096H
	DB	0b5H
	DB	0b6H
	DB	0b5H
	DB	0f7H
	DB	0bdH
	DB	0f7H
	DB	0bdH
	DB	0d7H
	DB	0bdH
	DB	0b6H
	DB	0b5H
	DB	0b6H
	DB	0b5H
	DB	0f7H
	DB	0bdH
	DB	038H
	DB	0c6H
	DB	018H
	DB	0c6H
	DB	0d7H
	DB	0bdH
	DB	0f7H
	DB	0bdH
	DB	018H
	DB	0c6H
	DB	038H
	DB	0c6H
	DB	075H
	DB	0adH
	DB	0f7H
	DB	0bdH
	DB	038H
	DB	0c6H
	DB	0f7H
	DB	0bdH
	DB	0d7H
	DB	0bdH
	DB	0d7H
	DB	0bdH
	DB	018H
	DB	0c6H
	DB	0b6H
	DB	0b5H
	DB	0d7H
	DB	0bdH
	DB	096H
	DB	0b5H
	DB	055H
	DB	0adH
	DB	038H
	DB	0c6H
	DB	059H
	DB	0ceH
	DB	018H
	DB	0c6H
	DB	0f7H
	DB	0bdH
	DB	0f7H
	DB	0bdH
	DB	0b6H
	DB	0b5H
	DB	075H
	DB	0adH
	DB	038H
	DB	0c6H
	DB	075H
	DB	0adH
	DB	018H
	DB	0c6H
	DB	059H
	DB	0ceH
	DB	0b6H
	DB	0b5H
	DB	096H
	DB	0b5H
	DB	0d7H
	DB	0bdH
	DB	059H
	DB	0ceH
	DB	0f7H
	DB	0bdH
	DB	0f7H
	DB	0bdH
	DB	096H
	DB	0b5H
	DB	096H
	DB	0b5H
	DB	018H
	DB	0c6H
	DB	0d7H
	DB	0bdH
	DB	096H
	DB	0b5H
	DB	0d7H
	DB	0bdH
	DB	0b6H
	DB	0b5H
	DB	0f7H
	DB	0bdH
	DB	038H
	DB	0c6H
	DB	018H
	DB	0c6H
	DB	0b6H
	DB	0b5H
	DB	0d7H
	DB	0bdH
	DB	059H
	DB	0ceH
	DB	018H
	DB	0c6H
	DB	0b6H
	DB	0b5H
	DB	075H
	DB	0adH
	DB	0f7H
	DB	0bdH
	DB	038H
	DB	0c6H
	DB	0d7H
	DB	0bdH
	DB	0f7H
	DB	0bdH
	DB	0b6H
	DB	0b5H
	DB	0f7H
	DB	0bdH
	DB	0f7H
	DB	0bdH
	DB	0d7H
	DB	0bdH
	DB	075H
	DB	0adH
	DB	018H
	DB	0c6H
	DB	038H
	DB	0c6H
	DB	0d7H
	DB	0bdH
	DB	0b6H
	DB	0b5H
	DB	0b6H
	DB	0b5H
	DB	038H
	DB	0c6H
	DB	0d7H
	DB	0bdH
	DB	0b6H
	DB	0b5H
	DB	038H
	DB	0c6H
	DB	0f7H
	DB	0bdH
	DB	096H
	DB	0b5H
	DB	0f7H
	DB	0bdH
	DB	038H
	DB	0c6H
	DB	0b6H
	DB	0b5H
	DB	0d7H
	DB	0bdH
	DB	0d7H
	DB	0bdH
	DB	075H
	DB	0adH
	DB	038H
	DB	0c6H
	DB	038H
	DB	0c6H
	DB	0f7H
	DB	0bdH
	DB	096H
	DB	0b5H
	DB	018H
	DB	0c6H
	DB	0f7H
	DB	0bdH
	DB	075H
	DB	0adH
	DB	0f7H
	DB	0bdH
	DB	096H
	DB	0b5H
	DB	018H
	DB	0c6H
	DB	0d7H
	DB	0bdH
	DB	0f7H
	DB	0bdH
	DB	0f7H
	DB	0bdH
	DB	0d7H
	DB	0bdH
	DB	038H
	DB	0c6H
	DB	075H
	DB	0adH
	DB	0f7H
	DB	0bdH
	DB	0b6H
	DB	0b5H
	DB	0f7H
	DB	0bdH
	DB	038H
	DB	0c6H
	DB	038H
	DB	0c6H
	DB	0d7H
	DB	0bdH
	DB	0b6H
	DB	0b5H
	DB	0f7H
	DB	0bdH
	DB	038H
	DB	0c6H
	DB	0d7H
	DB	0bdH
	DB	096H
	DB	0b5H
	DB	0f7H
	DB	0bdH
	DB	0f7H
	DB	0bdH
	DB	0b6H
	DB	0b5H
	DB	0d7H
	DB	0bdH
	DB	0f7H
	DB	0bdH
	DB	0f7H
	DB	0bdH
	DB	075H
	DB	0adH
	DB	0d7H
	DB	0bdH
	DB	059H
	DB	0ceH
	DB	018H
	DB	0c6H
	DB	0d7H
	DB	0bdH
	DB	0b6H
	DB	0b5H
	DB	096H
	DB	0b5H
	DB	018H
	DB	0c6H
	DB	038H
	DB	0c6H
	DB	0b6H
	DB	0b5H
	DB	0d7H
	DB	0bdH
	DB	018H
	DB	0c6H
	DB	0f7H
	DB	0bdH
	DB	0b6H
	DB	0b5H
	DB	0f7H
	DB	0bdH
	DB	038H
	DB	0c6H
	DB	096H
	DB	0b5H
	DB	034H
	DB	0a5H
	DB	038H
	DB	0c6H
	DB	038H
	DB	0c6H
	DB	018H
	DB	0c6H
	DB	0d7H
	DB	0bdH
	DB	075H
	DB	0adH
	DB	0b6H
	DB	0b5H
	DB	038H
	DB	0c6H
	DB	0f7H
	DB	0bdH
	DB	0d7H
	DB	0bdH
	DB	0f7H
	DB	0bdH
	DB	0b6H
	DB	0b5H
	DB	0b6H
	DB	0b5H
	DB	0b6H
	DB	0b5H
	DB	038H
	DB	0c6H
	DB	018H
	DB	0c6H
	DB	0d7H
	DB	0bdH
	DB	0f7H
	DB	0bdH
	DB	0f7H
	DB	0bdH
	DB	0d7H
	DB	0bdH
	DB	0f7H
	DB	0bdH
	DB	0d7H
	DB	0bdH
	DB	0b6H
	DB	0b5H
	DB	0b6H
	DB	0b5H
	DB	018H
	DB	0c6H
	DB	0f7H
	DB	0bdH
	DB	0f7H
	DB	0bdH
	DB	0f7H
	DB	0bdH
	DB	018H
	DB	0c6H
	DB	0b6H
	DB	0b5H
	DB	0d7H
	DB	0bdH
	DB	018H
	DB	0c6H
	DB	0b6H
	DB	0b5H
	DB	0b6H
	DB	0b5H
	DB	018H
	DB	0c6H
	DB	0d7H
	DB	0bdH
	DB	0f7H
	DB	0bdH
	DB	018H
	DB	0c6H
	DB	0d7H
	DB	0bdH
	DB	0b6H
	DB	0b5H
	DB	0b6H
	DB	0b5H
	DB	0b6H
	DB	0b5H
	DB	038H
	DB	0c6H
	DB	0b6H
	DB	0b5H
	DB	096H
	DB	0b5H
	DB	038H
	DB	0c6H
	DB	0b6H
	DB	0b5H
	DB	0d7H
	DB	0bdH
	DB	0f7H
	DB	0bdH
	DB	0f7H
	DB	0bdH
	DB	0f7H
	DB	0bdH
	DB	096H
	DB	0b5H
	DB	0f7H
	DB	0bdH
	DB	038H
	DB	0c6H
	DB	0f7H
	DB	0bdH
	DB	0b6H
	DB	0b5H
	DB	0b6H
	DB	0b5H
	DB	0d7H
	DB	0bdH
	DB	018H
	DB	0c6H
	DB	0f7H
	DB	0bdH
	DB	0b6H
	DB	0b5H
	DB	0d7H
	DB	0bdH
	DB	038H
	DB	0c6H
	DB	0b6H
	DB	0b5H
	DB	055H
	DB	0adH
	DB	018H
	DB	0c6H
	DB	0f7H
	DB	0bdH
	DB	0f7H
	DB	0bdH
	DB	018H
	DB	0c6H
	DB	096H
	DB	0b5H
	DB	096H
	DB	0b5H
	DB	038H
	DB	0c6H
	DB	018H
	DB	0c6H
	DB	0d7H
	DB	0bdH
	DB	0d7H
	DB	0bdH
	DB	018H
	DB	0c6H
	DB	0f7H
	DB	0bdH
	DB	0f7H
	DB	0bdH
	DB	096H
	DB	0b5H
	DB	096H
	DB	0b5H
	DB	0b6H
	DB	0b5H
	DB	0f7H
	DB	0bdH
	DB	038H
	DB	0c6H
	DB	038H
	DB	0c6H
	DB	0d7H
	DB	0bdH
	DB	0d7H
	DB	0bdH
	DB	096H
	DB	0b5H
	DB	018H
	DB	0c6H
	DB	018H
	DB	0c6H
	DB	0b6H
	DB	0b5H
	DB	0b6H
	DB	0b5H
	DB	018H
	DB	0c6H
	DB	0f7H
	DB	0bdH
	DB	038H
	DB	0c6H
	DB	0b6H
	DB	0b5H
	DB	018H
	DB	0c6H
	DB	0d7H
	DB	0bdH
	DB	0f7H
	DB	0bdH
	DB	0f7H
	DB	0bdH
	DB	0d7H
	DB	0bdH
	DB	018H
	DB	0c6H
	DB	096H
	DB	0b5H
	DB	0d7H
	DB	0bdH
	DB	059H
	DB	0ceH
	DB	0b6H
	DB	0b5H
	DB	096H
	DB	0b5H
	DB	0d7H
	DB	0bdH
	DB	059H
	DB	0ceH
	DB	0f7H
	DB	0bdH
	DB	075H
	DB	0adH
	DB	0f7H
	DB	0bdH
	DB	0f7H
	DB	0bdH
	DB	0d7H
	DB	0bdH
	DB	038H
	DB	0c6H
	DB	0f7H
	DB	0bdH
	DB	018H
	DB	0c6H
	DB	0f7H
	DB	0bdH
	DB	0b6H
	DB	0b5H
	DB	0f7H
	DB	0bdH
	DB	0d7H
	DB	0bdH
	DB	0d7H
	DB	0bdH
	DB	038H
	DB	0c6H
	DB	0d7H
	DB	0bdH
	DB	096H
	DB	0b5H
	DB	0b6H
	DB	0b5H
	DB	018H
	DB	0c6H
	DB	038H
	DB	0c6H
	DB	0d7H
	DB	0bdH
	DB	0f7H
	DB	0bdH
	DB	0f7H
	DB	0bdH
	DB	0f7H
	DB	0bdH
	DB	0b6H
	DB	0b5H
	DB	038H
	DB	0c6H
	DB	0d7H
	DB	0bdH
	DB	0d7H
	DB	0bdH
	DB	096H
	DB	0b5H
	DB	0b6H
	DB	0b5H
	DB	038H
	DB	0c6H
	DB	0b6H
	DB	0b5H
	DB	0f7H
	DB	0bdH
	DB	0f7H
	DB	0bdH
	DB	0d7H
	DB	0bdH
	DB	018H
	DB	0c6H
	DB	096H
	DB	0b5H
	DB	0b6H
	DB	0b5H
	DB	018H
	DB	0c6H
	DB	0f7H
	DB	0bdH
	DB	0d7H
	DB	0bdH
	DB	0d7H
	DB	0bdH
	DB	0d7H
	DB	0bdH
	DB	0d7H
	DB	0bdH
	DB	018H
	DB	0c6H
	DB	0f7H
	DB	0bdH
	DB	0b6H
	DB	0b5H
	DB	038H
	DB	0c6H
	DB	018H
	DB	0c6H
	DB	0d7H
	DB	0bdH
	DB	0b6H
	DB	0b5H
	DB	096H
	DB	0b5H
	DB	0f7H
	DB	0bdH
	DB	0b6H
	DB	0b5H
	DB	0d7H
	DB	0bdH
	DB	038H
	DB	0c6H
	DB	038H
	DB	0c6H
	DB	0f7H
	DB	0bdH
	DB	0b6H
	DB	0b5H
	DB	0d7H
	DB	0bdH
	DB	018H
	DB	0c6H
	DB	018H
	DB	0c6H
	DB	0d7H
	DB	0bdH
	DB	0f7H
	DB	0bdH
	DB	0b6H
	DB	0b5H
	DB	075H
	DB	0adH
	DB	0b6H
	DB	0b5H
	DB	059H
	DB	0ceH
	DB	0d7H
	DB	0bdH
	DB	0d7H
	DB	0bdH
	DB	018H
	DB	0c6H
	DB	0f7H
	DB	0bdH
	DB	0d7H
	DB	0bdH
	DB	0d7H
	DB	0bdH
	DB	0f7H
	DB	0bdH
	DB	038H
	DB	0c6H
	DB	0b6H
	DB	0b5H
	DB	0f7H
	DB	0bdH
	DB	018H
	DB	0c6H
	DB	0f7H
	DB	0bdH
	DB	0d7H
	DB	0bdH
	DB	0d7H
	DB	0bdH
	DB	096H
	DB	0b5H
	DB	0b6H
	DB	0b5H
	DB	0f7H
	DB	0bdH
	DB	059H
	DB	0ceH
	DB	038H
	DB	0c6H
	DB	0f7H
	DB	0bdH
	DB	0d7H
	DB	0bdH
	DB	0b6H
	DB	0b5H
	DB	0d7H
	DB	0bdH
	DB	018H
	DB	0c6H
	DB	075H
	DB	0adH
	DB	0f7H
	DB	0bdH
	DB	038H
	DB	0c6H
	DB	0d7H
	DB	0bdH
	DB	0d7H
	DB	0bdH
	DB	0b6H
	DB	0b5H
	DB	038H
	DB	0c6H
	DB	0f7H
	DB	0bdH
	DB	0b6H
	DB	0b5H
	DB	096H
	DB	0b5H
	DB	038H
	DB	0c6H
	DB	0f7H
	DB	0bdH
	DB	096H
	DB	0b5H
	DB	075H
	DB	0adH
	DB	0b6H
	DB	0b5H
	DB	034H
	DB	0a5H
	DB	0b6H
	DB	0b5H
	DB	038H
	DB	0c6H
	DB	0f7H
	DB	0bdH
	DB	0b6H
	DB	0b5H
	DB	038H
	DB	0c6H
	DB	0f7H
	DB	0bdH
	DB	018H
	DB	0c6H
	DB	018H
	DB	0c6H
	DB	055H
	DB	0adH
	DB	0f7H
	DB	0bdH
	DB	038H
	DB	0c6H
	DB	0d7H
	DB	0bdH
	DB	0f7H
	DB	0bdH
	DB	055H
	DB	0adH
	DB	0b6H
	DB	0b5H
	DB	018H
	DB	0c6H
	DB	0f7H
	DB	0bdH
	DB	0b6H
	DB	0b5H
	DB	0f7H
	DB	0bdH
	DB	038H
	DB	0c6H
	DB	038H
	DB	0c6H
	DB	096H
	DB	0b5H
	DB	075H
	DB	0adH
	DB	038H
	DB	0c6H
	DB	018H
	DB	0c6H
	DB	0d7H
	DB	0bdH
	DB	0d7H
	DB	0bdH
	DB	018H
	DB	0c6H
	DB	096H
	DB	0b5H
	DB	0f7H
	DB	0bdH
	DB	038H
	DB	0c6H
	DB	0b6H
	DB	0b5H
	DB	0f7H
	DB	0bdH
	DB	0f7H
	DB	0bdH
	DB	096H
	DB	0b5H
	DB	0d7H
	DB	0bdH
	DB	038H
	DB	0c6H
	DB	0d7H
	DB	0bdH
	DB	096H
	DB	0b5H
	DB	018H
	DB	0c6H
	DB	0f7H
	DB	0bdH
	DB	096H
	DB	0b5H
	DB	018H
	DB	0c6H
	DB	0d7H
	DB	0bdH
	DB	038H
	DB	0c6H
	DB	0f7H
	DB	0bdH
	DB	0d7H
	DB	0bdH
	DB	0b6H
	DB	0b5H
	DB	0b6H
	DB	0b5H
	DB	018H
	DB	0c6H
	DB	0b6H
	DB	0b5H
	DB	018H
	DB	0c6H
	DB	0d7H
	DB	0bdH
	DB	038H
	DB	0c6H
	DB	018H
	DB	0c6H
	DB	0b6H
	DB	0b5H
	DB	0d7H
	DB	0bdH
	DB	0b6H
	DB	0b5H
	DB	0d7H
	DB	0bdH
	DB	038H
	DB	0c6H
	DB	0f7H
	DB	0bdH
	DB	0f7H
	DB	0bdH
	DB	0d7H
	DB	0bdH
	DB	0f7H
	DB	0bdH
	DB	0b6H
	DB	0b5H
	DB	038H
	DB	0c6H
	DB	0d7H
	DB	0bdH
	DB	0b6H
	DB	0b5H
	DB	075H
	DB	0adH
	DB	0d7H
	DB	0bdH
	DB	059H
	DB	0ceH
	DB	0d7H
	DB	0bdH
	DB	0f7H
	DB	0bdH
	DB	0f7H
	DB	0bdH
	DB	0b6H
	DB	0b5H
	DB	0b6H
	DB	0b5H
	DB	018H
	DB	0c6H
	DB	0f7H
	DB	0bdH
	DB	0b6H
	DB	0b5H
	DB	018H
	DB	0c6H
	DB	0f7H
	DB	0bdH
	DB	0d7H
	DB	0bdH
	DB	0f7H
	DB	0bdH
	DB	018H
	DB	0c6H
	DB	0b6H
	DB	0b5H
	DB	055H
	DB	0adH
	DB	038H
	DB	0c6H
	DB	038H
	DB	0c6H
	DB	018H
	DB	0c6H
	DB	0d7H
	DB	0bdH
	DB	075H
	DB	0adH
	DB	096H
	DB	0b5H
	DB	059H
	DB	0ceH
	DB	018H
	DB	0c6H
	DB	0b6H
	DB	0b5H
	DB	0d7H
	DB	0bdH
	DB	0b6H
	DB	0b5H
	DB	0d7H
	DB	0bdH
	DB	0d7H
	DB	0bdH
	DB	0f7H
	DB	0bdH
	DB	018H
	DB	0c6H
	DB	0d7H
	DB	0bdH
	DB	0d7H
	DB	0bdH
	DB	018H
	DB	0c6H
	DB	018H
	DB	0c6H
	DB	0f7H
	DB	0bdH
	DB	0f7H
	DB	0bdH
	DB	0d7H
	DB	0bdH
	DB	096H
	DB	0b5H
	DB	0f7H
	DB	0bdH
	DB	018H
	DB	0c6H
	DB	0b6H
	DB	0b5H
	DB	0f7H
	DB	0bdH
	DB	018H
	DB	0c6H
	DB	0b6H
	DB	0b5H
	DB	0d7H
	DB	0bdH
	DB	038H
	DB	0c6H
	DB	0f7H
	DB	0bdH
	DB	096H
	DB	0b5H
	DB	0b6H
	DB	0b5H
	DB	0f7H
	DB	0bdH
	DB	018H
	DB	0c6H
	DB	0f7H
	DB	0bdH
	DB	0d7H
	DB	0bdH
	DB	0f7H
	DB	0bdH
	DB	0f7H
	DB	0bdH
	DB	0b6H
	DB	0b5H
	DB	0f7H
	DB	0bdH
	DB	0f7H
	DB	0bdH
	DB	0b6H
	DB	0b5H
	DB	0d7H
	DB	0bdH
	DB	0b6H
	DB	0b5H
	DB	0f7H
	DB	0bdH
	DB	038H
	DB	0c6H
	DB	0b6H
	DB	0b5H
	DB	018H
	DB	0c6H
	DB	096H
	DB	0b5H
	DB	0b6H
	DB	0b5H
	DB	038H
	DB	0c6H
	DB	0f7H
	DB	0bdH
	DB	0b6H
	DB	0b5H
	DB	0d7H
	DB	0bdH
	DB	018H
	DB	0c6H
	DB	0d7H
	DB	0bdH
	DB	018H
	DB	0c6H
	DB	0b6H
	DB	0b5H
	DB	0d7H
	DB	0bdH
	DB	018H
	DB	0c6H
	DB	0d7H
	DB	0bdH
	DB	0b6H
	DB	0b5H
	DB	0d7H
	DB	0bdH
	DB	018H
	DB	0c6H
	DB	0f7H
	DB	0bdH
	DB	0f7H
	DB	0bdH
	DB	096H
	DB	0b5H
	DB	0b6H
	DB	0b5H
	DB	038H
	DB	0c6H
	DB	018H
	DB	0c6H
	DB	0d7H
	DB	0bdH
	DB	018H
	DB	0c6H
	DB	038H
	DB	0c6H
	DB	018H
	DB	0c6H
	DB	0f7H
	DB	0bdH
	DB	0d7H
	DB	0bdH
	DB	096H
	DB	0b5H
	DB	096H
	DB	0b5H
	DB	038H
	DB	0c6H
	DB	0d7H
	DB	0bdH
	DB	0f7H
	DB	0bdH
	DB	018H
	DB	0c6H
	DB	0b6H
	DB	0b5H
	DB	0b6H
	DB	0b5H
	DB	018H
	DB	0c6H
	DB	0f7H
	DB	0bdH
	DB	075H
	DB	0adH
	DB	038H
	DB	0c6H
	DB	038H
	DB	0c6H
	DB	0b6H
	DB	0b5H
	DB	018H
	DB	0c6H
	DB	0b6H
	DB	0b5H
	DB	0d7H
	DB	0bdH
	DB	0b6H
	DB	0b5H
	DB	018H
	DB	0c6H
	DB	018H
	DB	0c6H
	DB	0b6H
	DB	0b5H
	DB	0d7H
	DB	0bdH
	DB	0f7H
	DB	0bdH
	DB	096H
	DB	0b5H
	DB	018H
	DB	0c6H
	DB	0f7H
	DB	0bdH
	DB	075H
	DB	0adH
	DB	038H
	DB	0c6H
	DB	059H
	DB	0ceH
	DB	0f7H
	DB	0bdH
	DB	096H
	DB	0b5H
	DB	0d7H
	DB	0bdH
	DB	0b6H
	DB	0b5H
	DB	0b6H
	DB	0b5H
	DB	018H
	DB	0c6H
	DB	0f7H
	DB	0bdH
	DB	018H
	DB	0c6H
	DB	018H
	DB	0c6H
	DB	0d7H
	DB	0bdH
	DB	0d7H
	DB	0bdH
	DB	0b6H
	DB	0b5H
	DB	038H
	DB	0c6H
	DB	0f7H
	DB	0bdH
	DB	0b6H
	DB	0b5H
	DB	096H
	DB	0b5H
	DB	0b6H
	DB	0b5H
	DB	059H
	DB	0ceH
	DB	018H
	DB	0c6H
	DB	0b6H
	DB	0b5H
	DB	018H
	DB	0c6H
	DB	0d7H
	DB	0bdH
	DB	0f7H
	DB	0bdH
	DB	0f7H
	DB	0bdH
	DB	038H
	DB	0c6H
	DB	0f7H
	DB	0bdH
	DB	0d7H
	DB	0bdH
	DB	096H
	DB	0b5H
	DB	075H
	DB	0adH
	DB	0d7H
	DB	0bdH
	DB	0f7H
	DB	0bdH
	DB	038H
	DB	0c6H
	DB	0d7H
	DB	0bdH
	DB	0b6H
	DB	0b5H
	DB	038H
	DB	0c6H
	DB	096H
	DB	0b5H
	DB	0d7H
	DB	0bdH
	DB	018H
	DB	0c6H
	DB	0f7H
	DB	0bdH
	DB	0f7H
	DB	0bdH
	DB	096H
	DB	0b5H
	DB	0d7H
	DB	0bdH
	DB	018H
	DB	0c6H
	DB	0b6H
	DB	0b5H
	DB	0f7H
	DB	0bdH
	DB	038H
	DB	0c6H
	DB	0f7H
	DB	0bdH
	DB	018H
	DB	0c6H
	DB	0b6H
	DB	0b5H
	DB	0f7H
	DB	0bdH
	DB	0b6H
	DB	0b5H
	DB	075H
	DB	0adH
	DB	038H
	DB	0c6H
	DB	0d7H
	DB	0bdH
	DB	018H
	DB	0c6H
	DB	0f7H
	DB	0bdH
	DB	0b6H
	DB	0b5H
	DB	0f7H
	DB	0bdH
	DB	0b6H
	DB	0b5H
	DB	018H
	DB	0c6H
	DB	018H
	DB	0c6H
	DB	0b6H
	DB	0b5H
	DB	0d7H
	DB	0bdH
	DB	0f7H
	DB	0bdH
	DB	0b6H
	DB	0b5H
	DB	075H
	DB	0adH
	DB	038H
	DB	0c6H
	DB	018H
	DB	0c6H
	DB	0f7H
	DB	0bdH
	DB	0d7H
	DB	0bdH
	DB	0d7H
	DB	0bdH
	DB	096H
	DB	0b5H
	DB	018H
	DB	0c6H
	DB	0d7H
	DB	0bdH
	DB	0f7H
	DB	0bdH
	DB	096H
	DB	0b5H
	DB	0f7H
	DB	0bdH
	DB	038H
	DB	0c6H
	DB	0f7H
	DB	0bdH
	DB	0d7H
	DB	0bdH
	DB	034H
	DB	0a5H
	DB	0d7H
	DB	0bdH
	DB	018H
	DB	0c6H
	DB	096H
	DB	0b5H
	DB	038H
	DB	0c6H
	DB	0f7H
	DB	0bdH
	DB	0f7H
	DB	0bdH
	DB	0f7H
	DB	0bdH
	DB	0d7H
	DB	0bdH
	DB	018H
	DB	0c6H
	DB	0f7H
	DB	0bdH
	DB	0b6H
	DB	0b5H
	DB	0d7H
	DB	0bdH
	DB	038H
	DB	0c6H
	DB	0d7H
	DB	0bdH
	DB	0b6H
	DB	0b5H
	DB	0b6H
	DB	0b5H
	DB	038H
	DB	0c6H
	DB	0f7H
	DB	0bdH
	DB	0b6H
	DB	0b5H
	DB	018H
	DB	0c6H
	DB	0f7H
	DB	0bdH
	DB	0b6H
	DB	0b5H
	DB	075H
	DB	0adH
	DB	075H
	DB	0adH
	DB	0b6H
	DB	0b5H
	DB	0f7H
	DB	0bdH
	DB	0f7H
	DB	0bdH
	DB	096H
	DB	0b5H
	DB	0f7H
	DB	0bdH
	DB	0b6H
	DB	0b5H
	DB	059H
	DB	0ceH
	DB	0d7H
	DB	0bdH
	DB	0d7H
	DB	0bdH
	DB	0f7H
	DB	0bdH
	DB	096H
	DB	0b5H
	DB	038H
	DB	0c6H
	DB	018H
	DB	0c6H
	DB	0b6H
	DB	0b5H
	DB	0d7H
	DB	0bdH
	DB	055H
	DB	0adH
	DB	096H
	DB	0b5H
	DB	038H
	DB	0c6H
	DB	0f7H
	DB	0bdH
	DB	0d7H
	DB	0bdH
	DB	038H
	DB	0c6H
	DB	018H
	DB	0c6H
	DB	018H
	DB	0c6H
	DB	096H
	DB	0b5H
	DB	096H
	DB	0b5H
	DB	059H
	DB	0ceH
	DB	018H
	DB	0c6H
	DB	0b6H
	DB	0b5H
	DB	096H
	DB	0b5H
	DB	0f7H
	DB	0bdH
	DB	0b6H
	DB	0b5H
	DB	018H
	DB	0c6H
	DB	038H
	DB	0c6H
	DB	038H
	DB	0c6H
	DB	0b6H
	DB	0b5H
	DB	0f7H
	DB	0bdH
	DB	0d7H
	DB	0bdH
	DB	075H
	DB	0adH
	DB	038H
	DB	0c6H
	DB	0f7H
	DB	0bdH
	DB	0d7H
	DB	0bdH
	DB	0b6H
	DB	0b5H
	DB	096H
	DB	0b5H
	DB	018H
	DB	0c6H
	DB	038H
	DB	0c6H
	DB	0b6H
	DB	0b5H
	DB	018H
	DB	0c6H
	DB	0f7H
	DB	0bdH
	DB	0d7H
	DB	0bdH
	DB	0b6H
	DB	0b5H
	DB	075H
	DB	0adH
	DB	018H
	DB	0c6H
	DB	018H
	DB	0c6H
	DB	038H
	DB	0c6H
	DB	0d7H
	DB	0bdH
	DB	018H
	DB	0c6H
	DB	018H
	DB	0c6H
	DB	0b6H
	DB	0b5H
	DB	0d7H
	DB	0bdH
	DB	075H
	DB	0adH
	DB	0b6H
	DB	0b5H
	DB	018H
	DB	0c6H
	DB	0f7H
	DB	0bdH
	DB	018H
	DB	0c6H
	DB	0b6H
	DB	0b5H
	DB	0f7H
	DB	0bdH
	DB	0d7H
	DB	0bdH
	DB	038H
	DB	0c6H
	DB	0f7H
	DB	0bdH
	DB	0b6H
	DB	0b5H
	DB	075H
	DB	0adH
	DB	0b6H
	DB	0b5H
	DB	038H
	DB	0c6H
	DB	0f7H
	DB	0bdH
	DB	038H
	DB	0c6H
	DB	018H
	DB	0c6H
	DB	0d7H
	DB	0bdH
	DB	075H
	DB	0adH
	DB	0f7H
	DB	0bdH
	DB	038H
	DB	0c6H
	DB	0b6H
	DB	0b5H
	DB	018H
	DB	0c6H
	DB	0f7H
	DB	0bdH
	DB	0f7H
	DB	0bdH
	DB	0b6H
	DB	0b5H
	DB	0d7H
	DB	0bdH
	DB	0b6H
	DB	0b5H
	DB	0d7H
	DB	0bdH
	DB	038H
	DB	0c6H
	DB	0f7H
	DB	0bdH
	DB	0d7H
	DB	0bdH
	DB	0d7H
	DB	0bdH
	DB	0d7H
	DB	0bdH
	DB	0d7H
	DB	0bdH
	DB	0f7H
	DB	0bdH
	DB	038H
	DB	0c6H
	DB	0d7H
	DB	0bdH
	DB	0b6H
	DB	0b5H
	DB	0d7H
	DB	0bdH
	DB	0f7H
	DB	0bdH
	DB	0b6H
	DB	0b5H
	DB	0b6H
	DB	0b5H
	DB	038H
	DB	0c6H
	DB	0f7H
	DB	0bdH
	DB	0b6H
	DB	0b5H
	DB	0f7H
	DB	0bdH
	DB	0f7H
	DB	0bdH
	DB	0d7H
	DB	0bdH
	DB	0d7H
	DB	0bdH
	DB	018H
	DB	0c6H
	DB	096H
	DB	0b5H
	DB	0b6H
	DB	0b5H
	DB	059H
	DB	0ceH
	DB	0d7H
	DB	0bdH
	DB	0b6H
	DB	0b5H
	DB	0f7H
	DB	0bdH
	DB	0b6H
	DB	0b5H
	DB	0b6H
	DB	0b5H
	DB	038H
	DB	0c6H
	DB	0f7H
	DB	0bdH
	DB	0f7H
	DB	0bdH
	DB	0f7H
	DB	0bdH
	DB	0f7H
	DB	0bdH
	DB	0b6H
	DB	0b5H
	DB	0b6H
	DB	0b5H
	DB	018H
	DB	0c6H
	DB	018H
	DB	0c6H
	DB	0b6H
	DB	0b5H
	DB	0f7H
	DB	0bdH
	DB	0f7H
	DB	0bdH
	DB	0f7H
	DB	0bdH
	DB	0d7H
	DB	0bdH
	DB	096H
	DB	0b5H
	DB	0d7H
	DB	0bdH
	DB	0f7H
	DB	0bdH
	DB	038H
	DB	0c6H
	DB	0f7H
	DB	0bdH
	DB	0f7H
	DB	0bdH
	DB	0b6H
	DB	0b5H
	DB	075H
	DB	0adH
	DB	0f7H
	DB	0bdH
	DB	0f7H
	DB	0bdH
	DB	0b6H
	DB	0b5H
	DB	018H
	DB	0c6H
	DB	018H
	DB	0c6H
	DB	0b6H
	DB	0b5H
	DB	0d7H
	DB	0bdH
	DB	0f7H
	DB	0bdH
	DB	018H
	DB	0c6H
	DB	0f7H
	DB	0bdH
	DB	0f7H
	DB	0bdH
	DB	0f7H
	DB	0bdH
	DB	096H
	DB	0b5H
	DB	0f7H
	DB	0bdH
	DB	0d7H
	DB	0bdH
	DB	096H
	DB	0b5H
	DB	096H
	DB	0b5H
	DB	018H
	DB	0c6H
	DB	0f7H
	DB	0bdH
	DB	038H
	DB	0c6H
	DB	0f7H
	DB	0bdH
	DB	0d7H
	DB	0bdH
	DB	018H
	DB	0c6H
	DB	038H
	DB	0c6H
	DB	0d7H
	DB	0bdH
	DB	0b6H
	DB	0b5H
	DB	018H
	DB	0c6H
	DB	096H
	DB	0b5H
	DB	018H
	DB	0c6H
	DB	0b6H
	DB	0b5H
	DB	0b6H
	DB	0b5H
	DB	038H
	DB	0c6H
	DB	0b6H
	DB	0b5H
	DB	0d7H
	DB	0bdH
	DB	0f7H
	DB	0bdH
	DB	0f7H
	DB	0bdH
	DB	0d7H
	DB	0bdH
	DB	0d7H
	DB	0bdH
	DB	038H
	DB	0c6H
	DB	0d7H
	DB	0bdH
	DB	0d7H
	DB	0bdH
	DB	0d7H
	DB	0bdH
	DB	0f7H
	DB	0bdH
	DB	096H
	DB	0b5H
	DB	0d7H
	DB	0bdH
	DB	038H
	DB	0c6H
	DB	0b6H
	DB	0b5H
	DB	0f7H
	DB	0bdH
	DB	018H
	DB	0c6H
	DB	0b6H
	DB	0b5H
	DB	075H
	DB	0adH
	DB	0b6H
	DB	0b5H
	DB	0f7H
	DB	0bdH
	DB	038H
	DB	0c6H
	DB	018H
	DB	0c6H
	DB	0f7H
	DB	0bdH
	DB	0b6H
	DB	0b5H
	DB	0f7H
	DB	0bdH
	DB	018H
	DB	0c6H
	DB	0b6H
	DB	0b5H
	DB	0b6H
	DB	0b5H
	DB	038H
	DB	0c6H
	DB	0b6H
	DB	0b5H
	DB	0b6H
	DB	0b5H
	DB	038H
	DB	0c6H
	DB	0f7H
	DB	0bdH
	DB	0b6H
	DB	0b5H
	DB	038H
	DB	0c6H
	DB	0d7H
	DB	0bdH
	DB	0d7H
	DB	0bdH
	DB	0d7H
	DB	0bdH
	DB	055H
	DB	0adH
	DB	038H
	DB	0c6H
	DB	038H
	DB	0c6H
	DB	0d7H
	DB	0bdH
	DB	0f7H
	DB	0bdH
	DB	0b6H
	DB	0b5H
	DB	0d7H
	DB	0bdH
	DB	038H
	DB	0c6H
	DB	0f7H
	DB	0bdH
	DB	0f7H
	DB	0bdH
	DB	0d7H
	DB	0bdH
	DB	0b6H
	DB	0b5H
	DB	055H
	DB	0adH
	DB	0d7H
	DB	0bdH
	DB	059H
	DB	0ceH
	DB	0d7H
	DB	0bdH
	DB	0b6H
	DB	0b5H
	DB	018H
	DB	0c6H
	DB	018H
	DB	0c6H
	DB	0b6H
	DB	0b5H
	DB	0f7H
	DB	0bdH
	DB	0d7H
	DB	0bdH
	DB	096H
	DB	0b5H
	DB	038H
	DB	0c6H
	DB	075H
	DB	0adH
	DB	0b6H
	DB	0b5H
	DB	038H
	DB	0c6H
	DB	0b6H
	DB	0b5H
	DB	0b6H
	DB	0b5H
	DB	038H
	DB	0c6H
	DB	0d7H
	DB	0bdH
	DB	0f7H
	DB	0bdH
	DB	0d7H
	DB	0bdH
	DB	0f7H
	DB	0bdH
	DB	018H
	DB	0c6H
	DB	055H
	DB	0adH
	DB	038H
	DB	0c6H
	DB	018H
	DB	0c6H
	DB	0d7H
	DB	0bdH
	DB	038H
	DB	0c6H
	DB	0d7H
	DB	0bdH
	DB	0f7H
	DB	0bdH
	DB	0b6H
	DB	0b5H
	DB	0b6H
	DB	0b5H
	DB	018H
	DB	0c6H
	DB	0f7H
	DB	0bdH
	DB	0b6H
	DB	0b5H
	DB	0f7H
	DB	0bdH
	DB	0f7H
	DB	0bdH
	DB	096H
	DB	0b5H
	DB	0b6H
	DB	0b5H
	DB	059H
	DB	0ceH
	DB	038H
	DB	0c6H
	DB	0b6H
	DB	0b5H
	DB	075H
	DB	0adH
	DB	018H
	DB	0c6H
	DB	038H
	DB	0c6H
	DB	0b6H
	DB	0b5H
	DB	0f7H
	DB	0bdH
	DB	096H
	DB	0b5H
	DB	0d7H
	DB	0bdH
	DB	018H
	DB	0c6H
	DB	0d7H
	DB	0bdH
	DB	0d7H
	DB	0bdH
	DB	096H
	DB	0b5H
	DB	018H
	DB	0c6H
	DB	0f7H
	DB	0bdH
	DB	075H
	DB	0adH
	DB	038H
	DB	0c6H
	DB	0d7H
	DB	0bdH
	DB	0b6H
	DB	0b5H
	DB	0b6H
	DB	0b5H
	DB	0f7H
	DB	0bdH
	DB	0f7H
	DB	0bdH
	DB	0d7H
	DB	0bdH
	DB	0d7H
	DB	0bdH
	DB	0f7H
	DB	0bdH
	DB	018H
	DB	0c6H
	DB	0b6H
	DB	0b5H
	DB	0b6H
	DB	0b5H
	DB	0d7H
	DB	0bdH
	DB	0f7H
	DB	0bdH
	DB	0b6H
	DB	0b5H
	DB	0f7H
	DB	0bdH
	DB	059H
	DB	0ceH
	DB	0d7H
	DB	0bdH
	DB	075H
	DB	0adH
	DB	0d7H
	DB	0bdH
	DB	0b6H
	DB	0b5H
	DB	0d7H
	DB	0bdH
	DB	038H
	DB	0c6H
	DB	0f7H
	DB	0bdH
	DB	075H
	DB	0adH
	DB	0b6H
	DB	0b5H
	DB	0d7H
	DB	0bdH
	DB	038H
	DB	0c6H
	DB	0f7H
	DB	0bdH
	DB	0b6H
	DB	0b5H
	DB	034H
	DB	0a5H
	DB	0b6H
	DB	0b5H
	DB	059H
	DB	0ceH
	DB	018H
	DB	0c6H
	DB	0b6H
	DB	0b5H
	DB	0b6H
	DB	0b5H
	DB	075H
	DB	0adH
	DB	0f7H
	DB	0bdH
	DB	038H
	DB	0c6H
	DB	018H
	DB	0c6H
	DB	096H
	DB	0b5H
	DB	018H
	DB	0c6H
	DB	018H
	DB	0c6H
	DB	0d7H
	DB	0bdH
	DB	0d7H
	DB	0bdH
	DB	096H
	DB	0b5H
	DB	038H
	DB	0c6H
	DB	018H
	DB	0c6H
	DB	0d7H
	DB	0bdH
	DB	096H
	DB	0b5H
	DB	0b6H
	DB	0b5H
	DB	0f7H
	DB	0bdH
	DB	0f7H
	DB	0bdH
	DB	0f7H
	DB	0bdH
	DB	018H
	DB	0c6H
	DB	0d7H
	DB	0bdH
	DB	038H
	DB	0c6H
	DB	0d7H
	DB	0bdH
	DB	055H
	DB	0adH
	DB	038H
	DB	0c6H
	DB	018H
	DB	0c6H
	DB	0d7H
	DB	0bdH
	DB	096H
	DB	0b5H
	DB	0b6H
	DB	0b5H
	DB	038H
	DB	0c6H
	DB	038H
	DB	0c6H
	DB	0b6H
	DB	0b5H
	DB	018H
	DB	0c6H
	DB	0f7H
	DB	0bdH
	DB	0b6H
	DB	0b5H
	DB	0b6H
	DB	0b5H
	DB	075H
	DB	0adH
	DB	018H
	DB	0c6H
	DB	018H
	DB	0c6H
	DB	018H
	DB	0c6H
	DB	0d7H
	DB	0bdH
	DB	0d7H
	DB	0bdH
	DB	038H
	DB	0c6H
	DB	0d7H
	DB	0bdH
	DB	0f7H
	DB	0bdH
	DB	096H
	DB	0b5H
	DB	096H
	DB	0b5H
	DB	018H
	DB	0c6H
	DB	0b6H
	DB	0b5H
	DB	018H
	DB	0c6H
	DB	075H
	DB	0adH
	DB	0d7H
	DB	0bdH
	DB	059H
	DB	0ceH
	DB	018H
	DB	0c6H
	DB	0f7H
	DB	0bdH
	DB	018H
	DB	0c6H
	DB	096H
	DB	0b5H
	DB	075H
	DB	0adH
	DB	038H
	DB	0c6H
	DB	018H
	DB	0c6H
	DB	0b6H
	DB	0b5H
	DB	0d7H
	DB	0bdH
	DB	018H
	DB	0c6H
	DB	096H
	DB	0b5H
	DB	0d7H
	DB	0bdH
	DB	038H
	DB	0c6H
	DB	0d7H
	DB	0bdH
	DB	0f7H
	DB	0bdH
	DB	0f7H
	DB	0bdH
	DB	0f7H
	DB	0bdH
	DB	0b6H
	DB	0b5H
	DB	096H
	DB	0b5H
	DB	0f7H
	DB	0bdH
	DB	038H
	DB	0c6H
	DB	018H
	DB	0c6H
	DB	0f7H
	DB	0bdH
	DB	0b6H
	DB	0b5H
	DB	0d7H
	DB	0bdH
	DB	0b6H
	DB	0b5H
	DB	018H
	DB	0c6H
	DB	0b6H
	DB	0b5H
	DB	0f7H
	DB	0bdH
	DB	0f7H
	DB	0bdH
	DB	0b6H
	DB	0b5H
	DB	0f7H
	DB	0bdH
	DB	0f7H
	DB	0bdH
	DB	0b6H
	DB	0b5H
	DB	0b6H
	DB	0b5H
	DB	038H
	DB	0c6H
	DB	0f7H
	DB	0bdH
	DB	0d7H
	DB	0bdH
	DB	0f7H
	DB	0bdH
	DB	0d7H
	DB	0bdH
	DB	0d7H
	DB	0bdH
	DB	0b6H
	DB	0b5H
	DB	0d7H
	DB	0bdH
	DB	0d7H
	DB	0bdH
	DB	096H
	DB	0b5H
	DB	059H
	DB	0ceH
	DB	038H
	DB	0c6H
	DB	0b6H
	DB	0b5H
	DB	0b6H
	DB	0b5H
	DB	096H
	DB	0b5H
	DB	0d7H
	DB	0bdH
	DB	018H
	DB	0c6H
	DB	0b6H
	DB	0b5H
	DB	0f7H
	DB	0bdH
	DB	038H
	DB	0c6H
	DB	018H
	DB	0c6H
	DB	0b6H
	DB	0b5H
	DB	055H
	DB	0adH
	DB	038H
	DB	0c6H
	DB	018H
	DB	0c6H
	DB	0d7H
	DB	0bdH
	DB	0f7H
	DB	0bdH
	DB	0f7H
	DB	0bdH
	DB	0d7H
	DB	0bdH
	DB	0d7H
	DB	0bdH
	DB	096H
	DB	0b5H
	DB	018H
	DB	0c6H
	DB	0d7H
	DB	0bdH
	DB	0b6H
	DB	0b5H
	DB	038H
	DB	0c6H
	DB	018H
	DB	0c6H
	DB	096H
	DB	0b5H
	DB	096H
	DB	0b5H
	DB	0f7H
	DB	0bdH
	DB	0b6H
	DB	0b5H
	DB	0f7H
	DB	0bdH
	DB	038H
	DB	0c6H
	DB	018H
	DB	0c6H
	DB	0b6H
	DB	0b5H
	DB	0b6H
	DB	0b5H
	DB	0f7H
	DB	0bdH
	DB	038H
	DB	0c6H
	DB	0d7H
	DB	0bdH
	DB	0f7H
	DB	0bdH
	DB	0d7H
	DB	0bdH
	DB	096H
	DB	0b5H
	DB	0d7H
	DB	0bdH
	DB	0f7H
	DB	0bdH
	DB	0f7H
	DB	0bdH
	DB	096H
	DB	0b5H
	DB	038H
	DB	0c6H
	DB	0d7H
	DB	0bdH
	DB	0f7H
	DB	0bdH
	DB	018H
	DB	0c6H
	DB	0d7H
	DB	0bdH
	DB	0f7H
	DB	0bdH
	DB	038H
	DB	0c6H
	DB	0f7H
	DB	0bdH
	DB	096H
	DB	0b5H
	DB	038H
	DB	0c6H
	DB	0d7H
	DB	0bdH
	DB	0f7H
	DB	0bdH
	DB	0d7H
	DB	0bdH
	DB	0b6H
	DB	0b5H
	DB	038H
	DB	0c6H
	DB	0b6H
	DB	0b5H
	DB	0b6H
	DB	0b5H
	DB	0f7H
	DB	0bdH
	DB	038H
	DB	0c6H
	DB	0f7H
	DB	0bdH
	DB	0b6H
	DB	0b5H
	DB	018H
	DB	0c6H
	DB	018H
	DB	0c6H
	DB	0f7H
	DB	0bdH
	DB	0b6H
	DB	0b5H
	DB	018H
	DB	0c6H
	DB	096H
	DB	0b5H
	DB	096H
	DB	0b5H
	DB	018H
	DB	0c6H
	DB	0f7H
	DB	0bdH
	DB	018H
	DB	0c6H
	DB	0d7H
	DB	0bdH
	DB	096H
	DB	0b5H
	DB	075H
	DB	0adH
	DB	0d7H
	DB	0bdH
	DB	059H
	DB	0ceH
	DB	018H
	DB	0c6H
	DB	0d7H
	DB	0bdH
	DB	0f7H
	DB	0bdH
	DB	075H
	DB	0adH
	DB	0d7H
	DB	0bdH
	DB	038H
	DB	0c6H
	DB	0b6H
	DB	0b5H
	DB	0b6H
	DB	0b5H
	DB	018H
	DB	0c6H
	DB	0b6H
	DB	0b5H
	DB	0d7H
	DB	0bdH
	DB	0d7H
	DB	0bdH
	DB	0f7H
	DB	0bdH
	DB	0b6H
	DB	0b5H
	DB	018H
	DB	0c6H
	DB	0f7H
	DB	0bdH
	DB	018H
	DB	0c6H
	DB	0d7H
	DB	0bdH
	DB	096H
	DB	0b5H
	DB	038H
	DB	0c6H
	DB	059H
	DB	0ceH
	DB	0d7H
	DB	0bdH
	DB	0f7H
	DB	0bdH
	DB	0b6H
	DB	0b5H
	DB	0f7H
	DB	0bdH
	DB	038H
	DB	0c6H
	DB	0f7H
	DB	0bdH
	DB	0b6H
	DB	0b5H
	DB	0d7H
	DB	0bdH
	DB	0d7H
	DB	0bdH
	DB	075H
	DB	0adH
	DB	0f7H
	DB	0bdH
	DB	059H
	DB	0ceH
	DB	0b6H
	DB	0b5H
	DB	096H
	DB	0b5H
	DB	038H
	DB	0c6H
	DB	018H
	DB	0c6H
	DB	0d7H
	DB	0bdH
	DB	0d7H
	DB	0bdH
	DB	0f7H
	DB	0bdH
	DB	075H
	DB	0adH
	DB	0b6H
	DB	0b5H
	DB	0b6H
	DB	0b5H
	DB	0f7H
	DB	0bdH
	DB	059H
	DB	0ceH
	DB	018H
	DB	0c6H
	DB	0b6H
	DB	0b5H
	DB	0b6H
	DB	0b5H
	DB	018H
	DB	0c6H
	DB	038H
	DB	0c6H
	DB	096H
	DB	0b5H
	DB	0f7H
	DB	0bdH
	DB	038H
	DB	0c6H
	DB	096H
	DB	0b5H
	DB	0d7H
	DB	0bdH
	DB	0f7H
	DB	0bdH
	DB	0d7H
	DB	0bdH
	DB	0f7H
	DB	0bdH
	DB	018H
	DB	0c6H
	DB	0f7H
	DB	0bdH
	DB	0d7H
	DB	0bdH
	DB	0b6H
	DB	0b5H
	DB	018H
	DB	0c6H
	DB	0f7H
	DB	0bdH
	DB	0d7H
	DB	0bdH
	DB	018H
	DB	0c6H
	DB	0f7H
	DB	0bdH
	DB	075H
	DB	0adH
	DB	0b6H
	DB	0b5H
	DB	059H
	DB	0ceH
	DB	0d7H
	DB	0bdH
	DB	0d7H
	DB	0bdH
	DB	0b6H
	DB	0b5H
	DB	038H
	DB	0c6H
	DB	018H
	DB	0c6H
	DB	0d7H
	DB	0bdH
	DB	0f7H
	DB	0bdH
	DB	096H
	DB	0b5H
	DB	0b6H
	DB	0b5H
	DB	0f7H
	DB	0bdH
	DB	0d7H
	DB	0bdH
	DB	038H
	DB	0c6H
	DB	038H
	DB	0c6H
	DB	0d7H
	DB	0bdH
	DB	0d7H
	DB	0bdH
	DB	075H
	DB	0adH
	DB	018H
	DB	0c6H
	DB	018H
	DB	0c6H
	DB	0b6H
	DB	0b5H
	DB	0b6H
	DB	0b5H
	DB	018H
	DB	0c6H
	DB	0b6H
	DB	0b5H
	DB	0b6H
	DB	0b5H
	DB	075H
	DB	0adH
	DB	0f7H
	DB	0bdH
	DB	038H
	DB	0c6H
	DB	0f7H
	DB	0bdH
	DB	018H
	DB	0c6H
	DB	0b6H
	DB	0b5H
	DB	0f7H
	DB	0bdH
	DB	075H
	DB	0adH
	DB	038H
	DB	0c6H
	DB	0f7H
	DB	0bdH
	DB	0f7H
	DB	0bdH
	DB	0f7H
	DB	0bdH
	DB	0f7H
	DB	0bdH
	DB	0d7H
	DB	0bdH
	DB	0f7H
	DB	0bdH
	DB	018H
	DB	0c6H
	DB	0d7H
	DB	0bdH
	DB	0b6H
	DB	0b5H
	DB	0d7H
	DB	0bdH
	DB	0f7H
	DB	0bdH
	DB	0f7H
	DB	0bdH
	DB	0f7H
	DB	0bdH
	DB	0f7H
	DB	0bdH
	DB	055H
	DB	0adH
	DB	0d7H
	DB	0bdH
	DB	059H
	DB	0ceH
	DB	018H
	DB	0c6H
	DB	0d7H
	DB	0bdH
	DB	0f7H
	DB	0bdH
	DB	096H
	DB	0b5H
	DB	0b6H
	DB	0b5H
	DB	059H
	DB	0ceH
	DB	0f7H
	DB	0bdH
	DB	096H
	DB	0b5H
	DB	0f7H
	DB	0bdH
	DB	018H
	DB	0c6H
	DB	0f7H
	DB	0bdH
	DB	0d7H
	DB	0bdH
	DB	0b6H
	DB	0b5H
	DB	018H
	DB	0c6H
	DB	0f7H
	DB	0bdH
	DB	0f7H
	DB	0bdH
	DB	0f7H
	DB	0bdH
	DB	096H
	DB	0b5H
	DB	0f7H
	DB	0bdH
	DB	038H
	DB	0c6H
	DB	096H
	DB	0b5H
	DB	096H
	DB	0b5H
	DB	0b6H
	DB	0b5H
	DB	059H
	DB	0ceH
	DB	0d7H
	DB	0bdH
	DB	096H
	DB	0b5H
	DB	038H
	DB	0c6H
	DB	0d7H
	DB	0bdH
	DB	018H
	DB	0c6H
	DB	0f7H
	DB	0bdH
	DB	096H
	DB	0b5H
	DB	0f7H
	DB	0bdH
	DB	038H
	DB	0c6H
	DB	0b6H
	DB	0b5H
	DB	0f7H
	DB	0bdH
	DB	018H
	DB	0c6H
	DB	0f7H
	DB	0bdH
	DB	096H
	DB	0b5H
	DB	0b6H
	DB	0b5H
	DB	0b6H
	DB	0b5H
	DB	0b6H
	DB	0b5H
	DB	038H
	DB	0c6H
	DB	0b6H
	DB	0b5H
	DB	0d7H
	DB	0bdH
	DB	038H
	DB	0c6H
	DB	0b6H
	DB	0b5H
	DB	0d7H
	DB	0bdH
	DB	0b6H
	DB	0b5H
	DB	0d7H
	DB	0bdH
	DB	038H
	DB	0c6H
	DB	0b6H
	DB	0b5H
	DB	0f7H
	DB	0bdH
	DB	096H
	DB	0b5H
	DB	0b6H
	DB	0b5H
	DB	059H
	DB	0ceH
	DB	018H
	DB	0c6H
	DB	0d7H
	DB	0bdH
	DB	0f7H
	DB	0bdH
	DB	096H
	DB	0b5H
	DB	0b6H
	DB	0b5H
	DB	038H
	DB	0c6H
	DB	018H
	DB	0c6H
	DB	0b6H
	DB	0b5H
	DB	096H
	DB	0b5H
	DB	0d7H
	DB	0bdH
	DB	0b6H
	DB	0b5H
	DB	096H
	DB	0b5H
	DB	059H
	DB	0ceH
	DB	018H
	DB	0c6H
	DB	0b6H
	DB	0b5H
	DB	0f7H
	DB	0bdH
	DB	0d7H
	DB	0bdH
	DB	096H
	DB	0b5H
	DB	0d7H
	DB	0bdH
	DB	0d7H
	DB	0bdH
	DB	0d7H
	DB	0bdH
	DB	038H
	DB	0c6H
	DB	0f7H
	DB	0bdH
	DB	0d7H
	DB	0bdH
	DB	0f7H
	DB	0bdH
	DB	0b6H
	DB	0b5H
	DB	018H
	DB	0c6H
	DB	0d7H
	DB	0bdH
	DB	0d7H
	DB	0bdH
	DB	038H
	DB	0c6H
	DB	0f7H
	DB	0bdH
	DB	0d7H
	DB	0bdH
	DB	0d7H
	DB	0bdH
	DB	096H
	DB	0b5H
	DB	0f7H
	DB	0bdH
	DB	018H
	DB	0c6H
	DB	0b6H
	DB	0b5H
	DB	0f7H
	DB	0bdH
	DB	018H
	DB	0c6H
	DB	0b6H
	DB	0b5H
	DB	0f7H
	DB	0bdH
	DB	0d7H
	DB	0bdH
	DB	0f7H
	DB	0bdH
	DB	0d7H
	DB	0bdH
	DB	096H
	DB	0b5H
	DB	038H
	DB	0c6H
	DB	038H
	DB	0c6H
	DB	018H
	DB	0c6H
	DB	0d7H
	DB	0bdH
	DB	096H
	DB	0b5H
	DB	0f7H
	DB	0bdH
	DB	038H
	DB	0c6H
	DB	0d7H
	DB	0bdH
	DB	096H
	DB	0b5H
	DB	018H
	DB	0c6H
	DB	018H
	DB	0c6H
	DB	0d7H
	DB	0bdH
	DB	075H
	DB	0adH
	DB	018H
	DB	0c6H
	DB	038H
	DB	0c6H
	DB	0d7H
	DB	0bdH
	DB	0b6H
	DB	0b5H
	DB	0f7H
	DB	0bdH
	DB	0f7H
	DB	0bdH
	DB	0d7H
	DB	0bdH
	DB	0f7H
	DB	0bdH
	DB	0f7H
	DB	0bdH
	DB	0b6H
	DB	0b5H
	DB	096H
	DB	0b5H
	DB	038H
	DB	0c6H
	DB	038H
	DB	0c6H
	DB	0b6H
	DB	0b5H
	DB	018H
	DB	0c6H
	DB	0f7H
	DB	0bdH
	DB	075H
	DB	0adH
	DB	018H
	DB	0c6H
	DB	018H
	DB	0c6H
	DB	018H
	DB	0c6H
	DB	0d7H
	DB	0bdH
	DB	0d7H
	DB	0bdH
	DB	0d7H
	DB	0bdH
	DB	018H
	DB	0c6H
	DB	0d7H
	DB	0bdH
	DB	0d7H
	DB	0bdH
	DB	0f7H
	DB	0bdH
	DB	0d7H
	DB	0bdH
	DB	0d7H
	DB	0bdH
	DB	0b6H
	DB	0b5H
	DB	0f7H
	DB	0bdH
	DB	096H
	DB	0b5H
	DB	038H
	DB	0c6H
	DB	0f7H
	DB	0bdH
	DB	0b6H
	DB	0b5H
	DB	0f7H
	DB	0bdH
	DB	018H
	DB	0c6H
	DB	0b6H
	DB	0b5H
	DB	0d7H
	DB	0bdH
	DB	0d7H
	DB	0bdH
	DB	0f7H
	DB	0bdH
	DB	059H
	DB	0ceH
	DB	0d7H
	DB	0bdH
	DB	0d7H
	DB	0bdH
	DB	0f7H
	DB	0bdH
	DB	0f7H
	DB	0bdH
	DB	0d7H
	DB	0bdH
	DB	0b6H
	DB	0b5H
	DB	0b6H
	DB	0b5H
	DB	0f7H
	DB	0bdH
	DB	038H
	DB	0c6H
	DB	0d7H
	DB	0bdH
	DB	0d7H
	DB	0bdH
	DB	0b6H
	DB	0b5H
	DB	0f7H
	DB	0bdH
	DB	018H
	DB	0c6H
	DB	096H
	DB	0b5H
	DB	0f7H
	DB	0bdH
	DB	0d7H
	DB	0bdH
	DB	075H
	DB	0adH
	DB	0b6H
	DB	0b5H
	DB	059H
	DB	0ceH
	DB	0f7H
	DB	0bdH
	DB	096H
	DB	0b5H
	DB	0b6H
	DB	0b5H
	DB	018H
	DB	0c6H
	DB	0b6H
	DB	0b5H
	DB	038H
	DB	0c6H
	DB	0f7H
	DB	0bdH
	DB	0f7H
	DB	0bdH
	DB	0f7H
	DB	0bdH
	DB	0b6H
	DB	0b5H
	DB	096H
	DB	0b5H
	DB	0f7H
	DB	0bdH
	DB	0f7H
	DB	0bdH
	DB	0d7H
	DB	0bdH
	DB	0b6H
	DB	0b5H
	DB	0d7H
	DB	0bdH
	DB	018H
	DB	0c6H
	DB	038H
	DB	0c6H
	DB	0d7H
	DB	0bdH
	DB	096H
	DB	0b5H
	DB	0f7H
	DB	0bdH
	DB	059H
	DB	0ceH
	DB	0f7H
	DB	0bdH
	DB	096H
	DB	0b5H
	DB	0b6H
	DB	0b5H
	DB	038H
	DB	0c6H
	DB	0b6H
	DB	0b5H
	DB	0d7H
	DB	0bdH
	DB	0d7H
	DB	0bdH
	DB	0d7H
	DB	0bdH
	DB	0f7H
	DB	0bdH
	DB	018H
	DB	0c6H
	DB	018H
	DB	0c6H
	DB	0b6H
	DB	0b5H
	DB	0b6H
	DB	0b5H
	DB	018H
	DB	0c6H
	DB	096H
	DB	0b5H
	DB	0b6H
	DB	0b5H
	DB	018H
	DB	0c6H
	DB	0d7H
	DB	0bdH
	DB	0d7H
	DB	0bdH
	DB	0f7H
	DB	0bdH
	DB	038H
	DB	0c6H
	DB	018H
	DB	0c6H
	DB	0b6H
	DB	0b5H
	DB	0d7H
	DB	0bdH
	DB	0d7H
	DB	0bdH
	DB	0b6H
	DB	0b5H
	DB	0d7H
	DB	0bdH
	DB	038H
	DB	0c6H
	DB	0f7H
	DB	0bdH
	DB	018H
	DB	0c6H
	DB	0d7H
	DB	0bdH
	DB	075H
	DB	0adH
	DB	0b6H
	DB	0b5H
	DB	038H
	DB	0c6H
	DB	096H
	DB	0b5H
	DB	0f7H
	DB	0bdH
	DB	038H
	DB	0c6H
	DB	0d7H
	DB	0bdH
	DB	0d7H
	DB	0bdH
	DB	0b6H
	DB	0b5H
	DB	0f7H
	DB	0bdH
	DB	0d7H
	DB	0bdH
	DB	0b6H
	DB	0b5H
	DB	0f7H
	DB	0bdH
	DB	018H
	DB	0c6H
	DB	096H
	DB	0b5H
	DB	0f7H
	DB	0bdH
	DB	0d7H
	DB	0bdH
	DB	0f7H
	DB	0bdH
	DB	038H
	DB	0c6H
	DB	096H
	DB	0b5H
	DB	055H
	DB	0adH
	DB	0d7H
	DB	0bdH
	DB	038H
	DB	0c6H
	DB	0b6H
	DB	0b5H
	DB	038H
	DB	0c6H
	DB	0f7H
	DB	0bdH
	DB	0f7H
	DB	0bdH
	DB	018H
	DB	0c6H
	DB	0d7H
	DB	0bdH
	DB	0f7H
	DB	0bdH
	DB	0b6H
	DB	0b5H
	DB	0b6H
	DB	0b5H
	DB	018H
	DB	0c6H
	DB	0f7H
	DB	0bdH
	DB	038H
	DB	0c6H
	DB	0f7H
	DB	0bdH
	DB	0d7H
	DB	0bdH
	DB	0d7H
	DB	0bdH
	DB	0d7H
	DB	0bdH
	DB	0d7H
	DB	0bdH
	DB	0d7H
	DB	0bdH
	DB	018H
	DB	0c6H
	DB	0b6H
	DB	0b5H
	DB	018H
	DB	0c6H
	DB	0d7H
	DB	0bdH
	DB	0b6H
	DB	0b5H
	DB	034H
	DB	0a5H
	DB	0d7H
	DB	0bdH
	DB	018H
	DB	0c6H
	DB	059H
	DB	0ceH
	DB	018H
	DB	0c6H
	DB	0b6H
	DB	0b5H
	DB	0b6H
	DB	0b5H
	DB	0d7H
	DB	0bdH
	DB	059H
	DB	0ceH
	DB	0d7H
	DB	0bdH
	DB	0d7H
	DB	0bdH
	DB	018H
	DB	0c6H
	DB	0f7H
	DB	0bdH
	DB	0d7H
	DB	0bdH
	DB	0b6H
	DB	0b5H
	DB	0f7H
	DB	0bdH
	DB	0f7H
	DB	0bdH
	DB	0f7H
	DB	0bdH
	DB	0f7H
	DB	0bdH
	DB	0d7H
	DB	0bdH
	DB	0f7H
	DB	0bdH
	DB	0b6H
	DB	0b5H
	DB	0d7H
	DB	0bdH
	DB	096H
	DB	0b5H
	DB	038H
	DB	0c6H
	DB	018H
	DB	0c6H
	DB	018H
	DB	0c6H
	DB	0d7H
	DB	0bdH
	DB	0f7H
	DB	0bdH
	DB	096H
	DB	0b5H
	DB	096H
	DB	0b5H
	DB	038H
	DB	0c6H
	DB	0d7H
	DB	0bdH
	DB	096H
	DB	0b5H
	DB	038H
	DB	0c6H
	DB	038H
	DB	0c6H
	DB	0f7H
	DB	0bdH
	DB	0b6H
	DB	0b5H
	DB	0d7H
	DB	0bdH
	DB	018H
	DB	0c6H
	DB	0f7H
	DB	0bdH
	DB	0d7H
	DB	0bdH
	DB	0f7H
	DB	0bdH
	DB	096H
	DB	0b5H
	DB	0f7H
	DB	0bdH
	DB	038H
	DB	0c6H
	DB	0b6H
	DB	0b5H
	DB	075H
	DB	0adH
	DB	055H
	DB	0adH
	DB	018H
	DB	0c6H
	DB	0f7H
	DB	0bdH
	DB	038H
	DB	0c6H
	DB	0f7H
	DB	0bdH
	DB	0b6H
	DB	0b5H
	DB	038H
	DB	0c6H
	DB	0d7H
	DB	0bdH
	DB	0b6H
	DB	0b5H
	DB	0f7H
	DB	0bdH
	DB	0b6H
	DB	0b5H
	DB	0b6H
	DB	0b5H
	DB	0f7H
	DB	0bdH
	DB	059H
	DB	0ceH
	DB	0b6H
	DB	0b5H
	DB	0d7H
	DB	0bdH
	DB	0d7H
	DB	0bdH
	DB	0b6H
	DB	0b5H
	DB	0f7H
	DB	0bdH
	DB	0f7H
	DB	0bdH
	DB	0d7H
	DB	0bdH
	DB	0b6H
	DB	0b5H
	DB	0d7H
	DB	0bdH
	DB	0b6H
	DB	0b5H
	DB	0f7H
	DB	0bdH
	DB	0f7H
	DB	0bdH
	DB	0b6H
	DB	0b5H
	DB	018H
	DB	0c6H
	DB	0f7H
	DB	0bdH
	DB	0b6H
	DB	0b5H
	DB	0b6H
	DB	0b5H
	DB	0f7H
	DB	0bdH
	DB	018H
	DB	0c6H
	DB	038H
	DB	0c6H
	DB	0f7H
	DB	0bdH
	DB	0d7H
	DB	0bdH
	DB	096H
	DB	0b5H
	DB	0d7H
	DB	0bdH
	DB	018H
	DB	0c6H
	DB	0f7H
	DB	0bdH
	DB	0f7H
	DB	0bdH
	DB	0d7H
	DB	0bdH
	DB	0b6H
	DB	0b5H
	DB	0b6H
	DB	0b5H
	DB	055H
	DB	0adH
	DB	038H
	DB	0c6H
	DB	059H
	DB	0ceH
	DB	0f7H
	DB	0bdH
	DB	0f7H
	DB	0bdH
	DB	0d7H
	DB	0bdH
	DB	096H
	DB	0b5H
	DB	038H
	DB	0c6H
	DB	0b6H
	DB	0b5H
	DB	075H
	DB	0adH
	DB	038H
	DB	0c6H
	DB	018H
	DB	0c6H
	DB	0d7H
	DB	0bdH
	DB	0f7H
	DB	0bdH
	DB	0d7H
	DB	0bdH
	DB	0f7H
	DB	0bdH
	DB	0b6H
	DB	0b5H
	DB	096H
	DB	0b5H
	DB	018H
	DB	0c6H
	DB	018H
	DB	0c6H
	DB	0b6H
	DB	0b5H
	DB	0d7H
	DB	0bdH
	DB	0d7H
	DB	0bdH
	DB	018H
	DB	0c6H
	DB	018H
	DB	0c6H
	DB	096H
	DB	0b5H
	DB	0f7H
	DB	0bdH
	DB	018H
	DB	0c6H
	DB	0d7H
	DB	0bdH
	DB	0d7H
	DB	0bdH
	DB	0f7H
	DB	0bdH
	DB	018H
	DB	0c6H
	DB	0d7H
	DB	0bdH
	DB	0d7H
	DB	0bdH
	DB	0d7H
	DB	0bdH
	DB	038H
	DB	0c6H
	DB	018H
	DB	0c6H
	DB	0b6H
	DB	0b5H
	DB	018H
	DB	0c6H
	DB	0d7H
	DB	0bdH
	DB	018H
	DB	0c6H
	DB	0d7H
	DB	0bdH
	DB	0b6H
	DB	0b5H
	DB	0d7H
	DB	0bdH
	DB	0d7H
	DB	0bdH
	DB	0b6H
	DB	0b5H
	DB	0f7H
	DB	0bdH
	DB	018H
	DB	0c6H
	DB	0f7H
	DB	0bdH
	DB	0d7H
	DB	0bdH
	DB	096H
	DB	0b5H
	DB	018H
	DB	0c6H
	DB	0d7H
	DB	0bdH
	DB	0b6H
	DB	0b5H
	DB	038H
	DB	0c6H
	DB	0f7H
	DB	0bdH
	DB	0b6H
	DB	0b5H
	DB	055H
	DB	0adH
	DB	0d7H
	DB	0bdH
	DB	038H
	DB	0c6H
	DB	0f7H
	DB	0bdH
	DB	0f7H
	DB	0bdH
	DB	0d7H
	DB	0bdH
	DB	0d7H
	DB	0bdH
	DB	0f7H
	DB	0bdH
	DB	0f7H
	DB	0bdH
	DB	0b6H
	DB	0b5H
	DB	0f7H
	DB	0bdH
	DB	0b6H
	DB	0b5H
	DB	0b6H
	DB	0b5H
	DB	018H
	DB	0c6H
	DB	0f7H
	DB	0bdH
	DB	0f7H
	DB	0bdH
	DB	018H
	DB	0c6H
	DB	0f7H
	DB	0bdH
	DB	018H
	DB	0c6H
	DB	0d7H
	DB	0bdH
	DB	0b6H
	DB	0b5H
	DB	0b6H
	DB	0b5H
	DB	059H
	DB	0ceH
	DB	0f7H
	DB	0bdH
	DB	0b6H
	DB	0b5H
	DB	0d7H
	DB	0bdH
	DB	018H
	DB	0c6H
	DB	0f7H
	DB	0bdH
	DB	0d7H
	DB	0bdH
	DB	055H
	DB	0adH
	DB	0d7H
	DB	0bdH
	DB	059H
	DB	0ceH
	DB	0f7H
	DB	0bdH
	DB	0d7H
	DB	0bdH
	DB	018H
	DB	0c6H
	DB	0f7H
	DB	0bdH
	DB	0d7H
	DB	0bdH
	DB	096H
	DB	0b5H
	DB	0b6H
	DB	0b5H
	DB	0d7H
	DB	0bdH
	DB	018H
	DB	0c6H
	DB	0f7H
	DB	0bdH
	DB	018H
	DB	0c6H
	DB	096H
	DB	0b5H
	DB	0d7H
	DB	0bdH
	DB	018H
	DB	0c6H
	DB	0b6H
	DB	0b5H
	DB	0b6H
	DB	0b5H
	DB	018H
	DB	0c6H
	DB	075H
	DB	0adH
	DB	096H
	DB	0b5H
	DB	038H
	DB	0c6H
	DB	0f7H
	DB	0bdH
	DB	0b6H
	DB	0b5H
	DB	018H
	DB	0c6H
	DB	038H
	DB	0c6H
	DB	075H
	DB	0adH
	DB	018H
	DB	0c6H
	DB	0f7H
	DB	0bdH
	DB	0d7H
	DB	0bdH
	DB	0f7H
	DB	0bdH
	DB	0f7H
	DB	0bdH
	DB	075H
	DB	0adH
	DB	096H
	DB	0b5H
	DB	0f7H
	DB	0bdH
	DB	0f7H
	DB	0bdH
	DB	0d7H
	DB	0bdH
	DB	0d7H
	DB	0bdH
	DB	018H
	DB	0c6H
	DB	059H
	DB	0ceH
	DB	0f7H
	DB	0bdH
	DB	0b6H
	DB	0b5H
	DB	0b6H
	DB	0b5H
	DB	0f7H
	DB	0bdH
	DB	038H
	DB	0c6H
	DB	096H
	DB	0b5H
	DB	0f7H
	DB	0bdH
	DB	018H
	DB	0c6H
	DB	096H
	DB	0b5H
	DB	0b6H
	DB	0b5H
	DB	0d7H
	DB	0bdH
	DB	018H
	DB	0c6H
	DB	0f7H
	DB	0bdH
	DB	0f7H
	DB	0bdH
	DB	0d7H
	DB	0bdH
	DB	0b6H
	DB	0b5H
	DB	038H
	DB	0c6H
	DB	018H
	DB	0c6H
	DB	0b6H
	DB	0b5H
	DB	096H
	DB	0b5H
	DB	0f7H
	DB	0bdH
	DB	096H
	DB	0b5H
	DB	038H
	DB	0c6H
	DB	0d7H
	DB	0bdH
	DB	0d7H
	DB	0bdH
	DB	018H
	DB	0c6H
	DB	0b6H
	DB	0b5H
	DB	096H
	DB	0b5H
	DB	0d7H
	DB	0bdH
	DB	0f7H
	DB	0bdH
	DB	038H
	DB	0c6H
	DB	038H
	DB	0c6H
	DB	0d7H
	DB	0bdH
	DB	0f7H
	DB	0bdH
	DB	018H
	DB	0c6H
	DB	096H
	DB	0b5H
	DB	055H
	DB	0adH
	DB	038H
	DB	0c6H
	DB	0b6H
	DB	0b5H
	DB	0d7H
	DB	0bdH
	DB	038H
	DB	0c6H
	DB	0f7H
	DB	0bdH
	DB	0b6H
	DB	0b5H
	DB	0b6H
	DB	0b5H
	DB	0f7H
	DB	0bdH
	DB	018H
	DB	0c6H
	DB	0d7H
	DB	0bdH
	DB	0b6H
	DB	0b5H
	DB	0f7H
	DB	0bdH
	DB	018H
	DB	0c6H
	DB	0f7H
	DB	0bdH
	DB	0d7H
	DB	0bdH
	DB	0d7H
	DB	0bdH
	DB	0d7H
	DB	0bdH
	DB	096H
	DB	0b5H
	DB	0b6H
	DB	0b5H
	DB	038H
	DB	0c6H
	DB	0f7H
	DB	0bdH
	DB	0d7H
	DB	0bdH
	DB	018H
	DB	0c6H
	DB	0f7H
	DB	0bdH
	DB	0b6H
	DB	0b5H
	DB	018H
	DB	0c6H
	DB	0b6H
	DB	0b5H
	DB	0b6H
	DB	0b5H
	DB	0b6H
	DB	0b5H
	DB	038H
	DB	0c6H
	DB	018H
	DB	0c6H
	DB	0d7H
	DB	0bdH
	DB	018H
	DB	0c6H
	DB	0b6H
	DB	0b5H
	DB	096H
	DB	0b5H
	DB	0d7H
	DB	0bdH
	DB	038H
	DB	0c6H
	DB	0d7H
	DB	0bdH
	DB	096H
	DB	0b5H
	DB	0f7H
	DB	0bdH
	DB	0f7H
	DB	0bdH
	DB	018H
	DB	0c6H
	DB	0f7H
	DB	0bdH
	DB	096H
	DB	0b5H
	DB	096H
	DB	0b5H
	DB	038H
	DB	0c6H
	DB	096H
	DB	0b5H
	DB	0d7H
	DB	0bdH
	DB	0f7H
	DB	0bdH
	DB	0f7H
	DB	0bdH
	DB	0b6H
	DB	0b5H
	DB	038H
	DB	0c6H
	DB	059H
	DB	0ceH
	DB	0d7H
	DB	0bdH
	DB	018H
	DB	0c6H
	DB	038H
	DB	0c6H
	DB	0f7H
	DB	0bdH
	DB	0d7H
	DB	0bdH
	DB	0d7H
	DB	0bdH
	DB	0d7H
	DB	0bdH
	DB	0f7H
	DB	0bdH
	DB	0f7H
	DB	0bdH
	DB	0b6H
	DB	0b5H
	DB	0b6H
	DB	0b5H
	DB	0f7H
	DB	0bdH
	DB	0b6H
	DB	0b5H
	DB	0d7H
	DB	0bdH
	DB	0b6H
	DB	0b5H
	DB	038H
	DB	0c6H
	DB	0d7H
	DB	0bdH
	DB	0f7H
	DB	0bdH
	DB	0d7H
	DB	0bdH
	DB	0f7H
	DB	0bdH
	DB	075H
	DB	0adH
	DB	0f7H
	DB	0bdH
	DB	0b6H
	DB	0b5H
	DB	0b6H
	DB	0b5H
	DB	0f7H
	DB	0bdH
	DB	038H
	DB	0c6H
	DB	038H
	DB	0c6H
	DB	0f7H
	DB	0bdH
	DB	0d7H
	DB	0bdH
	DB	0b6H
	DB	0b5H
	DB	018H
	DB	0c6H
	DB	018H
	DB	0c6H
	DB	0d7H
	DB	0bdH
	DB	0b6H
	DB	0b5H
	DB	0b6H
	DB	0b5H
	DB	018H
	DB	0c6H
	DB	018H
	DB	0c6H
	DB	0b6H
	DB	0b5H
	DB	0d7H
	DB	0bdH
	DB	096H
	DB	0b5H
	DB	0b6H
	DB	0b5H
	DB	0d7H
	DB	0bdH
	DB	038H
	DB	0c6H
	DB	018H
	DB	0c6H
	DB	0b6H
	DB	0b5H
	DB	0f7H
	DB	0bdH
	DB	0d7H
	DB	0bdH
	DB	018H
	DB	0c6H
	DB	0d7H
	DB	0bdH
	DB	096H
	DB	0b5H
	DB	0f7H
	DB	0bdH
	DB	038H
	DB	0c6H
	DB	0f7H
	DB	0bdH
	DB	096H
	DB	0b5H
	DB	0f7H
	DB	0bdH
	DB	0f7H
	DB	0bdH
	DB	0f7H
	DB	0bdH
	DB	038H
	DB	0c6H
	DB	0d7H
	DB	0bdH
	DB	0b6H
	DB	0b5H
	DB	096H
	DB	0b5H
	DB	0f7H
	DB	0bdH
	DB	0f7H
	DB	0bdH
	DB	018H
	DB	0c6H
	DB	0f7H
	DB	0bdH
	DB	096H
	DB	0b5H
	DB	0f7H
	DB	0bdH
	DB	0f7H
	DB	0bdH
	DB	096H
	DB	0b5H
	DB	096H
	DB	0b5H
	DB	038H
	DB	0c6H
	DB	0f7H
	DB	0bdH
	DB	0d7H
	DB	0bdH
	DB	018H
	DB	0c6H
	DB	0d7H
	DB	0bdH
	DB	096H
	DB	0b5H
	DB	018H
	DB	0c6H
	DB	018H
	DB	0c6H
	DB	0b6H
	DB	0b5H
	DB	0f7H
	DB	0bdH
	DB	018H
	DB	0c6H
	DB	0d7H
	DB	0bdH
	DB	075H
	DB	0adH
	DB	0b6H
	DB	0b5H
	DB	018H
	DB	0c6H
	DB	0f7H
	DB	0bdH
	DB	018H
	DB	0c6H
	DB	0d7H
	DB	0bdH
	DB	0b6H
	DB	0b5H
	DB	0f7H
	DB	0bdH
	DB	059H
	DB	0ceH
	DB	0b6H
	DB	0b5H
	DB	055H
	DB	0adH
	DB	0f7H
	DB	0bdH
	DB	038H
	DB	0c6H
	DB	0f7H
	DB	0bdH
	DB	018H
	DB	0c6H
	DB	0d7H
	DB	0bdH
	DB	0b6H
	DB	0b5H
	DB	0f7H
	DB	0bdH
	DB	096H
	DB	0b5H
	DB	0d7H
	DB	0bdH
	DB	018H
	DB	0c6H
	DB	0f7H
	DB	0bdH
	DB	0d7H
	DB	0bdH
	DB	018H
	DB	0c6H
	DB	0f7H
	DB	0bdH
	DB	0f7H
	DB	0bdH
	DB	0b6H
	DB	0b5H
	DB	0d7H
	DB	0bdH
	DB	018H
	DB	0c6H
	DB	0d7H
	DB	0bdH
	DB	0d7H
	DB	0bdH
	DB	0d7H
	DB	0bdH
	DB	018H
	DB	0c6H
	DB	018H
	DB	0c6H
	DB	018H
	DB	0c6H
	DB	096H
	DB	0b5H
	DB	0b6H
	DB	0b5H
	DB	018H
	DB	0c6H
	DB	0b6H
	DB	0b5H
	DB	038H
	DB	0c6H
	DB	0d7H
	DB	0bdH
	DB	0d7H
	DB	0bdH
	DB	0f7H
	DB	0bdH
	DB	0d7H
	DB	0bdH
	DB	096H
	DB	0b5H
	DB	0b6H
	DB	0b5H
	DB	096H
	DB	0b5H
	DB	059H
	DB	0ceH
	DB	0f7H
	DB	0bdH
	DB	0f7H
	DB	0bdH
	DB	0f7H
	DB	0bdH
	DB	0b6H
	DB	0b5H
	DB	0f7H
	DB	0bdH
	DB	0d7H
	DB	0bdH
	DB	0d7H
	DB	0bdH
	DB	018H
	DB	0c6H
	DB	0f7H
	DB	0bdH
	DB	0d7H
	DB	0bdH
	DB	075H
	DB	0adH
	DB	096H
	DB	0b5H
	DB	0f7H
	DB	0bdH
	DB	0d7H
	DB	0bdH
	DB	0f7H
	DB	0bdH
	DB	018H
	DB	0c6H
	DB	0f7H
	DB	0bdH
	DB	0f7H
	DB	0bdH
	DB	0f7H
	DB	0bdH
	DB	0b6H
	DB	0b5H
	DB	096H
	DB	0b5H
	DB	0b6H
	DB	0b5H
	DB	0f7H
	DB	0bdH
	DB	018H
	DB	0c6H
	DB	0f7H
	DB	0bdH
	DB	018H
	DB	0c6H
	DB	0f7H
	DB	0bdH
	DB	0b6H
	DB	0b5H
	DB	0d7H
	DB	0bdH
	DB	0f7H
	DB	0bdH
	DB	0b6H
	DB	0b5H
	DB	0b6H
	DB	0b5H
	DB	018H
	DB	0c6H
	DB	018H
	DB	0c6H
	DB	0d7H
	DB	0bdH
	DB	0b6H
	DB	0b5H
	DB	018H
	DB	0c6H
	DB	0f7H
	DB	0bdH
	DB	0d7H
	DB	0bdH
	DB	096H
	DB	0b5H
	DB	075H
	DB	0adH
	DB	0f7H
	DB	0bdH
	DB	0d7H
	DB	0bdH
	DB	059H
	DB	0ceH
	DB	0f7H
	DB	0bdH
	DB	0d7H
	DB	0bdH
	DB	018H
	DB	0c6H
	DB	055H
	DB	0adH
	DB	096H
	DB	0b5H
	DB	0f7H
	DB	0bdH
	DB	018H
	DB	0c6H
	DB	038H
	DB	0c6H
	DB	018H
	DB	0c6H
	DB	0b6H
	DB	0b5H
	DB	0b6H
	DB	0b5H
	DB	0f7H
	DB	0bdH
	DB	0b6H
	DB	0b5H
	DB	0d7H
	DB	0bdH
	DB	038H
	DB	0c6H
	DB	0d7H
	DB	0bdH
	DB	018H
	DB	0c6H
	DB	0f7H
	DB	0bdH
	DB	0f7H
	DB	0bdH
	DB	018H
	DB	0c6H
	DB	018H
	DB	0c6H
	DB	0f7H
	DB	0bdH
	DB	096H
	DB	0b5H
	DB	0f7H
	DB	0bdH
	DB	018H
	DB	0c6H
	DB	0b6H
	DB	0b5H
	DB	0d7H
	DB	0bdH
	DB	0d7H
	DB	0bdH
	DB	0b6H
	DB	0b5H
	DB	0f7H
	DB	0bdH
	DB	0b6H
	DB	0b5H
	DB	0f7H
	DB	0bdH
	DB	0f7H
	DB	0bdH
	DB	0b6H
	DB	0b5H
	DB	0b6H
	DB	0b5H
	DB	059H
	DB	0ceH
	DB	038H
	DB	0c6H
	DB	0f7H
	DB	0bdH
	DB	0b6H
	DB	0b5H
	DB	075H
	DB	0adH
	DB	0f7H
	DB	0bdH
	DB	0f7H
	DB	0bdH
	DB	038H
	DB	0c6H
	DB	0f7H
	DB	0bdH
	DB	0b6H
	DB	0b5H
	DB	0b6H
	DB	0b5H
	DB	0d7H
	DB	0bdH
	DB	038H
	DB	0c6H
	DB	0d7H
	DB	0bdH
	DB	018H
	DB	0c6H
	DB	0f7H
	DB	0bdH
	DB	0d7H
	DB	0bdH
	DB	018H
	DB	0c6H
	DB	0d7H
	DB	0bdH
	DB	0d7H
	DB	0bdH
	DB	0b6H
	DB	0b5H
	DB	0b6H
	DB	0b5H
	DB	0b6H
	DB	0b5H
	DB	038H
	DB	0c6H
	DB	0f7H
	DB	0bdH
	DB	096H
	DB	0b5H
	DB	0b6H
	DB	0b5H
	DB	018H
	DB	0c6H
	DB	0f7H
	DB	0bdH
	DB	075H
	DB	0adH
	DB	018H
	DB	0c6H
	DB	038H
	DB	0c6H
	DB	018H
	DB	0c6H
	DB	0f7H
	DB	0bdH
	DB	0d7H
	DB	0bdH
	DB	018H
	DB	0c6H
	DB	0d7H
	DB	0bdH
	DB	034H
	DB	0a5H
	DB	0b6H
	DB	0b5H
	DB	0d7H
	DB	0bdH
	DB	0d7H
	DB	0bdH
	DB	059H
	DB	0ceH
	DB	018H
	DB	0c6H
	DB	075H
	DB	0adH
	DB	0d7H
	DB	0bdH
	DB	0f7H
	DB	0bdH
	DB	0d7H
	DB	0bdH
	DB	018H
	DB	0c6H
	DB	075H
	DB	0adH
	DB	018H
	DB	0c6H
	DB	059H
	DB	0ceH
	DB	0d7H
	DB	0bdH
	DB	096H
	DB	0b5H
	DB	0f7H
	DB	0bdH
	DB	075H
	DB	0adH
	DB	0f7H
	DB	0bdH
	DB	0f7H
	DB	0bdH
	DB	038H
	DB	0c6H
	DB	0f7H
	DB	0bdH
	DB	0d7H
	DB	0bdH
	DB	018H
	DB	0c6H
	DB	0f7H
	DB	0bdH
	DB	0b6H
	DB	0b5H
	DB	0b6H
	DB	0b5H
	DB	055H
	DB	0adH
	DB	0f7H
	DB	0bdH
	DB	018H
	DB	0c6H
	DB	059H
	DB	0ceH
	DB	0d7H
	DB	0bdH
	DB	0f7H
	DB	0bdH
	DB	018H
	DB	0c6H
	DB	0b6H
	DB	0b5H
	DB	0b6H
	DB	0b5H
	DB	0b6H
	DB	0b5H
	DB	018H
	DB	0c6H
	DB	018H
	DB	0c6H
	DB	0d7H
	DB	0bdH
	DB	0f7H
	DB	0bdH
	DB	0f7H
	DB	0bdH
	DB	0f7H
	DB	0bdH
	DB	0f7H
	DB	0bdH
	DB	096H
	DB	0b5H
	DB	0f7H
	DB	0bdH
	DB	018H
	DB	0c6H
	DB	0b6H
	DB	0b5H
	DB	055H
	DB	0adH
	DB	096H
	DB	0b5H
	DB	0b6H
	DB	0b5H
	DB	018H
	DB	0c6H
	DB	059H
	DB	0ceH
	DB	0f7H
	DB	0bdH
	DB	096H
	DB	0b5H
	DB	0f7H
	DB	0bdH
	DB	038H
	DB	0c6H
	DB	018H
	DB	0c6H
	DB	0d7H
	DB	0bdH
	DB	0f7H
	DB	0bdH
	DB	0d7H
	DB	0bdH
	DB	0f7H
	DB	0bdH
	DB	0f7H
	DB	0bdH
	DB	0d7H
	DB	0bdH
	DB	096H
	DB	0b5H
	DB	0d7H
	DB	0bdH
	DB	0b6H
	DB	0b5H
	DB	0b6H
	DB	0b5H
	DB	018H
	DB	0c6H
	DB	0f7H
	DB	0bdH
	DB	096H
	DB	0b5H
	DB	018H
	DB	0c6H
	DB	0f7H
	DB	0bdH
	DB	096H
	DB	0b5H
	DB	0b6H
	DB	0b5H
	DB	038H
	DB	0c6H
	DB	0d7H
	DB	0bdH
	DB	096H
	DB	0b5H
	DB	0d7H
	DB	0bdH
	DB	059H
	DB	0ceH
	DB	0f7H
	DB	0bdH
	DB	0b6H
	DB	0b5H
	DB	018H
	DB	0c6H
	DB	075H
	DB	0adH
	DB	0d7H
	DB	0bdH
	DB	038H
	DB	0c6H
	DB	0f7H
	DB	0bdH
	DB	096H
	DB	0b5H
	DB	0f7H
	DB	0bdH
	DB	059H
	DB	0ceH
	DB	0b6H
	DB	0b5H
	DB	0d7H
	DB	0bdH
	DB	018H
	DB	0c6H
	DB	0b6H
	DB	0b5H
	DB	0b6H
	DB	0b5H
	DB	0d7H
	DB	0bdH
	DB	0f7H
	DB	0bdH
	DB	059H
	DB	0ceH
	DB	0f7H
	DB	0bdH
	DB	0b6H
	DB	0b5H
	DB	0b6H
	DB	0b5H
	DB	018H
	DB	0c6H
	DB	0f7H
	DB	0bdH
	DB	096H
	DB	0b5H
	DB	018H
	DB	0c6H
	DB	018H
	DB	0c6H
	DB	0f7H
	DB	0bdH
	DB	0b6H
	DB	0b5H
	DB	0f7H
	DB	0bdH
	DB	0f7H
	DB	0bdH
	DB	059H
	DB	0ceH
	DB	018H
	DB	0c6H
	DB	0d7H
	DB	0bdH
	DB	0b6H
	DB	0b5H
	DB	0b6H
	DB	0b5H
	DB	018H
	DB	0c6H
	DB	018H
	DB	0c6H
	DB	0d7H
	DB	0bdH
	DB	0f7H
	DB	0bdH
	DB	0d7H
	DB	0bdH
	DB	0f7H
	DB	0bdH
	DB	0f7H
	DB	0bdH
	DB	096H
	DB	0b5H
	DB	0d7H
	DB	0bdH
	DB	059H
	DB	0ceH
	DB	018H
	DB	0c6H
	DB	0b6H
	DB	0b5H
	DB	0d7H
	DB	0bdH
	DB	018H
	DB	0c6H
	DB	096H
	DB	0b5H
	DB	038H
	DB	0c6H
	DB	018H
	DB	0c6H
	DB	096H
	DB	0b5H
	DB	0b6H
	DB	0b5H
	DB	018H
	DB	0c6H
	DB	0d7H
	DB	0bdH
	DB	075H
	DB	0adH
	DB	038H
	DB	0c6H
	DB	0f7H
	DB	0bdH
	DB	0b6H
	DB	0b5H
	DB	0d7H
	DB	0bdH
	DB	0d7H
	DB	0bdH
	DB	0d7H
	DB	0bdH
	DB	038H
	DB	0c6H
	DB	018H
	DB	0c6H
	DB	0b6H
	DB	0b5H
	DB	0d7H
	DB	0bdH
	DB	0d7H
	DB	0bdH
	DB	0b6H
	DB	0b5H
	DB	038H
	DB	0c6H
	DB	018H
	DB	0c6H
	DB	0d7H
	DB	0bdH
	DB	0b6H
	DB	0b5H
	DB	0f7H
	DB	0bdH
	DB	0b6H
	DB	0b5H
	DB	0d7H
	DB	0bdH
	DB	0f7H
	DB	0bdH
	DB	018H
	DB	0c6H
	DB	0d7H
	DB	0bdH
	DB	0f7H
	DB	0bdH
	DB	0b6H
	DB	0b5H
	DB	0f7H
	DB	0bdH
	DB	0d7H
	DB	0bdH
	DB	0b6H
	DB	0b5H
	DB	018H
	DB	0c6H
	DB	0f7H
	DB	0bdH
	DB	0d7H
	DB	0bdH
	DB	0b6H
	DB	0b5H
	DB	0f7H
	DB	0bdH
	DB	0f7H
	DB	0bdH
	DB	018H
	DB	0c6H
	DB	096H
	DB	0b5H
	DB	096H
	DB	0b5H
	DB	0f7H
	DB	0bdH
	DB	0b6H
	DB	0b5H
	DB	038H
	DB	0c6H
	DB	018H
	DB	0c6H
	DB	0b6H
	DB	0b5H
	DB	0d7H
	DB	0bdH
	DB	0d7H
	DB	0bdH
	DB	096H
	DB	0b5H
	DB	0f7H
	DB	0bdH
	DB	0b6H
	DB	0b5H
	DB	018H
	DB	0c6H
	DB	059H
	DB	0ceH
	DB	018H
	DB	0c6H
	DB	0f7H
	DB	0bdH
	DB	0d7H
	DB	0bdH
	DB	0b6H
	DB	0b5H
	DB	0f7H
	DB	0bdH
	DB	0d7H
	DB	0bdH
	DB	0d7H
	DB	0bdH
	DB	0f7H
	DB	0bdH
	DB	0d7H
	DB	0bdH
	DB	0b6H
	DB	0b5H
	DB	0f7H
	DB	0bdH
	DB	0d7H
	DB	0bdH
	DB	055H
	DB	0adH
	DB	0d7H
	DB	0bdH
	DB	018H
	DB	0c6H
	DB	0d7H
	DB	0bdH
	DB	018H
	DB	0c6H
	DB	0f7H
	DB	0bdH
	DB	0b6H
	DB	0b5H
	DB	096H
	DB	0b5H
	DB	0f7H
	DB	0bdH
	DB	0f7H
	DB	0bdH
	DB	0d7H
	DB	0bdH
	DB	0d7H
	DB	0bdH
	DB	0f7H
	DB	0bdH
	DB	0d7H
	DB	0bdH
	DB	0b6H
	DB	0b5H
	DB	0b6H
	DB	0b5H
	DB	0d7H
	DB	0bdH
	DB	0d7H
	DB	0bdH
	DB	0d7H
	DB	0bdH
	DB	0d7H
	DB	0bdH
	DB	018H
	DB	0c6H
	DB	018H
	DB	0c6H
	DB	0b6H
	DB	0b5H
	DB	0f7H
	DB	0bdH
	DB	0d7H
	DB	0bdH
	DB	0b6H
	DB	0b5H
	DB	0d7H
	DB	0bdH
	DB	0d7H
	DB	0bdH
	DB	018H
	DB	0c6H
	DB	075H
	DB	0adH
	DB	0d7H
	DB	0bdH
	DB	018H
	DB	0c6H
	DB	0f7H
	DB	0bdH
	DB	038H
	DB	0c6H
	DB	0b6H
	DB	0b5H
	DB	096H
	DB	0b5H
	DB	038H
	DB	0c6H
	DB	0f7H
	DB	0bdH
	DB	018H
	DB	0c6H
	DB	0f7H
	DB	0bdH
	DB	0b6H
	DB	0b5H
	DB	0b6H
	DB	0b5H
	DB	0d7H
	DB	0bdH
	DB	0d7H
	DB	0bdH
	DB	0f7H
	DB	0bdH
	DB	018H
	DB	0c6H
	DB	0f7H
	DB	0bdH
	DB	018H
	DB	0c6H
	DB	0d7H
	DB	0bdH
	DB	096H
	DB	0b5H
	DB	038H
	DB	0c6H
	DB	018H
	DB	0c6H
	DB	0b6H
	DB	0b5H
	DB	096H
	DB	0b5H
	DB	018H
	DB	0c6H
	DB	018H
	DB	0c6H
	DB	0d7H
	DB	0bdH
	DB	096H
	DB	0b5H
	DB	096H
	DB	0b5H
	DB	038H
	DB	0c6H
	DB	018H
	DB	0c6H
	DB	0b6H
	DB	0b5H
	DB	0f7H
	DB	0bdH
	DB	096H
	DB	0b5H
	DB	075H
	DB	0adH
	DB	0b6H
	DB	0b5H
	DB	038H
	DB	0c6H
	DB	0f7H
	DB	0bdH
	DB	0f7H
	DB	0bdH
	DB	0b6H
	DB	0b5H
	DB	075H
	DB	0adH
	DB	075H
	DB	0adH
	DB	059H
	DB	0ceH
	DB	018H
	DB	0c6H
	DB	0d7H
	DB	0bdH
	DB	0d7H
	DB	0bdH
	DB	096H
	DB	0b5H
	DB	075H
	DB	0adH
	DB	018H
	DB	0c6H
	DB	0f7H
	DB	0bdH
	DB	038H
	DB	0c6H
	DB	018H
	DB	0c6H
	DB	0f7H
	DB	0bdH
	DB	018H
	DB	0c6H
	DB	0b6H
	DB	0b5H
	DB	0d7H
	DB	0bdH
	DB	0b6H
	DB	0b5H
	DB	055H
	DB	0adH
	DB	0b6H
	DB	0b5H
	DB	059H
	DB	0ceH
	DB	0d7H
	DB	0bdH
	DB	0b6H
	DB	0b5H
	DB	0b6H
	DB	0b5H
	DB	0d7H
	DB	0bdH
	DB	018H
	DB	0c6H
	DB	0b6H
	DB	0b5H
	DB	0f7H
	DB	0bdH
	DB	0f7H
	DB	0bdH
	DB	0d7H
	DB	0bdH
	DB	0d7H
	DB	0bdH
	DB	0d7H
	DB	0bdH
	DB	018H
	DB	0c6H
	DB	0f7H
	DB	0bdH
	DB	0b6H
	DB	0b5H
	DB	075H
	DB	0adH
	DB	0d7H
	DB	0bdH
	DB	0d7H
	DB	0bdH
	DB	038H
	DB	0c6H
	DB	0f7H
	DB	0bdH
	DB	0d7H
	DB	0bdH
	DB	0f7H
	DB	0bdH
	DB	0b6H
	DB	0b5H
	DB	0b6H
	DB	0b5H
	DB	0d7H
	DB	0bdH
	DB	0b6H
	DB	0b5H
	DB	018H
	DB	0c6H
	DB	038H
	DB	0c6H
	DB	018H
	DB	0c6H
	DB	096H
	DB	0b5H
	DB	0d7H
	DB	0bdH
	DB	0d7H
	DB	0bdH
	DB	0f7H
	DB	0bdH
	DB	0d7H
	DB	0bdH
	DB	018H
	DB	0c6H
	DB	0d7H
	DB	0bdH
	DB	0f7H
	DB	0bdH
	DB	0d7H
	DB	0bdH
	DB	0f7H
	DB	0bdH
	DB	0d7H
	DB	0bdH
	DB	0b6H
	DB	0b5H
	DB	075H
	DB	0adH
	DB	0f7H
	DB	0bdH
	DB	038H
	DB	0c6H
	DB	018H
	DB	0c6H
	DB	018H
	DB	0c6H
	DB	0d7H
	DB	0bdH
	DB	0f7H
	DB	0bdH
	DB	0f7H
	DB	0bdH
	DB	0d7H
	DB	0bdH
	DB	096H
	DB	0b5H
	DB	0d7H
	DB	0bdH
	DB	0f7H
	DB	0bdH
	DB	038H
	DB	0c6H
	DB	0d7H
	DB	0bdH
	DB	0f7H
	DB	0bdH
	DB	0f7H
	DB	0bdH
	DB	0b6H
	DB	0b5H
	DB	0b6H
	DB	0b5H
	DB	038H
	DB	0c6H
	DB	0f7H
	DB	0bdH
	DB	0b6H
	DB	0b5H
	DB	096H
	DB	0b5H
	DB	018H
	DB	0c6H
	DB	096H
	DB	0b5H
	DB	0d7H
	DB	0bdH
	DB	059H
	DB	0ceH
	DB	0f7H
	DB	0bdH
	DB	055H
	DB	0adH
	DB	0f7H
	DB	0bdH
	DB	038H
	DB	0c6H
	DB	0b6H
	DB	0b5H
	DB	0b6H
	DB	0b5H
	DB	096H
	DB	0b5H
	DB	0d7H
	DB	0bdH
	DB	018H
	DB	0c6H
	DB	0d7H
	DB	0bdH
	DB	0f7H
	DB	0bdH
	DB	096H
	DB	0b5H
	DB	0b6H
	DB	0b5H
	DB	0d7H
	DB	0bdH
	DB	0d7H
	DB	0bdH
	DB	038H
	DB	0c6H
	DB	0d7H
	DB	0bdH
	DB	096H
	DB	0b5H
	DB	096H
	DB	0b5H
	DB	0f7H
	DB	0bdH
	DB	0f7H
	DB	0bdH
	DB	018H
	DB	0c6H
	DB	018H
	DB	0c6H
	DB	0d7H
	DB	0bdH
	DB	096H
	DB	0b5H
	DB	0b6H
	DB	0b5H
	DB	059H
	DB	0ceH
	DB	0d7H
	DB	0bdH
	DB	0b6H
	DB	0b5H
	DB	0f7H
	DB	0bdH
	DB	0b6H
	DB	0b5H
	DB	0f7H
	DB	0bdH
	DB	018H
	DB	0c6H
	DB	0f7H
	DB	0bdH
	DB	0d7H
	DB	0bdH
	DB	018H
	DB	0c6H
	DB	038H
	DB	0c6H
	DB	0f7H
	DB	0bdH
	DB	0f7H
	DB	0bdH
	DB	018H
	DB	0c6H
	DB	096H
	DB	0b5H
	DB	0d7H
	DB	0bdH
	DB	018H
	DB	0c6H
	DB	0b6H
	DB	0b5H
	DB	0d7H
	DB	0bdH
	DB	038H
	DB	0c6H
	DB	0d7H
	DB	0bdH
	DB	0b6H
	DB	0b5H
	DB	0f7H
	DB	0bdH
	DB	0d7H
	DB	0bdH
	DB	0b6H
	DB	0b5H
	DB	038H
	DB	0c6H
	DB	0f7H
	DB	0bdH
	DB	018H
	DB	0c6H
	DB	0f7H
	DB	0bdH
	DB	0d7H
	DB	0bdH
	DB	0b6H
	DB	0b5H
	DB	059H
	DB	0ceH
	DB	0d7H
	DB	0bdH
	DB	0f7H
	DB	0bdH
	DB	0f7H
	DB	0bdH
	DB	0b6H
	DB	0b5H
	DB	0b6H
	DB	0b5H
	DB	018H
	DB	0c6H
	DB	0f7H
	DB	0bdH
	DB	0d7H
	DB	0bdH
	DB	096H
	DB	0b5H
	DB	0d7H
	DB	0bdH
	DB	0d7H
	DB	0bdH
	DB	018H
	DB	0c6H
	DB	018H
	DB	0c6H
	DB	0f7H
	DB	0bdH
	DB	018H
	DB	0c6H
	DB	0f7H
	DB	0bdH
	DB	096H
	DB	0b5H
	DB	0d7H
	DB	0bdH
	DB	0d7H
	DB	0bdH
	DB	038H
	DB	0c6H
	DB	018H
	DB	0c6H
	DB	0b6H
	DB	0b5H
	DB	096H
	DB	0b5H
	DB	038H
	DB	0c6H
	DB	096H
	DB	0b5H
	DB	075H
	DB	0adH
	DB	018H
	DB	0c6H
	DB	0d7H
	DB	0bdH
	DB	018H
	DB	0c6H
	DB	0f7H
	DB	0bdH
	DB	096H
	DB	0b5H
	DB	018H
	DB	0c6H
	DB	038H
	DB	0c6H
	DB	0f7H
	DB	0bdH
	DB	0b6H
	DB	0b5H
	DB	0f7H
	DB	0bdH
	DB	0d7H
	DB	0bdH
	DB	075H
	DB	0adH
	DB	0f7H
	DB	0bdH
	DB	018H
	DB	0c6H
	DB	0d7H
	DB	0bdH
	DB	0d7H
	DB	0bdH
	DB	0d7H
	DB	0bdH
	DB	0b6H
	DB	0b5H
	DB	0f7H
	DB	0bdH
	DB	0d7H
	DB	0bdH
	DB	0b6H
	DB	0b5H
	DB	038H
	DB	0c6H
	DB	0d7H
	DB	0bdH
	DB	0f7H
	DB	0bdH
	DB	0f7H
	DB	0bdH
	DB	096H
	DB	0b5H
	DB	0b6H
	DB	0b5H
	DB	0f7H
	DB	0bdH
	DB	0f7H
	DB	0bdH
	DB	0d7H
	DB	0bdH
	DB	0b6H
	DB	0b5H
	DB	0d7H
	DB	0bdH
	DB	0b6H
	DB	0b5H
	DB	018H
	DB	0c6H
	DB	0d7H
	DB	0bdH
	DB	0d7H
	DB	0bdH
	DB	0f7H
	DB	0bdH
	DB	018H
	DB	0c6H
	DB	0f7H
	DB	0bdH
	DB	018H
	DB	0c6H
	DB	0f7H
	DB	0bdH
	DB	0f7H
	DB	0bdH
	DB	0d7H
	DB	0bdH
	DB	055H
	DB	0adH
	DB	0f7H
	DB	0bdH
	DB	018H
	DB	0c6H
	DB	096H
	DB	0b5H
	DB	018H
	DB	0c6H
	DB	018H
	DB	0c6H
	DB	0b6H
	DB	0b5H
	DB	0f7H
	DB	0bdH
	DB	0b6H
	DB	0b5H
	DB	018H
	DB	0c6H
	DB	0b6H
	DB	0b5H
	DB	0d7H
	DB	0bdH
	DB	0d7H
	DB	0bdH
	DB	0b6H
	DB	0b5H
	DB	0b6H
	DB	0b5H
	DB	018H
	DB	0c6H
	DB	0f7H
	DB	0bdH
	DB	055H
	DB	0adH
	DB	0b6H
	DB	0b5H
	DB	059H
	DB	0ceH
	DB	0b6H
	DB	0b5H
	DB	075H
	DB	0adH
	DB	018H
	DB	0c6H
	DB	0d7H
	DB	0bdH
	DB	0b6H
	DB	0b5H
	DB	018H
	DB	0c6H
	DB	0f7H
	DB	0bdH
	DB	0d7H
	DB	0bdH
	DB	0b6H
	DB	0b5H
	DB	0b6H
	DB	0b5H
	DB	0f7H
	DB	0bdH
	DB	0d7H
	DB	0bdH
	DB	055H
	DB	0adH
	DB	055H
	DB	0adH
	DB	038H
	DB	0c6H
	DB	018H
	DB	0c6H
	DB	0d7H
	DB	0bdH
	DB	0d7H
	DB	0bdH
	DB	038H
	DB	0c6H
	DB	0d7H
	DB	0bdH
	DB	0f7H
	DB	0bdH
	DB	0f7H
	DB	0bdH
	DB	0b6H
	DB	0b5H
	DB	0b6H
	DB	0b5H
	DB	018H
	DB	0c6H
	DB	038H
	DB	0c6H
	DB	0b6H
	DB	0b5H
	DB	0b6H
	DB	0b5H
	DB	0b6H
	DB	0b5H
	DB	0f7H
	DB	0bdH
	DB	059H
	DB	0ceH
	DB	0b6H
	DB	0b5H
	DB	0b6H
	DB	0b5H
	DB	038H
	DB	0c6H
	DB	0b6H
	DB	0b5H
	DB	0f7H
	DB	0bdH
	DB	038H
	DB	0c6H
	DB	0b6H
	DB	0b5H
	DB	096H
	DB	0b5H
	DB	0f7H
	DB	0bdH
	DB	0d7H
	DB	0bdH
	DB	0f7H
	DB	0bdH
	DB	0d7H
	DB	0bdH
	DB	0b6H
	DB	0b5H
	DB	018H
	DB	0c6H
	DB	0d7H
	DB	0bdH
	DB	0b6H
	DB	0b5H
	DB	0f7H
	DB	0bdH
	DB	038H
	DB	0c6H
	DB	0b6H
	DB	0b5H
	DB	075H
	DB	0adH
	DB	038H
	DB	0c6H
	DB	0f7H
	DB	0bdH
	DB	0f7H
	DB	0bdH
	DB	075H
	DB	0adH
	DB	0b6H
	DB	0b5H
	DB	059H
	DB	0ceH
	DB	018H
	DB	0c6H
	DB	0b6H
	DB	0b5H
	DB	0d7H
	DB	0bdH
	DB	055H
	DB	0adH
	DB	055H
	DB	0adH
	DB	0b6H
	DB	0b5H
	DB	059H
	DB	0ceH
	DB	0f7H
	DB	0bdH
	DB	0b6H
	DB	0b5H
	DB	0b6H
	DB	0b5H
	DB	034H
	DB	0a5H
	DB	0b6H
	DB	0b5H
	DB	038H
	DB	0c6H
	DB	038H
	DB	0c6H
	DB	038H
	DB	0c6H
	DB	0d7H
	DB	0bdH
	DB	0b6H
	DB	0b5H
	DB	0d7H
	DB	0bdH
	DB	0f7H
	DB	0bdH
	DB	0d7H
	DB	0bdH
	DB	059H
	DB	0ceH
	DB	0d7H
	DB	0bdH
	DB	0f7H
	DB	0bdH
	DB	018H
	DB	0c6H
	DB	0b6H
	DB	0b5H
	DB	0d7H
	DB	0bdH
	DB	0b6H
	DB	0b5H
	DB	096H
	DB	0b5H
	DB	0d7H
	DB	0bdH
	DB	038H
	DB	0c6H
	DB	038H
	DB	0c6H
	DB	0f7H
	DB	0bdH
	DB	0b6H
	DB	0b5H
	DB	096H
	DB	0b5H
	DB	018H
	DB	0c6H
	DB	0b6H
	DB	0b5H
	DB	0f7H
	DB	0bdH
	DB	018H
	DB	0c6H
	DB	0d7H
	DB	0bdH
	DB	0d7H
	DB	0bdH
	DB	0f7H
	DB	0bdH
	DB	0f7H
	DB	0bdH
	DB	0b6H
	DB	0b5H
	DB	038H
	DB	0c6H
	DB	0b6H
	DB	0b5H
	DB	0f7H
	DB	0bdH
	DB	0b6H
	DB	0b5H
	DB	096H
	DB	0b5H
	DB	018H
	DB	0c6H
	DB	038H
	DB	0c6H
	DB	0f7H
	DB	0bdH
	DB	0b6H
	DB	0b5H
	DB	0b6H
	DB	0b5H
	DB	0f7H
	DB	0bdH
	DB	0d7H
	DB	0bdH
	DB	018H
	DB	0c6H
	DB	0b6H
	DB	0b5H
	DB	018H
	DB	0c6H
	DB	0b6H
	DB	0b5H
	DB	0f7H
	DB	0bdH
	DB	038H
	DB	0c6H
	DB	0d7H
	DB	0bdH
	DB	0b6H
	DB	0b5H
	DB	0f7H
	DB	0bdH
	DB	0d7H
	DB	0bdH
	DB	038H
	DB	0c6H
	DB	0b6H
	DB	0b5H
	DB	0d7H
	DB	0bdH
	DB	0d7H
	DB	0bdH
	DB	0f7H
	DB	0bdH
	DB	0f7H
	DB	0bdH
	DB	096H
	DB	0b5H
	DB	018H
	DB	0c6H
	DB	0b6H
	DB	0b5H
	DB	018H
	DB	0c6H
	DB	0f7H
	DB	0bdH
	DB	018H
	DB	0c6H
	DB	0f7H
	DB	0bdH
	DB	0f7H
	DB	0bdH
	DB	075H
	DB	0adH
	DB	0f7H
	DB	0bdH
	DB	0f7H
	DB	0bdH
	DB	0f7H
	DB	0bdH
	DB	0d7H
	DB	0bdH
	DB	0f7H
	DB	0bdH
	DB	0f7H
	DB	0bdH
	DB	0d7H
	DB	0bdH
	DB	096H
	DB	0b5H
	DB	0d7H
	DB	0bdH
	DB	0f7H
	DB	0bdH
	DB	0f7H
	DB	0bdH
	DB	018H
	DB	0c6H
	DB	0f7H
	DB	0bdH
	DB	096H
	DB	0b5H
	DB	0d7H
	DB	0bdH
	DB	0d7H
	DB	0bdH
	DB	0b6H
	DB	0b5H
	DB	096H
	DB	0b5H
	DB	0f7H
	DB	0bdH
	DB	038H
	DB	0c6H
	DB	0b6H
	DB	0b5H
	DB	0b6H
	DB	0b5H
	DB	0d7H
	DB	0bdH
	DB	0d7H
	DB	0bdH
	DB	0d7H
	DB	0bdH
	DB	0d7H
	DB	0bdH
	DB	0d7H
	DB	0bdH
	DB	0d7H
	DB	0bdH
	DB	0d7H
	DB	0bdH
	DB	096H
	DB	0b5H
	DB	0f7H
	DB	0bdH
	DB	018H
	DB	0c6H
	DB	0d7H
	DB	0bdH
	DB	0b6H
	DB	0b5H
	DB	075H
	DB	0adH
	DB	018H
	DB	0c6H
	DB	038H
	DB	0c6H
	DB	0f7H
	DB	0bdH
	DB	0d7H
	DB	0bdH
	DB	0f7H
	DB	0bdH
	DB	0b6H
	DB	0b5H
	DB	096H
	DB	0b5H
	DB	018H
	DB	0c6H
	DB	018H
	DB	0c6H
	DB	018H
	DB	0c6H
	DB	0b6H
	DB	0b5H
	DB	096H
	DB	0b5H
	DB	038H
	DB	0c6H
	DB	0f7H
	DB	0bdH
	DB	0d7H
	DB	0bdH
	DB	0d7H
	DB	0bdH
	DB	018H
	DB	0c6H
	DB	0f7H
	DB	0bdH
	DB	018H
	DB	0c6H
	DB	0f7H
	DB	0bdH
	DB	0d7H
	DB	0bdH
	DB	0b6H
	DB	0b5H
	DB	0b6H
	DB	0b5H
	DB	018H
	DB	0c6H
	DB	018H
	DB	0c6H
	DB	096H
	DB	0b5H
	DB	0d7H
	DB	0bdH
	DB	0f7H
	DB	0bdH
	DB	0b6H
	DB	0b5H
	DB	0d7H
	DB	0bdH
	DB	0b6H
	DB	0b5H
	DB	0f7H
	DB	0bdH
	DB	059H
	DB	0ceH
	DB	0f7H
	DB	0bdH
	DB	018H
	DB	0c6H
	DB	0f7H
	DB	0bdH
	DB	0b6H
	DB	0b5H
	DB	096H
	DB	0b5H
	DB	038H
	DB	0c6H
	DB	0f7H
	DB	0bdH
	DB	038H
	DB	0c6H
	DB	018H
	DB	0c6H
	DB	0d7H
	DB	0bdH
	DB	096H
	DB	0b5H
	DB	0f7H
	DB	0bdH
	DB	018H
	DB	0c6H
	DB	0b6H
	DB	0b5H
	DB	0d7H
	DB	0bdH
	DB	0b6H
	DB	0b5H
	DB	0d7H
	DB	0bdH
	DB	059H
	DB	0ceH
	DB	018H
	DB	0c6H
	DB	0d7H
	DB	0bdH
	DB	0b6H
	DB	0b5H
	DB	0f7H
	DB	0bdH
	DB	0b6H
	DB	0b5H
	DB	075H
	DB	0adH
	DB	0f7H
	DB	0bdH
	DB	038H
	DB	0c6H
	DB	018H
	DB	0c6H
	DB	0b6H
	DB	0b5H
	DB	096H
	DB	0b5H
	DB	038H
	DB	0c6H
	DB	0b6H
	DB	0b5H
	DB	0b6H
	DB	0b5H
	DB	0f7H
	DB	0bdH
	DB	096H
	DB	0b5H
	DB	018H
	DB	0c6H
	DB	018H
	DB	0c6H
	DB	096H
	DB	0b5H
	DB	0f7H
	DB	0bdH
	DB	038H
	DB	0c6H
	DB	0d7H
	DB	0bdH
	DB	0d7H
	DB	0bdH
	DB	0d7H
	DB	0bdH
	DB	0b6H
	DB	0b5H
	DB	0f7H
	DB	0bdH
	DB	0b6H
	DB	0b5H
	DB	0b6H
	DB	0b5H
	DB	0d7H
	DB	0bdH
	DB	038H
	DB	0c6H
	DB	0f7H
	DB	0bdH
	DB	096H
	DB	0b5H
	DB	0f7H
	DB	0bdH
	DB	0d7H
	DB	0bdH
	DB	0b6H
	DB	0b5H
	DB	038H
	DB	0c6H
	DB	0b6H
	DB	0b5H
	DB	0f7H
	DB	0bdH
	DB	018H
	DB	0c6H
	DB	0b6H
	DB	0b5H
	DB	0b6H
	DB	0b5H
	DB	0b6H
	DB	0b5H
	DB	0f7H
	DB	0bdH
	DB	0d7H
	DB	0bdH
	DB	0b6H
	DB	0b5H
	DB	018H
	DB	0c6H
	DB	0b6H
	DB	0b5H
	DB	0f7H
	DB	0bdH
	DB	0f7H
	DB	0bdH
	DB	0d7H
	DB	0bdH
	DB	018H
	DB	0c6H
	DB	018H
	DB	0c6H
	DB	0d7H
	DB	0bdH
	DB	0d7H
	DB	0bdH
	DB	018H
	DB	0c6H
	DB	0d7H
	DB	0bdH
	DB	0d7H
	DB	0bdH
	DB	055H
	DB	0adH
	DB	038H
	DB	0c6H
	DB	038H
	DB	0c6H
	DB	0b6H
	DB	0b5H
	DB	096H
	DB	0b5H
	DB	018H
	DB	0c6H
	DB	0d7H
	DB	0bdH
	DB	0f7H
	DB	0bdH
	DB	018H
	DB	0c6H
	DB	038H
	DB	0c6H
	DB	0b6H
	DB	0b5H
	DB	0d7H
	DB	0bdH
	DB	018H
	DB	0c6H
	DB	096H
	DB	0b5H
	DB	096H
	DB	0b5H
	DB	038H
	DB	0c6H
	DB	0d7H
	DB	0bdH
	DB	0b6H
	DB	0b5H
	DB	0d7H
	DB	0bdH
	DB	018H
	DB	0c6H
	DB	0d7H
	DB	0bdH
	DB	075H
	DB	0adH
	DB	038H
	DB	0c6H
	DB	0f7H
	DB	0bdH
	DB	0b6H
	DB	0b5H
	DB	0b6H
	DB	0b5H
	DB	018H
	DB	0c6H
	DB	0d7H
	DB	0bdH
	DB	0f7H
	DB	0bdH
	DB	0d7H
	DB	0bdH
	DB	018H
	DB	0c6H
	DB	0d7H
	DB	0bdH
	DB	075H
	DB	0adH
	DB	075H
	DB	0adH
	DB	059H
	DB	0ceH
	DB	0f7H
	DB	0bdH
	DB	0d7H
	DB	0bdH
	DB	0b6H
	DB	0b5H
	DB	038H
	DB	0c6H
	DB	0f7H
	DB	0bdH
	DB	0b6H
	DB	0b5H
	DB	0f7H
	DB	0bdH
	DB	0f7H
	DB	0bdH
	DB	0b6H
	DB	0b5H
	DB	018H
	DB	0c6H
	DB	038H
	DB	0c6H
	DB	0f7H
	DB	0bdH
	DB	0f7H
	DB	0bdH
	DB	0b6H
	DB	0b5H
	DB	034H
	DB	0a5H
	DB	018H
	DB	0c6H
	DB	0f7H
	DB	0bdH
	DB	018H
	DB	0c6H
	DB	038H
	DB	0c6H
	DB	0b6H
	DB	0b5H
	DB	0d7H
	DB	0bdH
	DB	038H
	DB	0c6H
	DB	0b6H
	DB	0b5H
	DB	0d7H
	DB	0bdH
	DB	018H
	DB	0c6H
	DB	0d7H
	DB	0bdH
	DB	0f7H
	DB	0bdH
	DB	0d7H
	DB	0bdH
	DB	075H
	DB	0adH
	DB	0f7H
	DB	0bdH
	DB	0f7H
	DB	0bdH
	DB	0f7H
	DB	0bdH
	DB	0b6H
	DB	0b5H
	DB	0d7H
	DB	0bdH
	DB	0b6H
	DB	0b5H
	DB	096H
	DB	0b5H
	DB	038H
	DB	0c6H
	DB	0d7H
	DB	0bdH
	DB	018H
	DB	0c6H
	DB	0b6H
	DB	0b5H
	DB	0f7H
	DB	0bdH
	DB	038H
	DB	0c6H
	DB	018H
	DB	0c6H
	DB	0b6H
	DB	0b5H
	DB	0d7H
	DB	0bdH
	DB	075H
	DB	0adH
	DB	0b6H
	DB	0b5H
	DB	075H
	DB	0adH
	DB	059H
	DB	0ceH
	DB	018H
	DB	0c6H
	DB	0d7H
	DB	0bdH
	DB	096H
	DB	0b5H
	DB	034H
	DB	0a5H
	DB	0d7H
	DB	0bdH
	DB	038H
	DB	0c6H
	DB	0f7H
	DB	0bdH
	DB	0d7H
	DB	0bdH
	DB	0d7H
	DB	0bdH
	DB	0b6H
	DB	0b5H
	DB	018H
	DB	0c6H
	DB	038H
	DB	0c6H
	DB	0b6H
	DB	0b5H
	DB	018H
	DB	0c6H
	DB	0b6H
	DB	0b5H
	DB	096H
	DB	0b5H
	DB	038H
	DB	0c6H
	DB	0d7H
	DB	0bdH
	DB	055H
	DB	0adH
	DB	096H
	DB	0b5H
	DB	038H
	DB	0c6H
	DB	0f7H
	DB	0bdH
	DB	0f7H
	DB	0bdH
	DB	0f7H
	DB	0bdH
	DB	038H
	DB	0c6H
	DB	0d7H
	DB	0bdH
	DB	055H
	DB	0adH
	DB	0f7H
	DB	0bdH
	DB	0d7H
	DB	0bdH
	DB	018H
	DB	0c6H
	DB	018H
	DB	0c6H
	DB	0d7H
	DB	0bdH
	DB	0b6H
	DB	0b5H
	DB	038H
	DB	0c6H
	DB	0d7H
	DB	0bdH
	DB	0b6H
	DB	0b5H
	DB	018H
	DB	0c6H
	DB	096H
	DB	0b5H
	DB	0f7H
	DB	0bdH
	DB	0d7H
	DB	0bdH
	DB	055H
	DB	0adH
	DB	038H
	DB	0c6H
	DB	038H
	DB	0c6H
	DB	0f7H
	DB	0bdH
	DB	096H
	DB	0b5H
	DB	0f7H
	DB	0bdH
	DB	018H
	DB	0c6H
	DB	0d7H
	DB	0bdH
	DB	018H
	DB	0c6H
	DB	096H
	DB	0b5H
	DB	096H
	DB	0b5H
	DB	0d7H
	DB	0bdH
	DB	0f7H
	DB	0bdH
	DB	018H
	DB	0c6H
	DB	0f7H
	DB	0bdH
	DB	0d7H
	DB	0bdH
	DB	0f7H
	DB	0bdH
	DB	0b6H
	DB	0b5H
	DB	038H
	DB	0c6H
	DB	096H
	DB	0b5H
	DB	0b6H
	DB	0b5H
	DB	038H
	DB	0c6H
	DB	018H
	DB	0c6H
	DB	0b6H
	DB	0b5H
	DB	075H
	DB	0adH
	DB	018H
	DB	0c6H
	DB	0f7H
	DB	0bdH
	DB	0f7H
	DB	0bdH
	DB	0b6H
	DB	0b5H
	DB	018H
	DB	0c6H
	DB	0f7H
	DB	0bdH
	DB	0b6H
	DB	0b5H
	DB	0b6H
	DB	0b5H
	DB	038H
	DB	0c6H
	DB	0b6H
	DB	0b5H
	DB	096H
	DB	0b5H
	DB	0d7H
	DB	0bdH
	DB	018H
	DB	0c6H
	DB	0d7H
	DB	0bdH
	DB	0f7H
	DB	0bdH
	DB	096H
	DB	0b5H
	DB	0b6H
	DB	0b5H
	DB	038H
	DB	0c6H
	DB	059H
	DB	0ceH
	DB	0d7H
	DB	0bdH
	DB	0f7H
	DB	0bdH
	DB	0b6H
	DB	0b5H
	DB	038H
	DB	0c6H
	DB	0d7H
	DB	0bdH
	DB	096H
	DB	0b5H
	DB	018H
	DB	0c6H
	DB	0b6H
	DB	0b5H
	DB	0f7H
	DB	0bdH
	DB	018H
	DB	0c6H
	DB	0b6H
	DB	0b5H
	DB	0d7H
	DB	0bdH
	DB	0d7H
	DB	0bdH
	DB	096H
	DB	0b5H
	DB	0f7H
	DB	0bdH
	DB	0d7H
	DB	0bdH
	DB	0f7H
	DB	0bdH
	DB	0b6H
	DB	0b5H
	DB	0b6H
	DB	0b5H
	DB	018H
	DB	0c6H
	DB	0f7H
	DB	0bdH
	DB	018H
	DB	0c6H
	DB	0d7H
	DB	0bdH
	DB	0b6H
	DB	0b5H
	DB	038H
	DB	0c6H
	DB	018H
	DB	0c6H
	DB	018H
	DB	0c6H
	DB	0d7H
	DB	0bdH
	DB	0b6H
	DB	0b5H
	DB	096H
	DB	0b5H
	DB	0d7H
	DB	0bdH
	DB	038H
	DB	0c6H
	DB	0f7H
	DB	0bdH
	DB	038H
	DB	0c6H
	DB	0d7H
	DB	0bdH
	DB	075H
	DB	0adH
	DB	038H
	DB	0c6H
	DB	0f7H
	DB	0bdH
	DB	0f7H
	DB	0bdH
	DB	0b6H
	DB	0b5H
	DB	038H
	DB	0c6H
	DB	0f7H
	DB	0bdH
	DB	0f7H
	DB	0bdH
	DB	0f7H
	DB	0bdH
	DB	096H
	DB	0b5H
	DB	0f7H
	DB	0bdH
	DB	0f7H
	DB	0bdH
	DB	0d7H
	DB	0bdH
	DB	0f7H
	DB	0bdH
	DB	0d7H
	DB	0bdH
	DB	055H
	DB	0adH
	DB	0b6H
	DB	0b5H
	DB	0f7H
	DB	0bdH
	DB	0d7H
	DB	0bdH
	DB	0f7H
	DB	0bdH
	DB	096H
	DB	0b5H
	DB	038H
	DB	0c6H
	DB	018H
	DB	0c6H
	DB	038H
	DB	0c6H
	DB	018H
	DB	0c6H
	DB	0f7H
	DB	0bdH
	DB	096H
	DB	0b5H
	DB	038H
	DB	0c6H
	DB	018H
	DB	0c6H
	DB	0b6H
	DB	0b5H
	DB	0d7H
	DB	0bdH
	DB	018H
	DB	0c6H
	DB	0b6H
	DB	0b5H
	DB	0f7H
	DB	0bdH
	DB	0f7H
	DB	0bdH
	DB	0d7H
	DB	0bdH
	DB	018H
	DB	0c6H
	DB	096H
	DB	0b5H
	DB	0d7H
	DB	0bdH
	DB	038H
	DB	0c6H
	DB	018H
	DB	0c6H
	DB	0f7H
	DB	0bdH
	DB	0d7H
	DB	0bdH
	DB	0b6H
	DB	0b5H
	DB	0b6H
	DB	0b5H
	DB	096H
	DB	0b5H
	DB	0f7H
	DB	0bdH
	DB	059H
	DB	0ceH
	DB	0f7H
	DB	0bdH
	DB	0d7H
	DB	0bdH
	DB	096H
	DB	0b5H
	DB	018H
	DB	0c6H
	DB	0b6H
	DB	0b5H
	DB	0f7H
	DB	0bdH
	DB	0f7H
	DB	0bdH
	DB	096H
	DB	0b5H
	DB	0b6H
	DB	0b5H
	DB	0b6H
	DB	0b5H
	DB	018H
	DB	0c6H
	DB	038H
	DB	0c6H
	DB	018H
	DB	0c6H
	DB	0d7H
	DB	0bdH
	DB	0d7H
	DB	0bdH
	DB	0f7H
	DB	0bdH
	DB	0b6H
	DB	0b5H
	DB	0f7H
	DB	0bdH
	DB	0f7H
	DB	0bdH
	DB	0b6H
	DB	0b5H
	DB	0d7H
	DB	0bdH
	DB	018H
	DB	0c6H
	DB	018H
	DB	0c6H
	DB	0b6H
	DB	0b5H
	DB	0f7H
	DB	0bdH
	DB	0d7H
	DB	0bdH
	DB	0d7H
	DB	0bdH
	DB	018H
	DB	0c6H
	DB	0d7H
	DB	0bdH
	DB	0d7H
	DB	0bdH
	DB	0f7H
	DB	0bdH
	DB	018H
	DB	0c6H
	DB	0d7H
	DB	0bdH
	DB	096H
	DB	0b5H
	DB	0f7H
	DB	0bdH
	DB	0f7H
	DB	0bdH
	DB	0d7H
	DB	0bdH
	DB	018H
	DB	0c6H
	DB	0d7H
	DB	0bdH
	DB	0b6H
	DB	0b5H
	DB	096H
	DB	0b5H
	DB	038H
	DB	0c6H
	DB	038H
	DB	0c6H
	DB	0d7H
	DB	0bdH
	DB	0f7H
	DB	0bdH
	DB	0f7H
	DB	0bdH
	DB	0b6H
	DB	0b5H
	DB	0b6H
	DB	0b5H
	DB	018H
	DB	0c6H
	DB	075H
	DB	0adH
	DB	018H
	DB	0c6H
	DB	018H
	DB	0c6H
	DB	0d7H
	DB	0bdH
	DB	0d7H
	DB	0bdH
	DB	0d7H
	DB	0bdH
	DB	0f7H
	DB	0bdH
	DB	0b6H
	DB	0b5H
	DB	0f7H
	DB	0bdH
	DB	018H
	DB	0c6H
	DB	0f7H
	DB	0bdH
	DB	0b6H
	DB	0b5H
	DB	018H
	DB	0c6H
	DB	0d7H
	DB	0bdH
	DB	096H
	DB	0b5H
	DB	038H
	DB	0c6H
	DB	0b6H
	DB	0b5H
	DB	0f7H
	DB	0bdH
	DB	0b6H
	DB	0b5H
	DB	0b6H
	DB	0b5H
	DB	018H
	DB	0c6H
	DB	096H
	DB	0b5H
	DB	038H
	DB	0c6H
	DB	018H
	DB	0c6H
	DB	0b6H
	DB	0b5H
	DB	0b6H
	DB	0b5H
	DB	0f7H
	DB	0bdH
	DB	0b6H
	DB	0b5H
	DB	0f7H
	DB	0bdH
	DB	0d7H
	DB	0bdH
	DB	038H
	DB	0c6H
	DB	0b6H
	DB	0b5H
	DB	075H
	DB	0adH
	DB	0d7H
	DB	0bdH
	DB	038H
	DB	0c6H
	DB	0b6H
	DB	0b5H
	DB	0d7H
	DB	0bdH
	DB	0d7H
	DB	0bdH
	DB	018H
	DB	0c6H
	DB	018H
	DB	0c6H
	DB	0f7H
	DB	0bdH
	DB	0b6H
	DB	0b5H
	DB	0d7H
	DB	0bdH
	DB	018H
	DB	0c6H
	DB	0d7H
	DB	0bdH
	DB	0f7H
	DB	0bdH
	DB	038H
	DB	0c6H
	DB	0d7H
	DB	0bdH
	DB	0d7H
	DB	0bdH
	DB	055H
	DB	0adH
	DB	0b6H
	DB	0b5H
	DB	038H
	DB	0c6H
	DB	059H
	DB	0ceH
	DB	018H
	DB	0c6H
	DB	0d7H
	DB	0bdH
	DB	096H
	DB	0b5H
	DB	0f7H
	DB	0bdH
	DB	0d7H
	DB	0bdH
	DB	0f7H
	DB	0bdH
	DB	0f7H
	DB	0bdH
	DB	0f7H
	DB	0bdH
	DB	0f7H
	DB	0bdH
	DB	0f7H
	DB	0bdH
	DB	075H
	DB	0adH
	DB	0d7H
	DB	0bdH
	DB	0f7H
	DB	0bdH
	DB	018H
	DB	0c6H
	DB	0f7H
	DB	0bdH
	DB	0b6H
	DB	0b5H
	DB	034H
	DB	0a5H
	DB	0d7H
	DB	0bdH
	DB	038H
	DB	0c6H
	DB	038H
	DB	0c6H
	DB	059H
	DB	0ceH
	DB	0b6H
	DB	0b5H
	DB	0f7H
	DB	0bdH
	DB	0f7H
	DB	0bdH
	DB	0b6H
	DB	0b5H
	DB	0b6H
	DB	0b5H
	DB	0b6H
	DB	0b5H
	DB	0d7H
	DB	0bdH
	DB	0f7H
	DB	0bdH
	DB	075H
	DB	0adH
	DB	018H
	DB	0c6H
	DB	038H
	DB	0c6H
	DB	0d7H
	DB	0bdH
	DB	096H
	DB	0b5H
	DB	096H
	DB	0b5H
	DB	0f7H
	DB	0bdH
	DB	038H
	DB	0c6H
	DB	0f7H
	DB	0bdH
	DB	096H
	DB	0b5H
	DB	096H
	DB	0b5H
	DB	0b6H
	DB	0b5H
	DB	0d7H
	DB	0bdH
	DB	038H
	DB	0c6H
	DB	0d7H
	DB	0bdH
	DB	0b6H
	DB	0b5H
	DB	018H
	DB	0c6H
	DB	0d7H
	DB	0bdH
	DB	018H
	DB	0c6H
	DB	0d7H
	DB	0bdH
	DB	055H
	DB	0adH
	DB	096H
	DB	0b5H
	DB	059H
	DB	0ceH
	DB	0d7H
	DB	0bdH
	DB	018H
	DB	0c6H
	DB	0b6H
	DB	0b5H
	DB	018H
	DB	0c6H
	DB	0d7H
	DB	0bdH
	DB	0b6H
	DB	0b5H
	DB	075H
	DB	0adH
	DB	059H
	DB	0ceH
	DB	038H
	DB	0c6H
	DB	096H
	DB	0b5H
	DB	0d7H
	DB	0bdH
	DB	0d7H
	DB	0bdH
	DB	0f7H
	DB	0bdH
	DB	018H
	DB	0c6H
	DB	018H
	DB	0c6H
	DB	0f7H
	DB	0bdH
	DB	0b6H
	DB	0b5H
	DB	0f7H
	DB	0bdH
	DB	096H
	DB	0b5H
	DB	096H
	DB	0b5H
	DB	059H
	DB	0ceH
	DB	0f7H
	DB	0bdH
	DB	0f7H
	DB	0bdH
	DB	0d7H
	DB	0bdH
	DB	0f7H
	DB	0bdH
	DB	018H
	DB	0c6H
	DB	0d7H
	DB	0bdH
	DB	018H
	DB	0c6H
	DB	0d7H
	DB	0bdH
	DB	075H
	DB	0adH
	DB	018H
	DB	0c6H
	DB	0b6H
	DB	0b5H
	DB	096H
	DB	0b5H
	DB	0d7H
	DB	0bdH
	DB	0f7H
	DB	0bdH
	DB	038H
	DB	0c6H
	DB	096H
	DB	0b5H
	DB	0f7H
	DB	0bdH
	DB	096H
	DB	0b5H
	DB	038H
	DB	0c6H
	DB	018H
	DB	0c6H
	DB	0d7H
	DB	0bdH
	DB	0b6H
	DB	0b5H
	DB	075H
	DB	0adH
	DB	038H
	DB	0c6H
	DB	018H
	DB	0c6H
	DB	018H
	DB	0c6H
	DB	075H
	DB	0adH
	DB	096H
	DB	0b5H
	DB	018H
	DB	0c6H
	DB	0d7H
	DB	0bdH
	DB	038H
	DB	0c6H
	DB	0f7H
	DB	0bdH
	DB	0b6H
	DB	0b5H
	DB	0d7H
	DB	0bdH
	DB	0d7H
	DB	0bdH
	DB	0d7H
	DB	0bdH
	DB	0d7H
	DB	0bdH
	DB	0d7H
	DB	0bdH
	DB	0d7H
	DB	0bdH
	DB	0d7H
	DB	0bdH
	DB	018H
	DB	0c6H
	DB	038H
	DB	0c6H
	DB	0b6H
	DB	0b5H
	DB	018H
	DB	0c6H
	DB	0f7H
	DB	0bdH
	DB	018H
	DB	0c6H
	DB	0f7H
	DB	0bdH
	DB	0d7H
	DB	0bdH
	DB	038H
	DB	0c6H
	DB	096H
	DB	0b5H
	DB	0b6H
	DB	0b5H
	DB	018H
	DB	0c6H
	DB	0b6H
	DB	0b5H
	DB	0d7H
	DB	0bdH
	DB	0d7H
	DB	0bdH
	DB	0d7H
	DB	0bdH
	DB	018H
	DB	0c6H
	DB	038H
	DB	0c6H
	DB	0d7H
	DB	0bdH
	DB	0b6H
	DB	0b5H
	DB	018H
	DB	0c6H
	DB	059H
	DB	0ceH
	DB	0b6H
	DB	0b5H
	DB	018H
	DB	0c6H
	DB	0b6H
	DB	0b5H
	DB	0d7H
	DB	0bdH
	DB	038H
	DB	0c6H
	DB	0b6H
	DB	0b5H
	DB	018H
	DB	0c6H
	DB	0f7H
	DB	0bdH
	DB	0d7H
	DB	0bdH
	DB	096H
	DB	0b5H
	DB	018H
	DB	0c6H
	DB	038H
	DB	0c6H
	DB	0b6H
	DB	0b5H
	DB	0f7H
	DB	0bdH
	DB	0d7H
	DB	0bdH
	DB	096H
	DB	0b5H
	DB	018H
	DB	0c6H
	DB	0d7H
	DB	0bdH
	DB	018H
	DB	0c6H
	DB	0b6H
	DB	0b5H
	DB	038H
	DB	0c6H
	DB	0d7H
	DB	0bdH
	DB	0f7H
	DB	0bdH
	DB	018H
	DB	0c6H
	DB	096H
	DB	0b5H
	DB	096H
	DB	0b5H
	DB	038H
	DB	0c6H
	DB	0d7H
	DB	0bdH
	DB	0d7H
	DB	0bdH
	DB	0d7H
	DB	0bdH
	DB	096H
	DB	0b5H
	DB	0d7H
	DB	0bdH
	DB	018H
	DB	0c6H
	DB	018H
	DB	0c6H
	DB	018H
	DB	0c6H
	DB	055H
	DB	0adH
	DB	0f7H
	DB	0bdH
	DB	038H
	DB	0c6H
	DB	0f7H
	DB	0bdH
	DB	0d7H
	DB	0bdH
	DB	0f7H
	DB	0bdH
	DB	0b6H
	DB	0b5H
	DB	038H
	DB	0c6H
	DB	018H
	DB	0c6H
	DB	0b6H
	DB	0b5H
	DB	0b6H
	DB	0b5H
	DB	0d7H
	DB	0bdH
	DB	0d7H
	DB	0bdH
	DB	0d7H
	DB	0bdH
	DB	0f7H
	DB	0bdH
	DB	0d7H
	DB	0bdH
	DB	0f7H
	DB	0bdH
	DB	0d7H
	DB	0bdH
	DB	0b6H
	DB	0b5H
	DB	018H
	DB	0c6H
	DB	018H
	DB	0c6H
	DB	0b6H
	DB	0b5H
	DB	018H
	DB	0c6H
	DB	0d7H
	DB	0bdH
	DB	075H
	DB	0adH
	DB	0b6H
	DB	0b5H
	DB	0d7H
	DB	0bdH
	DB	038H
	DB	0c6H
	DB	018H
	DB	0c6H
	DB	038H
	DB	0c6H
	DB	096H
	DB	0b5H
	DB	0d7H
	DB	0bdH
	DB	038H
	DB	0c6H
	DB	0f7H
	DB	0bdH
	DB	0d7H
	DB	0bdH
	DB	0d7H
	DB	0bdH
	DB	0b6H
	DB	0b5H
	DB	055H
	DB	0adH
	DB	059H
	DB	0ceH
	DB	0f7H
	DB	0bdH
	DB	0f7H
	DB	0bdH
	DB	0d7H
	DB	0bdH
	DB	0f7H
	DB	0bdH
	DB	018H
	DB	0c6H
	DB	0b6H
	DB	0b5H
	DB	018H
	DB	0c6H
	DB	0f7H
	DB	0bdH
	DB	0d7H
	DB	0bdH
	DB	0d7H
	DB	0bdH
	DB	096H
	DB	0b5H
	DB	0b6H
	DB	0b5H
	DB	0d7H
	DB	0bdH
	DB	018H
	DB	0c6H
	DB	0f7H
	DB	0bdH
	DB	0d7H
	DB	0bdH
	DB	0d7H
	DB	0bdH
	DB	0f7H
	DB	0bdH
	DB	0f7H
	DB	0bdH
	DB	0d7H
	DB	0bdH
	DB	018H
	DB	0c6H
	DB	0d7H
	DB	0bdH
	DB	096H
	DB	0b5H
	DB	0f7H
	DB	0bdH
	DB	0f7H
	DB	0bdH
	DB	0f7H
	DB	0bdH
	DB	0f7H
	DB	0bdH
	DB	0f7H
	DB	0bdH
	DB	0b6H
	DB	0b5H
	DB	075H
	DB	0adH
	DB	018H
	DB	0c6H
	DB	038H
	DB	0c6H
	DB	0f7H
	DB	0bdH
	DB	0b6H
	DB	0b5H
	DB	038H
	DB	0c6H
	DB	0b6H
	DB	0b5H
	DB	0f7H
	DB	0bdH
	DB	018H
	DB	0c6H
	DB	075H
	DB	0adH
	DB	0d7H
	DB	0bdH
	DB	038H
	DB	0c6H
	DB	0b6H
	DB	0b5H
	DB	018H
	DB	0c6H
	DB	0f7H
	DB	0bdH
	DB	018H
	DB	0c6H
	DB	0d7H
	DB	0bdH
	DB	0b6H
	DB	0b5H
	DB	0d7H
	DB	0bdH
	DB	0f7H
	DB	0bdH
	DB	0d7H
	DB	0bdH
	DB	0f7H
	DB	0bdH
	DB	0d7H
	DB	0bdH
	DB	0b6H
	DB	0b5H
	DB	0f7H
	DB	0bdH
	DB	0f7H
	DB	0bdH
	DB	038H
	DB	0c6H
	DB	0b6H
	DB	0b5H
	DB	096H
	DB	0b5H
	DB	0f7H
	DB	0bdH
	DB	0d7H
	DB	0bdH
	DB	018H
	DB	0c6H
	DB	0f7H
	DB	0bdH
	DB	0d7H
	DB	0bdH
	DB	0b6H
	DB	0b5H
	DB	0f7H
	DB	0bdH
	DB	0f7H
	DB	0bdH
	DB	0b6H
	DB	0b5H
	DB	055H
	DB	0adH
	DB	038H
	DB	0c6H
	DB	0b6H
	DB	0b5H
	DB	0f7H
	DB	0bdH
	DB	0f7H
	DB	0bdH
	DB	0f7H
	DB	0bdH
	DB	0d7H
	DB	0bdH
	DB	0d7H
	DB	0bdH
	DB	038H
	DB	0c6H
	DB	0d7H
	DB	0bdH
	DB	0f7H
	DB	0bdH
	DB	018H
	DB	0c6H
	DB	0b6H
	DB	0b5H
	DB	075H
	DB	0adH
	DB	038H
	DB	0c6H
	DB	0d7H
	DB	0bdH
	DB	0d7H
	DB	0bdH
	DB	018H
	DB	0c6H
	DB	0d7H
	DB	0bdH
	DB	0d7H
	DB	0bdH
	DB	0d7H
	DB	0bdH
	DB	055H
	DB	0adH
	DB	0f7H
	DB	0bdH
	DB	038H
	DB	0c6H
	DB	018H
	DB	0c6H
	DB	0b6H
	DB	0b5H
	DB	096H
	DB	0b5H
	DB	018H
	DB	0c6H
	DB	018H
	DB	0c6H
	DB	0f7H
	DB	0bdH
	DB	096H
	DB	0b5H
	DB	0f7H
	DB	0bdH
	DB	0f7H
	DB	0bdH
	DB	0f7H
	DB	0bdH
	DB	075H
	DB	0adH
	DB	0d7H
	DB	0bdH
	DB	018H
	DB	0c6H
	DB	0f7H
	DB	0bdH
	DB	0f7H
	DB	0bdH
	DB	096H
	DB	0b5H
	DB	075H
	DB	0adH
	DB	059H
	DB	0ceH
	DB	0f7H
	DB	0bdH
	DB	0d7H
	DB	0bdH
	DB	038H
	DB	0c6H
	DB	0d7H
	DB	0bdH
	DB	0f7H
	DB	0bdH
	DB	0f7H
	DB	0bdH
	DB	0b6H
	DB	0b5H
	DB	0d7H
	DB	0bdH
	DB	0f7H
	DB	0bdH
	DB	0f7H
	DB	0bdH
	DB	0b6H
	DB	0b5H
	DB	0b6H
	DB	0b5H
	DB	0f7H
	DB	0bdH
	DB	038H
	DB	0c6H
	DB	018H
	DB	0c6H
	DB	0d7H
	DB	0bdH
	DB	038H
	DB	0c6H
	DB	0b6H
	DB	0b5H
	DB	0b6H
	DB	0b5H
	DB	038H
	DB	0c6H
	DB	0b6H
	DB	0b5H
	DB	096H
	DB	0b5H
	DB	0f7H
	DB	0bdH
	DB	096H
	DB	0b5H
	DB	038H
	DB	0c6H
	DB	0d7H
	DB	0bdH
	DB	0b6H
	DB	0b5H
	DB	0f7H
	DB	0bdH
	DB	0d7H
	DB	0bdH
	DB	038H
	DB	0c6H
	DB	096H
	DB	0b5H
	DB	055H
	DB	0adH
	DB	018H
	DB	0c6H
	DB	038H
	DB	0c6H
	DB	0b6H
	DB	0b5H
	DB	018H
	DB	0c6H
	DB	0b6H
	DB	0b5H
	DB	0f7H
	DB	0bdH
	DB	0f7H
	DB	0bdH
	DB	0b6H
	DB	0b5H
	DB	055H
	DB	0adH
	DB	059H
	DB	0ceH
	DB	038H
	DB	0c6H
	DB	096H
	DB	0b5H
	DB	0d7H
	DB	0bdH
	DB	0d7H
	DB	0bdH
	DB	075H
	DB	0adH
	DB	038H
	DB	0c6H
	DB	038H
	DB	0c6H
	DB	0f7H
	DB	0bdH
	DB	0b6H
	DB	0b5H
	DB	0d7H
	DB	0bdH
	DB	075H
	DB	0adH
	DB	0d7H
	DB	0bdH
	DB	018H
	DB	0c6H
	DB	0f7H
	DB	0bdH
	DB	018H
	DB	0c6H
	DB	018H
	DB	0c6H
	DB	0b6H
	DB	0b5H
	DB	0d7H
	DB	0bdH
	DB	0f7H
	DB	0bdH
	DB	018H
	DB	0c6H
	DB	0d7H
	DB	0bdH
	DB	0b6H
	DB	0b5H
	DB	038H
	DB	0c6H
	DB	0f7H
	DB	0bdH
	DB	0b6H
	DB	0b5H
	DB	096H
	DB	0b5H
	DB	0b6H
	DB	0b5H
	DB	038H
	DB	0c6H
	DB	096H
	DB	0b5H
	DB	0d7H
	DB	0bdH
	DB	0f7H
	DB	0bdH
	DB	038H
	DB	0c6H
	DB	0f7H
	DB	0bdH
	DB	0d7H
	DB	0bdH
	DB	0f7H
	DB	0bdH
	DB	055H
	DB	0adH
	DB	018H
	DB	0c6H
	DB	018H
	DB	0c6H
	DB	0d7H
	DB	0bdH
	DB	096H
	DB	0b5H
	DB	075H
	DB	0adH
	DB	018H
	DB	0c6H
	DB	018H
	DB	0c6H
	DB	059H
	DB	0ceH
	DB	0f7H
	DB	0bdH
	DB	0b6H
	DB	0b5H
	DB	0d7H
	DB	0bdH
	DB	0d7H
	DB	0bdH
	DB	096H
	DB	0b5H
	DB	0f7H
	DB	0bdH
	DB	0d7H
	DB	0bdH
	DB	0f7H
	DB	0bdH
	DB	0b6H
	DB	0b5H
	DB	018H
	DB	0c6H
	DB	038H
	DB	0c6H
	DB	0b6H
	DB	0b5H
	DB	0f7H
	DB	0bdH
	DB	0b6H
	DB	0b5H
	DB	0f7H
	DB	0bdH
	DB	0f7H
	DB	0bdH
	DB	0d7H
	DB	0bdH
	DB	038H
	DB	0c6H
	DB	096H
	DB	0b5H
	DB	0b6H
	DB	0b5H
	DB	018H
	DB	0c6H
	DB	038H
	DB	0c6H
	DB	0f7H
	DB	0bdH
	DB	018H
	DB	0c6H
	DB	0f7H
	DB	0bdH
	DB	0b6H
	DB	0b5H
	DB	0d7H
	DB	0bdH
	DB	0d7H
	DB	0bdH
	DB	0b6H
	DB	0b5H
	DB	018H
	DB	0c6H
	DB	059H
	DB	0ceH
	DB	0b6H
	DB	0b5H
	DB	096H
	DB	0b5H
	DB	0b6H
	DB	0b5H
	DB	0f7H
	DB	0bdH
	DB	059H
	DB	0ceH
	DB	0d7H
	DB	0bdH
	DB	0b6H
	DB	0b5H
	DB	0d7H
	DB	0bdH
	DB	0d7H
	DB	0bdH
	DB	0b6H
	DB	0b5H
	DB	038H
	DB	0c6H
	DB	018H
	DB	0c6H
	DB	0f7H
	DB	0bdH
	DB	0f7H
	DB	0bdH
	DB	0f7H
	DB	0bdH
	DB	096H
	DB	0b5H
	DB	038H
	DB	0c6H
	DB	0b6H
	DB	0b5H
	DB	0b6H
	DB	0b5H
	DB	018H
	DB	0c6H
	DB	038H
	DB	0c6H
	DB	0f7H
	DB	0bdH
	DB	0b6H
	DB	0b5H
	DB	0f7H
	DB	0bdH
	DB	0b6H
	DB	0b5H
	DB	075H
	DB	0adH
	DB	038H
	DB	0c6H
	DB	0d7H
	DB	0bdH
	DB	0b6H
	DB	0b5H
	DB	018H
	DB	0c6H
	DB	0f7H
	DB	0bdH
	DB	0b6H
	DB	0b5H
	DB	018H
	DB	0c6H
	DB	038H
	DB	0c6H
	DB	0f7H
	DB	0bdH
	DB	075H
	DB	0adH
	DB	0d7H
	DB	0bdH
	DB	059H
	DB	0ceH
	DB	018H
	DB	0c6H
	DB	0b6H
	DB	0b5H
	DB	0b6H
	DB	0b5H
	DB	075H
	DB	0adH
	DB	018H
	DB	0c6H
	DB	0f7H
	DB	0bdH
	DB	0d7H
	DB	0bdH
	DB	0d7H
	DB	0bdH
	DB	0b6H
	DB	0b5H
	DB	0d7H
	DB	0bdH
	DB	0d7H
	DB	0bdH
	DB	018H
	DB	0c6H
	DB	038H
	DB	0c6H
	DB	0d7H
	DB	0bdH
	DB	018H
	DB	0c6H
	DB	075H
	DB	0adH
	DB	0f7H
	DB	0bdH
	DB	038H
	DB	0c6H
	DB	0b6H
	DB	0b5H
	DB	0d7H
	DB	0bdH
	DB	0f7H
	DB	0bdH
	DB	075H
	DB	0adH
	DB	0f7H
	DB	0bdH
	DB	0b6H
	DB	0b5H
	DB	018H
	DB	0c6H
	DB	0f7H
	DB	0bdH
	DB	0d7H
	DB	0bdH
	DB	0b6H
	DB	0b5H
	DB	0d7H
	DB	0bdH
	DB	059H
	DB	0ceH
	DB	0d7H
	DB	0bdH
	DB	0b6H
	DB	0b5H
	DB	0d7H
	DB	0bdH
	DB	0b6H
	DB	0b5H
	DB	096H
	DB	0b5H
	DB	038H
	DB	0c6H
	DB	018H
	DB	0c6H
	DB	0d7H
	DB	0bdH
	DB	075H
	DB	0adH
	DB	0d7H
	DB	0bdH
	DB	018H
	DB	0c6H
	DB	0d7H
	DB	0bdH
	DB	038H
	DB	0c6H
	DB	018H
	DB	0c6H
	DB	0b6H
	DB	0b5H
	DB	0d7H
	DB	0bdH
	DB	0b6H
	DB	0b5H
	DB	075H
	DB	0adH
	DB	0f7H
	DB	0bdH
	DB	018H
	DB	0c6H
	DB	018H
	DB	0c6H
	DB	0b6H
	DB	0b5H
	DB	0b6H
	DB	0b5H
	DB	0f7H
	DB	0bdH
	DB	0f7H
	DB	0bdH
	DB	0f7H
	DB	0bdH
	DB	018H
	DB	0c6H
	DB	0d7H
	DB	0bdH
	DB	096H
	DB	0b5H
	DB	0f7H
	DB	0bdH
	DB	0f7H
	DB	0bdH
	DB	0f7H
	DB	0bdH
	DB	0d7H
	DB	0bdH
	DB	0d7H
	DB	0bdH
	DB	0b6H
	DB	0b5H
	DB	0d7H
	DB	0bdH
	DB	018H
	DB	0c6H
	DB	0f7H
	DB	0bdH
	DB	018H
	DB	0c6H
	DB	075H
	DB	0adH
	DB	0d7H
	DB	0bdH
	DB	038H
	DB	0c6H
	DB	038H
	DB	0c6H
	DB	0f7H
	DB	0bdH
	DB	075H
	DB	0adH
	DB	0d7H
	DB	0bdH
	DB	018H
	DB	0c6H
	DB	0d7H
	DB	0bdH
	DB	096H
	DB	0b5H
	DB	0f7H
	DB	0bdH
	DB	059H
	DB	0ceH
	DB	0f7H
	DB	0bdH
	DB	096H
	DB	0b5H
	DB	0d7H
	DB	0bdH
	DB	0f7H
	DB	0bdH
	DB	0d7H
	DB	0bdH
	DB	0f7H
	DB	0bdH
	DB	0f7H
	DB	0bdH
	DB	0d7H
	DB	0bdH
	DB	0f7H
	DB	0bdH
	DB	038H
	DB	0c6H
	DB	0f7H
	DB	0bdH
	DB	0d7H
	DB	0bdH
	DB	055H
	DB	0adH
	DB	0f7H
	DB	0bdH
	DB	038H
	DB	0c6H
	DB	0b6H
	DB	0b5H
	DB	0b6H
	DB	0b5H
	DB	0d7H
	DB	0bdH
	DB	0f7H
	DB	0bdH
	DB	018H
	DB	0c6H
	DB	018H
	DB	0c6H
	DB	096H
	DB	0b5H
	DB	055H
	DB	0adH
	DB	0f7H
	DB	0bdH
	DB	0d7H
	DB	0bdH
	DB	038H
	DB	0c6H
	DB	0d7H
	DB	0bdH
	DB	0f7H
	DB	0bdH
	DB	0f7H
	DB	0bdH
	DB	096H
	DB	0b5H
	DB	038H
	DB	0c6H
	DB	0d7H
	DB	0bdH
	DB	0b6H
	DB	0b5H
	DB	018H
	DB	0c6H
	DB	0d7H
	DB	0bdH
	DB	055H
	DB	0adH
	DB	038H
	DB	0c6H
	DB	0d7H
	DB	0bdH
	DB	0b6H
	DB	0b5H
	DB	018H
	DB	0c6H
	DB	0f7H
	DB	0bdH
	DB	038H
	DB	0c6H
	DB	0d7H
	DB	0bdH
	DB	014H
	DB	0a5H
	DB	0f7H
	DB	0bdH
	DB	018H
	DB	0c6H
	DB	0d7H
	DB	0bdH
	DB	0d7H
	DB	0bdH
	DB	0f7H
	DB	0bdH
	DB	018H
	DB	0c6H
	DB	0f7H
	DB	0bdH
	DB	0f7H
	DB	0bdH
	DB	0b6H
	DB	0b5H
	DB	0b6H
	DB	0b5H
	DB	018H
	DB	0c6H
	DB	0b6H
	DB	0b5H
	DB	096H
	DB	0b5H
	DB	0b6H
	DB	0b5H
	DB	038H
	DB	0c6H
	DB	018H
	DB	0c6H
	DB	0b6H
	DB	0b5H
	DB	0b6H
	DB	0b5H
	DB	0d7H
	DB	0bdH
	DB	059H
	DB	0ceH
	DB	0f7H
	DB	0bdH
	DB	096H
	DB	0b5H
	DB	0f7H
	DB	0bdH
	DB	0f7H
	DB	0bdH
	DB	0d7H
	DB	0bdH
	DB	0d7H
	DB	0bdH
	DB	0f7H
	DB	0bdH
	DB	038H
	DB	0c6H
	DB	0f7H
	DB	0bdH
	DB	0b6H
	DB	0b5H
	DB	075H
	DB	0adH
	DB	0b6H
	DB	0b5H
	DB	018H
	DB	0c6H
	DB	0f7H
	DB	0bdH
	DB	018H
	DB	0c6H
	DB	0f7H
	DB	0bdH
	DB	059H
	DB	0ceH
	DB	096H
	DB	0b5H
	DB	096H
	DB	0b5H
	DB	059H
	DB	0ceH
	DB	0d7H
	DB	0bdH
	DB	096H
	DB	0b5H
	DB	0f7H
	DB	0bdH
	DB	0b6H
	DB	0b5H
	DB	038H
	DB	0c6H
	DB	0f7H
	DB	0bdH
	DB	0f7H
	DB	0bdH
	DB	096H
	DB	0b5H
	DB	075H
	DB	0adH
	DB	038H
	DB	0c6H
	DB	096H
	DB	0b5H
	DB	0f7H
	DB	0bdH
	DB	0f7H
	DB	0bdH
	DB	018H
	DB	0c6H
	DB	0d7H
	DB	0bdH
	DB	0f7H
	DB	0bdH
	DB	0f7H
	DB	0bdH
	DB	0b6H
	DB	0b5H
	DB	0d7H
	DB	0bdH
	DB	096H
	DB	0b5H
	DB	0b6H
	DB	0b5H
	DB	038H
	DB	0c6H
	DB	038H
	DB	0c6H
	DB	0f7H
	DB	0bdH
	DB	0b6H
	DB	0b5H
	DB	0b6H
	DB	0b5H
	DB	0d7H
	DB	0bdH
	DB	038H
	DB	0c6H
	DB	038H
	DB	0c6H
	DB	0f7H
	DB	0bdH
	DB	0d7H
	DB	0bdH
	DB	0d7H
	DB	0bdH
	DB	0b6H
	DB	0b5H
	DB	018H
	DB	0c6H
	DB	0d7H
	DB	0bdH
	DB	018H
	DB	0c6H
	DB	018H
	DB	0c6H
	DB	0f7H
	DB	0bdH
	DB	0b6H
	DB	0b5H
	DB	096H
	DB	0b5H
	DB	0f7H
	DB	0bdH
	DB	018H
	DB	0c6H
	DB	0d7H
	DB	0bdH
	DB	0b6H
	DB	0b5H
	DB	0d7H
	DB	0bdH
	DB	018H
	DB	0c6H
	DB	018H
	DB	0c6H
	DB	0b6H
	DB	0b5H
	DB	096H
	DB	0b5H
	DB	0b6H
	DB	0b5H
	DB	0b6H
	DB	0b5H
	DB	038H
	DB	0c6H
	DB	038H
	DB	0c6H
	DB	0b6H
	DB	0b5H
	DB	0d7H
	DB	0bdH
	DB	0b6H
	DB	0b5H
	DB	0b6H
	DB	0b5H
	DB	096H
	DB	0b5H
	DB	018H
	DB	0c6H
	DB	059H
	DB	0ceH
	DB	0f7H
	DB	0bdH
	DB	0b6H
	DB	0b5H
	DB	0f7H
	DB	0bdH
	DB	018H
	DB	0c6H
	DB	0b6H
	DB	0b5H
	DB	038H
	DB	0c6H
	DB	018H
	DB	0c6H
	DB	0b6H
	DB	0b5H
	DB	0d7H
	DB	0bdH
	DB	0d7H
	DB	0bdH
	DB	0d7H
	DB	0bdH
	DB	018H
	DB	0c6H
	DB	038H
	DB	0c6H
	DB	0d7H
	DB	0bdH
	DB	096H
	DB	0b5H
	DB	059H
	DB	0ceH
	DB	0f7H
	DB	0bdH
	DB	0b6H
	DB	0b5H
	DB	018H
	DB	0c6H
	DB	0b6H
	DB	0b5H
	DB	0b6H
	DB	0b5H
	DB	0f7H
	DB	0bdH
	DB	0f7H
	DB	0bdH
	DB	0d7H
	DB	0bdH
	DB	0f7H
	DB	0bdH
	DB	018H
	DB	0c6H
	DB	0d7H
	DB	0bdH
	DB	059H
	DB	0ceH
	DB	0f7H
	DB	0bdH
	DB	0f7H
	DB	0bdH
	DB	0b6H
	DB	0b5H
	DB	0f7H
	DB	0bdH
	DB	0d7H
	DB	0bdH
	DB	096H
	DB	0b5H
	DB	0d7H
	DB	0bdH
	DB	038H
	DB	0c6H
	DB	0f7H
	DB	0bdH
	DB	0f7H
	DB	0bdH
	DB	075H
	DB	0adH
	DB	0f7H
	DB	0bdH
	DB	0b6H
	DB	0b5H
	DB	038H
	DB	0c6H
	DB	038H
	DB	0c6H
	DB	096H
	DB	0b5H
	DB	0b6H
	DB	0b5H
	DB	0f7H
	DB	0bdH
	DB	0b6H
	DB	0b5H
	DB	038H
	DB	0c6H
	DB	018H
	DB	0c6H
	DB	0d7H
	DB	0bdH
	DB	018H
	DB	0c6H
	DB	0f7H
	DB	0bdH
	DB	096H
	DB	0b5H
	DB	038H
	DB	0c6H
	DB	0d7H
	DB	0bdH
	DB	034H
	DB	0a5H
	DB	0d7H
	DB	0bdH
	DB	059H
	DB	0ceH
	DB	0f7H
	DB	0bdH
	DB	0b6H
	DB	0b5H
	DB	0b6H
	DB	0b5H
	DB	0d7H
	DB	0bdH
	DB	096H
	DB	0b5H
	DB	018H
	DB	0c6H
	DB	0f7H
	DB	0bdH
	DB	018H
	DB	0c6H
	DB	018H
	DB	0c6H
	DB	0f7H
	DB	0bdH
	DB	096H
	DB	0b5H
	DB	0d7H
	DB	0bdH
	DB	038H
	DB	0c6H
	DB	018H
	DB	0c6H
	DB	0b6H
	DB	0b5H
	DB	0b6H
	DB	0b5H
	DB	0f7H
	DB	0bdH
	DB	018H
	DB	0c6H
	DB	0f7H
	DB	0bdH
	DB	096H
	DB	0b5H
	DB	0b6H
	DB	0b5H
	DB	0f7H
	DB	0bdH
	DB	0b6H
	DB	0b5H
	DB	0f7H
	DB	0bdH
	DB	018H
	DB	0c6H
	DB	0b6H
	DB	0b5H
	DB	096H
	DB	0b5H
	DB	018H
	DB	0c6H
	DB	038H
	DB	0c6H
	DB	018H
	DB	0c6H
	DB	0b6H
	DB	0b5H
	DB	0f7H
	DB	0bdH
	DB	096H
	DB	0b5H
	DB	0f7H
	DB	0bdH
	DB	059H
	DB	0ceH
	DB	0b6H
	DB	0b5H
	DB	0d7H
	DB	0bdH
	DB	0d7H
	DB	0bdH
	DB	0b6H
	DB	0b5H
	DB	018H
	DB	0c6H
	DB	0b6H
	DB	0b5H
	DB	0f7H
	DB	0bdH
	DB	0f7H
	DB	0bdH
	DB	075H
	DB	0adH
	DB	096H
	DB	0b5H
	DB	018H
	DB	0c6H
	DB	038H
	DB	0c6H
	DB	0f7H
	DB	0bdH
	DB	0d7H
	DB	0bdH
	DB	0b6H
	DB	0b5H
	DB	0d7H
	DB	0bdH
	DB	0f7H
	DB	0bdH
	DB	0d7H
	DB	0bdH
	DB	0f7H
	DB	0bdH
	DB	0f7H
	DB	0bdH
	DB	0b6H
	DB	0b5H
	DB	018H
	DB	0c6H
	DB	0b6H
	DB	0b5H
	DB	0d7H
	DB	0bdH
	DB	038H
	DB	0c6H
	DB	0f7H
	DB	0bdH
	DB	0d7H
	DB	0bdH
	DB	0d7H
	DB	0bdH
	DB	096H
	DB	0b5H
	DB	0b6H
	DB	0b5H
	DB	038H
	DB	0c6H
	DB	0f7H
	DB	0bdH
	DB	0d7H
	DB	0bdH
	DB	0d7H
	DB	0bdH
	DB	0d7H
	DB	0bdH
	DB	0f7H
	DB	0bdH
	DB	0f7H
	DB	0bdH
	DB	0d7H
	DB	0bdH
	DB	0d7H
	DB	0bdH
	DB	0d7H
	DB	0bdH
	DB	0b6H
	DB	0b5H
	DB	0f7H
	DB	0bdH
	DB	0d7H
	DB	0bdH
	DB	0f7H
	DB	0bdH
	DB	0f7H
	DB	0bdH
	DB	096H
	DB	0b5H
	DB	0d7H
	DB	0bdH
	DB	038H
	DB	0c6H
	DB	0f7H
	DB	0bdH
	DB	0d7H
	DB	0bdH
	DB	0d7H
	DB	0bdH
	DB	034H
	DB	0a5H
	DB	0d7H
	DB	0bdH
	DB	059H
	DB	0ceH
	DB	018H
	DB	0c6H
	DB	0d7H
	DB	0bdH
	DB	075H
	DB	0adH
	DB	0f7H
	DB	0bdH
	DB	0f7H
	DB	0bdH
	DB	0f7H
	DB	0bdH
	DB	0b6H
	DB	0b5H
	DB	0b6H
	DB	0b5H
	DB	038H
	DB	0c6H
	DB	0f7H
	DB	0bdH
	DB	0d7H
	DB	0bdH
	DB	0d7H
	DB	0bdH
	DB	0d7H
	DB	0bdH
	DB	0f7H
	DB	0bdH
	DB	0d7H
	DB	0bdH
	DB	0d7H
	DB	0bdH
	DB	0b6H
	DB	0b5H
	DB	018H
	DB	0c6H
	DB	038H
	DB	0c6H
	DB	0d7H
	DB	0bdH
	DB	0d7H
	DB	0bdH
	DB	096H
	DB	0b5H
	DB	0f7H
	DB	0bdH
	DB	038H
	DB	0c6H
	DB	096H
	DB	0b5H
	DB	0b6H
	DB	0b5H
	DB	0d7H
	DB	0bdH
	DB	018H
	DB	0c6H
	DB	0f7H
	DB	0bdH
	DB	018H
	DB	0c6H
	DB	0b6H
	DB	0b5H
	DB	0b6H
	DB	0b5H
	DB	018H
	DB	0c6H
	DB	0d7H
	DB	0bdH
	DB	0d7H
	DB	0bdH
	DB	0d7H
	DB	0bdH
	DB	0f7H
	DB	0bdH
	DB	018H
	DB	0c6H
	DB	0b6H
	DB	0b5H
	DB	0f7H
	DB	0bdH
	DB	0d7H
	DB	0bdH
	DB	0b6H
	DB	0b5H
	DB	018H
	DB	0c6H
	DB	0d7H
	DB	0bdH
	DB	075H
	DB	0adH
	DB	0d7H
	DB	0bdH
	DB	0d7H
	DB	0bdH
	DB	096H
	DB	0b5H
	DB	038H
	DB	0c6H
	DB	038H
	DB	0c6H
	DB	0f7H
	DB	0bdH
	DB	0d7H
	DB	0bdH
	DB	055H
	DB	0adH
	DB	0f7H
	DB	0bdH
	DB	018H
	DB	0c6H
	DB	0d7H
	DB	0bdH
	DB	0f7H
	DB	0bdH
	DB	0d7H
	DB	0bdH
	DB	018H
	DB	0c6H
	DB	0f7H
	DB	0bdH
	DB	0f7H
	DB	0bdH
	DB	0b6H
	DB	0b5H
	DB	0d7H
	DB	0bdH
	DB	0f7H
	DB	0bdH
	DB	0d7H
	DB	0bdH
	DB	096H
	DB	0b5H
	DB	0d7H
	DB	0bdH
	DB	0d7H
	DB	0bdH
	DB	038H
	DB	0c6H
	DB	0b6H
	DB	0b5H
	DB	0d7H
	DB	0bdH
	DB	018H
	DB	0c6H
	DB	0f7H
	DB	0bdH
	DB	0d7H
	DB	0bdH
	DB	0d7H
	DB	0bdH
	DB	0f7H
	DB	0bdH
	DB	038H
	DB	0c6H
	DB	0d7H
	DB	0bdH
	DB	0b6H
	DB	0b5H
	DB	018H
	DB	0c6H
	DB	018H
	DB	0c6H
	DB	0d7H
	DB	0bdH
	DB	0b6H
	DB	0b5H
	DB	055H
	DB	0adH
	DB	0d7H
	DB	0bdH
	DB	059H
	DB	0ceH
	DB	0f7H
	DB	0bdH
	DB	0f7H
	DB	0bdH
	DB	038H
	DB	0c6H
	DB	038H
	DB	0c6H
	DB	096H
	DB	0b5H
	DB	096H
	DB	0b5H
	DB	059H
	DB	0ceH
	DB	0d7H
	DB	0bdH
	DB	0d7H
	DB	0bdH
	DB	0f7H
	DB	0bdH
	DB	0b6H
	DB	0b5H
	DB	038H
	DB	0c6H
	DB	0f7H
	DB	0bdH
	DB	018H
	DB	0c6H
	DB	096H
	DB	0b5H
	DB	034H
	DB	0a5H
	DB	018H
	DB	0c6H
	DB	0b6H
	DB	0b5H
	DB	038H
	DB	0c6H
	DB	0b6H
	DB	0b5H
	DB	0f7H
	DB	0bdH
	DB	0f7H
	DB	0bdH
	DB	0d7H
	DB	0bdH
	DB	0f7H
	DB	0bdH
	DB	0b6H
	DB	0b5H
	DB	0b6H
	DB	0b5H
	DB	0b6H
	DB	0b5H
	DB	0d7H
	DB	0bdH
	DB	0d7H
	DB	0bdH
	DB	0d7H
	DB	0bdH
	DB	059H
	DB	0ceH
	DB	0b6H
	DB	0b5H
	DB	096H
	DB	0b5H
	DB	038H
	DB	0c6H
	DB	0d7H
	DB	0bdH
	DB	0d7H
	DB	0bdH
	DB	018H
	DB	0c6H
	DB	0f7H
	DB	0bdH
	DB	0b6H
	DB	0b5H
	DB	0d7H
	DB	0bdH
	DB	038H
	DB	0c6H
	DB	0d7H
	DB	0bdH
	DB	0d7H
	DB	0bdH
	DB	018H
	DB	0c6H
	DB	0f7H
	DB	0bdH
	DB	0d7H
	DB	0bdH
	DB	096H
	DB	0b5H
	DB	0d7H
	DB	0bdH
	DB	018H
	DB	0c6H
	DB	0d7H
	DB	0bdH
	DB	096H
	DB	0b5H
	DB	0f7H
	DB	0bdH
	DB	038H
	DB	0c6H
	DB	0f7H
	DB	0bdH
	DB	0f7H
	DB	0bdH
	DB	0d7H
	DB	0bdH
	DB	055H
	DB	0adH
	DB	0b6H
	DB	0b5H
	DB	059H
	DB	0ceH
	DB	0f7H
	DB	0bdH
	DB	096H
	DB	0b5H
	DB	0f7H
	DB	0bdH
	DB	0b6H
	DB	0b5H
	DB	055H
	DB	0adH
	DB	0f7H
	DB	0bdH
	DB	018H
	DB	0c6H
	DB	0f7H
	DB	0bdH
	DB	0f7H
	DB	0bdH
	DB	0b6H
	DB	0b5H
	DB	0f7H
	DB	0bdH
	DB	0f7H
	DB	0bdH
	DB	0b6H
	DB	0b5H
	DB	0f7H
	DB	0bdH
	DB	038H
	DB	0c6H
	DB	0f7H
	DB	0bdH
	DB	0b6H
	DB	0b5H
	DB	018H
	DB	0c6H
	DB	0f7H
	DB	0bdH
	DB	0b6H
	DB	0b5H
	DB	0d7H
	DB	0bdH
	DB	0d7H
	DB	0bdH
	DB	0d7H
	DB	0bdH
	DB	059H
	DB	0ceH
	DB	0f7H
	DB	0bdH
	DB	0d7H
	DB	0bdH
	DB	0f7H
	DB	0bdH
	DB	0b6H
	DB	0b5H
	DB	0b6H
	DB	0b5H
	DB	018H
	DB	0c6H
	DB	0b6H
	DB	0b5H
	DB	0d7H
	DB	0bdH
	DB	059H
	DB	0ceH
	DB	0f7H
	DB	0bdH
	DB	096H
	DB	0b5H
	DB	018H
	DB	0c6H
	DB	0f7H
	DB	0bdH
	DB	0f7H
	DB	0bdH
	DB	0d7H
	DB	0bdH
	DB	018H
	DB	0c6H
	DB	0d7H
	DB	0bdH
	DB	096H
	DB	0b5H
	DB	018H
	DB	0c6H
	DB	038H
	DB	0c6H
	DB	0d7H
	DB	0bdH
	DB	0b6H
	DB	0b5H
	DB	0b6H
	DB	0b5H
	DB	018H
	DB	0c6H
	DB	0b6H
	DB	0b5H
	DB	018H
	DB	0c6H
	DB	018H
	DB	0c6H
	DB	0b6H
	DB	0b5H
	DB	0d7H
	DB	0bdH
	DB	0d7H
	DB	0bdH
	DB	0f7H
	DB	0bdH
	DB	018H
	DB	0c6H
	DB	018H
	DB	0c6H
	DB	096H
	DB	0b5H
	DB	0f7H
	DB	0bdH
	DB	0f7H
	DB	0bdH
	DB	075H
	DB	0adH
	DB	038H
	DB	0c6H
	DB	0f7H
	DB	0bdH
	DB	075H
	DB	0adH
	DB	0d7H
	DB	0bdH
	DB	018H
	DB	0c6H
	DB	0f7H
	DB	0bdH
	DB	0f7H
	DB	0bdH
	DB	0d7H
	DB	0bdH
	DB	0b6H
	DB	0b5H
	DB	096H
	DB	0b5H
	DB	0f7H
	DB	0bdH
	DB	059H
	DB	0ceH
	DB	018H
	DB	0c6H
	DB	0f7H
	DB	0bdH
	DB	0d7H
	DB	0bdH
	DB	096H
	DB	0b5H
	DB	096H
	DB	0b5H
	DB	038H
	DB	0c6H
	DB	018H
	DB	0c6H
	DB	0d7H
	DB	0bdH
	DB	0b6H
	DB	0b5H
	DB	0f7H
	DB	0bdH
	DB	0b6H
	DB	0b5H
	DB	0d7H
	DB	0bdH
	DB	0d7H
	DB	0bdH
	DB	038H
	DB	0c6H
	DB	018H
	DB	0c6H
	DB	0b6H
	DB	0b5H
	DB	0b6H
	DB	0b5H
	DB	0f7H
	DB	0bdH
	DB	0b6H
	DB	0b5H
	DB	0b6H
	DB	0b5H
	DB	038H
	DB	0c6H
	DB	0d7H
	DB	0bdH
	DB	0d7H
	DB	0bdH
	DB	0d7H
	DB	0bdH
	DB	0f7H
	DB	0bdH
	DB	0b6H
	DB	0b5H
	DB	0d7H
	DB	0bdH
	DB	038H
	DB	0c6H
	DB	0f7H
	DB	0bdH
	DB	0d7H
	DB	0bdH
	DB	096H
	DB	0b5H
	DB	018H
	DB	0c6H
	DB	0f7H
	DB	0bdH
	DB	0b6H
	DB	0b5H
	DB	018H
	DB	0c6H
	DB	0f7H
	DB	0bdH
	DB	0b6H
	DB	0b5H
	DB	0b6H
	DB	0b5H
	DB	0d7H
	DB	0bdH
	DB	038H
	DB	0c6H
	DB	018H
	DB	0c6H
	DB	0b6H
	DB	0b5H
	DB	0b6H
	DB	0b5H
	DB	018H
	DB	0c6H
	DB	0f7H
	DB	0bdH
	DB	0b6H
	DB	0b5H
	DB	096H
	DB	0b5H
	DB	0f7H
	DB	0bdH
	DB	0f7H
	DB	0bdH
	DB	038H
	DB	0c6H
	DB	0b6H
	DB	0b5H
	DB	096H
	DB	0b5H
	DB	0d7H
	DB	0bdH
	DB	038H
	DB	0c6H
	DB	0f7H
	DB	0bdH
	DB	0b6H
	DB	0b5H
	DB	0d7H
	DB	0bdH
	DB	0b6H
	DB	0b5H
	DB	018H
	DB	0c6H
	DB	018H
	DB	0c6H
	DB	075H
	DB	0adH
	DB	0f7H
	DB	0bdH
	DB	018H
	DB	0c6H
	DB	0f7H
	DB	0bdH
	DB	0f7H
	DB	0bdH
	DB	0b6H
	DB	0b5H
	DB	0d7H
	DB	0bdH
	DB	0b6H
	DB	0b5H
	DB	0f7H
	DB	0bdH
	DB	018H
	DB	0c6H
	DB	0b6H
	DB	0b5H
	DB	0b6H
	DB	0b5H
	DB	0d7H
	DB	0bdH
	DB	0d7H
	DB	0bdH
	DB	018H
	DB	0c6H
	DB	0d7H
	DB	0bdH
	DB	0f7H
	DB	0bdH
	DB	0f7H
	DB	0bdH
	DB	0f7H
	DB	0bdH
	DB	096H
	DB	0b5H
	DB	0f7H
	DB	0bdH
	DB	018H
	DB	0c6H
	DB	0f7H
	DB	0bdH
	DB	0b6H
	DB	0b5H
	DB	0b6H
	DB	0b5H
	DB	0f7H
	DB	0bdH
	DB	038H
	DB	0c6H
	DB	0d7H
	DB	0bdH
	DB	0d7H
	DB	0bdH
	DB	0d7H
	DB	0bdH
	DB	0f7H
	DB	0bdH
	DB	018H
	DB	0c6H
	DB	018H
	DB	0c6H
	DB	0f7H
	DB	0bdH
	DB	0b6H
	DB	0b5H
	DB	0f7H
	DB	0bdH
	DB	0d7H
	DB	0bdH
	DB	0d7H
	DB	0bdH
	DB	0f7H
	DB	0bdH
	DB	0b6H
	DB	0b5H
	DB	0f7H
	DB	0bdH
	DB	0d7H
	DB	0bdH
	DB	0d7H
	DB	0bdH
	DB	0d7H
	DB	0bdH
	DB	0b6H
	DB	0b5H
	DB	0f7H
	DB	0bdH
	DB	0d7H
	DB	0bdH
	DB	038H
	DB	0c6H
	DB	0d7H
	DB	0bdH
	DB	018H
	DB	0c6H
	DB	0f7H
	DB	0bdH
	DB	0f7H
	DB	0bdH
	DB	0d7H
	DB	0bdH
	DB	018H
	DB	0c6H
	DB	0f7H
	DB	0bdH
	DB	0d7H
	DB	0bdH
	DB	0f7H
	DB	0bdH
	DB	0f7H
	DB	0bdH
	DB	0d7H
	DB	0bdH
	DB	0f7H
	DB	0bdH
	DB	096H
	DB	0b5H
	DB	0f7H
	DB	0bdH
	DB	0b6H
	DB	0b5H
	DB	0f7H
	DB	0bdH
	DB	038H
	DB	0c6H
	DB	0d7H
	DB	0bdH
	DB	0b6H
	DB	0b5H
	DB	096H
	DB	0b5H
	DB	0d7H
	DB	0bdH
	DB	0f7H
	DB	0bdH
	DB	0f7H
	DB	0bdH
	DB	038H
	DB	0c6H
	DB	0d7H
	DB	0bdH
	DB	0b6H
	DB	0b5H
	DB	0f7H
	DB	0bdH
	DB	0f7H
	DB	0bdH
	DB	0f7H
	DB	0bdH
	DB	0d7H
	DB	0bdH
	DB	0f7H
	DB	0bdH
	DB	0d7H
	DB	0bdH
	DB	0d7H
	DB	0bdH
	DB	0f7H
	DB	0bdH
	DB	018H
	DB	0c6H
	DB	0d7H
	DB	0bdH
	DB	0d7H
	DB	0bdH
	DB	0d7H
	DB	0bdH
	DB	0d7H
	DB	0bdH
	DB	0f7H
	DB	0bdH
	DB	0f7H
	DB	0bdH
	DB	096H
	DB	0b5H
	DB	018H
	DB	0c6H
	DB	0d7H
	DB	0bdH
	DB	0d7H
	DB	0bdH
	DB	018H
	DB	0c6H
	DB	0d7H
	DB	0bdH
	DB	0b6H
	DB	0b5H
	DB	018H
	DB	0c6H
	DB	018H
	DB	0c6H
	DB	038H
	DB	0c6H
	DB	0d7H
	DB	0bdH
	DB	0d7H
	DB	0bdH
	DB	0f7H
	DB	0bdH
	DB	0f7H
	DB	0bdH
	DB	0f7H
	DB	0bdH
	DB	0d7H
	DB	0bdH
	DB	096H
	DB	0b5H
	DB	0d7H
	DB	0bdH
	DB	018H
	DB	0c6H
	DB	0f7H
	DB	0bdH
	DB	018H
	DB	0c6H
	DB	038H
	DB	0c6H
	DB	018H
	DB	0c6H
	DB	0b6H
	DB	0b5H
	DB	075H
	DB	0adH
	DB	018H
	DB	0c6H
	DB	0f7H
	DB	0bdH
	DB	0f7H
	DB	0bdH
	DB	018H
	DB	0c6H
	DB	0d7H
	DB	0bdH
	DB	038H
	DB	0c6H
	DB	0d7H
	DB	0bdH
	DB	0f7H
	DB	0bdH
	DB	096H
	DB	0b5H
	DB	096H
	DB	0b5H
	DB	059H
	DB	0ceH
	DB	0b6H
	DB	0b5H
	DB	0d7H
	DB	0bdH
	DB	0b6H
	DB	0b5H
	DB	0f7H
	DB	0bdH
	DB	038H
	DB	0c6H
	DB	0b6H
	DB	0b5H
	DB	096H
	DB	0b5H
	DB	038H
	DB	0c6H
	DB	018H
	DB	0c6H
	DB	096H
	DB	0b5H
	DB	0d7H
	DB	0bdH
	DB	018H
	DB	0c6H
	DB	0b6H
	DB	0b5H
	DB	018H
	DB	0c6H
	DB	0d7H
	DB	0bdH
	DB	0d7H
	DB	0bdH
	DB	038H
	DB	0c6H
	DB	0d7H
	DB	0bdH
	DB	0b6H
	DB	0b5H
	DB	0f7H
	DB	0bdH
	DB	0b6H
	DB	0b5H
	DB	075H
	DB	0adH
	DB	018H
	DB	0c6H
	DB	038H
	DB	0c6H
	DB	0d7H
	DB	0bdH
	DB	0b6H
	DB	0b5H
	DB	0b6H
	DB	0b5H
	DB	038H
	DB	0c6H
	DB	0d7H
	DB	0bdH
	DB	0b6H
	DB	0b5H
	DB	018H
	DB	0c6H
	DB	018H
	DB	0c6H
	DB	0b6H
	DB	0b5H
	DB	0b6H
	DB	0b5H
	DB	0d7H
	DB	0bdH
	DB	038H
	DB	0c6H
	DB	0b6H
	DB	0b5H
	DB	0f7H
	DB	0bdH
	DB	0b6H
	DB	0b5H
	DB	075H
	DB	0adH
	DB	038H
	DB	0c6H
	DB	018H
	DB	0c6H
	DB	0f7H
	DB	0bdH
	DB	0f7H
	DB	0bdH
	DB	0f7H
	DB	0bdH
	DB	0b6H
	DB	0b5H
	DB	075H
	DB	0adH
	DB	018H
	DB	0c6H
	DB	038H
	DB	0c6H
	DB	096H
	DB	0b5H
	DB	096H
	DB	0b5H
	DB	0d7H
	DB	0bdH
	DB	0f7H
	DB	0bdH
	DB	0d7H
	DB	0bdH
	DB	0d7H
	DB	0bdH
	DB	0f7H
	DB	0bdH
	DB	0b6H
	DB	0b5H
	DB	0f7H
	DB	0bdH
	DB	0b6H
	DB	0b5H
	DB	038H
	DB	0c6H
	DB	0f7H
	DB	0bdH
	DB	0d7H
	DB	0bdH
	DB	075H
	DB	0adH
	DB	096H
	DB	0b5H
	DB	018H
	DB	0c6H
	DB	059H
	DB	0ceH
	DB	018H
	DB	0c6H
	DB	0b6H
	DB	0b5H
	DB	0d7H
	DB	0bdH
	DB	0f7H
	DB	0bdH
	DB	0b6H
	DB	0b5H
	DB	038H
	DB	0c6H
	DB	0b6H
	DB	0b5H
	DB	038H
	DB	0c6H
	DB	038H
	DB	0c6H
	DB	0b6H
	DB	0b5H
	DB	0b6H
	DB	0b5H
	DB	0f7H
	DB	0bdH
	DB	0b6H
	DB	0b5H
	DB	0b6H
	DB	0b5H
	DB	038H
	DB	0c6H
	DB	018H
	DB	0c6H
	DB	0b6H
	DB	0b5H
	DB	0d7H
	DB	0bdH
	DB	018H
	DB	0c6H
	DB	018H
	DB	0c6H
	DB	0f7H
	DB	0bdH
	DB	075H
	DB	0adH
	DB	0b6H
	DB	0b5H
	DB	038H
	DB	0c6H
	DB	096H
	DB	0b5H
	DB	0f7H
	DB	0bdH
	DB	0f7H
	DB	0bdH
	DB	0f7H
	DB	0bdH
	DB	018H
	DB	0c6H
	DB	0d7H
	DB	0bdH
	DB	0d7H
	DB	0bdH
	DB	0d7H
	DB	0bdH
	DB	018H
	DB	0c6H
	DB	0b6H
	DB	0b5H
	DB	0b6H
	DB	0b5H
	DB	0d7H
	DB	0bdH
	DB	0d7H
	DB	0bdH
	DB	038H
	DB	0c6H
	DB	0f7H
	DB	0bdH
	DB	0d7H
	DB	0bdH
	DB	0d7H
	DB	0bdH
	DB	0f7H
	DB	0bdH
	DB	0f7H
	DB	0bdH
	DB	018H
	DB	0c6H
	DB	018H
	DB	0c6H
	DB	096H
	DB	0b5H
	DB	0b6H
	DB	0b5H
	DB	018H
	DB	0c6H
	DB	018H
	DB	0c6H
	DB	018H
	DB	0c6H
	DB	0f7H
	DB	0bdH
	DB	018H
	DB	0c6H
	DB	096H
	DB	0b5H
	DB	055H
	DB	0adH
	DB	018H
	DB	0c6H
	DB	0f7H
	DB	0bdH
	DB	0f7H
	DB	0bdH
	DB	0d7H
	DB	0bdH
	DB	0f7H
	DB	0bdH
	DB	096H
	DB	0b5H
	DB	0b6H
	DB	0b5H
	DB	038H
	DB	0c6H
	DB	038H
	DB	0c6H
	DB	0f7H
	DB	0bdH
	DB	0d7H
	DB	0bdH
	DB	0b6H
	DB	0b5H
	DB	0d7H
	DB	0bdH
	DB	0b6H
	DB	0b5H
	DB	018H
	DB	0c6H
	DB	059H
	DB	0ceH
	DB	0d7H
	DB	0bdH
	DB	0b6H
	DB	0b5H
	DB	0d7H
	DB	0bdH
	DB	018H
	DB	0c6H
	DB	0d7H
	DB	0bdH
	DB	0f7H
	DB	0bdH
	DB	0f7H
	DB	0bdH
	DB	0d7H
	DB	0bdH
	DB	0f7H
	DB	0bdH
	DB	0b6H
	DB	0b5H
	DB	018H
	DB	0c6H
	DB	0f7H
	DB	0bdH
	DB	0b6H
	DB	0b5H
	DB	0f7H
	DB	0bdH
	DB	0b6H
	DB	0b5H
	DB	0f7H
	DB	0bdH
	DB	0d7H
	DB	0bdH
	DB	0d7H
	DB	0bdH
	DB	0f7H
	DB	0bdH
	DB	0d7H
	DB	0bdH
	DB	0d7H
	DB	0bdH
	DB	0b6H
	DB	0b5H
	DB	018H
	DB	0c6H
	DB	0d7H
	DB	0bdH
	DB	096H
	DB	0b5H
	DB	0b6H
	DB	0b5H
	DB	0d7H
	DB	0bdH
	DB	038H
	DB	0c6H
	DB	0f7H
	DB	0bdH
	DB	018H
	DB	0c6H
	DB	0b6H
	DB	0b5H
	DB	096H
	DB	0b5H
	DB	059H
	DB	0ceH
	DB	0d7H
	DB	0bdH
	DB	0b6H
	DB	0b5H
	DB	018H
	DB	0c6H
	DB	075H
	DB	0adH
	DB	0b6H
	DB	0b5H
	DB	038H
	DB	0c6H
	DB	0f7H
	DB	0bdH
	DB	0f7H
	DB	0bdH
	DB	0d7H
	DB	0bdH
	DB	018H
	DB	0c6H
	DB	0f7H
	DB	0bdH
	DB	0d7H
	DB	0bdH
	DB	0b6H
	DB	0b5H
	DB	075H
	DB	0adH
	DB	018H
	DB	0c6H
	DB	038H
	DB	0c6H
	DB	0b6H
	DB	0b5H
	DB	0b6H
	DB	0b5H
	DB	0f7H
	DB	0bdH
	DB	018H
	DB	0c6H
	DB	018H
	DB	0c6H
	DB	0b6H
	DB	0b5H
	DB	0b6H
	DB	0b5H
	DB	0f7H
	DB	0bdH
	DB	018H
	DB	0c6H
	DB	018H
	DB	0c6H
	DB	0f7H
	DB	0bdH
	DB	0d7H
	DB	0bdH
	DB	075H
	DB	0adH
	DB	0b6H
	DB	0b5H
	DB	0f7H
	DB	0bdH
	DB	018H
	DB	0c6H
	DB	038H
	DB	0c6H
	DB	0d7H
	DB	0bdH
	DB	0b6H
	DB	0b5H
	DB	0d7H
	DB	0bdH
	DB	018H
	DB	0c6H
	DB	038H
	DB	0c6H
	DB	0d7H
	DB	0bdH
	DB	018H
	DB	0c6H
	DB	0b6H
	DB	0b5H
	DB	0d7H
	DB	0bdH
	DB	0f7H
	DB	0bdH
	DB	0f7H
	DB	0bdH
	DB	0f7H
	DB	0bdH
	DB	0b6H
	DB	0b5H
	DB	0d7H
	DB	0bdH
	DB	0b6H
	DB	0b5H
	DB	0f7H
	DB	0bdH
	DB	018H
	DB	0c6H
	DB	0b6H
	DB	0b5H
	DB	0b6H
	DB	0b5H
	DB	018H
	DB	0c6H
	DB	018H
	DB	0c6H
	DB	0d7H
	DB	0bdH
	DB	0d7H
	DB	0bdH
	DB	0f7H
	DB	0bdH
	DB	0f7H
	DB	0bdH
	DB	0b6H
	DB	0b5H
	DB	0d7H
	DB	0bdH
	DB	0f7H
	DB	0bdH
	DB	0f7H
	DB	0bdH
	DB	0b6H
	DB	0b5H
	DB	018H
	DB	0c6H
	DB	0f7H
	DB	0bdH
	DB	0b6H
	DB	0b5H
	DB	0d7H
	DB	0bdH
	DB	018H
	DB	0c6H
	DB	0b6H
	DB	0b5H
	DB	0d7H
	DB	0bdH
	DB	0d7H
	DB	0bdH
	DB	0d7H
	DB	0bdH
	DB	0b6H
	DB	0b5H
	DB	0f7H
	DB	0bdH
	DB	0d7H
	DB	0bdH
	DB	0f7H
	DB	0bdH
	DB	096H
	DB	0b5H
	DB	018H
	DB	0c6H
	DB	018H
	DB	0c6H
	DB	0b6H
	DB	0b5H
	DB	018H
	DB	0c6H
	DB	018H
	DB	0c6H
	DB	0d7H
	DB	0bdH
	DB	0d7H
	DB	0bdH
	DB	0d7H
	DB	0bdH
	DB	0d7H
	DB	0bdH
	DB	0b6H
	DB	0b5H
	DB	0d7H
	DB	0bdH
	DB	018H
	DB	0c6H
	DB	018H
	DB	0c6H
	DB	0b6H
	DB	0b5H
	DB	0d7H
	DB	0bdH
	DB	0f7H
	DB	0bdH
	DB	0d7H
	DB	0bdH
	DB	0f7H
	DB	0bdH
	DB	096H
	DB	0b5H
	DB	0d7H
	DB	0bdH
	DB	0d7H
	DB	0bdH
	DB	018H
	DB	0c6H
	DB	018H
	DB	0c6H
	DB	0d7H
	DB	0bdH
	DB	0d7H
	DB	0bdH
	DB	038H
	DB	0c6H
	DB	0f7H
	DB	0bdH
	DB	018H
	DB	0c6H
	DB	0f7H
	DB	0bdH
	DB	0b6H
	DB	0b5H
	DB	0f7H
	DB	0bdH
	DB	018H
	DB	0c6H
	DB	0f7H
	DB	0bdH
	DB	0f7H
	DB	0bdH
	DB	0b6H
	DB	0b5H
	DB	096H
	DB	0b5H
	DB	0d7H
	DB	0bdH
	DB	038H
	DB	0c6H
	DB	038H
	DB	0c6H
	DB	0b6H
	DB	0b5H
	DB	018H
	DB	0c6H
	DB	0f7H
	DB	0bdH
	DB	0b6H
	DB	0b5H
	DB	0b6H
	DB	0b5H
	DB	038H
	DB	0c6H
	DB	0f7H
	DB	0bdH
	DB	0d7H
	DB	0bdH
	DB	0f7H
	DB	0bdH
	DB	038H
	DB	0c6H
	DB	0b6H
	DB	0b5H
	DB	096H
	DB	0b5H
	DB	0b6H
	DB	0b5H
	DB	018H
	DB	0c6H
	DB	059H
	DB	0ceH
	DB	0d7H
	DB	0bdH
	DB	0b6H
	DB	0b5H
	DB	055H
	DB	0adH
	DB	0f7H
	DB	0bdH
	DB	018H
	DB	0c6H
	DB	0b6H
	DB	0b5H
	DB	0d7H
	DB	0bdH
	DB	0f7H
	DB	0bdH
	DB	018H
	DB	0c6H
	DB	0b6H
	DB	0b5H
	DB	0f7H
	DB	0bdH
	DB	0f7H
	DB	0bdH
	DB	096H
	DB	0b5H
	DB	0f7H
	DB	0bdH
	DB	0b6H
	DB	0b5H
	DB	0f7H
	DB	0bdH
	DB	038H
	DB	0c6H
	DB	0d7H
	DB	0bdH
	DB	0f7H
	DB	0bdH
	DB	0d7H
	DB	0bdH
	DB	075H
	DB	0adH
	DB	075H
	DB	0adH
	DB	038H
	DB	0c6H
	DB	038H
	DB	0c6H
	DB	0f7H
	DB	0bdH
	DB	0b6H
	DB	0b5H
	DB	0b6H
	DB	0b5H
	DB	018H
	DB	0c6H
	DB	018H
	DB	0c6H
	DB	018H
	DB	0c6H
	DB	018H
	DB	0c6H
	DB	0d7H
	DB	0bdH
	DB	018H
	DB	0c6H
	DB	075H
	DB	0adH
	DB	0d7H
	DB	0bdH
	DB	038H
	DB	0c6H
	DB	096H
	DB	0b5H
	DB	0d7H
	DB	0bdH
	DB	018H
	DB	0c6H
	DB	096H
	DB	0b5H
	DB	018H
	DB	0c6H
	DB	0d7H
	DB	0bdH
	DB	0b6H
	DB	0b5H
	DB	038H
	DB	0c6H
	DB	0d7H
	DB	0bdH
	DB	075H
	DB	0adH
	DB	0b6H
	DB	0b5H
	DB	038H
	DB	0c6H
	DB	018H
	DB	0c6H
	DB	0f7H
	DB	0bdH
	DB	0b6H
	DB	0b5H
	DB	096H
	DB	0b5H
	DB	0f7H
	DB	0bdH
	DB	0d7H
	DB	0bdH
	DB	0f7H
	DB	0bdH
	DB	0f7H
	DB	0bdH
	DB	075H
	DB	0adH
	DB	0b6H
	DB	0b5H
	DB	018H
	DB	0c6H
	DB	038H
	DB	0c6H
	DB	0d7H
	DB	0bdH
	DB	0d7H
	DB	0bdH
	DB	075H
	DB	0adH
	DB	0b6H
	DB	0b5H
	DB	038H
	DB	0c6H
	DB	0f7H
	DB	0bdH
	DB	018H
	DB	0c6H
	DB	0d7H
	DB	0bdH
	DB	0f7H
	DB	0bdH
	DB	0f7H
	DB	0bdH
	DB	096H
	DB	0b5H
	DB	038H
	DB	0c6H
	DB	018H
	DB	0c6H
	DB	038H
	DB	0c6H
	DB	0f7H
	DB	0bdH
	DB	0b6H
	DB	0b5H
	DB	0d7H
	DB	0bdH
	DB	018H
	DB	0c6H
	DB	0b6H
	DB	0b5H
	DB	055H
	DB	0adH
	DB	018H
	DB	0c6H
	DB	018H
	DB	0c6H
	DB	0b6H
	DB	0b5H
	DB	0d7H
	DB	0bdH
	DB	038H
	DB	0c6H
	DB	0d7H
	DB	0bdH
	DB	0f7H
	DB	0bdH
	DB	0b6H
	DB	0b5H
	DB	018H
	DB	0c6H
	DB	018H
	DB	0c6H
	DB	0b6H
	DB	0b5H
	DB	096H
	DB	0b5H
	DB	0f7H
	DB	0bdH
	DB	038H
	DB	0c6H
	DB	0f7H
	DB	0bdH
	DB	0f7H
	DB	0bdH
	DB	0d7H
	DB	0bdH
	DB	0b6H
	DB	0b5H
	DB	018H
	DB	0c6H
	DB	0b6H
	DB	0b5H
	DB	0f7H
	DB	0bdH
	DB	0d7H
	DB	0bdH
	DB	018H
	DB	0c6H
	DB	038H
	DB	0c6H
	DB	0d7H
	DB	0bdH
	DB	0d7H
	DB	0bdH
	DB	0f7H
	DB	0bdH
	DB	0d7H
	DB	0bdH
	DB	018H
	DB	0c6H
	DB	096H
	DB	0b5H
	DB	0f7H
	DB	0bdH
	DB	0b6H
	DB	0b5H
	DB	038H
	DB	0c6H
	DB	0d7H
	DB	0bdH
	DB	0f7H
	DB	0bdH
	DB	0f7H
	DB	0bdH
	DB	0b6H
	DB	0b5H
	DB	018H
	DB	0c6H
	DB	0d7H
	DB	0bdH
	DB	055H
	DB	0adH
	DB	018H
	DB	0c6H
	DB	0d7H
	DB	0bdH
	DB	0f7H
	DB	0bdH
	DB	096H
	DB	0b5H
	DB	018H
	DB	0c6H
	DB	018H
	DB	0c6H
	DB	0b6H
	DB	0b5H
	DB	018H
	DB	0c6H
	DB	018H
	DB	0c6H
	DB	0d7H
	DB	0bdH
	DB	0d7H
	DB	0bdH
	DB	0b6H
	DB	0b5H
	DB	075H
	DB	0adH
	DB	0d7H
	DB	0bdH
	DB	059H
	DB	0ceH
	DB	038H
	DB	0c6H
	DB	0f7H
	DB	0bdH
	DB	0d7H
	DB	0bdH
	DB	0d7H
	DB	0bdH
	DB	0b6H
	DB	0b5H
	DB	0b6H
	DB	0b5H
	DB	038H
	DB	0c6H
	DB	018H
	DB	0c6H
	DB	0d7H
	DB	0bdH
	DB	0d7H
	DB	0bdH
	DB	0b6H
	DB	0b5H
	DB	018H
	DB	0c6H
	DB	0f7H
	DB	0bdH
	DB	0d7H
	DB	0bdH
	DB	0d7H
	DB	0bdH
	DB	0d7H
	DB	0bdH
	DB	018H
	DB	0c6H
	DB	0d7H
	DB	0bdH
	DB	0d7H
	DB	0bdH
	DB	0f7H
	DB	0bdH
	DB	0b6H
	DB	0b5H
	DB	018H
	DB	0c6H
	DB	0d7H
	DB	0bdH
	DB	018H
	DB	0c6H
	DB	0f7H
	DB	0bdH
	DB	0d7H
	DB	0bdH
	DB	0f7H
	DB	0bdH
	DB	0b6H
	DB	0b5H
	DB	038H
	DB	0c6H
	DB	0d7H
	DB	0bdH
	DB	0f7H
	DB	0bdH
	DB	0b6H
	DB	0b5H
	DB	096H
	DB	0b5H
	DB	018H
	DB	0c6H
	DB	0d7H
	DB	0bdH
	DB	0f7H
	DB	0bdH
	DB	018H
	DB	0c6H
	DB	075H
	DB	0adH
	DB	0d7H
	DB	0bdH
	DB	059H
	DB	0ceH
	DB	038H
	DB	0c6H
	DB	0f7H
	DB	0bdH
	DB	0b6H
	DB	0b5H
	DB	0f7H
	DB	0bdH
	DB	018H
	DB	0c6H
	DB	0b6H
	DB	0b5H
	DB	0b6H
	DB	0b5H
	DB	096H
	DB	0b5H
	DB	059H
	DB	0ceH
	DB	018H
	DB	0c6H
	DB	0b6H
	DB	0b5H
	DB	0f7H
	DB	0bdH
	DB	018H
	DB	0c6H
	DB	018H
	DB	0c6H
	DB	0f7H
	DB	0bdH
	DB	0d7H
	DB	0bdH
	DB	0b6H
	DB	0b5H
	DB	0b6H
	DB	0b5H
	DB	059H
	DB	0ceH
	DB	018H
	DB	0c6H
	DB	0d7H
	DB	0bdH
	DB	0d7H
	DB	0bdH
	DB	075H
	DB	0adH
	DB	0d7H
	DB	0bdH
	DB	0b6H
	DB	0b5H
	DB	018H
	DB	0c6H
	DB	038H
	DB	0c6H
	DB	0f7H
	DB	0bdH
	DB	0b6H
	DB	0b5H
	DB	0b6H
	DB	0b5H
	DB	018H
	DB	0c6H
	DB	018H
	DB	0c6H
	DB	0f7H
	DB	0bdH
	DB	0b6H
	DB	0b5H
	DB	0d7H
	DB	0bdH
	DB	0d7H
	DB	0bdH
	DB	038H
	DB	0c6H
	DB	0d7H
	DB	0bdH
	DB	0d7H
	DB	0bdH
	DB	0f7H
	DB	0bdH
	DB	0f7H
	DB	0bdH
	DB	0d7H
	DB	0bdH
	DB	096H
	DB	0b5H
	DB	038H
	DB	0c6H
	DB	0b6H
	DB	0b5H
	DB	0f7H
	DB	0bdH
	DB	0f7H
	DB	0bdH
	DB	0b6H
	DB	0b5H
	DB	018H
	DB	0c6H
	DB	0b6H
	DB	0b5H
	DB	096H
	DB	0b5H
	DB	018H
	DB	0c6H
	DB	0f7H
	DB	0bdH
	DB	0d7H
	DB	0bdH
	DB	0d7H
	DB	0bdH
	DB	0f7H
	DB	0bdH
	DB	0d7H
	DB	0bdH
	DB	0f7H
	DB	0bdH
	DB	0f7H
	DB	0bdH
	DB	0d7H
	DB	0bdH
	DB	018H
	DB	0c6H
	DB	038H
	DB	0c6H
	DB	0d7H
	DB	0bdH
	DB	0b6H
	DB	0b5H
	DB	096H
	DB	0b5H
	DB	0b6H
	DB	0b5H
	DB	0d7H
	DB	0bdH
	DB	018H
	DB	0c6H
	DB	075H
	DB	0adH
	DB	0d7H
	DB	0bdH
	DB	0d7H
	DB	0bdH
	DB	059H
	DB	0ceH
	DB	0f7H
	DB	0bdH
	DB	096H
	DB	0b5H
	DB	0f7H
	DB	0bdH
	DB	018H
	DB	0c6H
	DB	0d7H
	DB	0bdH
	DB	0f7H
	DB	0bdH
	DB	0f7H
	DB	0bdH
	DB	0d7H
	DB	0bdH
	DB	0d7H
	DB	0bdH
	DB	0d7H
	DB	0bdH
	DB	018H
	DB	0c6H
	DB	0d7H
	DB	0bdH
	DB	0d7H
	DB	0bdH
	DB	0f7H
	DB	0bdH
	DB	0f7H
	DB	0bdH
	DB	0b6H
	DB	0b5H
	DB	018H
	DB	0c6H
	DB	0b6H
	DB	0b5H
	DB	0d7H
	DB	0bdH
	DB	0d7H
	DB	0bdH
	DB	018H
	DB	0c6H
	DB	0f7H
	DB	0bdH
	DB	0b6H
	DB	0b5H
	DB	0f7H
	DB	0bdH
	DB	038H
	DB	0c6H
	DB	0d7H
	DB	0bdH
	DB	096H
	DB	0b5H
	DB	0b6H
	DB	0b5H
	DB	018H
	DB	0c6H
	DB	038H
	DB	0c6H
	DB	0d7H
	DB	0bdH
	DB	0f7H
	DB	0bdH
	DB	0f7H
	DB	0bdH
	DB	0b6H
	DB	0b5H
	DB	0f7H
	DB	0bdH
	DB	0f7H
	DB	0bdH
	DB	0d7H
	DB	0bdH
	DB	038H
	DB	0c6H
	DB	096H
	DB	0b5H
	DB	018H
	DB	0c6H
	DB	0f7H
	DB	0bdH
	DB	0b6H
	DB	0b5H
	DB	0b6H
	DB	0b5H
	DB	038H
	DB	0c6H
	DB	0f7H
	DB	0bdH
	DB	0b6H
	DB	0b5H
	DB	018H
	DB	0c6H
	DB	018H
	DB	0c6H
	DB	0b6H
	DB	0b5H
	DB	018H
	DB	0c6H
	DB	0b6H
	DB	0b5H
	DB	096H
	DB	0b5H
	DB	059H
	DB	0ceH
	DB	0f7H
	DB	0bdH
	DB	096H
	DB	0b5H
	DB	0b6H
	DB	0b5H
	DB	0f7H
	DB	0bdH
	DB	018H
	DB	0c6H
	DB	0d7H
	DB	0bdH
	DB	018H
	DB	0c6H
	DB	0d7H
	DB	0bdH
	DB	0f7H
	DB	0bdH
	DB	0b6H
	DB	0b5H
	DB	0f7H
	DB	0bdH
	DB	0b6H
	DB	0b5H
	DB	075H
	DB	0adH
	DB	038H
	DB	0c6H
	DB	0d7H
	DB	0bdH
	DB	0d7H
	DB	0bdH
	DB	018H
	DB	0c6H
	DB	096H
	DB	0b5H
	DB	0f7H
	DB	0bdH
	DB	0b6H
	DB	0b5H
	DB	0d7H
	DB	0bdH
	DB	0f7H
	DB	0bdH
	DB	0d7H
	DB	0bdH
	DB	018H
	DB	0c6H
	DB	0d7H
	DB	0bdH
	DB	018H
	DB	0c6H
	DB	0b6H
	DB	0b5H
	DB	096H
	DB	0b5H
	DB	018H
	DB	0c6H
	DB	018H
	DB	0c6H
	DB	038H
	DB	0c6H
	DB	0f7H
	DB	0bdH
	DB	0f7H
	DB	0bdH
	DB	075H
	DB	0adH
	DB	0b6H
	DB	0b5H
	DB	0f7H
	DB	0bdH
	DB	0d7H
	DB	0bdH
	DB	059H
	DB	0ceH
	DB	018H
	DB	0c6H
	DB	096H
	DB	0b5H
	DB	0f7H
	DB	0bdH
	DB	018H
	DB	0c6H
	DB	096H
	DB	0b5H
	DB	0f7H
	DB	0bdH
	DB	0d7H
	DB	0bdH
	DB	096H
	DB	0b5H
	DB	018H
	DB	0c6H
	DB	018H
	DB	0c6H
	DB	0d7H
	DB	0bdH
	DB	0f7H
	DB	0bdH
	DB	0d7H
	DB	0bdH
	DB	0b6H
	DB	0b5H
	DB	018H
	DB	0c6H
	DB	0b6H
	DB	0b5H
	DB	0f7H
	DB	0bdH
	DB	0d7H
	DB	0bdH
	DB	018H
	DB	0c6H
	DB	0d7H
	DB	0bdH
	DB	0f7H
	DB	0bdH
	DB	038H
	DB	0c6H
	DB	0d7H
	DB	0bdH
	DB	0d7H
	DB	0bdH
	DB	055H
	DB	0adH
	DB	0b6H
	DB	0b5H
	DB	059H
	DB	0ceH
	DB	0d7H
	DB	0bdH
	DB	0b6H
	DB	0b5H
	DB	018H
	DB	0c6H
	DB	0f7H
	DB	0bdH
	DB	0b6H
	DB	0b5H
	DB	0b6H
	DB	0b5H
	DB	038H
	DB	0c6H
	DB	018H
	DB	0c6H
	DB	0d7H
	DB	0bdH
	DB	0d7H
	DB	0bdH
	DB	0b6H
	DB	0b5H
	DB	0d7H
	DB	0bdH
	DB	038H
	DB	0c6H
	DB	0d7H
	DB	0bdH
	DB	075H
	DB	0adH
	DB	0f7H
	DB	0bdH
	DB	038H
	DB	0c6H
	DB	0b6H
	DB	0b5H
	DB	096H
	DB	0b5H
	DB	059H
	DB	0ceH
	DB	0d7H
	DB	0bdH
	DB	0b6H
	DB	0b5H
	DB	0d7H
	DB	0bdH
	DB	038H
	DB	0c6H
	DB	0d7H
	DB	0bdH
	DB	0d7H
	DB	0bdH
	DB	096H
	DB	0b5H
	DB	0f7H
	DB	0bdH
	DB	038H
	DB	0c6H
	DB	0b6H
	DB	0b5H
	DB	018H
	DB	0c6H
	DB	0f7H
	DB	0bdH
	DB	0b6H
	DB	0b5H
	DB	0d7H
	DB	0bdH
	DB	0b6H
	DB	0b5H
	DB	059H
	DB	0ceH
	DB	0b6H
	DB	0b5H
	DB	0f7H
	DB	0bdH
	DB	038H
	DB	0c6H
	DB	0b6H
	DB	0b5H
	DB	0b6H
	DB	0b5H
	DB	0f7H
	DB	0bdH
	DB	0f7H
	DB	0bdH
	DB	0d7H
	DB	0bdH
	DB	0b6H
	DB	0b5H
	DB	096H
	DB	0b5H
	DB	038H
	DB	0c6H
	DB	059H
	DB	0ceH
	DB	0b6H
	DB	0b5H
	DB	018H
	DB	0c6H
	DB	0f7H
	DB	0bdH
	DB	0b6H
	DB	0b5H
	DB	0d7H
	DB	0bdH
	DB	0f7H
	DB	0bdH
	DB	075H
	DB	0adH
	DB	038H
	DB	0c6H
	DB	096H
	DB	0b5H
	DB	0b6H
	DB	0b5H
	DB	038H
	DB	0c6H
	DB	038H
	DB	0c6H
	DB	018H
	DB	0c6H
	DB	075H
	DB	0adH
	DB	0f7H
	DB	0bdH
	DB	038H
	DB	0c6H
	DB	0f7H
	DB	0bdH
	DB	0b6H
	DB	0b5H
	DB	0b6H
	DB	0b5H
	DB	0b6H
	DB	0b5H
	DB	0d7H
	DB	0bdH
	DB	038H
	DB	0c6H
	DB	038H
	DB	0c6H
	DB	0d7H
	DB	0bdH
	DB	0f7H
	DB	0bdH
	DB	0d7H
	DB	0bdH
	DB	096H
	DB	0b5H
	DB	075H
	DB	0adH
	DB	018H
	DB	0c6H
	DB	018H
	DB	0c6H
	DB	0f7H
	DB	0bdH
	DB	0f7H
	DB	0bdH
	DB	0f7H
	DB	0bdH
	DB	0b6H
	DB	0b5H
	DB	0b6H
	DB	0b5H
	DB	018H
	DB	0c6H
	DB	0d7H
	DB	0bdH
	DB	0b6H
	DB	0b5H
	DB	018H
	DB	0c6H
	DB	0d7H
	DB	0bdH
	DB	0d7H
	DB	0bdH
	DB	0d7H
	DB	0bdH
	DB	0d7H
	DB	0bdH
	DB	038H
	DB	0c6H
	DB	0d7H
	DB	0bdH
	DB	0d7H
	DB	0bdH
	DB	0f7H
	DB	0bdH
	DB	0f7H
	DB	0bdH
	DB	0d7H
	DB	0bdH
	DB	0b6H
	DB	0b5H
	DB	018H
	DB	0c6H
	DB	018H
	DB	0c6H
	DB	0d7H
	DB	0bdH
	DB	0d7H
	DB	0bdH
	DB	0d7H
	DB	0bdH
	DB	075H
	DB	0adH
	DB	0b6H
	DB	0b5H
	DB	059H
	DB	0ceH
	DB	0d7H
	DB	0bdH
	DB	0b6H
	DB	0b5H
	DB	0b6H
	DB	0b5H
	DB	038H
	DB	0c6H
	DB	038H
	DB	0c6H
	DB	0f7H
	DB	0bdH
	DB	0d7H
	DB	0bdH
	DB	0b6H
	DB	0b5H
	DB	0f7H
	DB	0bdH
	DB	0d7H
	DB	0bdH
	DB	075H
	DB	0adH
	DB	0b6H
	DB	0b5H
	DB	059H
	DB	0ceH
	DB	018H
	DB	0c6H
	DB	0f7H
	DB	0bdH
	DB	018H
	DB	0c6H
	DB	018H
	DB	0c6H
	DB	038H
	DB	0c6H
	DB	018H
	DB	0c6H
	DB	0d7H
	DB	0bdH
	DB	0b6H
	DB	0b5H
	DB	096H
	DB	0b5H
	DB	059H
	DB	0ceH
	DB	0f7H
	DB	0bdH
	DB	0f7H
	DB	0bdH
	DB	0b6H
	DB	0b5H
	DB	096H
	DB	0b5H
	DB	0f7H
	DB	0bdH
	DB	0b6H
	DB	0b5H
	DB	0f7H
	DB	0bdH
	DB	0f7H
	DB	0bdH
	DB	018H
	DB	0c6H
	DB	0d7H
	DB	0bdH
	DB	0b6H
	DB	0b5H
	DB	018H
	DB	0c6H
	DB	096H
	DB	0b5H
	DB	0f7H
	DB	0bdH
	DB	0b6H
	DB	0b5H
	DB	0b6H
	DB	0b5H
	DB	018H
	DB	0c6H
	DB	038H
	DB	0c6H
	DB	0b6H
	DB	0b5H
	DB	0b6H
	DB	0b5H
	DB	018H
	DB	0c6H
	DB	018H
	DB	0c6H
	DB	0b6H
	DB	0b5H
	DB	075H
	DB	0adH
	DB	0b6H
	DB	0b5H
	DB	018H
	DB	0c6H
	DB	038H
	DB	0c6H
	DB	0f7H
	DB	0bdH
	DB	0b6H
	DB	0b5H
	DB	038H
	DB	0c6H
	DB	096H
	DB	0b5H
	DB	0b6H
	DB	0b5H
	DB	018H
	DB	0c6H
	DB	0f7H
	DB	0bdH
	DB	018H
	DB	0c6H
	DB	0b6H
	DB	0b5H
	DB	0b6H
	DB	0b5H
	DB	018H
	DB	0c6H
	DB	0b6H
	DB	0b5H
	DB	0d7H
	DB	0bdH
	DB	038H
	DB	0c6H
	DB	0f7H
	DB	0bdH
	DB	0f7H
	DB	0bdH
	DB	0d7H
	DB	0bdH
	DB	0d7H
	DB	0bdH
	DB	0d7H
	DB	0bdH
	DB	096H
	DB	0b5H
	DB	0d7H
	DB	0bdH
	DB	0f7H
	DB	0bdH
	DB	096H
	DB	0b5H
	DB	018H
	DB	0c6H
	DB	0f7H
	DB	0bdH
	DB	0f7H
	DB	0bdH
	DB	0f7H
	DB	0bdH
	DB	0b6H
	DB	0b5H
	DB	0f7H
	DB	0bdH
	DB	0f7H
	DB	0bdH
	DB	0d7H
	DB	0bdH
	DB	0b6H
	DB	0b5H
	DB	0d7H
	DB	0bdH
	DB	0d7H
	DB	0bdH
	DB	0f7H
	DB	0bdH
	DB	018H
	DB	0c6H
	DB	018H
	DB	0c6H
	DB	0d7H
	DB	0bdH
	DB	055H
	DB	0adH
	DB	0f7H
	DB	0bdH
	DB	018H
	DB	0c6H
	DB	0d7H
	DB	0bdH
	DB	018H
	DB	0c6H
	DB	0f7H
	DB	0bdH
	DB	0d7H
	DB	0bdH
	DB	0d7H
	DB	0bdH
	DB	018H
	DB	0c6H
	DB	0d7H
	DB	0bdH
	DB	096H
	DB	0b5H
	DB	0b6H
	DB	0b5H
	DB	018H
	DB	0c6H
	DB	0d7H
	DB	0bdH
	DB	096H
	DB	0b5H
	DB	034H
	DB	0a5H
	DB	038H
	DB	0c6H
	DB	038H
	DB	0c6H
	DB	0b6H
	DB	0b5H
	DB	0f7H
	DB	0bdH
	DB	0f7H
	DB	0bdH
	DB	0b6H
	DB	0b5H
	DB	018H
	DB	0c6H
	DB	0b6H
	DB	0b5H
	DB	0d7H
	DB	0bdH
	DB	038H
	DB	0c6H
	DB	0d7H
	DB	0bdH
	DB	0b6H
	DB	0b5H
	DB	018H
	DB	0c6H
	DB	0d7H
	DB	0bdH
	DB	0b6H
	DB	0b5H
	DB	038H
	DB	0c6H
	DB	018H
	DB	0c6H
	DB	096H
	DB	0b5H
	DB	018H
	DB	0c6H
	DB	0f7H
	DB	0bdH
	DB	0d7H
	DB	0bdH
	DB	0f7H
	DB	0bdH
	DB	0b6H
	DB	0b5H
	DB	075H
	DB	0adH
	DB	018H
	DB	0c6H
	DB	018H
	DB	0c6H
	DB	096H
	DB	0b5H
	DB	0b6H
	DB	0b5H
	DB	0d7H
	DB	0bdH
	DB	059H
	DB	0ceH
	DB	0d7H
	DB	0bdH
	DB	0d7H
	DB	0bdH
	DB	0d7H
	DB	0bdH
	DB	018H
	DB	0c6H
	DB	0d7H
	DB	0bdH
	DB	0f7H
	DB	0bdH
	DB	0d7H
	DB	0bdH
	DB	096H
	DB	0b5H
	DB	038H
	DB	0c6H
	DB	0d7H
	DB	0bdH
	DB	096H
	DB	0b5H
	DB	018H
	DB	0c6H
	DB	0f7H
	DB	0bdH
	DB	018H
	DB	0c6H
	DB	0b6H
	DB	0b5H
	DB	0f7H
	DB	0bdH
	DB	038H
	DB	0c6H
	DB	0b6H
	DB	0b5H
	DB	018H
	DB	0c6H
	DB	018H
	DB	0c6H
	DB	018H
	DB	0c6H
	DB	0b6H
	DB	0b5H
	DB	0b6H
	DB	0b5H
	DB	0d7H
	DB	0bdH
	DB	0b6H
	DB	0b5H
	DB	018H
	DB	0c6H
	DB	0f7H
	DB	0bdH
	DB	0b6H
	DB	0b5H
	DB	0b6H
	DB	0b5H
	DB	0b6H
	DB	0b5H
	DB	0f7H
	DB	0bdH
	DB	038H
	DB	0c6H
	DB	059H
	DB	0ceH
	DB	0d7H
	DB	0bdH
	DB	0d7H
	DB	0bdH
	DB	0f7H
	DB	0bdH
	DB	0f7H
	DB	0bdH
	DB	096H
	DB	0b5H
	DB	0f7H
	DB	0bdH
	DB	0f7H
	DB	0bdH
	DB	075H
	DB	0adH
	DB	038H
	DB	0c6H
	DB	018H
	DB	0c6H
	DB	0d7H
	DB	0bdH
	DB	0b6H
	DB	0b5H
	DB	0b6H
	DB	0b5H
	DB	038H
	DB	0c6H
	DB	0f7H
	DB	0bdH
	DB	0f7H
	DB	0bdH
	DB	0f7H
	DB	0bdH
	DB	096H
	DB	0b5H
	DB	059H
	DB	0ceH
	DB	0f7H
	DB	0bdH
	DB	055H
	DB	0adH
	DB	018H
	DB	0c6H
	DB	0f7H
	DB	0bdH
	DB	0d7H
	DB	0bdH
	DB	055H
	DB	0adH
	DB	075H
	DB	0adH
	DB	059H
	DB	0ceH
	DB	0f7H
	DB	0bdH
	DB	096H
	DB	0b5H
	DB	0d7H
	DB	0bdH
	DB	038H
	DB	0c6H
	DB	0d7H
	DB	0bdH
	DB	018H
	DB	0c6H
	DB	0f7H
	DB	0bdH
	DB	0d7H
	DB	0bdH
	DB	0d7H
	DB	0bdH
	DB	0f7H
	DB	0bdH
	DB	0b6H
	DB	0b5H
	DB	096H
	DB	0b5H
	DB	018H
	DB	0c6H
	DB	0b6H
	DB	0b5H
	DB	075H
	DB	0adH
	DB	038H
	DB	0c6H
	DB	038H
	DB	0c6H
	DB	0b6H
	DB	0b5H
	DB	096H
	DB	0b5H
	DB	038H
	DB	0c6H
	DB	0f7H
	DB	0bdH
	DB	096H
	DB	0b5H
	DB	038H
	DB	0c6H
	DB	0f7H
	DB	0bdH
	DB	0b6H
	DB	0b5H
	DB	0d7H
	DB	0bdH
	DB	096H
	DB	0b5H
	DB	0f7H
	DB	0bdH
	DB	038H
	DB	0c6H
	DB	0f7H
	DB	0bdH
	DB	038H
	DB	0c6H
	DB	0f7H
	DB	0bdH
	DB	0d7H
	DB	0bdH
	DB	0d7H
	DB	0bdH
	DB	096H
	DB	0b5H
	DB	018H
	DB	0c6H
	DB	0f7H
	DB	0bdH
	DB	0f7H
	DB	0bdH
	DB	0f7H
	DB	0bdH
	DB	0b6H
	DB	0b5H
	DB	0b6H
	DB	0b5H
	DB	018H
	DB	0c6H
	DB	0b6H
	DB	0b5H
	DB	0d7H
	DB	0bdH
	DB	038H
	DB	0c6H
	DB	0d7H
	DB	0bdH
	DB	018H
	DB	0c6H
	DB	059H
	DB	0ceH
	DB	0d7H
	DB	0bdH
	DB	0d7H
	DB	0bdH
	DB	018H
	DB	0c6H
	DB	0d7H
	DB	0bdH
	DB	0b6H
	DB	0b5H
	DB	096H
	DB	0b5H
	DB	0d7H
	DB	0bdH
	DB	038H
	DB	0c6H
	DB	0b6H
	DB	0b5H
	DB	0d7H
	DB	0bdH
	DB	0f7H
	DB	0bdH
	DB	038H
	DB	0c6H
	DB	0f7H
	DB	0bdH
	DB	0b6H
	DB	0b5H
	DB	0d7H
	DB	0bdH
	DB	038H
	DB	0c6H
	DB	0d7H
	DB	0bdH
	DB	075H
	DB	0adH
	DB	0f7H
	DB	0bdH
	DB	038H
	DB	0c6H
	DB	0d7H
	DB	0bdH
	DB	0f7H
	DB	0bdH
	DB	038H
	DB	0c6H
	DB	0b6H
	DB	0b5H
	DB	0f7H
	DB	0bdH
	DB	0b6H
	DB	0b5H
	DB	0f7H
	DB	0bdH
	DB	075H
	DB	0adH
	DB	0f7H
	DB	0bdH
	DB	038H
	DB	0c6H
	DB	0f7H
	DB	0bdH
	DB	018H
	DB	0c6H
	DB	018H
	DB	0c6H
	DB	096H
	DB	0b5H
	DB	0b6H
	DB	0b5H
	DB	018H
	DB	0c6H
	DB	0d7H
	DB	0bdH
	DB	0b6H
	DB	0b5H
	DB	0b6H
	DB	0b5H
	DB	0d7H
	DB	0bdH
	DB	0f7H
	DB	0bdH
	DB	0f7H
	DB	0bdH
	DB	0d7H
	DB	0bdH
	DB	0d7H
	DB	0bdH
	DB	018H
	DB	0c6H
	DB	0f7H
	DB	0bdH
	DB	0d7H
	DB	0bdH
	DB	0f7H
	DB	0bdH
	DB	0b6H
	DB	0b5H
	DB	096H
	DB	0b5H
	DB	038H
	DB	0c6H
	DB	038H
	DB	0c6H
	DB	0f7H
	DB	0bdH
	DB	0d7H
	DB	0bdH
	DB	0d7H
	DB	0bdH
	DB	075H
	DB	0adH
	DB	0b6H
	DB	0b5H
	DB	059H
	DB	0ceH
	DB	0f7H
	DB	0bdH
	DB	0d7H
	DB	0bdH
	DB	096H
	DB	0b5H
	DB	018H
	DB	0c6H
	DB	038H
	DB	0c6H
	DB	0d7H
	DB	0bdH
	DB	0f7H
	DB	0bdH
	DB	0d7H
	DB	0bdH
	DB	0b6H
	DB	0b5H
	DB	0b6H
	DB	0b5H
	DB	075H
	DB	0adH
	DB	0f7H
	DB	0bdH
	DB	059H
	DB	0ceH
	DB	018H
	DB	0c6H
	DB	0f7H
	DB	0bdH
	DB	0f7H
	DB	0bdH
	DB	0d7H
	DB	0bdH
	DB	038H
	DB	0c6H
	DB	038H
	DB	0c6H
	DB	0f7H
	DB	0bdH
	DB	0b6H
	DB	0b5H
	DB	0d7H
	DB	0bdH
	DB	038H
	DB	0c6H
	DB	0d7H
	DB	0bdH
	DB	0b6H
	DB	0b5H
	DB	0f7H
	DB	0bdH
	DB	018H
	DB	0c6H
	DB	0b6H
	DB	0b5H
	DB	0b6H
	DB	0b5H
	DB	0f7H
	DB	0bdH
	DB	0b6H
	DB	0b5H
	DB	0f7H
	DB	0bdH
	DB	0d7H
	DB	0bdH
	DB	0b6H
	DB	0b5H
	DB	038H
	DB	0c6H
	DB	0d7H
	DB	0bdH
	DB	0b6H
	DB	0b5H
	DB	0f7H
	DB	0bdH
	DB	0b6H
	DB	0b5H
	DB	0d7H
	DB	0bdH
	DB	059H
	DB	0ceH
	DB	0f7H
	DB	0bdH
	DB	096H
	DB	0b5H
	DB	0f7H
	DB	0bdH
	DB	018H
	DB	0c6H
	DB	0d7H
	DB	0bdH
	DB	075H
	DB	0adH
	DB	0b6H
	DB	0b5H
	DB	059H
	DB	0ceH
	DB	0d7H
	DB	0bdH
	DB	0b6H
	DB	0b5H
	DB	018H
	DB	0c6H
	DB	038H
	DB	0c6H
	DB	0b6H
	DB	0b5H
	DB	0d7H
	DB	0bdH
	DB	0f7H
	DB	0bdH
	DB	096H
	DB	0b5H
	DB	0f7H
	DB	0bdH
	DB	0b6H
	DB	0b5H
	DB	096H
	DB	0b5H
	DB	038H
	DB	0c6H
	DB	0d7H
	DB	0bdH
	DB	0b6H
	DB	0b5H
	DB	018H
	DB	0c6H
	DB	0f7H
	DB	0bdH
	DB	0f7H
	DB	0bdH
	DB	0f7H
	DB	0bdH
	DB	0d7H
	DB	0bdH
	DB	038H
	DB	0c6H
	DB	0b6H
	DB	0b5H
	DB	0b6H
	DB	0b5H
	DB	0d7H
	DB	0bdH
	DB	0f7H
	DB	0bdH
	DB	059H
	DB	0ceH
	DB	0d7H
	DB	0bdH
	DB	0b6H
	DB	0b5H
	DB	0d7H
	DB	0bdH
	DB	0d7H
	DB	0bdH
	DB	0d7H
	DB	0bdH
	DB	018H
	DB	0c6H
	DB	0b6H
	DB	0b5H
	DB	0d7H
	DB	0bdH
	DB	0b6H
	DB	0b5H
	DB	0f7H
	DB	0bdH
	DB	0d7H
	DB	0bdH
	DB	0f7H
	DB	0bdH
	DB	0f7H
	DB	0bdH
	DB	0f7H
	DB	0bdH
	DB	0d7H
	DB	0bdH
	DB	0b6H
	DB	0b5H
	DB	018H
	DB	0c6H
	DB	0b6H
	DB	0b5H
	DB	018H
	DB	0c6H
	DB	038H
	DB	0c6H
	DB	0b6H
	DB	0b5H
	DB	0b6H
	DB	0b5H
	DB	038H
	DB	0c6H
	DB	0f7H
	DB	0bdH
	DB	096H
	DB	0b5H
	DB	0b6H
	DB	0b5H
	DB	018H
	DB	0c6H
	DB	0f7H
	DB	0bdH
	DB	0d7H
	DB	0bdH
	DB	0b6H
	DB	0b5H
	DB	0f7H
	DB	0bdH
	DB	038H
	DB	0c6H
	DB	0f7H
	DB	0bdH
	DB	0b6H
	DB	0b5H
	DB	018H
	DB	0c6H
	DB	0d7H
	DB	0bdH
	DB	0f7H
	DB	0bdH
	DB	0b6H
	DB	0b5H
	DB	0d7H
	DB	0bdH
	DB	018H
	DB	0c6H
	DB	0f7H
	DB	0bdH
	DB	0d7H
	DB	0bdH
	DB	0b6H
	DB	0b5H
	DB	0f7H
	DB	0bdH
	DB	0b6H
	DB	0b5H
	DB	0d7H
	DB	0bdH
	DB	0f7H
	DB	0bdH
	DB	0b6H
	DB	0b5H
	DB	0f7H
	DB	0bdH
	DB	0f7H
	DB	0bdH
	DB	0b6H
	DB	0b5H
	DB	0f7H
	DB	0bdH
	DB	0d7H
	DB	0bdH
	DB	0b6H
	DB	0b5H
	DB	038H
	DB	0c6H
	DB	0f7H
	DB	0bdH
	DB	0b6H
	DB	0b5H
	DB	0b6H
	DB	0b5H
	DB	0d7H
	DB	0bdH
	DB	059H
	DB	0ceH
	DB	0f7H
	DB	0bdH
	DB	096H
	DB	0b5H
	DB	0f7H
	DB	0bdH
	DB	018H
	DB	0c6H
	DB	0f7H
	DB	0bdH
	DB	0f7H
	DB	0bdH
	DB	0b6H
	DB	0b5H
	DB	0f7H
	DB	0bdH
	DB	0f7H
	DB	0bdH
	DB	0d7H
	DB	0bdH
	DB	0d7H
	DB	0bdH
	DB	018H
	DB	0c6H
	DB	059H
	DB	0ceH
	DB	0f7H
	DB	0bdH
	DB	096H
	DB	0b5H
	DB	0f7H
	DB	0bdH
	DB	0f7H
	DB	0bdH
	DB	096H
	DB	0b5H
	DB	018H
	DB	0c6H
	DB	059H
	DB	0ceH
	DB	0f7H
	DB	0bdH
	DB	0d7H
	DB	0bdH
	DB	0f7H
	DB	0bdH
	DB	0f7H
	DB	0bdH
	DB	096H
	DB	0b5H
	DB	018H
	DB	0c6H
	DB	0b6H
	DB	0b5H
	DB	075H
	DB	0adH
	DB	0f7H
	DB	0bdH
	DB	0d7H
	DB	0bdH
	DB	038H
	DB	0c6H
	DB	0d7H
	DB	0bdH
	DB	0b6H
	DB	0b5H
	DB	0d7H
	DB	0bdH
	DB	0f7H
	DB	0bdH
	DB	0f7H
	DB	0bdH
	DB	0f7H
	DB	0bdH
	DB	0d7H
	DB	0bdH
	DB	018H
	DB	0c6H
	DB	0b6H
	DB	0b5H
	DB	075H
	DB	0adH
	DB	038H
	DB	0c6H
	DB	018H
	DB	0c6H
	DB	0f7H
	DB	0bdH
	DB	0b6H
	DB	0b5H
	DB	0d7H
	DB	0bdH
	DB	059H
	DB	0ceH
	DB	0f7H
	DB	0bdH
	DB	0f7H
	DB	0bdH
	DB	0b6H
	DB	0b5H
	DB	0b6H
	DB	0b5H
	DB	038H
	DB	0c6H
	DB	0b6H
	DB	0b5H
	DB	0b6H
	DB	0b5H
	DB	018H
	DB	0c6H
	DB	0d7H
	DB	0bdH
	DB	0d7H
	DB	0bdH
	DB	075H
	DB	0adH
	DB	0f7H
	DB	0bdH
	DB	018H
	DB	0c6H
	DB	0f7H
	DB	0bdH
	DB	0d7H
	DB	0bdH
	DB	0b6H
	DB	0b5H
	DB	0d7H
	DB	0bdH
	DB	018H
	DB	0c6H
	DB	038H
	DB	0c6H
	DB	0f7H
	DB	0bdH
	DB	018H
	DB	0c6H
	DB	0f7H
	DB	0bdH
	DB	0f7H
	DB	0bdH
	DB	0b6H
	DB	0b5H
	DB	0d7H
	DB	0bdH
	DB	018H
	DB	0c6H
	DB	075H
	DB	0adH
	DB	075H
	DB	0adH
	DB	018H
	DB	0c6H
	DB	038H
	DB	0c6H
	DB	0d7H
	DB	0bdH
	DB	018H
	DB	0c6H
	DB	0f7H
	DB	0bdH
	DB	096H
	DB	0b5H
	DB	0b6H
	DB	0b5H
	DB	018H
	DB	0c6H
	DB	018H
	DB	0c6H
	DB	0d7H
	DB	0bdH
	DB	0f7H
	DB	0bdH
	DB	0b6H
	DB	0b5H
	DB	0b6H
	DB	0b5H
	DB	059H
	DB	0ceH
	DB	038H
	DB	0c6H
	DB	0f7H
	DB	0bdH
	DB	0d7H
	DB	0bdH
	DB	0f7H
	DB	0bdH
	DB	0d7H
	DB	0bdH
	DB	0b6H
	DB	0b5H
	DB	018H
	DB	0c6H
	DB	0f7H
	DB	0bdH
	DB	0b6H
	DB	0b5H
	DB	0d7H
	DB	0bdH
	DB	0f7H
	DB	0bdH
	DB	0b6H
	DB	0b5H
	DB	038H
	DB	0c6H
	DB	0b6H
	DB	0b5H
	DB	038H
	DB	0c6H
	DB	038H
	DB	0c6H
	DB	0d7H
	DB	0bdH
	DB	0b6H
	DB	0b5H
	DB	018H
	DB	0c6H
	DB	018H
	DB	0c6H
	DB	096H
	DB	0b5H
	DB	018H
	DB	0c6H
	DB	0f7H
	DB	0bdH
	DB	096H
	DB	0b5H
	DB	096H
	DB	0b5H
	DB	018H
	DB	0c6H
	DB	018H
	DB	0c6H
	DB	0d7H
	DB	0bdH
	DB	0d7H
	DB	0bdH
	DB	0b6H
	DB	0b5H
	DB	038H
	DB	0c6H
	DB	0f7H
	DB	0bdH
	DB	0f7H
	DB	0bdH
	DB	0b6H
	DB	0b5H
	DB	018H
	DB	0c6H
	DB	0d7H
	DB	0bdH
	DB	096H
	DB	0b5H
	DB	018H
	DB	0c6H
	DB	038H
	DB	0c6H
	DB	0b6H
	DB	0b5H
	DB	0b6H
	DB	0b5H
	DB	038H
	DB	0c6H
	DB	0f7H
	DB	0bdH
	DB	0f7H
	DB	0bdH
	DB	0b6H
	DB	0b5H
	DB	018H
	DB	0c6H
	DB	0b6H
	DB	0b5H
	DB	0f7H
	DB	0bdH
	DB	0f7H
	DB	0bdH
	DB	0b6H
	DB	0b5H
	DB	038H
	DB	0c6H
	DB	0f7H
	DB	0bdH
	DB	0f7H
	DB	0bdH
	DB	0b6H
	DB	0b5H
	DB	0b6H
	DB	0b5H
	DB	0f7H
	DB	0bdH
	DB	0f7H
	DB	0bdH
	DB	096H
	DB	0b5H
	DB	0d7H
	DB	0bdH
	DB	018H
	DB	0c6H
	DB	0f7H
	DB	0bdH
	DB	0b6H
	DB	0b5H
	DB	0b6H
	DB	0b5H
	DB	0f7H
	DB	0bdH
	DB	0f7H
	DB	0bdH
	DB	0d7H
	DB	0bdH
	DB	0f7H
	DB	0bdH
	DB	0b6H
	DB	0b5H
	DB	096H
	DB	0b5H
	DB	018H
	DB	0c6H
	DB	038H
	DB	0c6H
	DB	0f7H
	DB	0bdH
	DB	0b6H
	DB	0b5H
	DB	096H
	DB	0b5H
	DB	018H
	DB	0c6H
	DB	0f7H
	DB	0bdH
	DB	0f7H
	DB	0bdH
	DB	0b6H
	DB	0b5H
	DB	0f7H
	DB	0bdH
	DB	0b6H
	DB	0b5H
	DB	0f7H
	DB	0bdH
	DB	038H
	DB	0c6H
	DB	0f7H
	DB	0bdH
	DB	0f7H
	DB	0bdH
	DB	0d7H
	DB	0bdH
	DB	0b6H
	DB	0b5H
	DB	096H
	DB	0b5H
	DB	0b6H
	DB	0b5H
	DB	038H
	DB	0c6H
	DB	0f7H
	DB	0bdH
	DB	018H
	DB	0c6H
	DB	018H
	DB	0c6H
	DB	0f7H
	DB	0bdH
	DB	0b6H
	DB	0b5H
	DB	018H
	DB	0c6H
	DB	059H
	DB	0ceH
	DB	0d7H
	DB	0bdH
	DB	0b6H
	DB	0b5H
	DB	0f7H
	DB	0bdH
	DB	018H
	DB	0c6H
	DB	038H
	DB	0c6H
	DB	096H
	DB	0b5H
	DB	0f7H
	DB	0bdH
	DB	038H
	DB	0c6H
	DB	096H
	DB	0b5H
	DB	0d7H
	DB	0bdH
	DB	018H
	DB	0c6H
	DB	096H
	DB	0b5H
	DB	0d7H
	DB	0bdH
	DB	0d7H
	DB	0bdH
	DB	0b6H
	DB	0b5H
	DB	038H
	DB	0c6H
	DB	0f7H
	DB	0bdH
	DB	096H
	DB	0b5H
	DB	0d7H
	DB	0bdH
	DB	0d7H
	DB	0bdH
	DB	0b6H
	DB	0b5H
	DB	0f7H
	DB	0bdH
	DB	038H
	DB	0c6H
	DB	0b6H
	DB	0b5H
	DB	0d7H
	DB	0bdH
	DB	0d7H
	DB	0bdH
	DB	0f7H
	DB	0bdH
	DB	096H
	DB	0b5H
	DB	0b6H
	DB	0b5H
	DB	059H
	DB	0ceH
	DB	0f7H
	DB	0bdH
	DB	075H
	DB	0adH
	DB	038H
	DB	0c6H
	DB	038H
	DB	0c6H
	DB	0f7H
	DB	0bdH
	DB	0b6H
	DB	0b5H
	DB	0f7H
	DB	0bdH
	DB	096H
	DB	0b5H
	DB	0b6H
	DB	0b5H
	DB	0b6H
	DB	0b5H
	DB	0d7H
	DB	0bdH
	DB	038H
	DB	0c6H
	DB	038H
	DB	0c6H
	DB	0b6H
	DB	0b5H
	DB	0b6H
	DB	0b5H
	DB	0f7H
	DB	0bdH
	DB	038H
	DB	0c6H
	DB	0b6H
	DB	0b5H
	DB	0d7H
	DB	0bdH
	DB	038H
	DB	0c6H
	DB	0f7H
	DB	0bdH
	DB	018H
	DB	0c6H
	DB	0b6H
	DB	0b5H
	DB	0f7H
	DB	0bdH
	DB	018H
	DB	0c6H
	DB	0f7H
	DB	0bdH
	DB	0b6H
	DB	0b5H
	DB	0b6H
	DB	0b5H
	DB	0d7H
	DB	0bdH
	DB	0f7H
	DB	0bdH
	DB	038H
	DB	0c6H
	DB	0d7H
	DB	0bdH
	DB	0d7H
	DB	0bdH
	DB	0b6H
	DB	0b5H
	DB	0b6H
	DB	0b5H
	DB	0d7H
	DB	0bdH
	DB	0d7H
	DB	0bdH
	DB	0d7H
	DB	0bdH
	DB	0f7H
	DB	0bdH
	DB	0f7H
	DB	0bdH
	DB	0b6H
	DB	0b5H
	DB	0d7H
	DB	0bdH
	DB	096H
	DB	0b5H
	DB	038H
	DB	0c6H
	DB	0f7H
	DB	0bdH
	DB	0d7H
	DB	0bdH
	DB	096H
	DB	0b5H
	DB	0d7H
	DB	0bdH
	DB	0f7H
	DB	0bdH
	DB	0f7H
	DB	0bdH
	DB	0f7H
	DB	0bdH
	DB	0f7H
	DB	0bdH
	DB	018H
	DB	0c6H
	DB	018H
	DB	0c6H
	DB	0d7H
	DB	0bdH
	DB	0b6H
	DB	0b5H
	DB	0f7H
	DB	0bdH
	DB	018H
	DB	0c6H
	DB	0b6H
	DB	0b5H
	DB	018H
	DB	0c6H
	DB	0d7H
	DB	0bdH
	DB	0f7H
	DB	0bdH
	DB	0b6H
	DB	0b5H
	DB	0d7H
	DB	0bdH
	DB	0f7H
	DB	0bdH
	DB	0f7H
	DB	0bdH
	DB	018H
	DB	0c6H
	DB	0b6H
	DB	0b5H
	DB	018H
	DB	0c6H
	DB	0d7H
	DB	0bdH
	DB	0b6H
	DB	0b5H
	DB	096H
	DB	0b5H
	DB	0d7H
	DB	0bdH
	DB	0b6H
	DB	0b5H
	DB	018H
	DB	0c6H
	DB	0f7H
	DB	0bdH
	DB	038H
	DB	0c6H
	DB	0b6H
	DB	0b5H
	DB	0b6H
	DB	0b5H
	DB	038H
	DB	0c6H
	DB	0d7H
	DB	0bdH
	DB	096H
	DB	0b5H
	DB	0b6H
	DB	0b5H
	DB	038H
	DB	0c6H
	DB	018H
	DB	0c6H
	DB	0f7H
	DB	0bdH
	DB	0d7H
	DB	0bdH
	DB	0b6H
	DB	0b5H
	DB	0b6H
	DB	0b5H
	DB	0b6H
	DB	0b5H
	DB	018H
	DB	0c6H
	DB	075H
	DB	0adH
	DB	038H
	DB	0c6H
	DB	0d7H
	DB	0bdH
	DB	0d7H
	DB	0bdH
	DB	0f7H
	DB	0bdH
	DB	096H
	DB	0b5H
	DB	038H
	DB	0c6H
	DB	0b6H
	DB	0b5H
	DB	0b6H
	DB	0b5H
	DB	038H
	DB	0c6H
	DB	0d7H
	DB	0bdH
	DB	096H
	DB	0b5H
	DB	018H
	DB	0c6H
	DB	018H
	DB	0c6H
	DB	018H
	DB	0c6H
	DB	0d7H
	DB	0bdH
	DB	0f7H
	DB	0bdH
	DB	018H
	DB	0c6H
	DB	096H
	DB	0b5H
	DB	0f7H
	DB	0bdH
	DB	0b6H
	DB	0b5H
	DB	0f7H
	DB	0bdH
	DB	0f7H
	DB	0bdH
	DB	096H
	DB	0b5H
	DB	059H
	DB	0ceH
	DB	0f7H
	DB	0bdH
	DB	034H
	DB	0a5H
	DB	0f7H
	DB	0bdH
	DB	0d7H
	DB	0bdH
	DB	096H
	DB	0b5H
	DB	038H
	DB	0c6H
	DB	0d7H
	DB	0bdH
	DB	0d7H
	DB	0bdH
	DB	096H
	DB	0b5H
	DB	0f7H
	DB	0bdH
	DB	018H
	DB	0c6H
	DB	0f7H
	DB	0bdH
	DB	0d7H
	DB	0bdH
	DB	0b6H
	DB	0b5H
	DB	0b6H
	DB	0b5H
	DB	059H
	DB	0ceH
	DB	0d7H
	DB	0bdH
	DB	096H
	DB	0b5H
	DB	018H
	DB	0c6H
	DB	0d7H
	DB	0bdH
	DB	0f7H
	DB	0bdH
	DB	0b6H
	DB	0b5H
	DB	0f7H
	DB	0bdH
	DB	038H
	DB	0c6H
	DB	0b6H
	DB	0b5H
	DB	075H
	DB	0adH
	DB	0d7H
	DB	0bdH
	DB	059H
	DB	0ceH
	DB	0d7H
	DB	0bdH
	DB	0f7H
	DB	0bdH
	DB	0d7H
	DB	0bdH
	DB	0b6H
	DB	0b5H
	DB	0b6H
	DB	0b5H
	DB	0f7H
	DB	0bdH
	DB	038H
	DB	0c6H
	DB	0b6H
	DB	0b5H
	DB	018H
	DB	0c6H
	DB	0f7H
	DB	0bdH
	DB	0b6H
	DB	0b5H
	DB	0b6H
	DB	0b5H
	DB	0f7H
	DB	0bdH
	DB	0f7H
	DB	0bdH
	DB	075H
	DB	0adH
	DB	0d7H
	DB	0bdH
	DB	0f7H
	DB	0bdH
	DB	0d7H
	DB	0bdH
	DB	0d7H
	DB	0bdH
	DB	018H
	DB	0c6H
	DB	0f7H
	DB	0bdH
	DB	096H
	DB	0b5H
	DB	018H
	DB	0c6H
	DB	0d7H
	DB	0bdH
	DB	0d7H
	DB	0bdH
	DB	0f7H
	DB	0bdH
	DB	038H
	DB	0c6H
	DB	0b6H
	DB	0b5H
	DB	0d7H
	DB	0bdH
	DB	0f7H
	DB	0bdH
	DB	038H
	DB	0c6H
	DB	0f7H
	DB	0bdH
	DB	075H
	DB	0adH
	DB	018H
	DB	0c6H
	DB	018H
	DB	0c6H
	DB	0d7H
	DB	0bdH
	DB	0f7H
	DB	0bdH
	DB	018H
	DB	0c6H
	DB	0d7H
	DB	0bdH
	DB	0f7H
	DB	0bdH
	DB	0f7H
	DB	0bdH
	DB	096H
	DB	0b5H
	DB	038H
	DB	0c6H
	DB	018H
	DB	0c6H
	DB	038H
	DB	0c6H
	DB	0f7H
	DB	0bdH
	DB	0d7H
	DB	0bdH
	DB	096H
	DB	0b5H
	DB	0d7H
	DB	0bdH
	DB	018H
	DB	0c6H
	DB	096H
	DB	0b5H
	DB	018H
	DB	0c6H
	DB	0b6H
	DB	0b5H
	DB	0f7H
	DB	0bdH
	DB	018H
	DB	0c6H
	DB	0b6H
	DB	0b5H
	DB	038H
	DB	0c6H
	DB	0d7H
	DB	0bdH
	DB	0d7H
	DB	0bdH
	DB	0b6H
	DB	0b5H
	DB	038H
	DB	0c6H
	DB	018H
	DB	0c6H
	DB	0f7H
	DB	0bdH
	DB	075H
	DB	0adH
	DB	0f7H
	DB	0bdH
	DB	096H
	DB	0b5H
	DB	0d7H
	DB	0bdH
	DB	038H
	DB	0c6H
	DB	018H
	DB	0c6H
	DB	0d7H
	DB	0bdH
	DB	0b6H
	DB	0b5H
	DB	0d7H
	DB	0bdH
	DB	038H
	DB	0c6H
	DB	0f7H
	DB	0bdH
	DB	0b6H
	DB	0b5H
	DB	0d7H
	DB	0bdH
	DB	0d7H
	DB	0bdH
	DB	018H
	DB	0c6H
	DB	018H
	DB	0c6H
	DB	0b6H
	DB	0b5H
	DB	0f7H
	DB	0bdH
	DB	0f7H
	DB	0bdH
	DB	0f7H
	DB	0bdH
	DB	0b6H
	DB	0b5H
	DB	0b6H
	DB	0b5H
	DB	018H
	DB	0c6H
	DB	0d7H
	DB	0bdH
	DB	096H
	DB	0b5H
	DB	018H
	DB	0c6H
	DB	0f7H
	DB	0bdH
	DB	0b6H
	DB	0b5H
	DB	0b6H
	DB	0b5H
	DB	0d7H
	DB	0bdH
	DB	0f7H
	DB	0bdH
	DB	0f7H
	DB	0bdH
	DB	0d7H
	DB	0bdH
	DB	0d7H
	DB	0bdH
	DB	0f7H
	DB	0bdH
	DB	096H
	DB	0b5H
	DB	0f7H
	DB	0bdH
	DB	018H
	DB	0c6H
	DB	0f7H
	DB	0bdH
	DB	0f7H
	DB	0bdH
	DB	0f7H
	DB	0bdH
	DB	0f7H
	DB	0bdH
	DB	0f7H
	DB	0bdH
	DB	0d7H
	DB	0bdH
	DB	096H
	DB	0b5H
	DB	0b6H
	DB	0b5H
	DB	038H
	DB	0c6H
	DB	0b6H
	DB	0b5H
	DB	0f7H
	DB	0bdH
	DB	038H
	DB	0c6H
	DB	0f7H
	DB	0bdH
	DB	0b6H
	DB	0b5H
	DB	0d7H
	DB	0bdH
	DB	075H
	DB	0adH
	DB	0f7H
	DB	0bdH
	DB	038H
	DB	0c6H
	DB	096H
	DB	0b5H
	DB	0f7H
	DB	0bdH
	DB	018H
	DB	0c6H
	DB	0f7H
	DB	0bdH
	DB	0d7H
	DB	0bdH
	DB	0d7H
	DB	0bdH
	DB	038H
	DB	0c6H
	DB	0b6H
	DB	0b5H
	DB	0d7H
	DB	0bdH
	DB	0f7H
	DB	0bdH
	DB	0f7H
	DB	0bdH
	DB	018H
	DB	0c6H
	DB	075H
	DB	0adH
	DB	0f7H
	DB	0bdH
	DB	0f7H
	DB	0bdH
	DB	0b6H
	DB	0b5H
	DB	0f7H
	DB	0bdH
	DB	018H
	DB	0c6H
	DB	0b6H
	DB	0b5H
	DB	0d7H
	DB	0bdH
	DB	0f7H
	DB	0bdH
	DB	018H
	DB	0c6H
	DB	018H
	DB	0c6H
	DB	0f7H
	DB	0bdH
	DB	096H
	DB	0b5H
	DB	075H
	DB	0adH
	DB	0f7H
	DB	0bdH
	DB	0b6H
	DB	0b5H
	DB	0d7H
	DB	0bdH
	DB	018H
	DB	0c6H
	DB	0d7H
	DB	0bdH
	DB	0f7H
	DB	0bdH
	DB	0b6H
	DB	0b5H
	DB	018H
	DB	0c6H
	DB	0b6H
	DB	0b5H
	DB	096H
	DB	0b5H
	DB	018H
	DB	0c6H
	DB	0d7H
	DB	0bdH
	DB	0d7H
	DB	0bdH
	DB	0f7H
	DB	0bdH
	DB	018H
	DB	0c6H
	DB	038H
	DB	0c6H
	DB	0b6H
	DB	0b5H
	DB	0b6H
	DB	0b5H
	DB	0d7H
	DB	0bdH
	DB	0b6H
	DB	0b5H
	DB	0d7H
	DB	0bdH
	DB	038H
	DB	0c6H
	DB	0f7H
	DB	0bdH
	DB	018H
	DB	0c6H
	DB	0f7H
	DB	0bdH
	DB	0b6H
	DB	0b5H
	DB	096H
	DB	0b5H
	DB	059H
	DB	0ceH
	DB	0b6H
	DB	0b5H
	DB	0d7H
	DB	0bdH
	DB	038H
	DB	0c6H
	DB	038H
	DB	0c6H
	DB	018H
	DB	0c6H
	DB	096H
	DB	0b5H
	DB	0f7H
	DB	0bdH
	DB	0d7H
	DB	0bdH
	DB	0f7H
	DB	0bdH
	DB	0f7H
	DB	0bdH
	DB	096H
	DB	0b5H
	DB	096H
	DB	0b5H
	DB	018H
	DB	0c6H
	DB	0f7H
	DB	0bdH
	DB	018H
	DB	0c6H
	DB	0d7H
	DB	0bdH
	DB	0d7H
	DB	0bdH
	DB	096H
	DB	0b5H
	DB	0b6H
	DB	0b5H
	DB	018H
	DB	0c6H
	DB	0f7H
	DB	0bdH
	DB	0d7H
	DB	0bdH
	DB	0f7H
	DB	0bdH
	DB	0d7H
	DB	0bdH
	DB	0d7H
	DB	0bdH
	DB	096H
	DB	0b5H
	DB	038H
	DB	0c6H
	DB	0f7H
	DB	0bdH
	DB	0d7H
	DB	0bdH
	DB	096H
	DB	0b5H
	DB	0b6H
	DB	0b5H
	DB	0d7H
	DB	0bdH
	DB	0f7H
	DB	0bdH
	DB	0f7H
	DB	0bdH
	DB	018H
	DB	0c6H
	DB	0f7H
	DB	0bdH
	DB	0d7H
	DB	0bdH
	DB	0d7H
	DB	0bdH
	DB	0b6H
	DB	0b5H
	DB	0b6H
	DB	0b5H
	DB	0d7H
	DB	0bdH
	DB	018H
	DB	0c6H
	DB	038H
	DB	0c6H
	DB	0d7H
	DB	0bdH
	DB	0f7H
	DB	0bdH
	DB	0b6H
	DB	0b5H
	DB	0b6H
	DB	0b5H
	DB	038H
	DB	0c6H
	DB	0d7H
	DB	0bdH
	DB	0f7H
	DB	0bdH
	DB	0f7H
	DB	0bdH
	DB	0f7H
	DB	0bdH
	DB	0f7H
	DB	0bdH
	DB	0d7H
	DB	0bdH
	DB	0b6H
	DB	0b5H
	DB	055H
	DB	0adH
	DB	0b6H
	DB	0b5H
	DB	0d7H
	DB	0bdH
	DB	038H
	DB	0c6H
	DB	038H
	DB	0c6H
	DB	0d7H
	DB	0bdH
	DB	0d7H
	DB	0bdH
	DB	018H
	DB	0c6H
	DB	0b6H
	DB	0b5H
	DB	0b6H
	DB	0b5H
	DB	0b6H
	DB	0b5H
	DB	038H
	DB	0c6H
	DB	0f7H
	DB	0bdH
	DB	0d7H
	DB	0bdH
	DB	018H
	DB	0c6H
	DB	0b6H
	DB	0b5H
	DB	055H
	DB	0adH
	DB	0b6H
	DB	0b5H
	DB	018H
	DB	0c6H
	DB	0d7H
	DB	0bdH
	DB	038H
	DB	0c6H
	DB	0d7H
	DB	0bdH
	DB	0d7H
	DB	0bdH
	DB	018H
	DB	0c6H
	DB	096H
	DB	0b5H
	DB	0b6H
	DB	0b5H
	DB	0f7H
	DB	0bdH
	DB	0f7H
	DB	0bdH
	DB	038H
	DB	0c6H
	DB	0d7H
	DB	0bdH
	DB	0d7H
	DB	0bdH
	DB	018H
	DB	0c6H
	DB	0b6H
	DB	0b5H
	DB	018H
	DB	0c6H
	DB	0d7H
	DB	0bdH
	DB	0d7H
	DB	0bdH
	DB	0f7H
	DB	0bdH
	DB	0b6H
	DB	0b5H
	DB	018H
	DB	0c6H
	DB	0f7H
	DB	0bdH
	DB	0f7H
	DB	0bdH
	DB	0b6H
	DB	0b5H
	DB	0b6H
	DB	0b5H
	DB	038H
	DB	0c6H
	DB	0b6H
	DB	0b5H
	DB	0b6H
	DB	0b5H
	DB	038H
	DB	0c6H
	DB	0d7H
	DB	0bdH
	DB	055H
	DB	0adH
	DB	038H
	DB	0c6H
	DB	0f7H
	DB	0bdH
	DB	096H
	DB	0b5H
	DB	096H
	DB	0b5H
	DB	018H
	DB	0c6H
	DB	038H
	DB	0c6H
	DB	0b6H
	DB	0b5H
	DB	0b6H
	DB	0b5H
	DB	096H
	DB	0b5H
	DB	0f7H
	DB	0bdH
	DB	059H
	DB	0ceH
	DB	0d7H
	DB	0bdH
	DB	0b6H
	DB	0b5H
	DB	038H
	DB	0c6H
	DB	0b6H
	DB	0b5H
	DB	0f7H
	DB	0bdH
	DB	0d7H
	DB	0bdH
	DB	018H
	DB	0c6H
	DB	018H
	DB	0c6H
	DB	0d7H
	DB	0bdH
	DB	096H
	DB	0b5H
	DB	0d7H
	DB	0bdH
	DB	059H
	DB	0ceH
	DB	0f7H
	DB	0bdH
	DB	0d7H
	DB	0bdH
	DB	0f7H
	DB	0bdH
	DB	096H
	DB	0b5H
	DB	018H
	DB	0c6H
	DB	0d7H
	DB	0bdH
	DB	0f7H
	DB	0bdH
	DB	0b6H
	DB	0b5H
	DB	0f7H
	DB	0bdH
	DB	0d7H
	DB	0bdH
	DB	0f7H
	DB	0bdH
	DB	0b6H
	DB	0b5H
	DB	0d7H
	DB	0bdH
	DB	0f7H
	DB	0bdH
	DB	018H
	DB	0c6H
	DB	018H
	DB	0c6H
	DB	0d7H
	DB	0bdH
	DB	096H
	DB	0b5H
	DB	0b6H
	DB	0b5H
	DB	0f7H
	DB	0bdH
	DB	0f7H
	DB	0bdH
	DB	0f7H
	DB	0bdH
	DB	038H
	DB	0c6H
	DB	0d7H
	DB	0bdH
	DB	0b6H
	DB	0b5H
	DB	0b6H
	DB	0b5H
	DB	038H
	DB	0c6H
	DB	0d7H
	DB	0bdH
	DB	018H
	DB	0c6H
	DB	0d7H
	DB	0bdH
	DB	0f7H
	DB	0bdH
	DB	018H
	DB	0c6H
	DB	0b6H
	DB	0b5H
	DB	0d7H
	DB	0bdH
	DB	018H
	DB	0c6H
	DB	0d7H
	DB	0bdH
	DB	0d7H
	DB	0bdH
	DB	0b6H
	DB	0b5H
	DB	018H
	DB	0c6H
	DB	0f7H
	DB	0bdH
	DB	0b6H
	DB	0b5H
	DB	0b6H
	DB	0b5H
	DB	038H
	DB	0c6H
	DB	018H
	DB	0c6H
	DB	0d7H
	DB	0bdH
	DB	0d7H
	DB	0bdH
	DB	0d7H
	DB	0bdH
	DB	0b6H
	DB	0b5H
	DB	0d7H
	DB	0bdH
	DB	0d7H
	DB	0bdH
	DB	075H
	DB	0adH
	DB	018H
	DB	0c6H
	DB	0d7H
	DB	0bdH
	DB	018H
	DB	0c6H
	DB	0f7H
	DB	0bdH
	DB	096H
	DB	0b5H
	DB	0f7H
	DB	0bdH
	DB	0f7H
	DB	0bdH
	DB	0d7H
	DB	0bdH
	DB	0b6H
	DB	0b5H
	DB	038H
	DB	0c6H
	DB	038H
	DB	0c6H
	DB	0f7H
	DB	0bdH
	DB	075H
	DB	0adH
	DB	0d7H
	DB	0bdH
	DB	0d7H
	DB	0bdH
	DB	018H
	DB	0c6H
	DB	0f7H
	DB	0bdH
	DB	0d7H
	DB	0bdH
	DB	018H
	DB	0c6H
	DB	0f7H
	DB	0bdH
	DB	0b6H
	DB	0b5H
	DB	0f7H
	DB	0bdH
	DB	0f7H
	DB	0bdH
	DB	0b6H
	DB	0b5H
	DB	0b6H
	DB	0b5H
	DB	038H
	DB	0c6H
	DB	018H
	DB	0c6H
	DB	0f7H
	DB	0bdH
	DB	0d7H
	DB	0bdH
	DB	096H
	DB	0b5H
	DB	0d7H
	DB	0bdH
	DB	0f7H
	DB	0bdH
	DB	0b6H
	DB	0b5H
	DB	0f7H
	DB	0bdH
	DB	018H
	DB	0c6H
	DB	0d7H
	DB	0bdH
	DB	0b6H
	DB	0b5H
	DB	018H
	DB	0c6H
	DB	018H
	DB	0c6H
	DB	075H
	DB	0adH
	DB	0d7H
	DB	0bdH
	DB	018H
	DB	0c6H
	DB	0f7H
	DB	0bdH
	DB	0f7H
	DB	0bdH
	DB	0b6H
	DB	0b5H
	DB	0d7H
	DB	0bdH
	DB	0d7H
	DB	0bdH
	DB	075H
	DB	0adH
	DB	018H
	DB	0c6H
	DB	0f7H
	DB	0bdH
	DB	0b6H
	DB	0b5H
	DB	018H
	DB	0c6H
	DB	059H
	DB	0ceH
	DB	0d7H
	DB	0bdH
	DB	0d7H
	DB	0bdH
	DB	018H
	DB	0c6H
	DB	0b6H
	DB	0b5H
	DB	0b6H
	DB	0b5H
	DB	038H
	DB	0c6H
	DB	0d7H
	DB	0bdH
	DB	096H
	DB	0b5H
	DB	018H
	DB	0c6H
	DB	0f7H
	DB	0bdH
	DB	096H
	DB	0b5H
	DB	0d7H
	DB	0bdH
	DB	0d7H
	DB	0bdH
	DB	018H
	DB	0c6H
	DB	0f7H
	DB	0bdH
	DB	075H
	DB	0adH
	DB	0d7H
	DB	0bdH
	DB	038H
	DB	0c6H
	DB	0d7H
	DB	0bdH
	DB	0d7H
	DB	0bdH
	DB	0d7H
	DB	0bdH
	DB	018H
	DB	0c6H
	DB	0f7H
	DB	0bdH
	DB	018H
	DB	0c6H
	DB	018H
	DB	0c6H
	DB	0b6H
	DB	0b5H
	DB	0f7H
	DB	0bdH
	DB	0b6H
	DB	0b5H
	DB	018H
	DB	0c6H
	DB	0b6H
	DB	0b5H
	DB	096H
	DB	0b5H
	DB	018H
	DB	0c6H
	DB	018H
	DB	0c6H
	DB	096H
	DB	0b5H
	DB	0d7H
	DB	0bdH
	DB	0f7H
	DB	0bdH
	DB	018H
	DB	0c6H
	DB	018H
	DB	0c6H
	DB	0f7H
	DB	0bdH
	DB	096H
	DB	0b5H
	DB	0b6H
	DB	0b5H
	DB	0d7H
	DB	0bdH
	DB	0f7H
	DB	0bdH
	DB	0d7H
	DB	0bdH
	DB	0f7H
	DB	0bdH
	DB	0f7H
	DB	0bdH
	DB	0f7H
	DB	0bdH
	DB	0f7H
	DB	0bdH
	DB	0f7H
	DB	0bdH
	DB	0d7H
	DB	0bdH
	DB	096H
	DB	0b5H
	DB	0f7H
	DB	0bdH
	DB	096H
	DB	0b5H
	DB	018H
	DB	0c6H
	DB	018H
	DB	0c6H
	DB	0b6H
	DB	0b5H
	DB	018H
	DB	0c6H
	DB	0d7H
	DB	0bdH
	DB	096H
	DB	0b5H
	DB	0d7H
	DB	0bdH
	DB	0f7H
	DB	0bdH
	DB	038H
	DB	0c6H
	DB	038H
	DB	0c6H
	DB	0f7H
	DB	0bdH
	DB	0d7H
	DB	0bdH
	DB	018H
	DB	0c6H
	DB	0b6H
	DB	0b5H
	DB	034H
	DB	0a5H
	DB	018H
	DB	0c6H
	DB	0f7H
	DB	0bdH
	DB	0b6H
	DB	0b5H
	DB	018H
	DB	0c6H
	DB	018H
	DB	0c6H
	DB	038H
	DB	0c6H
	DB	0b6H
	DB	0b5H
	DB	0f7H
	DB	0bdH
	DB	0f7H
	DB	0bdH
	DB	018H
	DB	0c6H
	DB	018H
	DB	0c6H
	DB	0b6H
	DB	0b5H
	DB	096H
	DB	0b5H
	DB	018H
	DB	0c6H
	DB	0f7H
	DB	0bdH
	DB	018H
	DB	0c6H
	DB	018H
	DB	0c6H
	DB	0d7H
	DB	0bdH
	DB	0b6H
	DB	0b5H
	DB	0b6H
	DB	0b5H
	DB	038H
	DB	0c6H
	DB	0f7H
	DB	0bdH
	DB	0f7H
	DB	0bdH
	DB	0d7H
	DB	0bdH
	DB	0d7H
	DB	0bdH
	DB	0d7H
	DB	0bdH
	DB	0d7H
	DB	0bdH
	DB	018H
	DB	0c6H
	DB	0f7H
	DB	0bdH
	DB	0d7H
	DB	0bdH
	DB	0b6H
	DB	0b5H
	DB	0f7H
	DB	0bdH
	DB	0f7H
	DB	0bdH
	DB	0d7H
	DB	0bdH
	DB	0b6H
	DB	0b5H
	DB	018H
	DB	0c6H
	DB	0d7H
	DB	0bdH
	DB	0d7H
	DB	0bdH
	DB	0f7H
	DB	0bdH
	DB	018H
	DB	0c6H
	DB	096H
	DB	0b5H
	DB	075H
	DB	0adH
	DB	018H
	DB	0c6H
	DB	018H
	DB	0c6H
	DB	0f7H
	DB	0bdH
	DB	018H
	DB	0c6H
	DB	0b6H
	DB	0b5H
	DB	0d7H
	DB	0bdH
	DB	038H
	DB	0c6H
	DB	0f7H
	DB	0bdH
	DB	0b6H
	DB	0b5H
	DB	0b6H
	DB	0b5H
	DB	038H
	DB	0c6H
	DB	0f7H
	DB	0bdH
	DB	0b6H
	DB	0b5H
	DB	0b6H
	DB	0b5H
	DB	075H
	DB	0adH
	DB	018H
	DB	0c6H
	DB	0b6H
	DB	0b5H
	DB	0f7H
	DB	0bdH
	DB	038H
	DB	0c6H
	DB	0f7H
	DB	0bdH
	DB	0d7H
	DB	0bdH
	DB	0f7H
	DB	0bdH
	DB	0d7H
	DB	0bdH
	DB	0d7H
	DB	0bdH
	DB	0b6H
	DB	0b5H
	DB	038H
	DB	0c6H
	DB	018H
	DB	0c6H
	DB	0d7H
	DB	0bdH
	DB	018H
	DB	0c6H
	DB	096H
	DB	0b5H
	DB	055H
	DB	0adH
	DB	0f7H
	DB	0bdH
	DB	059H
	DB	0ceH
	DB	0f7H
	DB	0bdH
	DB	0f7H
	DB	0bdH
	DB	0d7H
	DB	0bdH
	DB	0d7H
	DB	0bdH
	DB	018H
	DB	0c6H
	DB	0b6H
	DB	0b5H
	DB	075H
	DB	0adH
	DB	0f7H
	DB	0bdH
	DB	018H
	DB	0c6H
	DB	0b6H
	DB	0b5H
	DB	0d7H
	DB	0bdH
	DB	018H
	DB	0c6H
	DB	038H
	DB	0c6H
	DB	0b6H
	DB	0b5H
	DB	018H
	DB	0c6H
	DB	0d7H
	DB	0bdH
	DB	096H
	DB	0b5H
	DB	0d7H
	DB	0bdH
	DB	018H
	DB	0c6H
	DB	038H
	DB	0c6H
	DB	0d7H
	DB	0bdH
	DB	096H
	DB	0b5H
	DB	018H
	DB	0c6H
	DB	0d7H
	DB	0bdH
	DB	0f7H
	DB	0bdH
	DB	0b6H
	DB	0b5H
	DB	0f7H
	DB	0bdH
	DB	038H
	DB	0c6H
	DB	0d7H
	DB	0bdH
	DB	055H
	DB	0adH
	DB	0f7H
	DB	0bdH
	DB	0f7H
	DB	0bdH
	DB	0b6H
	DB	0b5H
	DB	096H
	DB	0b5H
	DB	0f7H
	DB	0bdH
	DB	059H
	DB	0ceH
	DB	0b6H
	DB	0b5H
	DB	0d7H
	DB	0bdH
	DB	0b6H
	DB	0b5H
	DB	018H
	DB	0c6H
	DB	038H
	DB	0c6H
	DB	018H
	DB	0c6H
	DB	0d7H
	DB	0bdH
	DB	0f7H
	DB	0bdH
	DB	0f7H
	DB	0bdH
	DB	0f7H
	DB	0bdH
	DB	0b6H
	DB	0b5H
	DB	038H
	DB	0c6H
	DB	0d7H
	DB	0bdH
	DB	0f7H
	DB	0bdH
	DB	0b6H
	DB	0b5H
	DB	0b6H
	DB	0b5H
	DB	038H
	DB	0c6H
	DB	0f7H
	DB	0bdH
	DB	0b6H
	DB	0b5H
	DB	0d7H
	DB	0bdH
	DB	0d7H
	DB	0bdH
	DB	038H
	DB	0c6H
	DB	0d7H
	DB	0bdH
	DB	096H
	DB	0b5H
	DB	0b6H
	DB	0b5H
	DB	0d7H
	DB	0bdH
	DB	0d7H
	DB	0bdH
	DB	038H
	DB	0c6H
	DB	0b6H
	DB	0b5H
	DB	0f7H
	DB	0bdH
	DB	059H
	DB	0ceH
	DB	018H
	DB	0c6H
	DB	0f7H
	DB	0bdH
	DB	0d7H
	DB	0bdH
	DB	0b6H
	DB	0b5H
	DB	0d7H
	DB	0bdH
	DB	0f7H
	DB	0bdH
	DB	038H
	DB	0c6H
	DB	018H
	DB	0c6H
	DB	0f7H
	DB	0bdH
	DB	0f7H
	DB	0bdH
	DB	0d7H
	DB	0bdH
	DB	075H
	DB	0adH
	DB	018H
	DB	0c6H
	DB	0d7H
	DB	0bdH
	DB	018H
	DB	0c6H
	DB	0f7H
	DB	0bdH
	DB	0b6H
	DB	0b5H
	DB	018H
	DB	0c6H
	DB	018H
	DB	0c6H
	DB	0d7H
	DB	0bdH
	DB	0b6H
	DB	0b5H
	DB	0b6H
	DB	0b5H
	DB	018H
	DB	0c6H
	DB	096H
	DB	0b5H
	DB	0d7H
	DB	0bdH
	DB	038H
	DB	0c6H
	DB	0d7H
	DB	0bdH
	DB	018H
	DB	0c6H
	DB	0f7H
	DB	0bdH
	DB	0d7H
	DB	0bdH
	DB	0d7H
	DB	0bdH
	DB	0d7H
	DB	0bdH
	DB	0f7H
	DB	0bdH
	DB	0d7H
	DB	0bdH
	DB	0b6H
	DB	0b5H
	DB	0b6H
	DB	0b5H
	DB	0d7H
	DB	0bdH
	DB	038H
	DB	0c6H
	DB	018H
	DB	0c6H
	DB	0f7H
	DB	0bdH
	DB	0f7H
	DB	0bdH
	DB	0b6H
	DB	0b5H
	DB	0d7H
	DB	0bdH
	DB	0f7H
	DB	0bdH
	DB	0b6H
	DB	0b5H
	DB	055H
	DB	0adH
	DB	018H
	DB	0c6H
	DB	018H
	DB	0c6H
	DB	059H
	DB	0ceH
	DB	0b6H
	DB	0b5H
	DB	096H
	DB	0b5H
	DB	038H
	DB	0c6H
	DB	0f7H
	DB	0bdH
	DB	0f7H
	DB	0bdH
	DB	0b6H
	DB	0b5H
	DB	0d7H
	DB	0bdH
	DB	018H
	DB	0c6H
	DB	0b6H
	DB	0b5H
	DB	0b6H
	DB	0b5H
	DB	018H
	DB	0c6H
	DB	0b6H
	DB	0b5H
	DB	096H
	DB	0b5H
	DB	038H
	DB	0c6H
	DB	0f7H
	DB	0bdH
	DB	0b6H
	DB	0b5H
	DB	0f7H
	DB	0bdH
	DB	0b6H
	DB	0b5H
	DB	0b6H
	DB	0b5H
	DB	0d7H
	DB	0bdH
	DB	0f7H
	DB	0bdH
	DB	038H
	DB	0c6H
	DB	0d7H
	DB	0bdH
	DB	0f7H
	DB	0bdH
	DB	0d7H
	DB	0bdH
	DB	0d7H
	DB	0bdH
	DB	018H
	DB	0c6H
	DB	0d7H
	DB	0bdH
	DB	0f7H
	DB	0bdH
	DB	0d7H
	DB	0bdH
	DB	018H
	DB	0c6H
	DB	0f7H
	DB	0bdH
	DB	0d7H
	DB	0bdH
	DB	0d7H
	DB	0bdH
	DB	0b6H
	DB	0b5H
	DB	096H
	DB	0b5H
	DB	018H
	DB	0c6H
	DB	0f7H
	DB	0bdH
	DB	0d7H
	DB	0bdH
	DB	018H
	DB	0c6H
	DB	0f7H
	DB	0bdH
	DB	0d7H
	DB	0bdH
	DB	0d7H
	DB	0bdH
	DB	018H
	DB	0c6H
	DB	0d7H
	DB	0bdH
	DB	0b6H
	DB	0b5H
	DB	038H
	DB	0c6H
	DB	0f7H
	DB	0bdH
	DB	0b6H
	DB	0b5H
	DB	0d7H
	DB	0bdH
	DB	0f7H
	DB	0bdH
	DB	0f7H
	DB	0bdH
	DB	0d7H
	DB	0bdH
	DB	018H
	DB	0c6H
	DB	0f7H
	DB	0bdH
	DB	0f7H
	DB	0bdH
	DB	0b6H
	DB	0b5H
	DB	0d7H
	DB	0bdH
	DB	018H
	DB	0c6H
	DB	0d7H
	DB	0bdH
	DB	0d7H
	DB	0bdH
	DB	0d7H
	DB	0bdH
	DB	018H
	DB	0c6H
	DB	059H
	DB	0ceH
	DB	0d7H
	DB	0bdH
	DB	018H
	DB	0c6H
	DB	0b6H
	DB	0b5H
	DB	0d7H
	DB	0bdH
	DB	018H
	DB	0c6H
	DB	0f7H
	DB	0bdH
	DB	0d7H
	DB	0bdH
	DB	075H
	DB	0adH
	DB	0b6H
	DB	0b5H
	DB	038H
	DB	0c6H
	DB	0b6H
	DB	0b5H
	DB	0d7H
	DB	0bdH
	DB	0f7H
	DB	0bdH
	DB	0b6H
	DB	0b5H
	DB	018H
	DB	0c6H
	DB	018H
	DB	0c6H
	DB	0b6H
	DB	0b5H
	DB	0f7H
	DB	0bdH
	DB	0b6H
	DB	0b5H
	DB	0d7H
	DB	0bdH
	DB	0d7H
	DB	0bdH
	DB	0f7H
	DB	0bdH
	DB	018H
	DB	0c6H
	DB	0f7H
	DB	0bdH
	DB	0f7H
	DB	0bdH
	DB	0b6H
	DB	0b5H
	DB	0d7H
	DB	0bdH
	DB	0b6H
	DB	0b5H
	DB	0b6H
	DB	0b5H
	DB	096H
	DB	0b5H
	DB	038H
	DB	0c6H
	DB	0f7H
	DB	0bdH
	DB	096H
	DB	0b5H
	DB	0b6H
	DB	0b5H
	DB	0f7H
	DB	0bdH
	DB	018H
	DB	0c6H
	DB	096H
	DB	0b5H
	DB	0d7H
	DB	0bdH
	DB	038H
	DB	0c6H
	DB	018H
	DB	0c6H
	DB	0f7H
	DB	0bdH
	DB	0d7H
	DB	0bdH
	DB	018H
	DB	0c6H
	DB	0f7H
	DB	0bdH
	DB	055H
	DB	0adH
	DB	096H
	DB	0b5H
	DB	0f7H
	DB	0bdH
	DB	0d7H
	DB	0bdH
	DB	038H
	DB	0c6H
	DB	0b6H
	DB	0b5H
	DB	0d7H
	DB	0bdH
	DB	018H
	DB	0c6H
	DB	0d7H
	DB	0bdH
	DB	0d7H
	DB	0bdH
	DB	0f7H
	DB	0bdH
	DB	038H
	DB	0c6H
	DB	0d7H
	DB	0bdH
	DB	096H
	DB	0b5H
	DB	0f7H
	DB	0bdH
	DB	0f7H
	DB	0bdH
	DB	0f7H
	DB	0bdH
	DB	0f7H
	DB	0bdH
	DB	0d7H
	DB	0bdH
	DB	096H
	DB	0b5H
	DB	0f7H
	DB	0bdH
	DB	038H
	DB	0c6H
	DB	0d7H
	DB	0bdH
	DB	0d7H
	DB	0bdH
	DB	018H
	DB	0c6H
	DB	0f7H
	DB	0bdH
	DB	0b6H
	DB	0b5H
	DB	0b6H
	DB	0b5H
	DB	018H
	DB	0c6H
	DB	0f7H
	DB	0bdH
	DB	096H
	DB	0b5H
	DB	0b6H
	DB	0b5H
	DB	038H
	DB	0c6H
	DB	0f7H
	DB	0bdH
	DB	0b6H
	DB	0b5H
	DB	0d7H
	DB	0bdH
	DB	018H
	DB	0c6H
	DB	038H
	DB	0c6H
	DB	0f7H
	DB	0bdH
	DB	0d7H
	DB	0bdH
	DB	0f7H
	DB	0bdH
	DB	0b6H
	DB	0b5H
	DB	0b6H
	DB	0b5H
	DB	0d7H
	DB	0bdH
	DB	038H
	DB	0c6H
	DB	0f7H
	DB	0bdH
	DB	0b6H
	DB	0b5H
	DB	0b6H
	DB	0b5H
	DB	018H
	DB	0c6H
	DB	018H
	DB	0c6H
	DB	0d7H
	DB	0bdH
	DB	0b6H
	DB	0b5H
	DB	096H
	DB	0b5H
	DB	018H
	DB	0c6H
	DB	0d7H
	DB	0bdH
	DB	0f7H
	DB	0bdH
	DB	0d7H
	DB	0bdH
	DB	0b6H
	DB	0b5H
	DB	038H
	DB	0c6H
	DB	096H
	DB	0b5H
	DB	0b6H
	DB	0b5H
	DB	059H
	DB	0ceH
	DB	0f7H
	DB	0bdH
	DB	0b6H
	DB	0b5H
	DB	0f7H
	DB	0bdH
	DB	018H
	DB	0c6H
	DB	0d7H
	DB	0bdH
	DB	0d7H
	DB	0bdH
	DB	0f7H
	DB	0bdH
	DB	0f7H
	DB	0bdH
	DB	0f7H
	DB	0bdH
	DB	0f7H
	DB	0bdH
	DB	0d7H
	DB	0bdH
	DB	0b6H
	DB	0b5H
	DB	018H
	DB	0c6H
	DB	059H
	DB	0ceH
	DB	0b6H
	DB	0b5H
	DB	0b6H
	DB	0b5H
	DB	018H
	DB	0c6H
	DB	0b6H
	DB	0b5H
	DB	0d7H
	DB	0bdH
	DB	0b6H
	DB	0b5H
	DB	018H
	DB	0c6H
	DB	0d7H
	DB	0bdH
	DB	0f7H
	DB	0bdH
	DB	0b6H
	DB	0b5H
	DB	0f7H
	DB	0bdH
	DB	0f7H
	DB	0bdH
	DB	0d7H
	DB	0bdH
	DB	018H
	DB	0c6H
	DB	038H
	DB	0c6H
	DB	0b6H
	DB	0b5H
	DB	096H
	DB	0b5H
	DB	0d7H
	DB	0bdH
	DB	038H
	DB	0c6H
	DB	038H
	DB	0c6H
	DB	0d7H
	DB	0bdH
	DB	0b6H
	DB	0b5H
	DB	038H
	DB	0c6H
	DB	0b6H
	DB	0b5H
	DB	0f7H
	DB	0bdH
	DB	0d7H
	DB	0bdH
	DB	018H
	DB	0c6H
	DB	018H
	DB	0c6H
	DB	0d7H
	DB	0bdH
	DB	075H
	DB	0adH
	DB	0d7H
	DB	0bdH
	DB	018H
	DB	0c6H
	DB	0b6H
	DB	0b5H
	DB	075H
	DB	0adH
	DB	0f7H
	DB	0bdH
	DB	038H
	DB	0c6H
	DB	0f7H
	DB	0bdH
	DB	038H
	DB	0c6H
	DB	096H
	DB	0b5H
	DB	018H
	DB	0c6H
	DB	018H
	DB	0c6H
	DB	0d7H
	DB	0bdH
	DB	0f7H
	DB	0bdH
	DB	0d7H
	DB	0bdH
	DB	038H
	DB	0c6H
	DB	0b6H
	DB	0b5H
	DB	096H
	DB	0b5H
	DB	018H
	DB	0c6H
	DB	0f7H
	DB	0bdH
	DB	0d7H
	DB	0bdH
	DB	0b6H
	DB	0b5H
	DB	0f7H
	DB	0bdH
	DB	018H
	DB	0c6H
	DB	0b6H
	DB	0b5H
	DB	075H
	DB	0adH
	DB	0b6H
	DB	0b5H
	DB	038H
	DB	0c6H
	DB	059H
	DB	0ceH
	DB	018H
	DB	0c6H
	DB	0b6H
	DB	0b5H
	DB	096H
	DB	0b5H
	DB	018H
	DB	0c6H
	DB	018H
	DB	0c6H
	DB	0f7H
	DB	0bdH
	DB	075H
	DB	0adH
	DB	018H
	DB	0c6H
	DB	038H
	DB	0c6H
	DB	0d7H
	DB	0bdH
	DB	0d7H
	DB	0bdH
	DB	096H
	DB	0b5H
	DB	0f7H
	DB	0bdH
	DB	018H
	DB	0c6H
	DB	038H
	DB	0c6H
	DB	018H
	DB	0c6H
	DB	0f7H
	DB	0bdH
	DB	0b6H
	DB	0b5H
	DB	0f7H
	DB	0bdH
	DB	0d7H
	DB	0bdH
	DB	0b6H
	DB	0b5H
	DB	018H
	DB	0c6H
	DB	0b6H
	DB	0b5H
	DB	018H
	DB	0c6H
	DB	0f7H
	DB	0bdH
	DB	0b6H
	DB	0b5H
	DB	0f7H
	DB	0bdH
	DB	038H
	DB	0c6H
	DB	018H
	DB	0c6H
	DB	0b6H
	DB	0b5H
	DB	096H
	DB	0b5H
	DB	0f7H
	DB	0bdH
	DB	0d7H
	DB	0bdH
	DB	0b6H
	DB	0b5H
	DB	0d7H
	DB	0bdH
	DB	018H
	DB	0c6H
	DB	038H
	DB	0c6H
	DB	0f7H
	DB	0bdH
	DB	018H
	DB	0c6H
	DB	0f7H
	DB	0bdH
	DB	0f7H
	DB	0bdH
	DB	018H
	DB	0c6H
	DB	0d7H
	DB	0bdH
	DB	075H
	DB	0adH
	DB	0b6H
	DB	0b5H
	DB	059H
	DB	0ceH
	DB	0f7H
	DB	0bdH
	DB	0d7H
	DB	0bdH
	DB	0f7H
	DB	0bdH
	DB	0f7H
	DB	0bdH
	DB	0f7H
	DB	0bdH
	DB	0f7H
	DB	0bdH
	DB	0b6H
	DB	0b5H
	DB	0d7H
	DB	0bdH
	DB	096H
	DB	0b5H
	DB	038H
	DB	0c6H
	DB	0d7H
	DB	0bdH
	DB	0f7H
	DB	0bdH
	DB	0d7H
	DB	0bdH
	DB	075H
	DB	0adH
	DB	018H
	DB	0c6H
	DB	0d7H
	DB	0bdH
	DB	038H
	DB	0c6H
	DB	0d7H
	DB	0bdH
	DB	0f7H
	DB	0bdH
	DB	0d7H
	DB	0bdH
	DB	0b6H
	DB	0b5H
	DB	0d7H
	DB	0bdH
	DB	0d7H
	DB	0bdH
	DB	0b6H
	DB	0b5H
	DB	038H
	DB	0c6H
	DB	0f7H
	DB	0bdH
	DB	0d7H
	DB	0bdH
	DB	0f7H
	DB	0bdH
	DB	0d7H
	DB	0bdH
	DB	018H
	DB	0c6H
	DB	018H
	DB	0c6H
	DB	0b6H
	DB	0b5H
	DB	0b6H
	DB	0b5H
	DB	038H
	DB	0c6H
	DB	0f7H
	DB	0bdH
	DB	0d7H
	DB	0bdH
	DB	0d7H
	DB	0bdH
	DB	0b6H
	DB	0b5H
	DB	018H
	DB	0c6H
	DB	018H
	DB	0c6H
	DB	0f7H
	DB	0bdH
	DB	0b6H
	DB	0b5H
	DB	0f7H
	DB	0bdH
	DB	018H
	DB	0c6H
	DB	0b6H
	DB	0b5H
	DB	0d7H
	DB	0bdH
	DB	0b6H
	DB	0b5H
	DB	0b6H
	DB	0b5H
	DB	018H
	DB	0c6H
	DB	038H
	DB	0c6H
	DB	018H
	DB	0c6H
	DB	0f7H
	DB	0bdH
	DB	0d7H
	DB	0bdH
	DB	0b6H
	DB	0b5H
	DB	0d7H
	DB	0bdH
	DB	0f7H
	DB	0bdH
	DB	038H
	DB	0c6H
	DB	0d7H
	DB	0bdH
	DB	0d7H
	DB	0bdH
	DB	0f7H
	DB	0bdH
	DB	0f7H
	DB	0bdH
	DB	0b6H
	DB	0b5H
	DB	0d7H
	DB	0bdH
	DB	018H
	DB	0c6H
	DB	0d7H
	DB	0bdH
	DB	0f7H
	DB	0bdH
	DB	0d7H
	DB	0bdH
	DB	0f7H
	DB	0bdH
	DB	0d7H
	DB	0bdH
	DB	0b6H
	DB	0b5H
	DB	018H
	DB	0c6H
	DB	0f7H
	DB	0bdH
	DB	0b6H
	DB	0b5H
	DB	0b6H
	DB	0b5H
	DB	018H
	DB	0c6H
	DB	038H
	DB	0c6H
	DB	0f7H
	DB	0bdH
	DB	0b6H
	DB	0b5H
	DB	0d7H
	DB	0bdH
	DB	0d7H
	DB	0bdH
	DB	038H
	DB	0c6H
	DB	0d7H
	DB	0bdH
	DB	0f7H
	DB	0bdH
	DB	096H
	DB	0b5H
	DB	096H
	DB	0b5H
	DB	018H
	DB	0c6H
	DB	0f7H
	DB	0bdH
	DB	0f7H
	DB	0bdH
	DB	018H
	DB	0c6H
	DB	096H
	DB	0b5H
	DB	0b6H
	DB	0b5H
	DB	018H
	DB	0c6H
	DB	0f7H
	DB	0bdH
	DB	0d7H
	DB	0bdH
	DB	0b6H
	DB	0b5H
	DB	0d7H
	DB	0bdH
	DB	0b6H
	DB	0b5H
	DB	0d7H
	DB	0bdH
	DB	0f7H
	DB	0bdH
	DB	018H
	DB	0c6H
	DB	0f7H
	DB	0bdH
	DB	0b6H
	DB	0b5H
	DB	0d7H
	DB	0bdH
	DB	0b6H
	DB	0b5H
	DB	096H
	DB	0b5H
	DB	096H
	DB	0b5H
	DB	059H
	DB	0ceH
	DB	0d7H
	DB	0bdH
	DB	0d7H
	DB	0bdH
	DB	0b6H
	DB	0b5H
	DB	0b6H
	DB	0b5H
	DB	018H
	DB	0c6H
	DB	0b6H
	DB	0b5H
	DB	0f7H
	DB	0bdH
	DB	0f7H
	DB	0bdH
	DB	0d7H
	DB	0bdH
	DB	0f7H
	DB	0bdH
	DB	0d7H
	DB	0bdH
	DB	018H
	DB	0c6H
	DB	0f7H
	DB	0bdH
	DB	0d7H
	DB	0bdH
	DB	096H
	DB	0b5H
	DB	0b6H
	DB	0b5H
	DB	0d7H
	DB	0bdH
	DB	0f7H
	DB	0bdH
	DB	0b6H
	DB	0b5H
	DB	096H
	DB	0b5H
	DB	059H
	DB	0ceH
	DB	0f7H
	DB	0bdH
	DB	0b6H
	DB	0b5H
	DB	096H
	DB	0b5H
	DB	038H
	DB	0c6H
	DB	0d7H
	DB	0bdH
	DB	0b6H
	DB	0b5H
	DB	0f7H
	DB	0bdH
	DB	018H
	DB	0c6H
	DB	0f7H
	DB	0bdH
	DB	0b6H
	DB	0b5H
	DB	075H
	DB	0adH
	DB	0d7H
	DB	0bdH
	DB	018H
	DB	0c6H
	DB	038H
	DB	0c6H
	DB	0f7H
	DB	0bdH
	DB	0b6H
	DB	0b5H
	DB	0d7H
	DB	0bdH
	DB	0f7H
	DB	0bdH
	DB	0d7H
	DB	0bdH
	DB	055H
	DB	0adH
	DB	0f7H
	DB	0bdH
	DB	018H
	DB	0c6H
	DB	0b6H
	DB	0b5H
	DB	018H
	DB	0c6H
	DB	0f7H
	DB	0bdH
	DB	0f7H
	DB	0bdH
	DB	0d7H
	DB	0bdH
	DB	0d7H
	DB	0bdH
	DB	018H
	DB	0c6H
	DB	059H
	DB	0ceH
	DB	0f7H
	DB	0bdH
	DB	0b6H
	DB	0b5H
	DB	0f7H
	DB	0bdH
	DB	0b6H
	DB	0b5H
	DB	0f7H
	DB	0bdH
	DB	0d7H
	DB	0bdH
	DB	0f7H
	DB	0bdH
	DB	018H
	DB	0c6H
	DB	0b6H
	DB	0b5H
	DB	096H
	DB	0b5H
	DB	059H
	DB	0ceH
	DB	018H
	DB	0c6H
	DB	0b6H
	DB	0b5H
	DB	0b6H
	DB	0b5H
	DB	096H
	DB	0b5H
	DB	0d7H
	DB	0bdH
	DB	018H
	DB	0c6H
	DB	059H
	DB	0ceH
	DB	0f7H
	DB	0bdH
	DB	096H
	DB	0b5H
	DB	0f7H
	DB	0bdH
	DB	055H
	DB	0adH
	DB	0d7H
	DB	0bdH
	DB	0f7H
	DB	0bdH
	DB	0f7H
	DB	0bdH
	DB	018H
	DB	0c6H
	DB	0d7H
	DB	0bdH
	DB	0f7H
	DB	0bdH
	DB	0d7H
	DB	0bdH
	DB	0d7H
	DB	0bdH
	DB	0d7H
	DB	0bdH
	DB	0b6H
	DB	0b5H
	DB	096H
	DB	0b5H
	DB	0f7H
	DB	0bdH
	DB	018H
	DB	0c6H
	DB	096H
	DB	0b5H
	DB	0f7H
	DB	0bdH
	DB	038H
	DB	0c6H
	DB	0b6H
	DB	0b5H
	DB	0b6H
	DB	0b5H
	DB	0f7H
	DB	0bdH
	DB	0d7H
	DB	0bdH
	DB	0b6H
	DB	0b5H
	DB	0f7H
	DB	0bdH
	DB	038H
	DB	0c6H
	DB	0b6H
	DB	0b5H
	DB	0d7H
	DB	0bdH
	DB	0b6H
	DB	0b5H
	DB	018H
	DB	0c6H
	DB	018H
	DB	0c6H
	DB	0b6H
	DB	0b5H
	DB	0b6H
	DB	0b5H
	DB	038H
	DB	0c6H
	DB	018H
	DB	0c6H
	DB	075H
	DB	0adH
	DB	018H
	DB	0c6H
	DB	018H
	DB	0c6H
	DB	0f7H
	DB	0bdH
	DB	0d7H
	DB	0bdH
	DB	0b6H
	DB	0b5H
	DB	0f7H
	DB	0bdH
	DB	0f7H
	DB	0bdH
	DB	0f7H
	DB	0bdH
	DB	0b6H
	DB	0b5H
	DB	038H
	DB	0c6H
	DB	0d7H
	DB	0bdH
	DB	0d7H
	DB	0bdH
	DB	0d7H
	DB	0bdH
	DB	0b6H
	DB	0b5H
	DB	038H
	DB	0c6H
	DB	075H
	DB	0adH
	DB	075H
	DB	0adH
	DB	0f7H
	DB	0bdH
	DB	038H
	DB	0c6H
	DB	018H
	DB	0c6H
	DB	018H
	DB	0c6H
	DB	0d7H
	DB	0bdH
	DB	038H
	DB	0c6H
	DB	018H
	DB	0c6H
	DB	096H
	DB	0b5H
	DB	0b6H
	DB	0b5H
	DB	0f7H
	DB	0bdH
	DB	0f7H
	DB	0bdH
	DB	0b6H
	DB	0b5H
	DB	0f7H
	DB	0bdH
	DB	038H
	DB	0c6H
	DB	0f7H
	DB	0bdH
	DB	0b6H
	DB	0b5H
	DB	0b6H
	DB	0b5H
	DB	0f7H
	DB	0bdH
	DB	038H
	DB	0c6H
	DB	0d7H
	DB	0bdH
	DB	096H
	DB	0b5H
	DB	0d7H
	DB	0bdH
	DB	018H
	DB	0c6H
	DB	0f7H
	DB	0bdH
	DB	0f7H
	DB	0bdH
	DB	096H
	DB	0b5H
	DB	0b6H
	DB	0b5H
	DB	038H
	DB	0c6H
	DB	018H
	DB	0c6H
	DB	0d7H
	DB	0bdH
	DB	096H
	DB	0b5H
	DB	018H
	DB	0c6H
	DB	018H
	DB	0c6H
	DB	0b6H
	DB	0b5H
	DB	0d7H
	DB	0bdH
	DB	0b6H
	DB	0b5H
	DB	0f7H
	DB	0bdH
	DB	0f7H
	DB	0bdH
	DB	038H
	DB	0c6H
	DB	0f7H
	DB	0bdH
	DB	0f7H
	DB	0bdH
	DB	0b6H
	DB	0b5H
	DB	0f7H
	DB	0bdH
	DB	0b6H
	DB	0b5H
	DB	0d7H
	DB	0bdH
	DB	038H
	DB	0c6H
	DB	0b6H
	DB	0b5H
	DB	0f7H
	DB	0bdH
	DB	0f7H
	DB	0bdH
	DB	0d7H
	DB	0bdH
	DB	018H
	DB	0c6H
	DB	0f7H
	DB	0bdH
	DB	0d7H
	DB	0bdH
	DB	0f7H
	DB	0bdH
	DB	075H
	DB	0adH
	DB	0b6H
	DB	0b5H
	DB	0f7H
	DB	0bdH
	DB	0b6H
	DB	0b5H
	DB	0b6H
	DB	0b5H
	DB	0f7H
	DB	0bdH
	DB	038H
	DB	0c6H
	DB	0b6H
	DB	0b5H
	DB	0f7H
	DB	0bdH
	DB	0f7H
	DB	0bdH
	DB	0b6H
	DB	0b5H
	DB	018H
	DB	0c6H
	DB	0f7H
	DB	0bdH
	DB	075H
	DB	0adH
	DB	0f7H
	DB	0bdH
	DB	038H
	DB	0c6H
	DB	0f7H
	DB	0bdH
	DB	0b6H
	DB	0b5H
	DB	0d7H
	DB	0bdH
	DB	0f7H
	DB	0bdH
	DB	0f7H
	DB	0bdH
	DB	018H
	DB	0c6H
	DB	096H
	DB	0b5H
	DB	0d7H
	DB	0bdH
	DB	018H
	DB	0c6H
	DB	018H
	DB	0c6H
	DB	0b6H
	DB	0b5H
	DB	075H
	DB	0adH
	DB	096H
	DB	0b5H
	DB	0d7H
	DB	0bdH
	DB	018H
	DB	0c6H
	DB	0d7H
	DB	0bdH
	DB	018H
	DB	0c6H
	DB	018H
	DB	0c6H
	DB	0f7H
	DB	0bdH
	DB	0d7H
	DB	0bdH
	DB	0d7H
	DB	0bdH
	DB	018H
	DB	0c6H
	DB	0b6H
	DB	0b5H
	DB	034H
	DB	0a5H
	DB	038H
	DB	0c6H
	DB	0b6H
	DB	0b5H
	DB	0f7H
	DB	0bdH
	DB	018H
	DB	0c6H
	DB	0b6H
	DB	0b5H
	DB	038H
	DB	0c6H
	DB	018H
	DB	0c6H
	DB	0b6H
	DB	0b5H
	DB	075H
	DB	0adH
	DB	018H
	DB	0c6H
	DB	018H
	DB	0c6H
	DB	0b6H
	DB	0b5H
	DB	018H
	DB	0c6H
	DB	0b6H
	DB	0b5H
	DB	018H
	DB	0c6H
	DB	018H
	DB	0c6H
	DB	0f7H
	DB	0bdH
	DB	0d7H
	DB	0bdH
	DB	0b6H
	DB	0b5H
	DB	0f7H
	DB	0bdH
	DB	0b6H
	DB	0b5H
	DB	075H
	DB	0adH
	DB	0f7H
	DB	0bdH
	DB	0b6H
	DB	0b5H
	DB	0d7H
	DB	0bdH
	DB	059H
	DB	0ceH
	DB	0f7H
	DB	0bdH
	DB	0b6H
	DB	0b5H
	DB	0b6H
	DB	0b5H
	DB	018H
	DB	0c6H
	DB	0b6H
	DB	0b5H
	DB	0f7H
	DB	0bdH
	DB	059H
	DB	0ceH
	DB	0f7H
	DB	0bdH
	DB	0b6H
	DB	0b5H
	DB	018H
	DB	0c6H
	DB	0b6H
	DB	0b5H
	DB	0d7H
	DB	0bdH
	DB	0b6H
	DB	0b5H
	DB	0b6H
	DB	0b5H
	DB	038H
	DB	0c6H
	DB	0d7H
	DB	0bdH
	DB	0f7H
	DB	0bdH
	DB	0f7H
	DB	0bdH
	DB	096H
	DB	0b5H
	DB	096H
	DB	0b5H
	DB	0f7H
	DB	0bdH
	DB	0f7H
	DB	0bdH
	DB	0d7H
	DB	0bdH
	DB	0b6H
	DB	0b5H
	DB	018H
	DB	0c6H
	DB	096H
	DB	0b5H
	DB	0f7H
	DB	0bdH
	DB	0b6H
	DB	0b5H
	DB	0b6H
	DB	0b5H
	DB	018H
	DB	0c6H
	DB	038H
	DB	0c6H
	DB	0b6H
	DB	0b5H
	DB	0d7H
	DB	0bdH
	DB	0d7H
	DB	0bdH
	DB	0b6H
	DB	0b5H
	DB	0d7H
	DB	0bdH
	DB	0f7H
	DB	0bdH
	DB	0f7H
	DB	0bdH
	DB	0f7H
	DB	0bdH
	DB	0b6H
	DB	0b5H
	DB	096H
	DB	0b5H
	DB	0d7H
	DB	0bdH
	DB	038H
	DB	0c6H
	DB	0f7H
	DB	0bdH
	DB	0f7H
	DB	0bdH
	DB	0f7H
	DB	0bdH
	DB	0b6H
	DB	0b5H
	DB	0b6H
	DB	0b5H
	DB	0d7H
	DB	0bdH
	DB	0f7H
	DB	0bdH
	DB	0f7H
	DB	0bdH
	DB	0d7H
	DB	0bdH
	DB	0b6H
	DB	0b5H
	DB	0b6H
	DB	0b5H
	DB	0b6H
	DB	0b5H
	DB	0d7H
	DB	0bdH
	DB	018H
	DB	0c6H
	DB	038H
	DB	0c6H
	DB	018H
	DB	0c6H
	DB	0d7H
	DB	0bdH
	DB	075H
	DB	0adH
	DB	0f7H
	DB	0bdH
	DB	0b6H
	DB	0b5H
	DB	0d7H
	DB	0bdH
	DB	038H
	DB	0c6H
	DB	0d7H
	DB	0bdH
	DB	0d7H
	DB	0bdH
	DB	0f7H
	DB	0bdH
	DB	0f7H
	DB	0bdH
	DB	0b6H
	DB	0b5H
	DB	018H
	DB	0c6H
	DB	0d7H
	DB	0bdH
	DB	0d7H
	DB	0bdH
	DB	0d7H
	DB	0bdH
	DB	096H
	DB	0b5H
	DB	0d7H
	DB	0bdH
	DB	075H
	DB	0adH
	DB	038H
	DB	0c6H
	DB	018H
	DB	0c6H
	DB	0d7H
	DB	0bdH
	DB	096H
	DB	0b5H
	DB	0b6H
	DB	0b5H
	DB	0d7H
	DB	0bdH
	DB	018H
	DB	0c6H
	DB	038H
	DB	0c6H
	DB	0f7H
	DB	0bdH
	DB	0d7H
	DB	0bdH
	DB	0f7H
	DB	0bdH
	DB	096H
	DB	0b5H
	DB	0f7H
	DB	0bdH
	DB	0f7H
	DB	0bdH
	DB	0f7H
	DB	0bdH
	DB	018H
	DB	0c6H
	DB	0b6H
	DB	0b5H
	DB	0b6H
	DB	0b5H
	DB	0f7H
	DB	0bdH
	DB	0f7H
	DB	0bdH
	DB	034H
	DB	0a5H
	DB	0b6H
	DB	0b5H
	DB	038H
	DB	0c6H
	DB	038H
	DB	0c6H
	DB	018H
	DB	0c6H
	DB	096H
	DB	0b5H
	DB	0f7H
	DB	0bdH
	DB	0f7H
	DB	0bdH
	DB	0b6H
	DB	0b5H
	DB	0b6H
	DB	0b5H
	DB	059H
	DB	0ceH
	DB	038H
	DB	0c6H
	DB	0f7H
	DB	0bdH
	DB	0f7H
	DB	0bdH
	DB	0b6H
	DB	0b5H
	DB	0b6H
	DB	0b5H
	DB	038H
	DB	0c6H
	DB	0f7H
	DB	0bdH
	DB	0d7H
	DB	0bdH
	DB	096H
	DB	0b5H
	DB	0f7H
	DB	0bdH
	DB	038H
	DB	0c6H
	DB	0f7H
	DB	0bdH
	DB	0b6H
	DB	0b5H
	DB	0f7H
	DB	0bdH
	DB	0f7H
	DB	0bdH
	DB	0b6H
	DB	0b5H
	DB	0d7H
	DB	0bdH
	DB	059H
	DB	0ceH
	DB	0f7H
	DB	0bdH
	DB	0b6H
	DB	0b5H
	DB	0d7H
	DB	0bdH
	DB	075H
	DB	0adH
	DB	018H
	DB	0c6H
	DB	0b6H
	DB	0b5H
	DB	0b6H
	DB	0b5H
	DB	038H
	DB	0c6H
	DB	0f7H
	DB	0bdH
	DB	0d7H
	DB	0bdH
	DB	018H
	DB	0c6H
	DB	0d7H
	DB	0bdH
	DB	096H
	DB	0b5H
	DB	018H
	DB	0c6H
	DB	0d7H
	DB	0bdH
	DB	0b6H
	DB	0b5H
	DB	0f7H
	DB	0bdH
	DB	018H
	DB	0c6H
	DB	0f7H
	DB	0bdH
	DB	0b6H
	DB	0b5H
	DB	0f7H
	DB	0bdH
	DB	0d7H
	DB	0bdH
	DB	096H
	DB	0b5H
	DB	096H
	DB	0b5H
	DB	018H
	DB	0c6H
	DB	018H
	DB	0c6H
	DB	0f7H
	DB	0bdH
	DB	0d7H
	DB	0bdH
	DB	018H
	DB	0c6H
	DB	0b6H
	DB	0b5H
	DB	018H
	DB	0c6H
	DB	0f7H
	DB	0bdH
	DB	018H
	DB	0c6H
	DB	096H
	DB	0b5H
	DB	0b6H
	DB	0b5H
	DB	018H
	DB	0c6H
	DB	0d7H
	DB	0bdH
	DB	059H
	DB	0ceH
	DB	0f7H
	DB	0bdH
	DB	0b6H
	DB	0b5H
	DB	018H
	DB	0c6H
	DB	0d7H
	DB	0bdH
	DB	0d7H
	DB	0bdH
	DB	038H
	DB	0c6H
	DB	0b6H
	DB	0b5H
	DB	075H
	DB	0adH
	DB	018H
	DB	0c6H
	DB	018H
	DB	0c6H
	DB	0f7H
	DB	0bdH
	DB	0d7H
	DB	0bdH
	DB	0b6H
	DB	0b5H
	DB	038H
	DB	0c6H
	DB	0b6H
	DB	0b5H
	DB	0d7H
	DB	0bdH
	DB	0d7H
	DB	0bdH
	DB	0f7H
	DB	0bdH
	DB	0b6H
	DB	0b5H
	DB	0b6H
	DB	0b5H
	DB	038H
	DB	0c6H
	DB	059H
	DB	0ceH
	DB	0f7H
	DB	0bdH
	DB	0b6H
	DB	0b5H
	DB	0d7H
	DB	0bdH
	DB	0f7H
	DB	0bdH
	DB	0b6H
	DB	0b5H
	DB	0b6H
	DB	0b5H
	DB	038H
	DB	0c6H
	DB	0d7H
	DB	0bdH
	DB	0d7H
	DB	0bdH
	DB	0f7H
	DB	0bdH
	DB	096H
	DB	0b5H
	DB	0d7H
	DB	0bdH
	DB	038H
	DB	0c6H
	DB	018H
	DB	0c6H
	DB	0b6H
	DB	0b5H
	DB	0d7H
	DB	0bdH
	DB	0f7H
	DB	0bdH
	DB	0b6H
	DB	0b5H
	DB	0f7H
	DB	0bdH
	DB	0b6H
	DB	0b5H
	DB	038H
	DB	0c6H
	DB	018H
	DB	0c6H
	DB	0f7H
	DB	0bdH
	DB	0d7H
	DB	0bdH
	DB	075H
	DB	0adH
	DB	018H
	DB	0c6H
	DB	018H
	DB	0c6H
	DB	0d7H
	DB	0bdH
	DB	0f7H
	DB	0bdH
	DB	0b6H
	DB	0b5H
	DB	0f7H
	DB	0bdH
	DB	018H
	DB	0c6H
	DB	0d7H
	DB	0bdH
	DB	0d7H
	DB	0bdH
	DB	0f7H
	DB	0bdH
	DB	0b6H
	DB	0b5H
	DB	018H
	DB	0c6H
	DB	0f7H
	DB	0bdH
	DB	0b6H
	DB	0b5H
	DB	0f7H
	DB	0bdH
	DB	0d7H
	DB	0bdH
	DB	0d7H
	DB	0bdH
	DB	038H
	DB	0c6H
	DB	0f7H
	DB	0bdH
	DB	018H
	DB	0c6H
	DB	0b6H
	DB	0b5H
	DB	0b6H
	DB	0b5H
	DB	0f7H
	DB	0bdH
	DB	055H
	DB	0adH
	DB	0d7H
	DB	0bdH
	DB	038H
	DB	0c6H
	DB	0b6H
	DB	0b5H
	DB	0f7H
	DB	0bdH
	DB	0d7H
	DB	0bdH
	DB	0d7H
	DB	0bdH
	DB	0d7H
	DB	0bdH
	DB	0b6H
	DB	0b5H
	DB	018H
	DB	0c6H
	DB	096H
	DB	0b5H
	DB	0b6H
	DB	0b5H
	DB	0f7H
	DB	0bdH
	DB	0f7H
	DB	0bdH
	DB	038H
	DB	0c6H
	DB	0b6H
	DB	0b5H
	DB	0d7H
	DB	0bdH
	DB	0d7H
	DB	0bdH
	DB	0b6H
	DB	0b5H
	DB	018H
	DB	0c6H
	DB	0f7H
	DB	0bdH
	DB	0f7H
	DB	0bdH
	DB	0b6H
	DB	0b5H
	DB	0f7H
	DB	0bdH
	DB	018H
	DB	0c6H
	DB	0f7H
	DB	0bdH
	DB	0d7H
	DB	0bdH
	DB	096H
	DB	0b5H
	DB	055H
	DB	0adH
	DB	0d7H
	DB	0bdH
	DB	018H
	DB	0c6H
	DB	0b6H
	DB	0b5H
	DB	0b6H
	DB	0b5H
	DB	018H
	DB	0c6H
	DB	018H
	DB	0c6H
	DB	0d7H
	DB	0bdH
	DB	0f7H
	DB	0bdH
	DB	0f7H
	DB	0bdH
	DB	0b6H
	DB	0b5H
	DB	055H
	DB	0adH
	DB	038H
	DB	0c6H
	DB	018H
	DB	0c6H
	DB	018H
	DB	0c6H
	DB	018H
	DB	0c6H
	DB	0b6H
	DB	0b5H
	DB	0d7H
	DB	0bdH
	DB	018H
	DB	0c6H
	DB	0d7H
	DB	0bdH
	DB	0b6H
	DB	0b5H
	DB	0f7H
	DB	0bdH
	DB	0b6H
	DB	0b5H
	DB	0d7H
	DB	0bdH
	DB	018H
	DB	0c6H
	DB	0b6H
	DB	0b5H
	DB	0b6H
	DB	0b5H
	DB	018H
	DB	0c6H
	DB	0f7H
	DB	0bdH
	DB	0f7H
	DB	0bdH
	DB	0b6H
	DB	0b5H
	DB	0d7H
	DB	0bdH
	DB	0b6H
	DB	0b5H
	DB	096H
	DB	0b5H
	DB	038H
	DB	0c6H
	DB	0d7H
	DB	0bdH
	DB	075H
	DB	0adH
	DB	038H
	DB	0c6H
	DB	0f7H
	DB	0bdH
	DB	0b6H
	DB	0b5H
	DB	0b6H
	DB	0b5H
	DB	038H
	DB	0c6H
	DB	0d7H
	DB	0bdH
	DB	096H
	DB	0b5H
	DB	038H
	DB	0c6H
	DB	018H
	DB	0c6H
	DB	018H
	DB	0c6H
	DB	018H
	DB	0c6H
	DB	0b6H
	DB	0b5H
	DB	0d7H
	DB	0bdH
	DB	0b6H
	DB	0b5H
	DB	0b6H
	DB	0b5H
	DB	059H
	DB	0ceH
	DB	0b6H
	DB	0b5H
	DB	0f7H
	DB	0bdH
	DB	018H
	DB	0c6H
	DB	0b6H
	DB	0b5H
	DB	0b6H
	DB	0b5H
	DB	0b6H
	DB	0b5H
	DB	0f7H
	DB	0bdH
	DB	0d7H
	DB	0bdH
	DB	0b6H
	DB	0b5H
	DB	038H
	DB	0c6H
	DB	0d7H
	DB	0bdH
	DB	0b6H
	DB	0b5H
	DB	0f7H
	DB	0bdH
	DB	0b6H
	DB	0b5H
	DB	0d7H
	DB	0bdH
	DB	059H
	DB	0ceH
	DB	018H
	DB	0c6H
	DB	096H
	DB	0b5H
	DB	0b6H
	DB	0b5H
	DB	0d7H
	DB	0bdH
	DB	0b6H
	DB	0b5H
	DB	0d7H
	DB	0bdH
	DB	0b6H
	DB	0b5H
	DB	018H
	DB	0c6H
	DB	0d7H
	DB	0bdH
	DB	0b6H
	DB	0b5H
	DB	0d7H
	DB	0bdH
	DB	038H
	DB	0c6H
	DB	018H
	DB	0c6H
	DB	0d7H
	DB	0bdH
	DB	0f7H
	DB	0bdH
	DB	0b6H
	DB	0b5H
	DB	0d7H
	DB	0bdH
	DB	0b6H
	DB	0b5H
	DB	0b6H
	DB	0b5H
	DB	018H
	DB	0c6H
	DB	0f7H
	DB	0bdH
	DB	055H
	DB	0adH
	DB	055H
	DB	0adH
	DB	038H
	DB	0c6H
	DB	018H
	DB	0c6H
	DB	0f7H
	DB	0bdH
	DB	0d7H
	DB	0bdH
	DB	038H
	DB	0c6H
	DB	0f7H
	DB	0bdH
	DB	075H
	DB	0adH
	DB	0b6H
	DB	0b5H
	DB	0f7H
	DB	0bdH
	DB	0f7H
	DB	0bdH
	DB	018H
	DB	0c6H
	DB	018H
	DB	0c6H
	DB	0d7H
	DB	0bdH
	DB	018H
	DB	0c6H
	DB	0f7H
	DB	0bdH
	DB	0b6H
	DB	0b5H
	DB	018H
	DB	0c6H
	DB	0b6H
	DB	0b5H
	DB	0d7H
	DB	0bdH
	DB	0f7H
	DB	0bdH
	DB	096H
	DB	0b5H
	DB	096H
	DB	0b5H
	DB	055H
	DB	0adH
	DB	038H
	DB	0c6H
	DB	0f7H
	DB	0bdH
	DB	0d7H
	DB	0bdH
	DB	0d7H
	DB	0bdH
	DB	075H
	DB	0adH
	DB	0b6H
	DB	0b5H
	DB	038H
	DB	0c6H
	DB	059H
	DB	0ceH
	DB	0d7H
	DB	0bdH
	DB	0f7H
	DB	0bdH
	DB	0f7H
	DB	0bdH
	DB	0d7H
	DB	0bdH
	DB	018H
	DB	0c6H
	DB	0f7H
	DB	0bdH
	DB	0b6H
	DB	0b5H
	DB	0f7H
	DB	0bdH
	DB	0f7H
	DB	0bdH
	DB	0f7H
	DB	0bdH
	DB	0b6H
	DB	0b5H
	DB	0b6H
	DB	0b5H
	DB	075H
	DB	0adH
	DB	0b6H
	DB	0b5H
	DB	018H
	DB	0c6H
	DB	059H
	DB	0ceH
	DB	0f7H
	DB	0bdH
	DB	0b6H
	DB	0b5H
	DB	0f7H
	DB	0bdH
	DB	096H
	DB	0b5H
	DB	075H
	DB	0adH
	DB	0b6H
	DB	0b5H
	DB	038H
	DB	0c6H
	DB	0f7H
	DB	0bdH
	DB	0f7H
	DB	0bdH
	DB	038H
	DB	0c6H
	DB	0f7H
	DB	0bdH
	DB	0b6H
	DB	0b5H
	DB	018H
	DB	0c6H
	DB	0f7H
	DB	0bdH
	DB	0b6H
	DB	0b5H
	DB	075H
	DB	0adH
	DB	038H
	DB	0c6H
	DB	038H
	DB	0c6H
	DB	0b6H
	DB	0b5H
	DB	096H
	DB	0b5H
	DB	038H
	DB	0c6H
	DB	0f7H
	DB	0bdH
	DB	096H
	DB	0b5H
	DB	0b6H
	DB	0b5H
	DB	0f7H
	DB	0bdH
	DB	018H
	DB	0c6H
	DB	0f7H
	DB	0bdH
	DB	0f7H
	DB	0bdH
	DB	0b6H
	DB	0b5H
	DB	018H
	DB	0c6H
	DB	0d7H
	DB	0bdH
	DB	075H
	DB	0adH
	DB	018H
	DB	0c6H
	DB	038H
	DB	0c6H
	DB	0f7H
	DB	0bdH
	DB	038H
	DB	0c6H
	DB	0f7H
	DB	0bdH
	DB	0b6H
	DB	0b5H
	DB	0d7H
	DB	0bdH
	DB	018H
	DB	0c6H
	DB	075H
	DB	0adH
	DB	018H
	DB	0c6H
	DB	059H
	DB	0ceH
	DB	0d7H
	DB	0bdH
	DB	075H
	DB	0adH
	DB	0f7H
	DB	0bdH
	DB	018H
	DB	0c6H
	DB	096H
	DB	0b5H
	DB	0b6H
	DB	0b5H
	DB	038H
	DB	0c6H
	DB	0b6H
	DB	0b5H
	DB	0b6H
	DB	0b5H
	DB	096H
	DB	0b5H
	DB	038H
	DB	0c6H
	DB	018H
	DB	0c6H
	DB	0f7H
	DB	0bdH
	DB	0d7H
	DB	0bdH
	DB	018H
	DB	0c6H
	DB	096H
	DB	0b5H
	DB	055H
	DB	0adH
	DB	0d7H
	DB	0bdH
	DB	038H
	DB	0c6H
	DB	059H
	DB	0ceH
	DB	0f7H
	DB	0bdH
	DB	0b6H
	DB	0b5H
	DB	018H
	DB	0c6H
	DB	0f7H
	DB	0bdH
	DB	0b6H
	DB	0b5H
	DB	038H
	DB	0c6H
	DB	0b6H
	DB	0b5H
	DB	096H
	DB	0b5H
	DB	038H
	DB	0c6H
	DB	0f7H
	DB	0bdH
	DB	0f7H
	DB	0bdH
	DB	038H
	DB	0c6H
	DB	096H
	DB	0b5H
	DB	038H
	DB	0c6H
	DB	0f7H
	DB	0bdH
	DB	018H
	DB	0c6H
	DB	0d7H
	DB	0bdH
	DB	0b6H
	DB	0b5H
	DB	055H
	DB	0adH
	DB	0b6H
	DB	0b5H
	DB	038H
	DB	0c6H
	DB	0f7H
	DB	0bdH
	DB	0d7H
	DB	0bdH
	DB	0f7H
	DB	0bdH
	DB	018H
	DB	0c6H
	DB	0d7H
	DB	0bdH
	DB	0f7H
	DB	0bdH
	DB	0f7H
	DB	0bdH
	DB	038H
	DB	0c6H
	DB	0d7H
	DB	0bdH
	DB	0b6H
	DB	0b5H
	DB	0d7H
	DB	0bdH
	DB	0d7H
	DB	0bdH
	DB	018H
	DB	0c6H
	DB	038H
	DB	0c6H
	DB	0f7H
	DB	0bdH
	DB	096H
	DB	0b5H
	DB	0d7H
	DB	0bdH
	DB	018H
	DB	0c6H
	DB	075H
	DB	0adH
	DB	096H
	DB	0b5H
	DB	0f7H
	DB	0bdH
	DB	038H
	DB	0c6H
	DB	018H
	DB	0c6H
	DB	0f7H
	DB	0bdH
	DB	0f7H
	DB	0bdH
	DB	0b6H
	DB	0b5H
	DB	0f7H
	DB	0bdH
	DB	018H
	DB	0c6H
	DB	0f7H
	DB	0bdH
	DB	018H
	DB	0c6H
	DB	0b6H
	DB	0b5H
	DB	0d7H
	DB	0bdH
	DB	018H
	DB	0c6H
	DB	0b6H
	DB	0b5H
	DB	0b6H
	DB	0b5H
	DB	096H
	DB	0b5H
	DB	0f7H
	DB	0bdH
	DB	0f7H
	DB	0bdH
	DB	0f7H
	DB	0bdH
	DB	0b6H
	DB	0b5H
	DB	0f7H
	DB	0bdH
	DB	0f7H
	DB	0bdH
	DB	018H
	DB	0c6H
	DB	018H
	DB	0c6H
	DB	0d7H
	DB	0bdH
	DB	038H
	DB	0c6H
	DB	0b6H
	DB	0b5H
	DB	0b6H
	DB	0b5H
	DB	0b6H
	DB	0b5H
	DB	0b6H
	DB	0b5H
	DB	0d7H
	DB	0bdH
	DB	018H
	DB	0c6H
	DB	0f7H
	DB	0bdH
	DB	0d7H
	DB	0bdH
	DB	0f7H
	DB	0bdH
	DB	018H
	DB	0c6H
	DB	0f7H
	DB	0bdH
	DB	0b6H
	DB	0b5H
	DB	0d7H
	DB	0bdH
	DB	096H
	DB	0b5H
	DB	096H
	DB	0b5H
	DB	038H
	DB	0c6H
	DB	018H
	DB	0c6H
	DB	038H
	DB	0c6H
	DB	0b6H
	DB	0b5H
	DB	0b6H
	DB	0b5H
	DB	0f7H
	DB	0bdH
	DB	0f7H
	DB	0bdH
	DB	038H
	DB	0c6H
	DB	0d7H
	DB	0bdH
	DB	0f7H
	DB	0bdH
	DB	0b6H
	DB	0b5H
	DB	038H
	DB	0c6H
	DB	0f7H
	DB	0bdH
	DB	0f7H
	DB	0bdH
	DB	0f7H
	DB	0bdH
	DB	096H
	DB	0b5H
	DB	0d7H
	DB	0bdH
	DB	0b6H
	DB	0b5H
	DB	018H
	DB	0c6H
	DB	096H
	DB	0b5H
	DB	0b6H
	DB	0b5H
	DB	0f7H
	DB	0bdH
	DB	018H
	DB	0c6H
	DB	0f7H
	DB	0bdH
	DB	0d7H
	DB	0bdH
	DB	0b6H
	DB	0b5H
	DB	0b6H
	DB	0b5H
	DB	0b6H
	DB	0b5H
	DB	038H
	DB	0c6H
	DB	038H
	DB	0c6H
	DB	0b6H
	DB	0b5H
	DB	0f7H
	DB	0bdH
	DB	0f7H
	DB	0bdH
	DB	0b6H
	DB	0b5H
	DB	018H
	DB	0c6H
	DB	0d7H
	DB	0bdH
	DB	0d7H
	DB	0bdH
	DB	0f7H
	DB	0bdH
	DB	0b6H
	DB	0b5H
	DB	018H
	DB	0c6H
	DB	0b6H
	DB	0b5H
	DB	0f7H
	DB	0bdH
	DB	0b6H
	DB	0b5H
	DB	018H
	DB	0c6H
	DB	018H
	DB	0c6H
	DB	0d7H
	DB	0bdH
	DB	096H
	DB	0b5H
	DB	0d7H
	DB	0bdH
	DB	0f7H
	DB	0bdH
	DB	0d7H
	DB	0bdH
	DB	018H
	DB	0c6H
	DB	0b6H
	DB	0b5H
	DB	096H
	DB	0b5H
	DB	018H
	DB	0c6H
	DB	0f7H
	DB	0bdH
	DB	0b6H
	DB	0b5H
	DB	0b6H
	DB	0b5H
	DB	018H
	DB	0c6H
	DB	0f7H
	DB	0bdH
	DB	096H
	DB	0b5H
	DB	0b6H
	DB	0b5H
	DB	018H
	DB	0c6H
	DB	038H
	DB	0c6H
	DB	0f7H
	DB	0bdH
	DB	0d7H
	DB	0bdH
	DB	0d7H
	DB	0bdH
	DB	096H
	DB	0b5H
	DB	0b6H
	DB	0b5H
	DB	038H
	DB	0c6H
	DB	0d7H
	DB	0bdH
	DB	0d7H
	DB	0bdH
	DB	0f7H
	DB	0bdH
	DB	018H
	DB	0c6H
	DB	0d7H
	DB	0bdH
	DB	096H
	DB	0b5H
	DB	0f7H
	DB	0bdH
	DB	0d7H
	DB	0bdH
	DB	0b6H
	DB	0b5H
	DB	038H
	DB	0c6H
	DB	0f7H
	DB	0bdH
	DB	096H
	DB	0b5H
	DB	0d7H
	DB	0bdH
	DB	0d7H
	DB	0bdH
	DB	0b6H
	DB	0b5H
	DB	0f7H
	DB	0bdH
	DB	059H
	DB	0ceH
	DB	096H
	DB	0b5H
	DB	0b6H
	DB	0b5H
	DB	096H
	DB	0b5H
	DB	096H
	DB	0b5H
	DB	0f7H
	DB	0bdH
	DB	0f7H
	DB	0bdH
	DB	018H
	DB	0c6H
	DB	018H
	DB	0c6H
	DB	0d7H
	DB	0bdH
	DB	0d7H
	DB	0bdH
	DB	018H
	DB	0c6H
	DB	0f7H
	DB	0bdH
	DB	0b6H
	DB	0b5H
	DB	0f7H
	DB	0bdH
	DB	0f7H
	DB	0bdH
	DB	0d7H
	DB	0bdH
	DB	0f7H
	DB	0bdH
	DB	0d7H
	DB	0bdH
	DB	018H
	DB	0c6H
	DB	0d7H
	DB	0bdH
	DB	075H
	DB	0adH
	DB	075H
	DB	0adH
	DB	059H
	DB	0ceH
	DB	0d7H
	DB	0bdH
	DB	018H
	DB	0c6H
	DB	0b6H
	DB	0b5H
	DB	018H
	DB	0c6H
	DB	0d7H
	DB	0bdH
	DB	0d7H
	DB	0bdH
	DB	055H
	DB	0adH
	DB	018H
	DB	0c6H
	DB	038H
	DB	0c6H
	DB	0b6H
	DB	0b5H
	DB	0d7H
	DB	0bdH
	DB	0f7H
	DB	0bdH
	DB	0d7H
	DB	0bdH
	DB	018H
	DB	0c6H
	DB	0f7H
	DB	0bdH
	DB	0f7H
	DB	0bdH
	DB	0b6H
	DB	0b5H
	DB	0f7H
	DB	0bdH
	DB	0b6H
	DB	0b5H
	DB	0b6H
	DB	0b5H
	DB	0d7H
	DB	0bdH
	DB	034H
	DB	0a5H
	DB	018H
	DB	0c6H
	DB	0f7H
	DB	0bdH
	DB	018H
	DB	0c6H
	DB	0d7H
	DB	0bdH
	DB	0f7H
	DB	0bdH
	DB	0b6H
	DB	0b5H
	DB	096H
	DB	0b5H
	DB	038H
	DB	0c6H
	DB	018H
	DB	0c6H
	DB	0f7H
	DB	0bdH
	DB	0d7H
	DB	0bdH
	DB	0b6H
	DB	0b5H
	DB	038H
	DB	0c6H
	DB	018H
	DB	0c6H
	DB	0b6H
	DB	0b5H
	DB	0b6H
	DB	0b5H
	DB	018H
	DB	0c6H
	DB	018H
	DB	0c6H
	DB	0b6H
	DB	0b5H
	DB	0b6H
	DB	0b5H
	DB	075H
	DB	0adH
	DB	0f7H
	DB	0bdH
	DB	0d7H
	DB	0bdH
	DB	059H
	DB	0ceH
	DB	0f7H
	DB	0bdH
	DB	0d7H
	DB	0bdH
	DB	0d7H
	DB	0bdH
	DB	055H
	DB	0adH
	DB	055H
	DB	0adH
	DB	0b6H
	DB	0b5H
	DB	059H
	DB	0ceH
	DB	0f7H
	DB	0bdH
	DB	0b6H
	DB	0b5H
	DB	0d7H
	DB	0bdH
	DB	0d7H
	DB	0bdH
	DB	0b6H
	DB	0b5H
	DB	0d7H
	DB	0bdH
	DB	0d7H
	DB	0bdH
	DB	0b6H
	DB	0b5H
	DB	0d7H
	DB	0bdH
	DB	038H
	DB	0c6H
	DB	018H
	DB	0c6H
	DB	0d7H
	DB	0bdH
	DB	0b6H
	DB	0b5H
	DB	0d7H
	DB	0bdH
	DB	018H
	DB	0c6H
	DB	0b6H
	DB	0b5H
	DB	0d7H
	DB	0bdH
	DB	0b6H
	DB	0b5H
	DB	0f7H
	DB	0bdH
	DB	0f7H
	DB	0bdH
	DB	0f7H
	DB	0bdH
	DB	0b6H
	DB	0b5H
	DB	0f7H
	DB	0bdH
	DB	0f7H
	DB	0bdH
	DB	096H
	DB	0b5H
	DB	0d7H
	DB	0bdH
	DB	0f7H
	DB	0bdH
	DB	018H
	DB	0c6H
	DB	018H
	DB	0c6H
	DB	0f7H
	DB	0bdH
	DB	0b6H
	DB	0b5H
	DB	0b6H
	DB	0b5H
	DB	0d7H
	DB	0bdH
	DB	0b6H
	DB	0b5H
	DB	018H
	DB	0c6H
	DB	038H
	DB	0c6H
	DB	018H
	DB	0c6H
	DB	096H
	DB	0b5H
	DB	0b6H
	DB	0b5H
	DB	038H
	DB	0c6H
	DB	096H
	DB	0b5H
	DB	038H
	DB	0c6H
	DB	018H
	DB	0c6H
	DB	0b6H
	DB	0b5H
	DB	0b6H
	DB	0b5H
	DB	0b6H
	DB	0b5H
	DB	038H
	DB	0c6H
	DB	038H
	DB	0c6H
	DB	0d7H
	DB	0bdH
	DB	0d7H
	DB	0bdH
	DB	0b6H
	DB	0b5H
	DB	0d7H
	DB	0bdH
	DB	0d7H
	DB	0bdH
	DB	0f7H
	DB	0bdH
	DB	038H
	DB	0c6H
	DB	0d7H
	DB	0bdH
	DB	018H
	DB	0c6H
	DB	0d7H
	DB	0bdH
	DB	0d7H
	DB	0bdH
	DB	018H
	DB	0c6H
	DB	096H
	DB	0b5H
	DB	038H
	DB	0c6H
	DB	018H
	DB	0c6H
	DB	0b6H
	DB	0b5H
	DB	018H
	DB	0c6H
	DB	0d7H
	DB	0bdH
	DB	0d7H
	DB	0bdH
	DB	0f7H
	DB	0bdH
	DB	096H
	DB	0b5H
	DB	018H
	DB	0c6H
	DB	038H
	DB	0c6H
	DB	0f7H
	DB	0bdH
	DB	0b6H
	DB	0b5H
	DB	0b6H
	DB	0b5H
	DB	055H
	DB	0adH
	DB	0f7H
	DB	0bdH
	DB	038H
	DB	0c6H
	DB	0f7H
	DB	0bdH
	DB	0b6H
	DB	0b5H
	DB	0d7H
	DB	0bdH
	DB	038H
	DB	0c6H
	DB	0d7H
	DB	0bdH
	DB	0d7H
	DB	0bdH
	DB	0d7H
	DB	0bdH
	DB	0d7H
	DB	0bdH
	DB	0f7H
	DB	0bdH
	DB	096H
	DB	0b5H
	DB	075H
	DB	0adH
	DB	038H
	DB	0c6H
	DB	018H
	DB	0c6H
	DB	018H
	DB	0c6H
	DB	0d7H
	DB	0bdH
	DB	0b6H
	DB	0b5H
	DB	0f7H
	DB	0bdH
	DB	0d7H
	DB	0bdH
	DB	075H
	DB	0adH
	DB	0b6H
	DB	0b5H
	DB	0f7H
	DB	0bdH
	DB	0d7H
	DB	0bdH
	DB	038H
	DB	0c6H
	DB	0f7H
	DB	0bdH
	DB	0f7H
	DB	0bdH
	DB	075H
	DB	0adH
	DB	0d7H
	DB	0bdH
	DB	018H
	DB	0c6H
	DB	0d7H
	DB	0bdH
	DB	0f7H
	DB	0bdH
	DB	0b6H
	DB	0b5H
	DB	0b6H
	DB	0b5H
	DB	0f7H
	DB	0bdH
	DB	0f7H
	DB	0bdH
	DB	0b6H
	DB	0b5H
	DB	055H
	DB	0adH
	DB	018H
	DB	0c6H
	DB	018H
	DB	0c6H
	DB	096H
	DB	0b5H
	DB	0b6H
	DB	0b5H
	DB	038H
	DB	0c6H
	DB	018H
	DB	0c6H
	DB	018H
	DB	0c6H
	DB	0d7H
	DB	0bdH
	DB	0b6H
	DB	0b5H
	DB	018H
	DB	0c6H
	DB	0f7H
	DB	0bdH
	DB	0f7H
	DB	0bdH
	DB	075H
	DB	0adH
	DB	018H
	DB	0c6H
	DB	0f7H
	DB	0bdH
	DB	096H
	DB	0b5H
	DB	018H
	DB	0c6H
	DB	0f7H
	DB	0bdH
	DB	0d7H
	DB	0bdH
	DB	0d7H
	DB	0bdH
	DB	018H
	DB	0c6H
	DB	0b6H
	DB	0b5H
	DB	0b6H
	DB	0b5H
	DB	096H
	DB	0b5H
	DB	018H
	DB	0c6H
	DB	038H
	DB	0c6H
	DB	0d7H
	DB	0bdH
	DB	018H
	DB	0c6H
	DB	0d7H
	DB	0bdH
	DB	0d7H
	DB	0bdH
	DB	0f7H
	DB	0bdH
	DB	0d7H
	DB	0bdH
	DB	018H
	DB	0c6H
	DB	018H
	DB	0c6H
	DB	0f7H
	DB	0bdH
	DB	0d7H
	DB	0bdH
	DB	038H
	DB	0c6H
	DB	0f7H
	DB	0bdH
	DB	0f7H
	DB	0bdH
	DB	0b6H
	DB	0b5H
	DB	0d7H
	DB	0bdH
	DB	038H
	DB	0c6H
	DB	096H
	DB	0b5H
	DB	0f7H
	DB	0bdH
	DB	0b6H
	DB	0b5H
	DB	0f7H
	DB	0bdH
	DB	0d7H
	DB	0bdH
	DB	0d7H
	DB	0bdH
	DB	0f7H
	DB	0bdH
	DB	0d7H
	DB	0bdH
	DB	0b6H
	DB	0b5H
	DB	018H
	DB	0c6H
	DB	0f7H
	DB	0bdH
	DB	0d7H
	DB	0bdH
	DB	038H
	DB	0c6H
	DB	0b6H
	DB	0b5H
	DB	0d7H
	DB	0bdH
	DB	0f7H
	DB	0bdH
	DB	0b6H
	DB	0b5H
	DB	018H
	DB	0c6H
	DB	0d7H
	DB	0bdH
	DB	096H
	DB	0b5H
	DB	0f7H
	DB	0bdH
	DB	018H
	DB	0c6H
	DB	0f7H
	DB	0bdH
	DB	096H
	DB	0b5H
	DB	0d7H
	DB	0bdH
	DB	0b6H
	DB	0b5H
	DB	018H
	DB	0c6H
	DB	018H
	DB	0c6H
	DB	0d7H
	DB	0bdH
	DB	0b6H
	DB	0b5H
	DB	0f7H
	DB	0bdH
	DB	018H
	DB	0c6H
	DB	018H
	DB	0c6H
	DB	0d7H
	DB	0bdH
	DB	0d7H
	DB	0bdH
	DB	0f7H
	DB	0bdH
	DB	0f7H
	DB	0bdH
	DB	0d7H
	DB	0bdH
	DB	0d7H
	DB	0bdH
	DB	0d7H
	DB	0bdH
	DB	038H
	DB	0c6H
	DB	0d7H
	DB	0bdH
	DB	0d7H
	DB	0bdH
	DB	096H
	DB	0b5H
	DB	0b6H
	DB	0b5H
	DB	038H
	DB	0c6H
	DB	0d7H
	DB	0bdH
	DB	0b6H
	DB	0b5H
	DB	0b6H
	DB	0b5H
	DB	0b6H
	DB	0b5H
	DB	0d7H
	DB	0bdH
	DB	0d7H
	DB	0bdH
	DB	0f7H
	DB	0bdH
	DB	018H
	DB	0c6H
	DB	0b6H
	DB	0b5H
	DB	018H
	DB	0c6H
	DB	0f7H
	DB	0bdH
	DB	096H
	DB	0b5H
	DB	0d7H
	DB	0bdH
	DB	0f7H
	DB	0bdH
	DB	018H
	DB	0c6H
	DB	018H
	DB	0c6H
	DB	0f7H
	DB	0bdH
	DB	096H
	DB	0b5H
	DB	075H
	DB	0adH
	DB	0f7H
	DB	0bdH
	DB	0b6H
	DB	0b5H
	DB	0b6H
	DB	0b5H
	DB	038H
	DB	0c6H
	DB	0d7H
	DB	0bdH
	DB	0b6H
	DB	0b5H
	DB	075H
	DB	0adH
	DB	0d7H
	DB	0bdH
	DB	038H
	DB	0c6H
	DB	018H
	DB	0c6H
	DB	0d7H
	DB	0bdH
	DB	0f7H
	DB	0bdH
	DB	0f7H
	DB	0bdH
	DB	0f7H
	DB	0bdH
	DB	018H
	DB	0c6H
	DB	0d7H
	DB	0bdH
	DB	0b6H
	DB	0b5H
	DB	018H
	DB	0c6H
	DB	0d7H
	DB	0bdH
	DB	0b6H
	DB	0b5H
	DB	0f7H
	DB	0bdH
	DB	0d7H
	DB	0bdH
	DB	038H
	DB	0c6H
	DB	0b6H
	DB	0b5H
	DB	055H
	DB	0adH
	DB	0d7H
	DB	0bdH
	DB	059H
	DB	0ceH
	DB	0b6H
	DB	0b5H
	DB	0f7H
	DB	0bdH
	DB	0d7H
	DB	0bdH
	DB	0d7H
	DB	0bdH
	DB	0f7H
	DB	0bdH
	DB	0b6H
	DB	0b5H
	DB	055H
	DB	0adH
	DB	018H
	DB	0c6H
	DB	038H
	DB	0c6H
	DB	0b6H
	DB	0b5H
	DB	096H
	DB	0b5H
	DB	0f7H
	DB	0bdH
	DB	0b6H
	DB	0b5H
	DB	0f7H
	DB	0bdH
	DB	038H
	DB	0c6H
	DB	018H
	DB	0c6H
	DB	0b6H
	DB	0b5H
	DB	0d7H
	DB	0bdH
	DB	096H
	DB	0b5H
	DB	0d7H
	DB	0bdH
	DB	0b6H
	DB	0b5H
	DB	0b6H
	DB	0b5H
	DB	059H
	DB	0ceH
	DB	018H
	DB	0c6H
	DB	018H
	DB	0c6H
	DB	0b6H
	DB	0b5H
	DB	0f7H
	DB	0bdH
	DB	0b6H
	DB	0b5H
	DB	075H
	DB	0adH
	DB	0f7H
	DB	0bdH
	DB	0d7H
	DB	0bdH
	DB	0b6H
	DB	0b5H
	DB	0d7H
	DB	0bdH
	DB	0f7H
	DB	0bdH
	DB	0f7H
	DB	0bdH
	DB	018H
	DB	0c6H
	DB	0f7H
	DB	0bdH
	DB	096H
	DB	0b5H
	DB	018H
	DB	0c6H
	DB	018H
	DB	0c6H
	DB	0b6H
	DB	0b5H
	DB	0d7H
	DB	0bdH
	DB	0f7H
	DB	0bdH
	DB	0d7H
	DB	0bdH
	DB	0b6H
	DB	0b5H
	DB	059H
	DB	0ceH
	DB	0d7H
	DB	0bdH
	DB	0f7H
	DB	0bdH
	DB	0d7H
	DB	0bdH
	DB	075H
	DB	0adH
	DB	0b6H
	DB	0b5H
	DB	075H
	DB	0adH
	DB	059H
	DB	0ceH
	DB	018H
	DB	0c6H
	DB	0d7H
	DB	0bdH
	DB	096H
	DB	0b5H
	DB	0b6H
	DB	0b5H
	DB	0b6H
	DB	0b5H
	DB	0d7H
	DB	0bdH
	DB	0d7H
	DB	0bdH
	DB	018H
	DB	0c6H
	DB	0d7H
	DB	0bdH
	DB	0f7H
	DB	0bdH
	DB	018H
	DB	0c6H
	DB	0d7H
	DB	0bdH
	DB	0d7H
	DB	0bdH
	DB	096H
	DB	0b5H
	DB	018H
	DB	0c6H
	DB	0f7H
	DB	0bdH
	DB	0d7H
	DB	0bdH
	DB	0d7H
	DB	0bdH
	DB	0b6H
	DB	0b5H
	DB	096H
	DB	0b5H
	DB	018H
	DB	0c6H
	DB	0f7H
	DB	0bdH
	DB	018H
	DB	0c6H
	DB	0d7H
	DB	0bdH
	DB	096H
	DB	0b5H
	DB	0f7H
	DB	0bdH
	DB	0b6H
	DB	0b5H
	DB	0b6H
	DB	0b5H
	DB	038H
	DB	0c6H
	DB	0f7H
	DB	0bdH
	DB	0b6H
	DB	0b5H
	DB	0b6H
	DB	0b5H
	DB	0f7H
	DB	0bdH
	DB	0d7H
	DB	0bdH
	DB	018H
	DB	0c6H
	DB	0b6H
	DB	0b5H
	DB	018H
	DB	0c6H
	DB	096H
	DB	0b5H
	DB	096H
	DB	0b5H
	DB	0f7H
	DB	0bdH
	DB	0d7H
	DB	0bdH
	DB	059H
	DB	0ceH
	DB	018H
	DB	0c6H
	DB	0b6H
	DB	0b5H
	DB	0b6H
	DB	0b5H
	DB	018H
	DB	0c6H
	DB	0f7H
	DB	0bdH
	DB	0f7H
	DB	0bdH
	DB	0f7H
	DB	0bdH
	DB	0f7H
	DB	0bdH
	DB	0f7H
	DB	0bdH
	DB	0f7H
	DB	0bdH
	DB	0b6H
	DB	0b5H
	DB	0f7H
	DB	0bdH
	DB	038H
	DB	0c6H
	DB	0d7H
	DB	0bdH
	DB	096H
	DB	0b5H
	DB	0b6H
	DB	0b5H
	DB	0d7H
	DB	0bdH
	DB	0f7H
	DB	0bdH
	DB	0d7H
	DB	0bdH
	DB	018H
	DB	0c6H
	DB	018H
	DB	0c6H
	DB	0b6H
	DB	0b5H
	DB	018H
	DB	0c6H
	DB	0f7H
	DB	0bdH
	DB	0f7H
	DB	0bdH
	DB	0d7H
	DB	0bdH
	DB	096H
	DB	0b5H
	DB	0f7H
	DB	0bdH
	DB	018H
	DB	0c6H
	DB	038H
	DB	0c6H
	DB	096H
	DB	0b5H
	DB	075H
	DB	0adH
	DB	075H
	DB	0adH
	DB	038H
	DB	0c6H
	DB	059H
	DB	0ceH
	DB	018H
	DB	0c6H
	DB	0d7H
	DB	0bdH
	DB	0b6H
	DB	0b5H
	DB	038H
	DB	0c6H
	DB	0d7H
	DB	0bdH
	DB	0b6H
	DB	0b5H
	DB	0d7H
	DB	0bdH
	DB	096H
	DB	0b5H
	DB	018H
	DB	0c6H
	DB	0b6H
	DB	0b5H
	DB	0d7H
	DB	0bdH
	DB	038H
	DB	0c6H
	DB	0f7H
	DB	0bdH
	DB	018H
	DB	0c6H
	DB	0d7H
	DB	0bdH
	DB	0b6H
	DB	0b5H
	DB	038H
	DB	0c6H
	DB	0b6H
	DB	0b5H
	DB	075H
	DB	0adH
	DB	038H
	DB	0c6H
	DB	018H
	DB	0c6H
	DB	096H
	DB	0b5H
	DB	0f7H
	DB	0bdH
	DB	0f7H
	DB	0bdH
	DB	0f7H
	DB	0bdH
	DB	096H
	DB	0b5H
	DB	018H
	DB	0c6H
	DB	038H
	DB	0c6H
	DB	0b6H
	DB	0b5H
	DB	0d7H
	DB	0bdH
	DB	0f7H
	DB	0bdH
	DB	0d7H
	DB	0bdH
	DB	0f7H
	DB	0bdH
	DB	018H
	DB	0c6H
	DB	0d7H
	DB	0bdH
	DB	0b6H
	DB	0b5H
	DB	0f7H
	DB	0bdH
	DB	0f7H
	DB	0bdH
	DB	0b6H
	DB	0b5H
	DB	0d7H
	DB	0bdH
	DB	0d7H
	DB	0bdH
	DB	038H
	DB	0c6H
	DB	0f7H
	DB	0bdH
	DB	0b6H
	DB	0b5H
	DB	0b6H
	DB	0b5H
	DB	0b6H
	DB	0b5H
	DB	0d7H
	DB	0bdH
	DB	0f7H
	DB	0bdH
	DB	096H
	DB	0b5H
	DB	038H
	DB	0c6H
	DB	018H
	DB	0c6H
	DB	075H
	DB	0adH
	DB	0d7H
	DB	0bdH
	DB	018H
	DB	0c6H
	DB	0f7H
	DB	0bdH
	DB	0b6H
	DB	0b5H
	DB	0d7H
	DB	0bdH
	DB	0b6H
	DB	0b5H
	DB	0d7H
	DB	0bdH
	DB	0b6H
	DB	0b5H
	DB	038H
	DB	0c6H
	DB	038H
	DB	0c6H
	DB	0f7H
	DB	0bdH
	DB	0f7H
	DB	0bdH
	DB	0f7H
	DB	0bdH
	DB	0f7H
	DB	0bdH
	DB	0d7H
	DB	0bdH
	DB	0b6H
	DB	0b5H
	DB	0b6H
	DB	0b5H
	DB	018H
	DB	0c6H
	DB	038H
	DB	0c6H
	DB	0f7H
	DB	0bdH
	DB	0f7H
	DB	0bdH
	DB	0f7H
	DB	0bdH
	DB	0d7H
	DB	0bdH
	DB	0f7H
	DB	0bdH
	DB	018H
	DB	0c6H
	DB	0f7H
	DB	0bdH
	DB	096H
	DB	0b5H
	DB	0d7H
	DB	0bdH
	DB	0d7H
	DB	0bdH
	DB	0f7H
	DB	0bdH
	DB	0f7H
	DB	0bdH
	DB	096H
	DB	0b5H
	DB	0d7H
	DB	0bdH
	DB	0f7H
	DB	0bdH
	DB	0d7H
	DB	0bdH
	DB	059H
	DB	0ceH
	DB	0f7H
	DB	0bdH
	DB	096H
	DB	0b5H
	DB	018H
	DB	0c6H
	DB	018H
	DB	0c6H
	DB	0f7H
	DB	0bdH
	DB	0b6H
	DB	0b5H
	DB	0b6H
	DB	0b5H
	DB	0b6H
	DB	0b5H
	DB	0d7H
	DB	0bdH
	DB	0d7H
	DB	0bdH
	DB	038H
	DB	0c6H
	DB	018H
	DB	0c6H
	DB	0f7H
	DB	0bdH
	DB	096H
	DB	0b5H
	DB	0b6H
	DB	0b5H
	DB	075H
	DB	0adH
	DB	0d7H
	DB	0bdH
	DB	018H
	DB	0c6H
	DB	0b6H
	DB	0b5H
	DB	0d7H
	DB	0bdH
	DB	0f7H
	DB	0bdH
	DB	018H
	DB	0c6H
	DB	018H
	DB	0c6H
	DB	0b6H
	DB	0b5H
	DB	018H
	DB	0c6H
	DB	018H
	DB	0c6H
	DB	0d7H
	DB	0bdH
	DB	075H
	DB	0adH
	DB	0d7H
	DB	0bdH
	DB	018H
	DB	0c6H
	DB	059H
	DB	0ceH
	DB	0d7H
	DB	0bdH
	DB	0b6H
	DB	0b5H
	DB	0b6H
	DB	0b5H
	DB	0b6H
	DB	0b5H
	DB	038H
	DB	0c6H
	DB	0d7H
	DB	0bdH
	DB	096H
	DB	0b5H
	DB	0d7H
	DB	0bdH
	DB	0f7H
	DB	0bdH
	DB	0d7H
	DB	0bdH
	DB	096H
	DB	0b5H
	DB	0d7H
	DB	0bdH
	DB	0f7H
	DB	0bdH
	DB	0f7H
	DB	0bdH
	DB	018H
	DB	0c6H
	DB	0f7H
	DB	0bdH
	DB	096H
	DB	0b5H
	DB	0d7H
	DB	0bdH
	DB	0f7H
	DB	0bdH
	DB	018H
	DB	0c6H
	DB	018H
	DB	0c6H
	DB	0f7H
	DB	0bdH
	DB	096H
	DB	0b5H
	DB	0b6H
	DB	0b5H
	DB	0d7H
	DB	0bdH
	DB	0f7H
	DB	0bdH
	DB	0b6H
	DB	0b5H
	DB	0f7H
	DB	0bdH
	DB	0f7H
	DB	0bdH
	DB	0d7H
	DB	0bdH
	DB	0f7H
	DB	0bdH
	DB	0d7H
	DB	0bdH
	DB	0f7H
	DB	0bdH
	DB	018H
	DB	0c6H
	DB	0b6H
	DB	0b5H
	DB	0f7H
	DB	0bdH
	DB	0f7H
	DB	0bdH
	DB	0b6H
	DB	0b5H
	DB	0f7H
	DB	0bdH
	DB	0d7H
	DB	0bdH
	DB	0f7H
	DB	0bdH
	DB	038H
	DB	0c6H
	DB	0d7H
	DB	0bdH
	DB	0d7H
	DB	0bdH
	DB	0b6H
	DB	0b5H
	DB	055H
	DB	0adH
	DB	038H
	DB	0c6H
	DB	0b6H
	DB	0b5H
	DB	0f7H
	DB	0bdH
	DB	0f7H
	DB	0bdH
	DB	018H
	DB	0c6H
	DB	0d7H
	DB	0bdH
	DB	0d7H
	DB	0bdH
	DB	0f7H
	DB	0bdH
	DB	0b6H
	DB	0b5H
	DB	0b6H
	DB	0b5H
	DB	0d7H
	DB	0bdH
	DB	096H
	DB	0b5H
	DB	018H
	DB	0c6H
	DB	038H
	DB	0c6H
	DB	0d7H
	DB	0bdH
	DB	0d7H
	DB	0bdH
	DB	0d7H
	DB	0bdH
	DB	0f7H
	DB	0bdH
	DB	0d7H
	DB	0bdH
	DB	018H
	DB	0c6H
	DB	018H
	DB	0c6H
	DB	0f7H
	DB	0bdH
	DB	0b6H
	DB	0b5H
	DB	0b6H
	DB	0b5H
	DB	0f7H
	DB	0bdH
	DB	0d7H
	DB	0bdH
	DB	018H
	DB	0c6H
	DB	018H
	DB	0c6H
	DB	018H
	DB	0c6H
	DB	018H
	DB	0c6H
	DB	0d7H
	DB	0bdH
	DB	018H
	DB	0c6H
	DB	0d7H
	DB	0bdH
	DB	075H
	DB	0adH
	DB	018H
	DB	0c6H
	DB	0b6H
	DB	0b5H
	DB	0d7H
	DB	0bdH
	DB	0d7H
	DB	0bdH
	DB	018H
	DB	0c6H
	DB	075H
	DB	0adH
	DB	0b6H
	DB	0b5H
	DB	0d7H
	DB	0bdH
	DB	0d7H
	DB	0bdH
	DB	0f7H
	DB	0bdH
	DB	0f7H
	DB	0bdH
	DB	0d7H
	DB	0bdH
	DB	038H
	DB	0c6H
	DB	038H
	DB	0c6H
	DB	0b6H
	DB	0b5H
	DB	075H
	DB	0adH
	DB	059H
	DB	0ceH
	DB	0f7H
	DB	0bdH
	DB	0f7H
	DB	0bdH
	DB	096H
	DB	0b5H
	DB	0d7H
	DB	0bdH
	DB	0f7H
	DB	0bdH
	DB	075H
	DB	0adH
	DB	018H
	DB	0c6H
	DB	038H
	DB	0c6H
	DB	0d7H
	DB	0bdH
	DB	0d7H
	DB	0bdH
	DB	0b6H
	DB	0b5H
	DB	055H
	DB	0adH
	DB	0b6H
	DB	0b5H
	DB	0d7H
	DB	0bdH
	DB	018H
	DB	0c6H
	DB	0f7H
	DB	0bdH
	DB	0d7H
	DB	0bdH
	DB	018H
	DB	0c6H
	DB	0d7H
	DB	0bdH
	DB	0b6H
	DB	0b5H
	DB	075H
	DB	0adH
	DB	018H
	DB	0c6H
	DB	018H
	DB	0c6H
	DB	0b6H
	DB	0b5H
	DB	018H
	DB	0c6H
	DB	0d7H
	DB	0bdH
	DB	055H
	DB	0adH
	DB	018H
	DB	0c6H
	DB	038H
	DB	0c6H
	DB	018H
	DB	0c6H
	DB	0d7H
	DB	0bdH
	DB	0b6H
	DB	0b5H
	DB	0d7H
	DB	0bdH
	DB	0f7H
	DB	0bdH
	DB	096H
	DB	0b5H
	DB	018H
	DB	0c6H
	DB	0f7H
	DB	0bdH
	DB	096H
	DB	0b5H
	DB	0f7H
	DB	0bdH
	DB	018H
	DB	0c6H
	DB	0d7H
	DB	0bdH
	DB	018H
	DB	0c6H
	DB	096H
	DB	0b5H
	DB	096H
	DB	0b5H
	DB	0b6H
	DB	0b5H
	DB	0d7H
	DB	0bdH
	DB	0f7H
	DB	0bdH
	DB	038H
	DB	0c6H
	DB	018H
	DB	0c6H
	DB	0f7H
	DB	0bdH
	DB	0d7H
	DB	0bdH
	DB	075H
	DB	0adH
	DB	018H
	DB	0c6H
	DB	0f7H
	DB	0bdH
	DB	0b6H
	DB	0b5H
	DB	038H
	DB	0c6H
	DB	018H
	DB	0c6H
	DB	0f7H
	DB	0bdH
	DB	0d7H
	DB	0bdH
	DB	096H
	DB	0b5H
	DB	018H
	DB	0c6H
	DB	038H
	DB	0c6H
	DB	0d7H
	DB	0bdH
	DB	0d7H
	DB	0bdH
	DB	0d7H
	DB	0bdH
	DB	0b6H
	DB	0b5H
	DB	0b6H
	DB	0b5H
	DB	0f7H
	DB	0bdH
	DB	0b6H
	DB	0b5H
	DB	0d7H
	DB	0bdH
	DB	0f7H
	DB	0bdH
	DB	038H
	DB	0c6H
	DB	038H
	DB	0c6H
	DB	0d7H
	DB	0bdH
	DB	0d7H
	DB	0bdH
	DB	0d7H
	DB	0bdH
	DB	0f7H
	DB	0bdH
	DB	0b6H
	DB	0b5H
	DB	038H
	DB	0c6H
	DB	096H
	DB	0b5H
	DB	0d7H
	DB	0bdH
	DB	096H
	DB	0b5H
	DB	038H
	DB	0c6H
	DB	038H
	DB	0c6H
	DB	018H
	DB	0c6H
	DB	0d7H
	DB	0bdH
	DB	0b6H
	DB	0b5H
	DB	018H
	DB	0c6H
	DB	0b6H
	DB	0b5H
	DB	0f7H
	DB	0bdH
	DB	0d7H
	DB	0bdH
	DB	075H
	DB	0adH
	DB	038H
	DB	0c6H
	DB	018H
	DB	0c6H
	DB	018H
	DB	0c6H
	DB	018H
	DB	0c6H
	DB	0b6H
	DB	0b5H
	DB	096H
	DB	0b5H
	DB	0b6H
	DB	0b5H
	DB	0f7H
	DB	0bdH
	DB	038H
	DB	0c6H
	DB	0d7H
	DB	0bdH
	DB	0b6H
	DB	0b5H
	DB	018H
	DB	0c6H
	DB	018H
	DB	0c6H
	DB	096H
	DB	0b5H
	DB	0d7H
	DB	0bdH
	DB	0d7H
	DB	0bdH
	DB	0f7H
	DB	0bdH
	DB	0f7H
	DB	0bdH
	DB	0f7H
	DB	0bdH
	DB	018H
	DB	0c6H
	DB	0d7H
	DB	0bdH
	DB	0f7H
	DB	0bdH
	DB	0f7H
	DB	0bdH
	DB	0b6H
	DB	0b5H
	DB	0d7H
	DB	0bdH
	DB	0f7H
	DB	0bdH
	DB	0f7H
	DB	0bdH
	DB	0d7H
	DB	0bdH
	DB	0d7H
	DB	0bdH
	DB	0f7H
	DB	0bdH
	DB	0d7H
	DB	0bdH
	DB	0f7H
	DB	0bdH
	DB	075H
	DB	0adH
	DB	018H
	DB	0c6H
	DB	018H
	DB	0c6H
	DB	0f7H
	DB	0bdH
	DB	0f7H
	DB	0bdH
	DB	0d7H
	DB	0bdH
	DB	0b6H
	DB	0b5H
	DB	0b6H
	DB	0b5H
	DB	0f7H
	DB	0bdH
	DB	038H
	DB	0c6H
	DB	0f7H
	DB	0bdH
	DB	0b6H
	DB	0b5H
	DB	0b6H
	DB	0b5H
	DB	0d7H
	DB	0bdH
	DB	018H
	DB	0c6H
	DB	0f7H
	DB	0bdH
	DB	0b6H
	DB	0b5H
	DB	096H
	DB	0b5H
	DB	038H
	DB	0c6H
	DB	0d7H
	DB	0bdH
	DB	096H
	DB	0b5H
	DB	038H
	DB	0c6H
	DB	038H
	DB	0c6H
	DB	0d7H
	DB	0bdH
	DB	018H
	DB	0c6H
	DB	0f7H
	DB	0bdH
	DB	0d7H
	DB	0bdH
	DB	0b6H
	DB	0b5H
	DB	0f7H
	DB	0bdH
	DB	0b6H
	DB	0b5H
	DB	0b6H
	DB	0b5H
	DB	0f7H
	DB	0bdH
	DB	0f7H
	DB	0bdH
	DB	0f7H
	DB	0bdH
	DB	0f7H
	DB	0bdH
	DB	018H
	DB	0c6H
	DB	0f7H
	DB	0bdH
	DB	018H
	DB	0c6H
	DB	0b6H
	DB	0b5H
	DB	0f7H
	DB	0bdH
	DB	0d7H
	DB	0bdH
	DB	0d7H
	DB	0bdH
	DB	018H
	DB	0c6H
	DB	0f7H
	DB	0bdH
	DB	0f7H
	DB	0bdH
	DB	0b6H
	DB	0b5H
	DB	0b6H
	DB	0b5H
	DB	018H
	DB	0c6H
	DB	0f7H
	DB	0bdH
	DB	0b6H
	DB	0b5H
	DB	018H
	DB	0c6H
	DB	038H
	DB	0c6H
	DB	0b6H
	DB	0b5H
	DB	0d7H
	DB	0bdH
	DB	0d7H
	DB	0bdH
	DB	096H
	DB	0b5H
	DB	0b6H
	DB	0b5H
	DB	0f7H
	DB	0bdH
	DB	038H
	DB	0c6H
	DB	0d7H
	DB	0bdH
	DB	0f7H
	DB	0bdH
	DB	0f7H
	DB	0bdH
	DB	0b6H
	DB	0b5H
	DB	096H
	DB	0b5H
	DB	0f7H
	DB	0bdH
	DB	0d7H
	DB	0bdH
	DB	0f7H
	DB	0bdH
	DB	018H
	DB	0c6H
	DB	0b6H
	DB	0b5H
	DB	0f7H
	DB	0bdH
	DB	018H
	DB	0c6H
	DB	0d7H
	DB	0bdH
	DB	0f7H
	DB	0bdH
	DB	018H
	DB	0c6H
	DB	0f7H
	DB	0bdH
	DB	096H
	DB	0b5H
	DB	0f7H
	DB	0bdH
	DB	018H
	DB	0c6H
	DB	038H
	DB	0c6H
	DB	0f7H
	DB	0bdH
	DB	0f7H
	DB	0bdH
	DB	0d7H
	DB	0bdH
	DB	075H
	DB	0adH
	DB	0f7H
	DB	0bdH
	DB	018H
	DB	0c6H
	DB	0b6H
	DB	0b5H
	DB	0f7H
	DB	0bdH
	DB	018H
	DB	0c6H
	DB	0b6H
	DB	0b5H
	DB	096H
	DB	0b5H
	DB	0f7H
	DB	0bdH
	DB	0f7H
	DB	0bdH
	DB	0d7H
	DB	0bdH
	DB	0b6H
	DB	0b5H
	DB	038H
	DB	0c6H
	DB	0b6H
	DB	0b5H
	DB	0d7H
	DB	0bdH
	DB	0f7H
	DB	0bdH
	DB	0b6H
	DB	0b5H
	DB	018H
	DB	0c6H
	DB	018H
	DB	0c6H
	DB	0b6H
	DB	0b5H
	DB	0f7H
	DB	0bdH
	DB	0b6H
	DB	0b5H
	DB	0d7H
	DB	0bdH
	DB	0d7H
	DB	0bdH
	DB	0d7H
	DB	0bdH
	DB	038H
	DB	0c6H
	DB	0f7H
	DB	0bdH
	DB	018H
	DB	0c6H
	DB	096H
	DB	0b5H
	DB	0d7H
	DB	0bdH
	DB	018H
	DB	0c6H
	DB	0b6H
	DB	0b5H
	DB	0f7H
	DB	0bdH
	DB	0f7H
	DB	0bdH
	DB	0b6H
	DB	0b5H
	DB	075H
	DB	0adH
	DB	018H
	DB	0c6H
	DB	059H
	DB	0ceH
	DB	018H
	DB	0c6H
	DB	0d7H
	DB	0bdH
	DB	0f7H
	DB	0bdH
	DB	096H
	DB	0b5H
	DB	034H
	DB	0a5H
	DB	0f7H
	DB	0bdH
	DB	0d7H
	DB	0bdH
	DB	038H
	DB	0c6H
	DB	0d7H
	DB	0bdH
	DB	0d7H
	DB	0bdH
	DB	018H
	DB	0c6H
	DB	0d7H
	DB	0bdH
	DB	0f7H
	DB	0bdH
	DB	0d7H
	DB	0bdH
	DB	0d7H
	DB	0bdH
	DB	0d7H
	DB	0bdH
	DB	0b6H
	DB	0b5H
	DB	0f7H
	DB	0bdH
	DB	018H
	DB	0c6H
	DB	0b6H
	DB	0b5H
	DB	018H
	DB	0c6H
	DB	0d7H
	DB	0bdH
	DB	018H
	DB	0c6H
	DB	0d7H
	DB	0bdH
	DB	0b6H
	DB	0b5H
	DB	0f7H
	DB	0bdH
	DB	0f7H
	DB	0bdH
	DB	0b6H
	DB	0b5H
	DB	0b6H
	DB	0b5H
	DB	018H
	DB	0c6H
	DB	0b6H
	DB	0b5H
	DB	018H
	DB	0c6H
	DB	0b6H
	DB	0b5H
	DB	0f7H
	DB	0bdH
	DB	018H
	DB	0c6H
	DB	0f7H
	DB	0bdH
	DB	0f7H
	DB	0bdH
	DB	0f7H
	DB	0bdH
	DB	075H
	DB	0adH
	DB	018H
	DB	0c6H
	DB	038H
	DB	0c6H
	DB	0f7H
	DB	0bdH
	DB	0b6H
	DB	0b5H
	DB	0f7H
	DB	0bdH
	DB	096H
	DB	0b5H
	DB	096H
	DB	0b5H
	DB	0f7H
	DB	0bdH
	DB	0f7H
	DB	0bdH
	DB	0d7H
	DB	0bdH
	DB	0b6H
	DB	0b5H
	DB	018H
	DB	0c6H
	DB	018H
	DB	0c6H
	DB	0d7H
	DB	0bdH
	DB	0d7H
	DB	0bdH
	DB	096H
	DB	0b5H
	DB	0b6H
	DB	0b5H
	DB	038H
	DB	0c6H
	DB	018H
	DB	0c6H
	DB	0d7H
	DB	0bdH
	DB	0f7H
	DB	0bdH
	DB	0b6H
	DB	0b5H
	DB	0b6H
	DB	0b5H
	DB	0f7H
	DB	0bdH
	DB	038H
	DB	0c6H
	DB	038H
	DB	0c6H
	DB	0d7H
	DB	0bdH
	DB	0b6H
	DB	0b5H
	DB	096H
	DB	0b5H
	DB	0f7H
	DB	0bdH
	DB	096H
	DB	0b5H
	DB	0b6H
	DB	0b5H
	DB	018H
	DB	0c6H
	DB	0b6H
	DB	0b5H
	DB	0b6H
	DB	0b5H
	DB	0d7H
	DB	0bdH
	DB	0b6H
	DB	0b5H
	DB	0b6H
	DB	0b5H
	DB	0f7H
	DB	0bdH
	DB	0d7H
	DB	0bdH
	DB	0f7H
	DB	0bdH
	DB	018H
	DB	0c6H
	DB	0d7H
	DB	0bdH
	DB	096H
	DB	0b5H
	DB	018H
	DB	0c6H
	DB	0d7H
	DB	0bdH
	DB	018H
	DB	0c6H
	DB	0f7H
	DB	0bdH
	DB	0d7H
	DB	0bdH
	DB	0d7H
	DB	0bdH
	DB	0f7H
	DB	0bdH
	DB	0b6H
	DB	0b5H
	DB	0d7H
	DB	0bdH
	DB	0f7H
	DB	0bdH
	DB	0d7H
	DB	0bdH
	DB	0f7H
	DB	0bdH
	DB	018H
	DB	0c6H
	DB	0d7H
	DB	0bdH
	DB	018H
	DB	0c6H
	DB	0d7H
	DB	0bdH
	DB	075H
	DB	0adH
	DB	0d7H
	DB	0bdH
	DB	038H
	DB	0c6H
	DB	0b6H
	DB	0b5H
	DB	018H
	DB	0c6H
	DB	018H
	DB	0c6H
	DB	0f7H
	DB	0bdH
	DB	0f7H
	DB	0bdH
	DB	096H
	DB	0b5H
	DB	0f7H
	DB	0bdH
	DB	0f7H
	DB	0bdH
	DB	096H
	DB	0b5H
	DB	0f7H
	DB	0bdH
	DB	0f7H
	DB	0bdH
	DB	0f7H
	DB	0bdH
	DB	0b6H
	DB	0b5H
	DB	096H
	DB	0b5H
	DB	018H
	DB	0c6H
	DB	018H
	DB	0c6H
	DB	096H
	DB	0b5H
	DB	0f7H
	DB	0bdH
	DB	0b6H
	DB	0b5H
	DB	0d7H
	DB	0bdH
	DB	0f7H
	DB	0bdH
	DB	0d7H
	DB	0bdH
	DB	0b6H
	DB	0b5H
	DB	018H
	DB	0c6H
	DB	0f7H
	DB	0bdH
	DB	0d7H
	DB	0bdH
	DB	038H
	DB	0c6H
	DB	0d7H
	DB	0bdH
	DB	0f7H
	DB	0bdH
	DB	0b6H
	DB	0b5H
	DB	0f7H
	DB	0bdH
	DB	0d7H
	DB	0bdH
	DB	096H
	DB	0b5H
	DB	0b6H
	DB	0b5H
	DB	038H
	DB	0c6H
	DB	0b6H
	DB	0b5H
	DB	018H
	DB	0c6H
	DB	018H
	DB	0c6H
	DB	038H
	DB	0c6H
	DB	0d7H
	DB	0bdH
	DB	0d7H
	DB	0bdH
	DB	0d7H
	DB	0bdH
	DB	0b6H
	DB	0b5H
	DB	038H
	DB	0c6H
	DB	0d7H
	DB	0bdH
	DB	055H
	DB	0adH
	DB	038H
	DB	0c6H
	DB	0f7H
	DB	0bdH
	DB	0d7H
	DB	0bdH
	DB	018H
	DB	0c6H
	DB	0d7H
	DB	0bdH
	DB	096H
	DB	0b5H
	DB	055H
	DB	0adH
	DB	0f7H
	DB	0bdH
	DB	038H
	DB	0c6H
	DB	0f7H
	DB	0bdH
	DB	0b6H
	DB	0b5H
	DB	0f7H
	DB	0bdH
	DB	018H
	DB	0c6H
	DB	0b6H
	DB	0b5H
	DB	0d7H
	DB	0bdH
	DB	038H
	DB	0c6H
	DB	0b6H
	DB	0b5H
	DB	0d7H
	DB	0bdH
	DB	0b6H
	DB	0b5H
	DB	0b6H
	DB	0b5H
	DB	018H
	DB	0c6H
	DB	018H
	DB	0c6H
	DB	0f7H
	DB	0bdH
	DB	075H
	DB	0adH
	DB	0b6H
	DB	0b5H
	DB	0d7H
	DB	0bdH
	DB	0f7H
	DB	0bdH
	DB	0b6H
	DB	0b5H
	DB	0b6H
	DB	0b5H
	DB	038H
	DB	0c6H
	DB	0d7H
	DB	0bdH
	DB	096H
	DB	0b5H
	DB	0b6H
	DB	0b5H
	DB	018H
	DB	0c6H
	DB	018H
	DB	0c6H
	DB	0d7H
	DB	0bdH
	DB	0f7H
	DB	0bdH
	DB	0f7H
	DB	0bdH
	DB	0d7H
	DB	0bdH
	DB	096H
	DB	0b5H
	DB	038H
	DB	0c6H
	DB	018H
	DB	0c6H
	DB	0b6H
	DB	0b5H
	DB	0f7H
	DB	0bdH
	DB	0f7H
	DB	0bdH
	DB	0d7H
	DB	0bdH
	DB	0d7H
	DB	0bdH
	DB	018H
	DB	0c6H
	DB	0b6H
	DB	0b5H
	DB	096H
	DB	0b5H
	DB	038H
	DB	0c6H
	DB	0f7H
	DB	0bdH
	DB	096H
	DB	0b5H
	DB	018H
	DB	0c6H
	DB	018H
	DB	0c6H
	DB	096H
	DB	0b5H
	DB	018H
	DB	0c6H
	DB	0f7H
	DB	0bdH
	DB	0f7H
	DB	0bdH
	DB	0b6H
	DB	0b5H
	DB	018H
	DB	0c6H
	DB	0d7H
	DB	0bdH
	DB	0b6H
	DB	0b5H
	DB	0b6H
	DB	0b5H
	DB	0d7H
	DB	0bdH
	DB	0f7H
	DB	0bdH
	DB	018H
	DB	0c6H
	DB	0d7H
	DB	0bdH
	DB	096H
	DB	0b5H
	DB	0f7H
	DB	0bdH
	DB	0d7H
	DB	0bdH
	DB	0d7H
	DB	0bdH
	DB	0d7H
	DB	0bdH
	DB	0b6H
	DB	0b5H
	DB	018H
	DB	0c6H
	DB	018H
	DB	0c6H
	DB	0f7H
	DB	0bdH
	DB	0b6H
	DB	0b5H
	DB	0f7H
	DB	0bdH
	DB	0f7H
	DB	0bdH
	DB	0b6H
	DB	0b5H
	DB	0b6H
	DB	0b5H
	DB	018H
	DB	0c6H
	DB	018H
	DB	0c6H
	DB	0b6H
	DB	0b5H
	DB	0d7H
	DB	0bdH
	DB	018H
	DB	0c6H
	DB	096H
	DB	0b5H
	DB	0f7H
	DB	0bdH
	DB	0f7H
	DB	0bdH
	DB	0f7H
	DB	0bdH
	DB	0f7H
	DB	0bdH
	DB	0f7H
	DB	0bdH
	DB	018H
	DB	0c6H
	DB	0d7H
	DB	0bdH
	DB	0b6H
	DB	0b5H
	DB	0d7H
	DB	0bdH
	DB	038H
	DB	0c6H
	DB	038H
	DB	0c6H
	DB	0d7H
	DB	0bdH
	DB	0b6H
	DB	0b5H
	DB	0f7H
	DB	0bdH
	DB	0f7H
	DB	0bdH
	DB	018H
	DB	0c6H
	DB	0f7H
	DB	0bdH
	DB	0d7H
	DB	0bdH
	DB	075H
	DB	0adH
	DB	0b6H
	DB	0b5H
	DB	038H
	DB	0c6H
	DB	0b6H
	DB	0b5H
	DB	018H
	DB	0c6H
	DB	018H
	DB	0c6H
	DB	0d7H
	DB	0bdH
	DB	0f7H
	DB	0bdH
	DB	096H
	DB	0b5H
	DB	0d7H
	DB	0bdH
	DB	038H
	DB	0c6H
	DB	0d7H
	DB	0bdH
	DB	0f7H
	DB	0bdH
	DB	0f7H
	DB	0bdH
	DB	0b6H
	DB	0b5H
	DB	0d7H
	DB	0bdH
	DB	0d7H
	DB	0bdH
	DB	038H
	DB	0c6H
	DB	0b6H
	DB	0b5H
	DB	075H
	DB	0adH
	DB	0f7H
	DB	0bdH
	DB	0f7H
	DB	0bdH
	DB	018H
	DB	0c6H
	DB	018H
	DB	0c6H
	DB	096H
	DB	0b5H
	DB	0b6H
	DB	0b5H
	DB	018H
	DB	0c6H
	DB	0f7H
	DB	0bdH
	DB	0d7H
	DB	0bdH
	DB	0b6H
	DB	0b5H
	DB	0b6H
	DB	0b5H
	DB	0b6H
	DB	0b5H
	DB	0d7H
	DB	0bdH
	DB	059H
	DB	0ceH
	DB	018H
	DB	0c6H
	DB	0f7H
	DB	0bdH
	DB	096H
	DB	0b5H
	DB	0d7H
	DB	0bdH
	DB	0f7H
	DB	0bdH
	DB	0b6H
	DB	0b5H
	DB	0f7H
	DB	0bdH
	DB	0f7H
	DB	0bdH
	DB	0d7H
	DB	0bdH
	DB	055H
	DB	0adH
	DB	018H
	DB	0c6H
	DB	059H
	DB	0ceH
	DB	0d7H
	DB	0bdH
	DB	0d7H
	DB	0bdH
	DB	018H
	DB	0c6H
	DB	0b6H
	DB	0b5H
	DB	0b6H
	DB	0b5H
	DB	038H
	DB	0c6H
	DB	0d7H
	DB	0bdH
	DB	0b6H
	DB	0b5H
	DB	0b6H
	DB	0b5H
	DB	0d7H
	DB	0bdH
	DB	059H
	DB	0ceH
	DB	0d7H
	DB	0bdH
	DB	096H
	DB	0b5H
	DB	018H
	DB	0c6H
	DB	038H
	DB	0c6H
	DB	0d7H
	DB	0bdH
	DB	096H
	DB	0b5H
	DB	0f7H
	DB	0bdH
	DB	018H
	DB	0c6H
	DB	0f7H
	DB	0bdH
	DB	096H
	DB	0b5H
	DB	0f7H
	DB	0bdH
	DB	059H
	DB	0ceH
	DB	0f7H
	DB	0bdH
	DB	096H
	DB	0b5H
	DB	0d7H
	DB	0bdH
	DB	0f7H
	DB	0bdH
	DB	096H
	DB	0b5H
	DB	0f7H
	DB	0bdH
	DB	018H
	DB	0c6H
	DB	0d7H
	DB	0bdH
	DB	038H
	DB	0c6H
	DB	0d7H
	DB	0bdH
	DB	075H
	DB	0adH
	DB	0d7H
	DB	0bdH
	DB	038H
	DB	0c6H
	DB	0f7H
	DB	0bdH
	DB	0b6H
	DB	0b5H
	DB	0b6H
	DB	0b5H
	DB	038H
	DB	0c6H
	DB	018H
	DB	0c6H
	DB	0f7H
	DB	0bdH
	DB	0d7H
	DB	0bdH
	DB	0b6H
	DB	0b5H
	DB	018H
	DB	0c6H
	DB	0b6H
	DB	0b5H
	DB	018H
	DB	0c6H
	DB	0f7H
	DB	0bdH
	DB	0f7H
	DB	0bdH
	DB	0b6H
	DB	0b5H
	DB	0f7H
	DB	0bdH
	DB	018H
	DB	0c6H
	DB	0b6H
	DB	0b5H
	DB	0d7H
	DB	0bdH
	DB	0b6H
	DB	0b5H
	DB	055H
	DB	0adH
	DB	0f7H
	DB	0bdH
	DB	038H
	DB	0c6H
	DB	0f7H
	DB	0bdH
	DB	0b6H
	DB	0b5H
	DB	075H
	DB	0adH
	DB	0b6H
	DB	0b5H
	DB	018H
	DB	0c6H
	DB	0f7H
	DB	0bdH
	DB	038H
	DB	0c6H
	DB	0b6H
	DB	0b5H
	DB	075H
	DB	0adH
	DB	0f7H
	DB	0bdH
	DB	018H
	DB	0c6H
	DB	0b6H
	DB	0b5H
	DB	075H
	DB	0adH
	DB	018H
	DB	0c6H
	DB	0d7H
	DB	0bdH
	DB	0b6H
	DB	0b5H
	DB	018H
	DB	0c6H
	DB	0f7H
	DB	0bdH
	DB	018H
	DB	0c6H
	DB	0d7H
	DB	0bdH
	DB	0d7H
	DB	0bdH
	DB	0d7H
	DB	0bdH
	DB	0b6H
	DB	0b5H
	DB	018H
	DB	0c6H
	DB	0d7H
	DB	0bdH
	DB	018H
	DB	0c6H
	DB	0b6H
	DB	0b5H
	DB	0d7H
	DB	0bdH
	DB	038H
	DB	0c6H
	DB	0d7H
	DB	0bdH
	DB	018H
	DB	0c6H
	DB	0f7H
	DB	0bdH
	DB	075H
	DB	0adH
	DB	0b6H
	DB	0b5H
	DB	038H
	DB	0c6H
	DB	018H
	DB	0c6H
	DB	0b6H
	DB	0b5H
	DB	0d7H
	DB	0bdH
	DB	0f7H
	DB	0bdH
	DB	018H
	DB	0c6H
	DB	0d7H
	DB	0bdH
	DB	0b6H
	DB	0b5H
	DB	0f7H
	DB	0bdH
	DB	059H
	DB	0ceH
	DB	0b6H
	DB	0b5H
	DB	0d7H
	DB	0bdH
	DB	018H
	DB	0c6H
	DB	0b6H
	DB	0b5H
	DB	0f7H
	DB	0bdH
	DB	0b6H
	DB	0b5H
	DB	0d7H
	DB	0bdH
	DB	0f7H
	DB	0bdH
	DB	0b6H
	DB	0b5H
	DB	038H
	DB	0c6H
	DB	0f7H
	DB	0bdH
	DB	0d7H
	DB	0bdH
	DB	0d7H
	DB	0bdH
	DB	0d7H
	DB	0bdH
	DB	0b6H
	DB	0b5H
	DB	018H
	DB	0c6H
	DB	0f7H
	DB	0bdH
	DB	018H
	DB	0c6H
	DB	0b6H
	DB	0b5H
	DB	0f7H
	DB	0bdH
	DB	038H
	DB	0c6H
	DB	0b6H
	DB	0b5H
	DB	0b6H
	DB	0b5H
	DB	059H
	DB	0ceH
	DB	0d7H
	DB	0bdH
	DB	0b6H
	DB	0b5H
	DB	0f7H
	DB	0bdH
	DB	0f7H
	DB	0bdH
	DB	0f7H
	DB	0bdH
	DB	0b6H
	DB	0b5H
	DB	0f7H
	DB	0bdH
	DB	0f7H
	DB	0bdH
	DB	055H
	DB	0adH
	DB	0f7H
	DB	0bdH
	DB	038H
	DB	0c6H
	DB	0b6H
	DB	0b5H
	DB	0b6H
	DB	0b5H
	DB	018H
	DB	0c6H
	DB	018H
	DB	0c6H
	DB	0d7H
	DB	0bdH
	DB	0b6H
	DB	0b5H
	DB	0d7H
	DB	0bdH
	DB	038H
	DB	0c6H
	DB	018H
	DB	0c6H
	DB	0b6H
	DB	0b5H
	DB	075H
	DB	0adH
	DB	038H
	DB	0c6H
	DB	0f7H
	DB	0bdH
	DB	0d7H
	DB	0bdH
	DB	096H
	DB	0b5H
	DB	0b6H
	DB	0b5H
	DB	0b6H
	DB	0b5H
	DB	075H
	DB	0adH
	DB	0f7H
	DB	0bdH
	DB	059H
	DB	0ceH
	DB	0f7H
	DB	0bdH
	DB	0b6H
	DB	0b5H
	DB	0f7H
	DB	0bdH
	DB	018H
	DB	0c6H
	DB	096H
	DB	0b5H
	DB	0f7H
	DB	0bdH
	DB	038H
	DB	0c6H
	DB	0b6H
	DB	0b5H
	DB	0b6H
	DB	0b5H
	DB	096H
	DB	0b5H
	DB	096H
	DB	0b5H
	DB	059H
	DB	0ceH
	DB	0f7H
	DB	0bdH
	DB	075H
	DB	0adH
	DB	0d7H
	DB	0bdH
	DB	018H
	DB	0c6H
	DB	096H
	DB	0b5H
	DB	018H
	DB	0c6H
	DB	0d7H
	DB	0bdH
	DB	0b6H
	DB	0b5H
	DB	0f7H
	DB	0bdH
	DB	0d7H
	DB	0bdH
	DB	096H
	DB	0b5H
	DB	0f7H
	DB	0bdH
	DB	059H
	DB	0ceH
	DB	0f7H
	DB	0bdH
	DB	0d7H
	DB	0bdH
	DB	0d7H
	DB	0bdH
	DB	0f7H
	DB	0bdH
	DB	018H
	DB	0c6H
	DB	096H
	DB	0b5H
	DB	0f7H
	DB	0bdH
	DB	0f7H
	DB	0bdH
	DB	0d7H
	DB	0bdH
	DB	0f7H
	DB	0bdH
	DB	0d7H
	DB	0bdH
	DB	0f7H
	DB	0bdH
	DB	0b6H
	DB	0b5H
	DB	0d7H
	DB	0bdH
	DB	0f7H
	DB	0bdH
	DB	0d7H
	DB	0bdH
	DB	0f7H
	DB	0bdH
	DB	0d7H
	DB	0bdH
	DB	096H
	DB	0b5H
	DB	038H
	DB	0c6H
	DB	018H
	DB	0c6H
	DB	0d7H
	DB	0bdH
	DB	0f7H
	DB	0bdH
	DB	0b6H
	DB	0b5H
	DB	0b6H
	DB	0b5H
	DB	0d7H
	DB	0bdH
	DB	038H
	DB	0c6H
	DB	018H
	DB	0c6H
	DB	0f7H
	DB	0bdH
	DB	075H
	DB	0adH
	DB	096H
	DB	0b5H
	DB	038H
	DB	0c6H
	DB	0b6H
	DB	0b5H
	DB	0d7H
	DB	0bdH
	DB	0b6H
	DB	0b5H
	DB	0b6H
	DB	0b5H
	DB	0b6H
	DB	0b5H
	DB	0b6H
	DB	0b5H
	DB	018H
	DB	0c6H
	DB	0b6H
	DB	0b5H
	DB	018H
	DB	0c6H
	DB	018H
	DB	0c6H
	DB	0f7H
	DB	0bdH
	DB	0d7H
	DB	0bdH
	DB	0f7H
	DB	0bdH
	DB	0f7H
	DB	0bdH
	DB	096H
	DB	0b5H
	DB	0b6H
	DB	0b5H
	DB	0b6H
	DB	0b5H
	DB	0f7H
	DB	0bdH
	DB	0b6H
	DB	0b5H
	DB	0b6H
	DB	0b5H
	DB	018H
	DB	0c6H
	DB	0d7H
	DB	0bdH
	DB	018H
	DB	0c6H
	DB	0d7H
	DB	0bdH
	DB	0b6H
	DB	0b5H
	DB	038H
	DB	0c6H
	DB	0f7H
	DB	0bdH
	DB	0b6H
	DB	0b5H
	DB	0f7H
	DB	0bdH
	DB	0b6H
	DB	0b5H
	DB	0f7H
	DB	0bdH
	DB	059H
	DB	0ceH
	DB	018H
	DB	0c6H
	DB	0d7H
	DB	0bdH
	DB	0d7H
	DB	0bdH
	DB	0f7H
	DB	0bdH
	DB	096H
	DB	0b5H
	DB	0f7H
	DB	0bdH
	DB	038H
	DB	0c6H
	DB	0b6H
	DB	0b5H
	DB	0b6H
	DB	0b5H
	DB	0b6H
	DB	0b5H
	DB	018H
	DB	0c6H
	DB	018H
	DB	0c6H
	DB	0f7H
	DB	0bdH
	DB	0b6H
	DB	0b5H
	DB	0d7H
	DB	0bdH
	DB	038H
	DB	0c6H
	DB	0b6H
	DB	0b5H
	DB	0b6H
	DB	0b5H
	DB	038H
	DB	0c6H
	DB	018H
	DB	0c6H
	DB	0f7H
	DB	0bdH
	DB	0d7H
	DB	0bdH
	DB	0f7H
	DB	0bdH
	DB	0b6H
	DB	0b5H
	DB	0f7H
	DB	0bdH
	DB	038H
	DB	0c6H
	DB	0d7H
	DB	0bdH
	DB	0b6H
	DB	0b5H
	DB	0b6H
	DB	0b5H
	DB	0b6H
	DB	0b5H
	DB	018H
	DB	0c6H
	DB	0d7H
	DB	0bdH
	DB	0b6H
	DB	0b5H
	DB	096H
	DB	0b5H
	DB	0d7H
	DB	0bdH
	DB	038H
	DB	0c6H
	DB	0f7H
	DB	0bdH
	DB	018H
	DB	0c6H
	DB	0b6H
	DB	0b5H
	DB	096H
	DB	0b5H
	DB	0b6H
	DB	0b5H
	DB	059H
	DB	0ceH
	DB	018H
	DB	0c6H
	DB	0d7H
	DB	0bdH
	DB	0b6H
	DB	0b5H
	DB	0f7H
	DB	0bdH
	DB	0d7H
	DB	0bdH
	DB	0d7H
	DB	0bdH
	DB	0f7H
	DB	0bdH
	DB	0d7H
	DB	0bdH
	DB	0d7H
	DB	0bdH
	DB	0b6H
	DB	0b5H
	DB	0f7H
	DB	0bdH
	DB	0f7H
	DB	0bdH
	DB	018H
	DB	0c6H
	DB	0f7H
	DB	0bdH
	DB	0f7H
	DB	0bdH
	DB	0d7H
	DB	0bdH
	DB	018H
	DB	0c6H
	DB	038H
	DB	0c6H
	DB	0f7H
	DB	0bdH
	DB	0d7H
	DB	0bdH
	DB	075H
	DB	0adH
	DB	0b6H
	DB	0b5H
	DB	038H
	DB	0c6H
	DB	0b6H
	DB	0b5H
	DB	0b6H
	DB	0b5H
	DB	0f7H
	DB	0bdH
	DB	038H
	DB	0c6H
	DB	0b6H
	DB	0b5H
	DB	096H
	DB	0b5H
	DB	0f7H
	DB	0bdH
	DB	0f7H
	DB	0bdH
	DB	0f7H
	DB	0bdH
	DB	0b6H
	DB	0b5H
	DB	0b6H
	DB	0b5H
	DB	038H
	DB	0c6H
	DB	0f7H
	DB	0bdH
	DB	0d7H
	DB	0bdH
	DB	0d7H
	DB	0bdH
	DB	0d7H
	DB	0bdH
	DB	0b6H
	DB	0b5H
	DB	0f7H
	DB	0bdH
	DB	018H
	DB	0c6H
	DB	0d7H
	DB	0bdH
	DB	038H
	DB	0c6H
	DB	0f7H
	DB	0bdH
	DB	075H
	DB	0adH
	DB	096H
	DB	0b5H
	DB	038H
	DB	0c6H
	DB	0f7H
	DB	0bdH
	DB	0b6H
	DB	0b5H
	DB	0d7H
	DB	0bdH
	DB	018H
	DB	0c6H
	DB	038H
	DB	0c6H
	DB	038H
	DB	0c6H
	DB	0f7H
	DB	0bdH
	DB	0d7H
	DB	0bdH
	DB	096H
	DB	0b5H
	DB	0f7H
	DB	0bdH
	DB	018H
	DB	0c6H
	DB	0b6H
	DB	0b5H
	DB	0f7H
	DB	0bdH
	DB	0f7H
	DB	0bdH
	DB	0b6H
	DB	0b5H
	DB	038H
	DB	0c6H
	DB	0b6H
	DB	0b5H
	DB	0f7H
	DB	0bdH
	DB	0b6H
	DB	0b5H
	DB	075H
	DB	0adH
	DB	0f7H
	DB	0bdH
	DB	018H
	DB	0c6H
	DB	0d7H
	DB	0bdH
	DB	0d7H
	DB	0bdH
	DB	055H
	DB	0adH
	DB	0d7H
	DB	0bdH
	DB	059H
	DB	0ceH
	DB	0f7H
	DB	0bdH
	DB	018H
	DB	0c6H
	DB	0d7H
	DB	0bdH
	DB	0f7H
	DB	0bdH
	DB	0f7H
	DB	0bdH
	DB	0f7H
	DB	0bdH
	DB	0f7H
	DB	0bdH
	DB	096H
	DB	0b5H
	DB	0b6H
	DB	0b5H
	DB	018H
	DB	0c6H
	DB	038H
	DB	0c6H
	DB	038H
	DB	0c6H
	DB	096H
	DB	0b5H
	DB	0b6H
	DB	0b5H
	DB	038H
	DB	0c6H
	DB	018H
	DB	0c6H
	DB	0d7H
	DB	0bdH
	DB	0d7H
	DB	0bdH
	DB	018H
	DB	0c6H
	DB	096H
	DB	0b5H
	DB	018H
	DB	0c6H
	DB	0d7H
	DB	0bdH
	DB	0b6H
	DB	0b5H
	DB	018H
	DB	0c6H
	DB	038H
	DB	0c6H
	DB	0f7H
	DB	0bdH
	DB	0f7H
	DB	0bdH
	DB	0b6H
	DB	0b5H
	DB	018H
	DB	0c6H
	DB	018H
	DB	0c6H
	DB	0f7H
	DB	0bdH
	DB	0b6H
	DB	0b5H
	DB	096H
	DB	0b5H
	DB	0f7H
	DB	0bdH
	DB	018H
	DB	0c6H
	DB	096H
	DB	0b5H
	DB	0f7H
	DB	0bdH
	DB	0f7H
	DB	0bdH
	DB	018H
	DB	0c6H
	DB	0d7H
	DB	0bdH
	DB	0d7H
	DB	0bdH
	DB	0f7H
	DB	0bdH
	DB	0d7H
	DB	0bdH
	DB	0d7H
	DB	0bdH
	DB	096H
	DB	0b5H
	DB	0f7H
	DB	0bdH
	DB	0b6H
	DB	0b5H
	DB	0d7H
	DB	0bdH
	DB	018H
	DB	0c6H
	DB	018H
	DB	0c6H
	DB	0b6H
	DB	0b5H
	DB	0f7H
	DB	0bdH
	DB	0f7H
	DB	0bdH
	DB	0d7H
	DB	0bdH
	DB	018H
	DB	0c6H
	DB	059H
	DB	0ceH
	DB	0f7H
	DB	0bdH
	DB	096H
	DB	0b5H
	DB	0f7H
	DB	0bdH
	DB	0f7H
	DB	0bdH
	DB	096H
	DB	0b5H
	DB	0b6H
	DB	0b5H
	DB	059H
	DB	0ceH
	DB	0f7H
	DB	0bdH
	DB	0b6H
	DB	0b5H
	DB	018H
	DB	0c6H
	DB	0f7H
	DB	0bdH
	DB	0d7H
	DB	0bdH
	DB	0d7H
	DB	0bdH
	DB	038H
	DB	0c6H
	DB	0d7H
	DB	0bdH
	DB	055H
	DB	0adH
	DB	038H
	DB	0c6H
	DB	018H
	DB	0c6H
	DB	0b6H
	DB	0b5H
	DB	055H
	DB	0adH
	DB	018H
	DB	0c6H
	DB	018H
	DB	0c6H
	DB	0b6H
	DB	0b5H
	DB	096H
	DB	0b5H
	DB	018H
	DB	0c6H
	DB	038H
	DB	0c6H
	DB	0d7H
	DB	0bdH
	DB	0d7H
	DB	0bdH
	DB	055H
	DB	0adH
	DB	038H
	DB	0c6H
	DB	018H
	DB	0c6H
	DB	0f7H
	DB	0bdH
	DB	075H
	DB	0adH
	DB	0b6H
	DB	0b5H
	DB	0d7H
	DB	0bdH
	DB	0b6H
	DB	0b5H
	DB	018H
	DB	0c6H
	DB	038H
	DB	0c6H
	DB	0f7H
	DB	0bdH
	DB	0f7H
	DB	0bdH
	DB	0b6H
	DB	0b5H
	DB	0f7H
	DB	0bdH
	DB	0d7H
	DB	0bdH
	DB	038H
	DB	0c6H
	DB	0f7H
	DB	0bdH
	DB	0b6H
	DB	0b5H
	DB	0b6H
	DB	0b5H
	DB	0d7H
	DB	0bdH
	DB	0b6H
	DB	0b5H
	DB	038H
	DB	0c6H
	DB	096H
	DB	0b5H
	DB	0b6H
	DB	0b5H
	DB	059H
	DB	0ceH
	DB	0d7H
	DB	0bdH
	DB	096H
	DB	0b5H
	DB	059H
	DB	0ceH
	DB	0d7H
	DB	0bdH
	DB	0b6H
	DB	0b5H
	DB	0d7H
	DB	0bdH
	DB	0d7H
	DB	0bdH
	DB	0d7H
	DB	0bdH
	DB	0d7H
	DB	0bdH
	DB	0f7H
	DB	0bdH
	DB	018H
	DB	0c6H
	DB	018H
	DB	0c6H
	DB	0b6H
	DB	0b5H
	DB	0f7H
	DB	0bdH
	DB	0f7H
	DB	0bdH
	DB	0d7H
	DB	0bdH
	DB	0b6H
	DB	0b5H
	DB	096H
	DB	0b5H
	DB	0d7H
	DB	0bdH
	DB	018H
	DB	0c6H
	DB	0d7H
	DB	0bdH
	DB	0f7H
	DB	0bdH
	DB	0b6H
	DB	0b5H
	DB	055H
	DB	0adH
	DB	018H
	DB	0c6H
	DB	038H
	DB	0c6H
	DB	0b6H
	DB	0b5H
	DB	0b6H
	DB	0b5H
	DB	096H
	DB	0b5H
	DB	038H
	DB	0c6H
	DB	0d7H
	DB	0bdH
	DB	0d7H
	DB	0bdH
	DB	038H
	DB	0c6H
	DB	0f7H
	DB	0bdH
	DB	096H
	DB	0b5H
	DB	0b6H
	DB	0b5H
	DB	038H
	DB	0c6H
	DB	0f7H
	DB	0bdH
	DB	0f7H
	DB	0bdH
	DB	096H
	DB	0b5H
	DB	018H
	DB	0c6H
	DB	018H
	DB	0c6H
	DB	0b6H
	DB	0b5H
	DB	0b6H
	DB	0b5H
	DB	0f7H
	DB	0bdH
	DB	0b6H
	DB	0b5H
	DB	096H
	DB	0b5H
	DB	0b6H
	DB	0b5H
	DB	018H
	DB	0c6H
	DB	0b6H
	DB	0b5H
	DB	0b6H
	DB	0b5H
	DB	018H
	DB	0c6H
	DB	0f7H
	DB	0bdH
	DB	0f7H
	DB	0bdH
	DB	0d7H
	DB	0bdH
	DB	0d7H
	DB	0bdH
	DB	0d7H
	DB	0bdH
	DB	0f7H
	DB	0bdH
	DB	075H
	DB	0adH
	DB	0f7H
	DB	0bdH
	DB	0d7H
	DB	0bdH
	DB	0f7H
	DB	0bdH
	DB	038H
	DB	0c6H
	DB	0f7H
	DB	0bdH
	DB	018H
	DB	0c6H
	DB	0f7H
	DB	0bdH
	DB	096H
	DB	0b5H
	DB	038H
	DB	0c6H
	DB	0f7H
	DB	0bdH
	DB	096H
	DB	0b5H
	DB	075H
	DB	0adH
	DB	0f7H
	DB	0bdH
	DB	018H
	DB	0c6H
	DB	038H
	DB	0c6H
	DB	0d7H
	DB	0bdH
	DB	038H
	DB	0c6H
	DB	0f7H
	DB	0bdH
	DB	0b6H
	DB	0b5H
	DB	096H
	DB	0b5H
	DB	096H
	DB	0b5H
	DB	038H
	DB	0c6H
	DB	0d7H
	DB	0bdH
	DB	018H
	DB	0c6H
	DB	096H
	DB	0b5H
	DB	018H
	DB	0c6H
	DB	018H
	DB	0c6H
	DB	0f7H
	DB	0bdH
	DB	0b6H
	DB	0b5H
	DB	0b6H
	DB	0b5H
	DB	0f7H
	DB	0bdH
	DB	0d7H
	DB	0bdH
	DB	0b6H
	DB	0b5H
	DB	0d7H
	DB	0bdH
	DB	018H
	DB	0c6H
	DB	018H
	DB	0c6H
	DB	0b6H
	DB	0b5H
	DB	0d7H
	DB	0bdH
	DB	0d7H
	DB	0bdH
	DB	038H
	DB	0c6H
	DB	0f7H
	DB	0bdH
	DB	0f7H
	DB	0bdH
	DB	0b6H
	DB	0b5H
	DB	0f7H
	DB	0bdH
	DB	0b6H
	DB	0b5H
	DB	0f7H
	DB	0bdH
	DB	0d7H
	DB	0bdH
	DB	0b6H
	DB	0b5H
	DB	0b6H
	DB	0b5H
	DB	0d7H
	DB	0bdH
	DB	059H
	DB	0ceH
	DB	018H
	DB	0c6H
	DB	0f7H
	DB	0bdH
	DB	0d7H
	DB	0bdH
	DB	075H
	DB	0adH
	DB	0b6H
	DB	0b5H
	DB	059H
	DB	0ceH
	DB	018H
	DB	0c6H
	DB	018H
	DB	0c6H
	DB	096H
	DB	0b5H
	DB	0f7H
	DB	0bdH
	DB	0d7H
	DB	0bdH
	DB	0d7H
	DB	0bdH
	DB	018H
	DB	0c6H
	DB	0d7H
	DB	0bdH
	DB	0d7H
	DB	0bdH
	DB	0f7H
	DB	0bdH
	DB	0d7H
	DB	0bdH
	DB	075H
	DB	0adH
	DB	0f7H
	DB	0bdH
	DB	059H
	DB	0ceH
	DB	0d7H
	DB	0bdH
	DB	096H
	DB	0b5H
	DB	0d7H
	DB	0bdH
	DB	038H
	DB	0c6H
	DB	018H
	DB	0c6H
	DB	096H
	DB	0b5H
	DB	0b6H
	DB	0b5H
	DB	0d7H
	DB	0bdH
	DB	018H
	DB	0c6H
	DB	0b6H
	DB	0b5H
	DB	018H
	DB	0c6H
	DB	0d7H
	DB	0bdH
	DB	018H
	DB	0c6H
	DB	0d7H
	DB	0bdH
	DB	0b6H
	DB	0b5H
	DB	0f7H
	DB	0bdH
	DB	038H
	DB	0c6H
	DB	0b6H
	DB	0b5H
	DB	0d7H
	DB	0bdH
	DB	0d7H
	DB	0bdH
	DB	0f7H
	DB	0bdH
	DB	018H
	DB	0c6H
	DB	018H
	DB	0c6H
	DB	0f7H
	DB	0bdH
	DB	0d7H
	DB	0bdH
	DB	0f7H
	DB	0bdH
	DB	0d7H
	DB	0bdH
	DB	0f7H
	DB	0bdH
	DB	0b6H
	DB	0b5H
	DB	018H
	DB	0c6H
	DB	038H
	DB	0c6H
	DB	0d7H
	DB	0bdH
	DB	075H
	DB	0adH
	DB	018H
	DB	0c6H
	DB	0b6H
	DB	0b5H
	DB	0d7H
	DB	0bdH
	DB	018H
	DB	0c6H
	DB	096H
	DB	0b5H
	DB	018H
	DB	0c6H
	DB	059H
	DB	0ceH
	DB	0d7H
	DB	0bdH
	DB	0d7H
	DB	0bdH
	DB	0b6H
	DB	0b5H
	DB	0d7H
	DB	0bdH
	DB	018H
	DB	0c6H
	DB	096H
	DB	0b5H
	DB	0f7H
	DB	0bdH
	DB	0d7H
	DB	0bdH
	DB	0d7H
	DB	0bdH
	DB	038H
	DB	0c6H
	DB	0d7H
	DB	0bdH
	DB	0d7H
	DB	0bdH
	DB	096H
	DB	0b5H
	DB	0b6H
	DB	0b5H
	DB	038H
	DB	0c6H
	DB	018H
	DB	0c6H
	DB	0b6H
	DB	0b5H
	DB	0b6H
	DB	0b5H
	DB	075H
	DB	0adH
	DB	0f7H
	DB	0bdH
	DB	059H
	DB	0ceH
	DB	0b6H
	DB	0b5H
	DB	0f7H
	DB	0bdH
	DB	018H
	DB	0c6H
	DB	018H
	DB	0c6H
	DB	0d7H
	DB	0bdH
	DB	0d7H
	DB	0bdH
	DB	0f7H
	DB	0bdH
	DB	096H
	DB	0b5H
	DB	096H
	DB	0b5H
	DB	038H
	DB	0c6H
	DB	038H
	DB	0c6H
	DB	018H
	DB	0c6H
	DB	075H
	DB	0adH
	DB	0b6H
	DB	0b5H
	DB	038H
	DB	0c6H
	DB	018H
	DB	0c6H
	DB	038H
	DB	0c6H
	DB	0d7H
	DB	0bdH
	DB	0f7H
	DB	0bdH
	DB	075H
	DB	0adH
	DB	038H
	DB	0c6H
	DB	0f7H
	DB	0bdH
	DB	0b6H
	DB	0b5H
	DB	0b6H
	DB	0b5H
	DB	018H
	DB	0c6H
	DB	0f7H
	DB	0bdH
	DB	0f7H
	DB	0bdH
	DB	0d7H
	DB	0bdH
	DB	018H
	DB	0c6H
	DB	018H
	DB	0c6H
	DB	0f7H
	DB	0bdH
	DB	0d7H
	DB	0bdH
	DB	096H
	DB	0b5H
	DB	0f7H
	DB	0bdH
	DB	0d7H
	DB	0bdH
	DB	0d7H
	DB	0bdH
	DB	059H
	DB	0ceH
	DB	0b6H
	DB	0b5H
	DB	0d7H
	DB	0bdH
	DB	0d7H
	DB	0bdH
	DB	0f7H
	DB	0bdH
	DB	018H
	DB	0c6H
	DB	018H
	DB	0c6H
	DB	0b6H
	DB	0b5H
	DB	0d7H
	DB	0bdH
	DB	038H
	DB	0c6H
	DB	0d7H
	DB	0bdH
	DB	0d7H
	DB	0bdH
	DB	075H
	DB	0adH
	DB	0f7H
	DB	0bdH
	DB	0b6H
	DB	0b5H
	DB	0b6H
	DB	0b5H
	DB	0f7H
	DB	0bdH
	DB	018H
	DB	0c6H
	DB	096H
	DB	0b5H
	DB	038H
	DB	0c6H
	DB	0b6H
	DB	0b5H
	DB	0b6H
	DB	0b5H
	DB	038H
	DB	0c6H
	DB	0d7H
	DB	0bdH
	DB	0b6H
	DB	0b5H
	DB	0f7H
	DB	0bdH
	DB	038H
	DB	0c6H
	DB	018H
	DB	0c6H
	DB	0b6H
	DB	0b5H
	DB	0f7H
	DB	0bdH
	DB	0b6H
	DB	0b5H
	DB	0f7H
	DB	0bdH
	DB	018H
	DB	0c6H
	DB	0f7H
	DB	0bdH
	DB	0d7H
	DB	0bdH
	DB	096H
	DB	0b5H
	DB	038H
	DB	0c6H
	DB	018H
	DB	0c6H
	DB	0d7H
	DB	0bdH
	DB	034H
	DB	0a5H
	DB	0d7H
	DB	0bdH
	DB	0f7H
	DB	0bdH
	DB	0b6H
	DB	0b5H
	DB	0f7H
	DB	0bdH
	DB	059H
	DB	0ceH
	DB	0d7H
	DB	0bdH
	DB	0b6H
	DB	0b5H
	DB	0f7H
	DB	0bdH
	DB	096H
	DB	0b5H
	DB	059H
	DB	0ceH
	DB	0f7H
	DB	0bdH
	DB	075H
	DB	0adH
	DB	0d7H
	DB	0bdH
	DB	018H
	DB	0c6H
	DB	096H
	DB	0b5H
	DB	018H
	DB	0c6H
	DB	018H
	DB	0c6H
	DB	038H
	DB	0c6H
	DB	0f7H
	DB	0bdH
	DB	018H
	DB	0c6H
	DB	0b6H
	DB	0b5H
	DB	096H
	DB	0b5H
	DB	0f7H
	DB	0bdH
	DB	018H
	DB	0c6H
	DB	0b6H
	DB	0b5H
	DB	0f7H
	DB	0bdH
	DB	018H
	DB	0c6H
	DB	018H
	DB	0c6H
	DB	075H
	DB	0adH
	DB	0f7H
	DB	0bdH
	DB	0d7H
	DB	0bdH
	DB	059H
	DB	0ceH
	DB	018H
	DB	0c6H
	DB	0d7H
	DB	0bdH
	DB	0d7H
	DB	0bdH
	DB	038H
	DB	0c6H
	DB	0f7H
	DB	0bdH
	DB	0d7H
	DB	0bdH
	DB	038H
	DB	0c6H
	DB	0d7H
	DB	0bdH
	DB	0f7H
	DB	0bdH
	DB	018H
	DB	0c6H
	DB	096H
	DB	0b5H
	DB	0b6H
	DB	0b5H
	DB	0f7H
	DB	0bdH
	DB	0f7H
	DB	0bdH
	DB	038H
	DB	0c6H
	DB	0b6H
	DB	0b5H
	DB	0f7H
	DB	0bdH
	DB	0b6H
	DB	0b5H
	DB	075H
	DB	0adH
	DB	038H
	DB	0c6H
	DB	0f7H
	DB	0bdH
	DB	0d7H
	DB	0bdH
	DB	018H
	DB	0c6H
	DB	0d7H
	DB	0bdH
	DB	075H
	DB	0adH
	DB	018H
	DB	0c6H
	DB	038H
	DB	0c6H
	DB	0d7H
	DB	0bdH
	DB	0b6H
	DB	0b5H
	DB	0b6H
	DB	0b5H
	DB	0f7H
	DB	0bdH
	DB	0d7H
	DB	0bdH
	DB	0d7H
	DB	0bdH
	DB	018H
	DB	0c6H
	DB	018H
	DB	0c6H
	DB	0d7H
	DB	0bdH
	DB	0d7H
	DB	0bdH
	DB	0f7H
	DB	0bdH
	DB	096H
	DB	0b5H
	DB	0f7H
	DB	0bdH
	DB	018H
	DB	0c6H
	DB	018H
	DB	0c6H
	DB	018H
	DB	0c6H
	DB	0b6H
	DB	0b5H
	DB	096H
	DB	0b5H
	DB	018H
	DB	0c6H
	DB	0b6H
	DB	0b5H
	DB	096H
	DB	0b5H
	DB	0f7H
	DB	0bdH
	DB	0b6H
	DB	0b5H
	DB	0d7H
	DB	0bdH
	DB	0b6H
	DB	0b5H
	DB	018H
	DB	0c6H
	DB	018H
	DB	0c6H
	DB	0f7H
	DB	0bdH
	DB	0b6H
	DB	0b5H
	DB	0b6H
	DB	0b5H
	DB	0d7H
	DB	0bdH
	DB	018H
	DB	0c6H
	DB	0d7H
	DB	0bdH
	DB	0b6H
	DB	0b5H
	DB	0d7H
	DB	0bdH
	DB	059H
	DB	0ceH
	DB	038H
	DB	0c6H
	DB	0d7H
	DB	0bdH
	DB	0f7H
	DB	0bdH
	DB	0f7H
	DB	0bdH
	DB	075H
	DB	0adH
	DB	018H
	DB	0c6H
	DB	018H
	DB	0c6H
	DB	096H
	DB	0b5H
	DB	0d7H
	DB	0bdH
	DB	0d7H
	DB	0bdH
	DB	0b6H
	DB	0b5H
	DB	038H
	DB	0c6H
	DB	018H
	DB	0c6H
	DB	018H
	DB	0c6H
	DB	0f7H
	DB	0bdH
	DB	0d7H
	DB	0bdH
	DB	0d7H
	DB	0bdH
	DB	096H
	DB	0b5H
	DB	0b6H
	DB	0b5H
	DB	059H
	DB	0ceH
	DB	0f7H
	DB	0bdH
	DB	0b6H
	DB	0b5H
	DB	018H
	DB	0c6H
	DB	0d7H
	DB	0bdH
	DB	0d7H
	DB	0bdH
	DB	018H
	DB	0c6H
	DB	0b6H
	DB	0b5H
	DB	0b6H
	DB	0b5H
	DB	075H
	DB	0adH
	DB	0d7H
	DB	0bdH
	DB	0d7H
	DB	0bdH
	DB	0b6H
	DB	0b5H
	DB	018H
	DB	0c6H
	DB	0d7H
	DB	0bdH
	DB	096H
	DB	0b5H
	DB	018H
	DB	0c6H
	DB	038H
	DB	0c6H
	DB	0f7H
	DB	0bdH
	DB	0f7H
	DB	0bdH
	DB	0b6H
	DB	0b5H
	DB	0f7H
	DB	0bdH
	DB	0b6H
	DB	0b5H
	DB	0b6H
	DB	0b5H
	DB	0f7H
	DB	0bdH
	DB	0f7H
	DB	0bdH
	DB	0d7H
	DB	0bdH
	DB	0b6H
	DB	0b5H
	DB	038H
	DB	0c6H
	DB	038H
	DB	0c6H
	DB	0d7H
	DB	0bdH
	DB	075H
	DB	0adH
	DB	0d7H
	DB	0bdH
	DB	0f7H
	DB	0bdH
	DB	018H
	DB	0c6H
	DB	0f7H
	DB	0bdH
	DB	0f7H
	DB	0bdH
	DB	0b6H
	DB	0b5H
	DB	0f7H
	DB	0bdH
	DB	0d7H
	DB	0bdH
	DB	0b6H
	DB	0b5H
	DB	038H
	DB	0c6H
	DB	0f7H
	DB	0bdH
	DB	096H
	DB	0b5H
	DB	0f7H
	DB	0bdH
	DB	0f7H
	DB	0bdH
	DB	0b6H
	DB	0b5H
	DB	096H
	DB	0b5H
	DB	018H
	DB	0c6H
	DB	0f7H
	DB	0bdH
	DB	0f7H
	DB	0bdH
	DB	0d7H
	DB	0bdH
	DB	018H
	DB	0c6H
	DB	0f7H
	DB	0bdH
	DB	0b6H
	DB	0b5H
	DB	0b6H
	DB	0b5H
	DB	0f7H
	DB	0bdH
	DB	018H
	DB	0c6H
	DB	0b6H
	DB	0b5H
	DB	0d7H
	DB	0bdH
	DB	096H
	DB	0b5H
	DB	0d7H
	DB	0bdH
	DB	0d7H
	DB	0bdH
	DB	0f7H
	DB	0bdH
	DB	018H
	DB	0c6H
	DB	018H
	DB	0c6H
	DB	0d7H
	DB	0bdH
	DB	034H
	DB	0a5H
	DB	0b6H
	DB	0b5H
	DB	018H
	DB	0c6H
	DB	038H
	DB	0c6H
	DB	0f7H
	DB	0bdH
	DB	0f7H
	DB	0bdH
	DB	0b6H
	DB	0b5H
	DB	0d7H
	DB	0bdH
	DB	0f7H
	DB	0bdH
	DB	0f7H
	DB	0bdH
	DB	0f7H
	DB	0bdH
	DB	018H
	DB	0c6H
	DB	018H
	DB	0c6H
	DB	0b6H
	DB	0b5H
	DB	096H
	DB	0b5H
	DB	0f7H
	DB	0bdH
	DB	0b6H
	DB	0b5H
	DB	038H
	DB	0c6H
	DB	018H
	DB	0c6H
	DB	075H
	DB	0adH
	DB	096H
	DB	0b5H
	DB	018H
	DB	0c6H
	DB	0d7H
	DB	0bdH
	DB	038H
	DB	0c6H
	DB	0f7H
	DB	0bdH
	DB	0b6H
	DB	0b5H
	DB	018H
	DB	0c6H
	DB	0b6H
	DB	0b5H
	DB	0b6H
	DB	0b5H
	DB	0d7H
	DB	0bdH
	DB	0d7H
	DB	0bdH
	DB	018H
	DB	0c6H
	DB	0b6H
	DB	0b5H
	DB	0d7H
	DB	0bdH
	DB	0b6H
	DB	0b5H
	DB	0d7H
	DB	0bdH
	DB	038H
	DB	0c6H
	DB	018H
	DB	0c6H
	DB	0d7H
	DB	0bdH
	DB	096H
	DB	0b5H
	DB	0b6H
	DB	0b5H
	DB	018H
	DB	0c6H
	DB	018H
	DB	0c6H
	DB	096H
	DB	0b5H
	DB	0d7H
	DB	0bdH
	DB	038H
	DB	0c6H
	DB	0f7H
	DB	0bdH
	DB	0b6H
	DB	0b5H
	DB	0d7H
	DB	0bdH
	DB	0f7H
	DB	0bdH
	DB	075H
	DB	0adH
	DB	0d7H
	DB	0bdH
	DB	038H
	DB	0c6H
	DB	0d7H
	DB	0bdH
	DB	018H
	DB	0c6H
	DB	0d7H
	DB	0bdH
	DB	0d7H
	DB	0bdH
	DB	018H
	DB	0c6H
	DB	018H
	DB	0c6H
	DB	018H
	DB	0c6H
	DB	0f7H
	DB	0bdH
	DB	0d7H
	DB	0bdH
	DB	096H
	DB	0b5H
	DB	018H
	DB	0c6H
	DB	0d7H
	DB	0bdH
	DB	0b6H
	DB	0b5H
	DB	0f7H
	DB	0bdH
	DB	0f7H
	DB	0bdH
	DB	0f7H
	DB	0bdH
	DB	0d7H
	DB	0bdH
	DB	0d7H
	DB	0bdH
	DB	0f7H
	DB	0bdH
	DB	018H
	DB	0c6H
	DB	018H
	DB	0c6H
	DB	0d7H
	DB	0bdH
	DB	0b6H
	DB	0b5H
	DB	0b6H
	DB	0b5H
	DB	0f7H
	DB	0bdH
	DB	018H
	DB	0c6H
	DB	018H
	DB	0c6H
	DB	0b6H
	DB	0b5H
	DB	0f7H
	DB	0bdH
	DB	018H
	DB	0c6H
	DB	0f7H
	DB	0bdH
	DB	0f7H
	DB	0bdH
	DB	0d7H
	DB	0bdH
	DB	0f7H
	DB	0bdH
	DB	0f7H
	DB	0bdH
	DB	038H
	DB	0c6H
	DB	0d7H
	DB	0bdH
	DB	0d7H
	DB	0bdH
	DB	0b6H
	DB	0b5H
	DB	096H
	DB	0b5H
	DB	0f7H
	DB	0bdH
	DB	0f7H
	DB	0bdH
	DB	0d7H
	DB	0bdH
	DB	038H
	DB	0c6H
	DB	096H
	DB	0b5H
	DB	0b6H
	DB	0b5H
	DB	0f7H
	DB	0bdH
	DB	0f7H
	DB	0bdH
	DB	038H
	DB	0c6H
	DB	0d7H
	DB	0bdH
	DB	0f7H
	DB	0bdH
	DB	038H
	DB	0c6H
	DB	0d7H
	DB	0bdH
	DB	0b6H
	DB	0b5H
	DB	0f7H
	DB	0bdH
	DB	038H
	DB	0c6H
	DB	0d7H
	DB	0bdH
	DB	0d7H
	DB	0bdH
	DB	0f7H
	DB	0bdH
	DB	0b6H
	DB	0b5H
	DB	0b6H
	DB	0b5H
	DB	0f7H
	DB	0bdH
	DB	0f7H
	DB	0bdH
	DB	0d7H
	DB	0bdH
	DB	0d7H
	DB	0bdH
	DB	096H
	DB	0b5H
	DB	018H
	DB	0c6H
	DB	0f7H
	DB	0bdH
	DB	018H
	DB	0c6H
	DB	0d7H
	DB	0bdH
	DB	018H
	DB	0c6H
	DB	0d7H
	DB	0bdH
	DB	096H
	DB	0b5H
	DB	0b6H
	DB	0b5H
	DB	0b6H
	DB	0b5H
	DB	059H
	DB	0ceH
	DB	096H
	DB	0b5H
	DB	0b6H
	DB	0b5H
	DB	059H
	DB	0ceH
	DB	0d7H
	DB	0bdH
	DB	096H
	DB	0b5H
	DB	059H
	DB	0ceH
	DB	018H
	DB	0c6H
	DB	0b6H
	DB	0b5H
	DB	0f7H
	DB	0bdH
	DB	0f7H
	DB	0bdH
	DB	018H
	DB	0c6H
	DB	0b6H
	DB	0b5H
	DB	0f7H
	DB	0bdH
	DB	0b6H
	DB	0b5H
	DB	0b6H
	DB	0b5H
	DB	038H
	DB	0c6H
	DB	0f7H
	DB	0bdH
	DB	0d7H
	DB	0bdH
	DB	075H
	DB	0adH
	DB	038H
	DB	0c6H
	DB	018H
	DB	0c6H
	DB	038H
	DB	0c6H
	DB	0b6H
	DB	0b5H
	DB	0d7H
	DB	0bdH
	DB	0f7H
	DB	0bdH
	DB	0b6H
	DB	0b5H
	DB	0f7H
	DB	0bdH
	DB	0d7H
	DB	0bdH
	DB	038H
	DB	0c6H
	DB	0b6H
	DB	0b5H
	DB	0d7H
	DB	0bdH
	DB	038H
	DB	0c6H
	DB	0d7H
	DB	0bdH
	DB	0b6H
	DB	0b5H
	DB	096H
	DB	0b5H
	DB	0f7H
	DB	0bdH
	DB	059H
	DB	0ceH
	DB	0f7H
	DB	0bdH
	DB	0d7H
	DB	0bdH
	DB	0d7H
	DB	0bdH
	DB	0b6H
	DB	0b5H
	DB	038H
	DB	0c6H
	DB	0d7H
	DB	0bdH
	DB	0b6H
	DB	0b5H
	DB	018H
	DB	0c6H
	DB	0f7H
	DB	0bdH
	DB	0d7H
	DB	0bdH
	DB	0d7H
	DB	0bdH
	DB	0b6H
	DB	0b5H
	DB	018H
	DB	0c6H
	DB	038H
	DB	0c6H
	DB	0f7H
	DB	0bdH
	DB	0d7H
	DB	0bdH
	DB	0f7H
	DB	0bdH
	DB	0f7H
	DB	0bdH
	DB	0b6H
	DB	0b5H
	DB	0f7H
	DB	0bdH
	DB	0f7H
	DB	0bdH
	DB	038H
	DB	0c6H
	DB	0b6H
	DB	0b5H
	DB	075H
	DB	0adH
	DB	038H
	DB	0c6H
	DB	018H
	DB	0c6H
	DB	0b6H
	DB	0b5H
	DB	0f7H
	DB	0bdH
	DB	0f7H
	DB	0bdH
	DB	096H
	DB	0b5H
	DB	038H
	DB	0c6H
	DB	0b6H
	DB	0b5H
	DB	0b6H
	DB	0b5H
	DB	0f7H
	DB	0bdH
	DB	096H
	DB	0b5H
	DB	0d7H
	DB	0bdH
	DB	0b6H
	DB	0b5H
	DB	018H
	DB	0c6H
	DB	018H
	DB	0c6H
	DB	0d7H
	DB	0bdH
	DB	0b6H
	DB	0b5H
	DB	0f7H
	DB	0bdH
	DB	0b6H
	DB	0b5H
	DB	018H
	DB	0c6H
	DB	018H
	DB	0c6H
	DB	0b6H
	DB	0b5H
	DB	096H
	DB	0b5H
	DB	059H
	DB	0ceH
	DB	018H
	DB	0c6H
	DB	0f7H
	DB	0bdH
	DB	0d7H
	DB	0bdH
	DB	0f7H
	DB	0bdH
	DB	075H
	DB	0adH
	DB	0f7H
	DB	0bdH
	DB	0d7H
	DB	0bdH
	DB	0f7H
	DB	0bdH
	DB	038H
	DB	0c6H
	DB	0b6H
	DB	0b5H
	DB	075H
	DB	0adH
	DB	0b6H
	DB	0b5H
	DB	018H
	DB	0c6H
	DB	038H
	DB	0c6H
	DB	0d7H
	DB	0bdH
	DB	0b6H
	DB	0b5H
	DB	0f7H
	DB	0bdH
	DB	096H
	DB	0b5H
	DB	0b6H
	DB	0b5H
	DB	059H
	DB	0ceH
	DB	0f7H
	DB	0bdH
	DB	0b6H
	DB	0b5H
	DB	038H
	DB	0c6H
	DB	0d7H
	DB	0bdH
	DB	0f7H
	DB	0bdH
	DB	0f7H
	DB	0bdH
	DB	0d7H
	DB	0bdH
	DB	0d7H
	DB	0bdH
	DB	034H
	DB	0a5H
	DB	0b6H
	DB	0b5H
	DB	0f7H
	DB	0bdH
	DB	0b6H
	DB	0b5H
	DB	018H
	DB	0c6H
	DB	0d7H
	DB	0bdH
	DB	0b6H
	DB	0b5H
	DB	0f7H
	DB	0bdH
	DB	0f7H
	DB	0bdH
	DB	0d7H
	DB	0bdH
	DB	0b6H
	DB	0b5H
	DB	0d7H
	DB	0bdH
	DB	0f7H
	DB	0bdH
	DB	0b6H
	DB	0b5H
	DB	0f7H
	DB	0bdH
	DB	018H
	DB	0c6H
	DB	0f7H
	DB	0bdH
	DB	0d7H
	DB	0bdH
	DB	0d7H
	DB	0bdH
	DB	0f7H
	DB	0bdH
	DB	0f7H
	DB	0bdH
	DB	0f7H
	DB	0bdH
	DB	0b6H
	DB	0b5H
	DB	0f7H
	DB	0bdH
	DB	0b6H
	DB	0b5H
	DB	018H
	DB	0c6H
	DB	0f7H
	DB	0bdH
	DB	075H
	DB	0adH
	DB	075H
	DB	0adH
	DB	0b6H
	DB	0b5H
	DB	018H
	DB	0c6H
	DB	0f7H
	DB	0bdH
	DB	0f7H
	DB	0bdH
	DB	0d7H
	DB	0bdH
	DB	096H
	DB	0b5H
	DB	018H
	DB	0c6H
	DB	038H
	DB	0c6H
	DB	0d7H
	DB	0bdH
	DB	096H
	DB	0b5H
	DB	0d7H
	DB	0bdH
	DB	038H
	DB	0c6H
	DB	038H
	DB	0c6H
	DB	0f7H
	DB	0bdH
	DB	0f7H
	DB	0bdH
	DB	0b6H
	DB	0b5H
	DB	0f7H
	DB	0bdH
	DB	0d7H
	DB	0bdH
	DB	0d7H
	DB	0bdH
	DB	0f7H
	DB	0bdH
	DB	0f7H
	DB	0bdH
	DB	0b6H
	DB	0b5H
	DB	0d7H
	DB	0bdH
	DB	096H
	DB	0b5H
	DB	0f7H
	DB	0bdH
	DB	0d7H
	DB	0bdH
	DB	0f7H
	DB	0bdH
	DB	0f7H
	DB	0bdH
	DB	0f7H
	DB	0bdH
	DB	0d7H
	DB	0bdH
	DB	0b6H
	DB	0b5H
	DB	018H
	DB	0c6H
	DB	018H
	DB	0c6H
	DB	018H
	DB	0c6H
	DB	0d7H
	DB	0bdH
	DB	0b6H
	DB	0b5H
	DB	0d7H
	DB	0bdH
	DB	018H
	DB	0c6H
	DB	018H
	DB	0c6H
	DB	038H
	DB	0c6H
	DB	0d7H
	DB	0bdH
	DB	0d7H
	DB	0bdH
	DB	0d7H
	DB	0bdH
	DB	075H
	DB	0adH
	DB	0b6H
	DB	0b5H
	DB	038H
	DB	0c6H
	DB	018H
	DB	0c6H
	DB	0f7H
	DB	0bdH
	DB	096H
	DB	0b5H
	DB	0b6H
	DB	0b5H
	DB	018H
	DB	0c6H
	DB	0d7H
	DB	0bdH
	DB	038H
	DB	0c6H
	DB	0f7H
	DB	0bdH
	DB	0b6H
	DB	0b5H
	DB	0f7H
	DB	0bdH
	DB	018H
	DB	0c6H
	DB	0b6H
	DB	0b5H
	DB	0b6H
	DB	0b5H
	DB	0b6H
	DB	0b5H
	DB	0f7H
	DB	0bdH
	DB	0d7H
	DB	0bdH
	DB	0f7H
	DB	0bdH
	DB	018H
	DB	0c6H
	DB	096H
	DB	0b5H
	DB	0d7H
	DB	0bdH
	DB	038H
	DB	0c6H
	DB	0d7H
	DB	0bdH
	DB	096H
	DB	0b5H
	DB	038H
	DB	0c6H
	DB	0f7H
	DB	0bdH
	DB	0f7H
	DB	0bdH
	DB	0b6H
	DB	0b5H
	DB	0b6H
	DB	0b5H
	DB	0f7H
	DB	0bdH
	DB	038H
	DB	0c6H
	DB	0d7H
	DB	0bdH
	DB	0d7H
	DB	0bdH
	DB	0f7H
	DB	0bdH
	DB	0b6H
	DB	0b5H
	DB	0d7H
	DB	0bdH
	DB	018H
	DB	0c6H
	DB	0f7H
	DB	0bdH
	DB	038H
	DB	0c6H
	DB	0d7H
	DB	0bdH
	DB	0b6H
	DB	0b5H
	DB	0f7H
	DB	0bdH
	DB	0f7H
	DB	0bdH
	DB	0d7H
	DB	0bdH
	DB	0d7H
	DB	0bdH
	DB	0f7H
	DB	0bdH
	DB	0d7H
	DB	0bdH
	DB	0d7H
	DB	0bdH
	DB	018H
	DB	0c6H
	DB	0d7H
	DB	0bdH
	DB	018H
	DB	0c6H
	DB	0d7H
	DB	0bdH
	DB	0f7H
	DB	0bdH
	DB	096H
	DB	0b5H
	DB	0f7H
	DB	0bdH
	DB	0f7H
	DB	0bdH
	DB	0b6H
	DB	0b5H
	DB	018H
	DB	0c6H
	DB	038H
	DB	0c6H
	DB	0b6H
	DB	0b5H
	DB	0b6H
	DB	0b5H
	DB	059H
	DB	0ceH
	DB	018H
	DB	0c6H
	DB	0d7H
	DB	0bdH
	DB	075H
	DB	0adH
	DB	0f7H
	DB	0bdH
	DB	0f7H
	DB	0bdH
	DB	018H
	DB	0c6H
	DB	0d7H
	DB	0bdH
	DB	096H
	DB	0b5H
	DB	018H
	DB	0c6H
	DB	018H
	DB	0c6H
	DB	0d7H
	DB	0bdH
	DB	0f7H
	DB	0bdH
	DB	0d7H
	DB	0bdH
	DB	018H
	DB	0c6H
	DB	075H
	DB	0adH
	DB	0b6H
	DB	0b5H
	DB	059H
	DB	0ceH
	DB	0b6H
	DB	0b5H
	DB	018H
	DB	0c6H
	DB	0b6H
	DB	0b5H
	DB	075H
	DB	0adH
	DB	0f7H
	DB	0bdH
	DB	018H
	DB	0c6H
	DB	0b6H
	DB	0b5H
	DB	0d7H
	DB	0bdH
	DB	018H
	DB	0c6H
	DB	0f7H
	DB	0bdH
	DB	0f7H
	DB	0bdH
	DB	0b6H
	DB	0b5H
	DB	0b6H
	DB	0b5H
	DB	018H
	DB	0c6H
	DB	038H
	DB	0c6H
	DB	0d7H
	DB	0bdH
	DB	096H
	DB	0b5H
	DB	096H
	DB	0b5H
	DB	018H
	DB	0c6H
	DB	0f7H
	DB	0bdH
	DB	0d7H
	DB	0bdH
	DB	0d7H
	DB	0bdH
	DB	0f7H
	DB	0bdH
	DB	0b6H
	DB	0b5H
	DB	0b6H
	DB	0b5H
	DB	038H
	DB	0c6H
	DB	018H
	DB	0c6H
	DB	0d7H
	DB	0bdH
	DB	0d7H
	DB	0bdH
	DB	0f7H
	DB	0bdH
	DB	0f7H
	DB	0bdH
	DB	075H
	DB	0adH
	DB	055H
	DB	0adH
	DB	0f7H
	DB	0bdH
	DB	0d7H
	DB	0bdH
	DB	059H
	DB	0ceH
	DB	018H
	DB	0c6H
	DB	0d7H
	DB	0bdH
	DB	0d7H
	DB	0bdH
	DB	038H
	DB	0c6H
	DB	038H
	DB	0c6H
	DB	096H
	DB	0b5H
	DB	0b6H
	DB	0b5H
	DB	0b6H
	DB	0b5H
	DB	038H
	DB	0c6H
	DB	0d7H
	DB	0bdH
	DB	0b6H
	DB	0b5H
	DB	0b6H
	DB	0b5H
	DB	018H
	DB	0c6H
	DB	038H
	DB	0c6H
	DB	0d7H
	DB	0bdH
	DB	0d7H
	DB	0bdH
	DB	0b6H
	DB	0b5H
	DB	038H
	DB	0c6H
	DB	0f7H
	DB	0bdH
	DB	0d7H
	DB	0bdH
	DB	0b6H
	DB	0b5H
	DB	0f7H
	DB	0bdH
	DB	0d7H
	DB	0bdH
	DB	0b6H
	DB	0b5H
	DB	0d7H
	DB	0bdH
	DB	0b6H
	DB	0b5H
	DB	018H
	DB	0c6H
	DB	096H
	DB	0b5H
	DB	0b6H
	DB	0b5H
	DB	038H
	DB	0c6H
	DB	018H
	DB	0c6H
	DB	0f7H
	DB	0bdH
	DB	075H
	DB	0adH
	DB	096H
	DB	0b5H
	DB	059H
	DB	0ceH
	DB	0f7H
	DB	0bdH
	DB	0b6H
	DB	0b5H
	DB	038H
	DB	0c6H
	DB	0f7H
	DB	0bdH
	DB	0f7H
	DB	0bdH
	DB	0f7H
	DB	0bdH
	DB	0b6H
	DB	0b5H
	DB	0f7H
	DB	0bdH
	DB	018H
	DB	0c6H
	DB	096H
	DB	0b5H
	DB	0b6H
	DB	0b5H
	DB	0d7H
	DB	0bdH
	DB	018H
	DB	0c6H
	DB	038H
	DB	0c6H
	DB	018H
	DB	0c6H
	DB	0d7H
	DB	0bdH
	DB	0f7H
	DB	0bdH
	DB	018H
	DB	0c6H
	DB	075H
	DB	0adH
	DB	0f7H
	DB	0bdH
	DB	038H
	DB	0c6H
	DB	0f7H
	DB	0bdH
	DB	0b6H
	DB	0b5H
	DB	0d7H
	DB	0bdH
	DB	0f7H
	DB	0bdH
	DB	038H
	DB	0c6H
	DB	0b6H
	DB	0b5H
	DB	0b6H
	DB	0b5H
	DB	018H
	DB	0c6H
	DB	0b6H
	DB	0b5H
	DB	018H
	DB	0c6H
	DB	096H
	DB	0b5H
	DB	0b6H
	DB	0b5H
	DB	0f7H
	DB	0bdH
	DB	096H
	DB	0b5H
	DB	0b6H
	DB	0b5H
	DB	075H
	DB	0adH
	DB	0f7H
	DB	0bdH
	DB	018H
	DB	0c6H
	DB	0d7H
	DB	0bdH
	DB	0d7H
	DB	0bdH
	DB	0f7H
	DB	0bdH
	DB	0b6H
	DB	0b5H
	DB	0f7H
	DB	0bdH
	DB	018H
	DB	0c6H
	DB	0b6H
	DB	0b5H
	DB	0f7H
	DB	0bdH
	DB	0f7H
	DB	0bdH
	DB	0b6H
	DB	0b5H
	DB	018H
	DB	0c6H
	DB	0f7H
	DB	0bdH
	DB	018H
	DB	0c6H
	DB	075H
	DB	0adH
	DB	0b6H
	DB	0b5H
	DB	038H
	DB	0c6H
	DB	018H
	DB	0c6H
	DB	018H
	DB	0c6H
	DB	0b6H
	DB	0b5H
	DB	0d7H
	DB	0bdH
	DB	096H
	DB	0b5H
	DB	096H
	DB	0b5H
	DB	038H
	DB	0c6H
	DB	0f7H
	DB	0bdH
	DB	0b6H
	DB	0b5H
	DB	0f7H
	DB	0bdH
	DB	0d7H
	DB	0bdH
	DB	0d7H
	DB	0bdH
	DB	018H
	DB	0c6H
	DB	018H
	DB	0c6H
	DB	0f7H
	DB	0bdH
	DB	059H
	DB	0ceH
	DB	0d7H
	DB	0bdH
	DB	0f7H
	DB	0bdH
	DB	0f7H
	DB	0bdH
	DB	0b6H
	DB	0b5H
	DB	0b6H
	DB	0b5H
	DB	075H
	DB	0adH
	DB	0f7H
	DB	0bdH
	DB	0f7H
	DB	0bdH
	DB	0b6H
	DB	0b5H
	DB	018H
	DB	0c6H
	DB	0d7H
	DB	0bdH
	DB	0f7H
	DB	0bdH
	DB	0d7H
	DB	0bdH
	DB	0d7H
	DB	0bdH
	DB	0d7H
	DB	0bdH
	DB	0d7H
	DB	0bdH
	DB	0b6H
	DB	0b5H
	DB	0f7H
	DB	0bdH
	DB	0b6H
	DB	0b5H
	DB	0f7H
	DB	0bdH
	DB	018H
	DB	0c6H
	DB	018H
	DB	0c6H
	DB	0d7H
	DB	0bdH
	DB	018H
	DB	0c6H
	DB	0d7H
	DB	0bdH
	DB	096H
	DB	0b5H
	DB	0f7H
	DB	0bdH
	DB	0d7H
	DB	0bdH
	DB	018H
	DB	0c6H
	DB	0b6H
	DB	0b5H
	DB	0f7H
	DB	0bdH
	DB	018H
	DB	0c6H
	DB	0b6H
	DB	0b5H
	DB	055H
	DB	0adH
	DB	075H
	DB	0adH
	DB	038H
	DB	0c6H
	DB	059H
	DB	0ceH
	DB	0d7H
	DB	0bdH
	DB	0b6H
	DB	0b5H
	DB	0b6H
	DB	0b5H
	DB	038H
	DB	0c6H
	DB	0d7H
	DB	0bdH
	DB	0f7H
	DB	0bdH
	DB	018H
	DB	0c6H
	DB	096H
	DB	0b5H
	DB	038H
	DB	0c6H
	DB	018H
	DB	0c6H
	DB	0b6H
	DB	0b5H
	DB	0b6H
	DB	0b5H
	DB	0f7H
	DB	0bdH
	DB	0f7H
	DB	0bdH
	DB	0d7H
	DB	0bdH
	DB	0d7H
	DB	0bdH
	DB	0b6H
	DB	0b5H
	DB	038H
	DB	0c6H
	DB	0d7H
	DB	0bdH
	DB	0f7H
	DB	0bdH
	DB	0b6H
	DB	0b5H
	DB	0b6H
	DB	0b5H
	DB	0d7H
	DB	0bdH
	DB	0d7H
	DB	0bdH
	DB	0d7H
	DB	0bdH
	DB	0f7H
	DB	0bdH
	DB	0f7H
	DB	0bdH
	DB	0b6H
	DB	0b5H
	DB	0d7H
	DB	0bdH
	DB	096H
	DB	0b5H
	DB	0f7H
	DB	0bdH
	DB	018H
	DB	0c6H
	DB	0d7H
	DB	0bdH
	DB	0d7H
	DB	0bdH
	DB	0d7H
	DB	0bdH
	DB	0f7H
	DB	0bdH
	DB	018H
	DB	0c6H
	DB	0d7H
	DB	0bdH
	DB	0f7H
	DB	0bdH
	DB	0f7H
	DB	0bdH
	DB	055H
	DB	0adH
	DB	018H
	DB	0c6H
	DB	038H
	DB	0c6H
	DB	0f7H
	DB	0bdH
	DB	0f7H
	DB	0bdH
	DB	0b6H
	DB	0b5H
	DB	096H
	DB	0b5H
	DB	018H
	DB	0c6H
	DB	0f7H
	DB	0bdH
	DB	0f7H
	DB	0bdH
	DB	0f7H
	DB	0bdH
	DB	0d7H
	DB	0bdH
	DB	0f7H
	DB	0bdH
	DB	0f7H
	DB	0bdH
	DB	0d7H
	DB	0bdH
	DB	0b6H
	DB	0b5H
	DB	096H
	DB	0b5H
	DB	0f7H
	DB	0bdH
	DB	018H
	DB	0c6H
	DB	0d7H
	DB	0bdH
	DB	0d7H
	DB	0bdH
	DB	0d7H
	DB	0bdH
	DB	075H
	DB	0adH
	DB	038H
	DB	0c6H
	DB	0b6H
	DB	0b5H
	DB	096H
	DB	0b5H
	DB	059H
	DB	0ceH
	DB	0f7H
	DB	0bdH
	DB	038H
	DB	0c6H
	DB	0d7H
	DB	0bdH
	DB	0d7H
	DB	0bdH
	DB	096H
	DB	0b5H
	DB	018H
	DB	0c6H
	DB	0f7H
	DB	0bdH
	DB	0d7H
	DB	0bdH
	DB	0f7H
	DB	0bdH
	DB	0b6H
	DB	0b5H
	DB	0d7H
	DB	0bdH
	DB	0f7H
	DB	0bdH
	DB	096H
	DB	0b5H
	DB	038H
	DB	0c6H
	DB	0f7H
	DB	0bdH
	DB	0b6H
	DB	0b5H
	DB	0b6H
	DB	0b5H
	DB	018H
	DB	0c6H
	DB	018H
	DB	0c6H
	DB	0d7H
	DB	0bdH
	DB	0d7H
	DB	0bdH
	DB	0f7H
	DB	0bdH
	DB	0b6H
	DB	0b5H
	DB	059H
	DB	0ceH
	DB	0d7H
	DB	0bdH
	DB	0d7H
	DB	0bdH
	DB	0d7H
	DB	0bdH
	DB	018H
	DB	0c6H
	DB	0d7H
	DB	0bdH
	DB	0f7H
	DB	0bdH
	DB	0d7H
	DB	0bdH
	DB	0d7H
	DB	0bdH
	DB	096H
	DB	0b5H
	DB	038H
	DB	0c6H
	DB	0b6H
	DB	0b5H
	DB	018H
	DB	0c6H
	DB	018H
	DB	0c6H
	DB	0f7H
	DB	0bdH
	DB	0d7H
	DB	0bdH
	DB	075H
	DB	0adH
	DB	0b6H
	DB	0b5H
	DB	0d7H
	DB	0bdH
	DB	038H
	DB	0c6H
	DB	038H
	DB	0c6H
	DB	0b6H
	DB	0b5H
	DB	0b6H
	DB	0b5H
	DB	0f7H
	DB	0bdH
	DB	018H
	DB	0c6H
	DB	0f7H
	DB	0bdH
	DB	0b6H
	DB	0b5H
	DB	038H
	DB	0c6H
	DB	0b6H
	DB	0b5H
	DB	096H
	DB	0b5H
	DB	038H
	DB	0c6H
	DB	0d7H
	DB	0bdH
	DB	0f7H
	DB	0bdH
	DB	0f7H
	DB	0bdH
	DB	018H
	DB	0c6H
	DB	0d7H
	DB	0bdH
	DB	0f7H
	DB	0bdH
	DB	0b6H
	DB	0b5H
	DB	018H
	DB	0c6H
	DB	0d7H
	DB	0bdH
	DB	0b6H
	DB	0b5H
	DB	018H
	DB	0c6H
	DB	0d7H
	DB	0bdH
	DB	075H
	DB	0adH
	DB	018H
	DB	0c6H
	DB	038H
	DB	0c6H
	DB	0d7H
	DB	0bdH
	DB	096H
	DB	0b5H
	DB	0d7H
	DB	0bdH
	DB	059H
	DB	0ceH
	DB	0d7H
	DB	0bdH
	DB	0d7H
	DB	0bdH
	DB	0d7H
	DB	0bdH
	DB	0b6H
	DB	0b5H
	DB	0b6H
	DB	0b5H
	DB	0f7H
	DB	0bdH
	DB	018H
	DB	0c6H
	DB	0d7H
	DB	0bdH
	DB	0f7H
	DB	0bdH
	DB	075H
	DB	0adH
	DB	0f7H
	DB	0bdH
	DB	0f7H
	DB	0bdH
	DB	0b6H
	DB	0b5H
	DB	055H
	DB	0adH
	DB	038H
	DB	0c6H
	DB	018H
	DB	0c6H
	DB	038H
	DB	0c6H
	DB	0b6H
	DB	0b5H
	DB	0d7H
	DB	0bdH
	DB	0f7H
	DB	0bdH
	DB	0b6H
	DB	0b5H
	DB	038H
	DB	0c6H
	DB	0f7H
	DB	0bdH
	DB	0d7H
	DB	0bdH
	DB	075H
	DB	0adH
	DB	0d7H
	DB	0bdH
	DB	0d7H
	DB	0bdH
	DB	0b6H
	DB	0b5H
	DB	038H
	DB	0c6H
	DB	018H
	DB	0c6H
	DB	0d7H
	DB	0bdH
	DB	0d7H
	DB	0bdH
	DB	0d7H
	DB	0bdH
	DB	0d7H
	DB	0bdH
	DB	018H
	DB	0c6H
	DB	0f7H
	DB	0bdH
	DB	0d7H
	DB	0bdH
	DB	096H
	DB	0b5H
	DB	0d7H
	DB	0bdH
	DB	0b6H
	DB	0b5H
	DB	0b6H
	DB	0b5H
	DB	0b6H
	DB	0b5H
	DB	0d7H
	DB	0bdH
	DB	038H
	DB	0c6H
	DB	096H
	DB	0b5H
	DB	0f7H
	DB	0bdH
	DB	018H
	DB	0c6H
	DB	0f7H
	DB	0bdH
	DB	0f7H
	DB	0bdH
	DB	096H
	DB	0b5H
	DB	075H
	DB	0adH
	DB	0f7H
	DB	0bdH
	DB	0b6H
	DB	0b5H
	DB	0f7H
	DB	0bdH
	DB	059H
	DB	0ceH
	DB	0d7H
	DB	0bdH
	DB	0d7H
	DB	0bdH
	DB	018H
	DB	0c6H
	DB	0b6H
	DB	0b5H
	DB	0d7H
	DB	0bdH
	DB	0f7H
	DB	0bdH
	DB	075H
	DB	0adH
	DB	018H
	DB	0c6H
	DB	018H
	DB	0c6H
	DB	0b6H
	DB	0b5H
	DB	0d7H
	DB	0bdH
	DB	038H
	DB	0c6H
	DB	0d7H
	DB	0bdH
	DB	0d7H
	DB	0bdH
	DB	018H
	DB	0c6H
	DB	075H
	DB	0adH
	DB	0f7H
	DB	0bdH
	DB	059H
	DB	0ceH
	DB	096H
	DB	0b5H
	DB	0f7H
	DB	0bdH
	DB	0d7H
	DB	0bdH
	DB	096H
	DB	0b5H
	DB	059H
	DB	0ceH
	DB	0f7H
	DB	0bdH
	DB	075H
	DB	0adH
	DB	0b6H
	DB	0b5H
	DB	018H
	DB	0c6H
	DB	038H
	DB	0c6H
	DB	0b6H
	DB	0b5H
	DB	018H
	DB	0c6H
	DB	0f7H
	DB	0bdH
	DB	0d7H
	DB	0bdH
	DB	0b6H
	DB	0b5H
	DB	096H
	DB	0b5H
	DB	0f7H
	DB	0bdH
	DB	0f7H
	DB	0bdH
	DB	0d7H
	DB	0bdH
	DB	0f7H
	DB	0bdH
	DB	0f7H
	DB	0bdH
	DB	0f7H
	DB	0bdH
	DB	0b6H
	DB	0b5H
	DB	0f7H
	DB	0bdH
	DB	0b6H
	DB	0b5H
	DB	018H
	DB	0c6H
	DB	0f7H
	DB	0bdH
	DB	0d7H
	DB	0bdH
	DB	0f7H
	DB	0bdH
	DB	0b6H
	DB	0b5H
	DB	0d7H
	DB	0bdH
	DB	096H
	DB	0b5H
	DB	0f7H
	DB	0bdH
	DB	059H
	DB	0ceH
	DB	0d7H
	DB	0bdH
	DB	0f7H
	DB	0bdH
	DB	0d7H
	DB	0bdH
	DB	0f7H
	DB	0bdH
	DB	096H
	DB	0b5H
	DB	096H
	DB	0b5H
	DB	0d7H
	DB	0bdH
	DB	018H
	DB	0c6H
	DB	018H
	DB	0c6H
	DB	0d7H
	DB	0bdH
	DB	018H
	DB	0c6H
	DB	096H
	DB	0b5H
	DB	0f7H
	DB	0bdH
	DB	0d7H
	DB	0bdH
	DB	0b6H
	DB	0b5H
	DB	059H
	DB	0ceH
	DB	0d7H
	DB	0bdH
	DB	038H
	DB	0c6H
	DB	0b6H
	DB	0b5H
	DB	0d7H
	DB	0bdH
	DB	0f7H
	DB	0bdH
	DB	0b6H
	DB	0b5H
	DB	0d7H
	DB	0bdH
	DB	018H
	DB	0c6H
	DB	0b6H
	DB	0b5H
	DB	0d7H
	DB	0bdH
	DB	0f7H
	DB	0bdH
	DB	0f7H
	DB	0bdH
	DB	0f7H
	DB	0bdH
	DB	0b6H
	DB	0b5H
	DB	0f7H
	DB	0bdH
	DB	0f7H
	DB	0bdH
	DB	0d7H
	DB	0bdH
	DB	0f7H
	DB	0bdH
	DB	0b6H
	DB	0b5H
	DB	0f7H
	DB	0bdH
	DB	0b6H
	DB	0b5H
	DB	0d7H
	DB	0bdH
	DB	018H
	DB	0c6H
	DB	059H
	DB	0ceH
	DB	0d7H
	DB	0bdH
	DB	0b6H
	DB	0b5H
	DB	0d7H
	DB	0bdH
	DB	0b6H
	DB	0b5H
	DB	038H
	DB	0c6H
	DB	0b6H
	DB	0b5H
	DB	0b6H
	DB	0b5H
	DB	018H
	DB	0c6H
	DB	0f7H
	DB	0bdH
	DB	0d7H
	DB	0bdH
	DB	0d7H
	DB	0bdH
	DB	0d7H
	DB	0bdH
	DB	038H
	DB	0c6H
	DB	0f7H
	DB	0bdH
	DB	0b6H
	DB	0b5H
	DB	0d7H
	DB	0bdH
	DB	018H
	DB	0c6H
	DB	0d7H
	DB	0bdH
	DB	0f7H
	DB	0bdH
	DB	0f7H
	DB	0bdH
	DB	0b6H
	DB	0b5H
	DB	038H
	DB	0c6H
	DB	0f7H
	DB	0bdH
	DB	0f7H
	DB	0bdH
	DB	096H
	DB	0b5H
	DB	038H
	DB	0c6H
	DB	018H
	DB	0c6H
	DB	0b6H
	DB	0b5H
	DB	096H
	DB	0b5H
	DB	075H
	DB	0adH
	DB	059H
	DB	0ceH
	DB	0f7H
	DB	0bdH
	DB	0d7H
	DB	0bdH
	DB	0d7H
	DB	0bdH
	DB	096H
	DB	0b5H
	DB	0b6H
	DB	0b5H
	DB	018H
	DB	0c6H
	DB	0f7H
	DB	0bdH
	DB	0d7H
	DB	0bdH
	DB	0f7H
	DB	0bdH
	DB	0d7H
	DB	0bdH
	DB	0d7H
	DB	0bdH
	DB	0b6H
	DB	0b5H
	DB	0b6H
	DB	0b5H
	DB	0f7H
	DB	0bdH
	DB	018H
	DB	0c6H
	DB	0d7H
	DB	0bdH
	DB	0d7H
	DB	0bdH
	DB	0f7H
	DB	0bdH
	DB	018H
	DB	0c6H
	DB	0b6H
	DB	0b5H
	DB	0b6H
	DB	0b5H
	DB	0b6H
	DB	0b5H
	DB	0b6H
	DB	0b5H
	DB	059H
	DB	0ceH
	DB	018H
	DB	0c6H
	DB	0d7H
	DB	0bdH
	DB	0f7H
	DB	0bdH
	DB	0d7H
	DB	0bdH
	DB	096H
	DB	0b5H
	DB	0f7H
	DB	0bdH
	DB	018H
	DB	0c6H
	DB	0f7H
	DB	0bdH
	DB	0d7H
	DB	0bdH
	DB	0b6H
	DB	0b5H
	DB	0f7H
	DB	0bdH
	DB	0d7H
	DB	0bdH
	DB	0d7H
	DB	0bdH
	DB	0d7H
	DB	0bdH
	DB	0f7H
	DB	0bdH
	DB	0d7H
	DB	0bdH
	DB	0f7H
	DB	0bdH
	DB	0f7H
	DB	0bdH
	DB	0d7H
	DB	0bdH
	DB	0d7H
	DB	0bdH
	DB	055H
	DB	0adH
	DB	0b6H
	DB	0b5H
	DB	0d7H
	DB	0bdH
	DB	0f7H
	DB	0bdH
	DB	018H
	DB	0c6H
	DB	0d7H
	DB	0bdH
	DB	038H
	DB	0c6H
	DB	0f7H
	DB	0bdH
	DB	0d7H
	DB	0bdH
	DB	096H
	DB	0b5H
	DB	0b6H
	DB	0b5H
	DB	0f7H
	DB	0bdH
	DB	018H
	DB	0c6H
	DB	018H
	DB	0c6H
	DB	0d7H
	DB	0bdH
	DB	0f7H
	DB	0bdH
	DB	0f7H
	DB	0bdH
	DB	096H
	DB	0b5H
	DB	0f7H
	DB	0bdH
	DB	038H
	DB	0c6H
	DB	096H
	DB	0b5H
	DB	0b6H
	DB	0b5H
	DB	038H
	DB	0c6H
	DB	0f7H
	DB	0bdH
	DB	0b6H
	DB	0b5H
	DB	0b6H
	DB	0b5H
	DB	018H
	DB	0c6H
	DB	0d7H
	DB	0bdH
	DB	059H
	DB	0ceH
	DB	0f7H
	DB	0bdH
	DB	096H
	DB	0b5H
	DB	0f7H
	DB	0bdH
	DB	018H
	DB	0c6H
	DB	0f7H
	DB	0bdH
	DB	0d7H
	DB	0bdH
	DB	0f7H
	DB	0bdH
	DB	0f7H
	DB	0bdH
	DB	075H
	DB	0adH
	DB	0b6H
	DB	0b5H
	DB	018H
	DB	0c6H
	DB	059H
	DB	0ceH
	DB	0d7H
	DB	0bdH
	DB	0d7H
	DB	0bdH
	DB	0d7H
	DB	0bdH
	DB	096H
	DB	0b5H
	DB	0b6H
	DB	0b5H
	DB	018H
	DB	0c6H
	DB	018H
	DB	0c6H
	DB	038H
	DB	0c6H
	DB	0d7H
	DB	0bdH
	DB	0b6H
	DB	0b5H
	DB	096H
	DB	0b5H
	DB	038H
	DB	0c6H
	DB	0d7H
	DB	0bdH
	DB	096H
	DB	0b5H
	DB	059H
	DB	0ceH
	DB	0d7H
	DB	0bdH
	DB	0b6H
	DB	0b5H
	DB	0b6H
	DB	0b5H
	DB	0f7H
	DB	0bdH
	DB	0d7H
	DB	0bdH
	DB	038H
	DB	0c6H
	DB	018H
	DB	0c6H
	DB	0b6H
	DB	0b5H
	DB	0b6H
	DB	0b5H
	DB	0d7H
	DB	0bdH
	DB	018H
	DB	0c6H
	DB	0b6H
	DB	0b5H
	DB	018H
	DB	0c6H
	DB	0f7H
	DB	0bdH
	DB	096H
	DB	0b5H
	DB	075H
	DB	0adH
	DB	038H
	DB	0c6H
	DB	0f7H
	DB	0bdH
	DB	0d7H
	DB	0bdH
	DB	018H
	DB	0c6H
	DB	0d7H
	DB	0bdH
	DB	018H
	DB	0c6H
	DB	0f7H
	DB	0bdH
	DB	0f7H
	DB	0bdH
	DB	0d7H
	DB	0bdH
	DB	075H
	DB	0adH
	DB	0b6H
	DB	0b5H
	DB	038H
	DB	0c6H
	DB	0f7H
	DB	0bdH
	DB	0d7H
	DB	0bdH
	DB	0d7H
	DB	0bdH
	DB	096H
	DB	0b5H
	DB	0f7H
	DB	0bdH
	DB	0b6H
	DB	0b5H
	DB	0b6H
	DB	0b5H
	DB	0b6H
	DB	0b5H
	DB	059H
	DB	0ceH
	DB	0f7H
	DB	0bdH
	DB	0d7H
	DB	0bdH
	DB	0b6H
	DB	0b5H
	DB	0f7H
	DB	0bdH
	DB	0d7H
	DB	0bdH
	DB	096H
	DB	0b5H
	DB	038H
	DB	0c6H
	DB	018H
	DB	0c6H
	DB	0f7H
	DB	0bdH
	DB	0b6H
	DB	0b5H
	DB	0b6H
	DB	0b5H
	DB	075H
	DB	0adH
	DB	018H
	DB	0c6H
	DB	059H
	DB	0ceH
	DB	0b6H
	DB	0b5H
	DB	0b6H
	DB	0b5H
	DB	0f7H
	DB	0bdH
	DB	096H
	DB	0b5H
	DB	0b6H
	DB	0b5H
	DB	018H
	DB	0c6H
	DB	018H
	DB	0c6H
	DB	0f7H
	DB	0bdH
	DB	096H
	DB	0b5H
	DB	0f7H
	DB	0bdH
	DB	0d7H
	DB	0bdH
	DB	0b6H
	DB	0b5H
	DB	0b6H
	DB	0b5H
	DB	0d7H
	DB	0bdH
	DB	018H
	DB	0c6H
	DB	0d7H
	DB	0bdH
	DB	018H
	DB	0c6H
	DB	0f7H
	DB	0bdH
	DB	0d7H
	DB	0bdH
	DB	018H
	DB	0c6H
	DB	0b6H
	DB	0b5H
	DB	096H
	DB	0b5H
	DB	0b6H
	DB	0b5H
	DB	0f7H
	DB	0bdH
	DB	0d7H
	DB	0bdH
	DB	0f7H
	DB	0bdH
	DB	038H
	DB	0c6H
	DB	0d7H
	DB	0bdH
	DB	0f7H
	DB	0bdH
	DB	0b6H
	DB	0b5H
	DB	0d7H
	DB	0bdH
	DB	0f7H
	DB	0bdH
	DB	0d7H
	DB	0bdH
	DB	038H
	DB	0c6H
	DB	0f7H
	DB	0bdH
	DB	0b6H
	DB	0b5H
	DB	096H
	DB	0b5H
	DB	038H
	DB	0c6H
	DB	018H
	DB	0c6H
	DB	0d7H
	DB	0bdH
	DB	0f7H
	DB	0bdH
	DB	075H
	DB	0adH
	DB	0b6H
	DB	0b5H
	DB	038H
	DB	0c6H
	DB	0d7H
	DB	0bdH
	DB	0f7H
	DB	0bdH
	DB	0b6H
	DB	0b5H
	DB	0d7H
	DB	0bdH
	DB	038H
	DB	0c6H
	DB	0f7H
	DB	0bdH
	DB	0b6H
	DB	0b5H
	DB	055H
	DB	0adH
	DB	018H
	DB	0c6H
	DB	038H
	DB	0c6H
	DB	0f7H
	DB	0bdH
	DB	038H
	DB	0c6H
	DB	0f7H
	DB	0bdH
	DB	0f7H
	DB	0bdH
	DB	0d7H
	DB	0bdH
	DB	0b6H
	DB	0b5H
	DB	0d7H
	DB	0bdH
	DB	038H
	DB	0c6H
	DB	0d7H
	DB	0bdH
	DB	0f7H
	DB	0bdH
	DB	0d7H
	DB	0bdH
	DB	0f7H
	DB	0bdH
	DB	0b6H
	DB	0b5H
	DB	018H
	DB	0c6H
	DB	0f7H
	DB	0bdH
	DB	0d7H
	DB	0bdH
	DB	038H
	DB	0c6H
	DB	0f7H
	DB	0bdH
	DB	0f7H
	DB	0bdH
	DB	0b6H
	DB	0b5H
	DB	096H
	DB	0b5H
	DB	096H
	DB	0b5H
	DB	018H
	DB	0c6H
	DB	038H
	DB	0c6H
	DB	0d7H
	DB	0bdH
	DB	0d7H
	DB	0bdH
	DB	0d7H
	DB	0bdH
	DB	0f7H
	DB	0bdH
	DB	0b6H
	DB	0b5H
	DB	0b6H
	DB	0b5H
	DB	0b6H
	DB	0b5H
	DB	018H
	DB	0c6H
	DB	018H
	DB	0c6H
	DB	0f7H
	DB	0bdH
	DB	0d7H
	DB	0bdH
	DB	0b6H
	DB	0b5H
	DB	018H
	DB	0c6H
	DB	0d7H
	DB	0bdH
	DB	075H
	DB	0adH
	DB	0d7H
	DB	0bdH
	DB	018H
	DB	0c6H
	DB	0f7H
	DB	0bdH
	DB	0d7H
	DB	0bdH
	DB	038H
	DB	0c6H
	DB	018H
	DB	0c6H
	DB	096H
	DB	0b5H
	DB	0d7H
	DB	0bdH
	DB	038H
	DB	0c6H
	DB	0b6H
	DB	0b5H
	DB	0b6H
	DB	0b5H
	DB	0d7H
	DB	0bdH
	DB	0d7H
	DB	0bdH
	DB	038H
	DB	0c6H
	DB	0b6H
	DB	0b5H
	DB	018H
	DB	0c6H
	DB	018H
	DB	0c6H
	DB	0f7H
	DB	0bdH
	DB	0d7H
	DB	0bdH
	DB	0b6H
	DB	0b5H
	DB	018H
	DB	0c6H
	DB	0b6H
	DB	0b5H
	DB	096H
	DB	0b5H
	DB	0d7H
	DB	0bdH
	DB	038H
	DB	0c6H
	DB	038H
	DB	0c6H
	DB	0d7H
	DB	0bdH
	DB	0b6H
	DB	0b5H
	DB	0d7H
	DB	0bdH
	DB	018H
	DB	0c6H
	DB	0d7H
	DB	0bdH
	DB	075H
	DB	0adH
	DB	018H
	DB	0c6H
	DB	038H
	DB	0c6H
	DB	0d7H
	DB	0bdH
	DB	0d7H
	DB	0bdH
	DB	0d7H
	DB	0bdH
	DB	0d7H
	DB	0bdH
	DB	0f7H
	DB	0bdH
	DB	0d7H
	DB	0bdH
	DB	018H
	DB	0c6H
	DB	0f7H
	DB	0bdH
	DB	018H
	DB	0c6H
	DB	0d7H
	DB	0bdH
	DB	0b6H
	DB	0b5H
	DB	0d7H
	DB	0bdH
	DB	038H
	DB	0c6H
	DB	0f7H
	DB	0bdH
	DB	0d7H
	DB	0bdH
	DB	075H
	DB	0adH
	DB	018H
	DB	0c6H
	DB	018H
	DB	0c6H
	DB	0f7H
	DB	0bdH
	DB	055H
	DB	0adH
	DB	075H
	DB	0adH
	DB	038H
	DB	0c6H
	DB	038H
	DB	0c6H
	DB	038H
	DB	0c6H
	DB	0d7H
	DB	0bdH
	DB	0b6H
	DB	0b5H
	DB	0b6H
	DB	0b5H
	DB	038H
	DB	0c6H
	DB	0d7H
	DB	0bdH
	DB	0f7H
	DB	0bdH
	DB	0d7H
	DB	0bdH
	DB	0d7H
	DB	0bdH
	DB	0d7H
	DB	0bdH
	DB	0f7H
	DB	0bdH
	DB	096H
	DB	0b5H
	DB	075H
	DB	0adH
	DB	038H
	DB	0c6H
	DB	018H
	DB	0c6H
	DB	0f7H
	DB	0bdH
	DB	0b6H
	DB	0b5H
	DB	018H
	DB	0c6H
	DB	0f7H
	DB	0bdH
	DB	0b6H
	DB	0b5H
	DB	075H
	DB	0adH
	DB	096H
	DB	0b5H
	DB	018H
	DB	0c6H
	DB	038H
	DB	0c6H
	DB	0f7H
	DB	0bdH
	DB	0d7H
	DB	0bdH
	DB	0d7H
	DB	0bdH
	DB	096H
	DB	0b5H
	DB	0f7H
	DB	0bdH
	DB	0f7H
	DB	0bdH
	DB	0d7H
	DB	0bdH
	DB	0f7H
	DB	0bdH
	DB	0f7H
	DB	0bdH
	DB	0b6H
	DB	0b5H
	DB	0b6H
	DB	0b5H
	DB	0f7H
	DB	0bdH
	DB	018H
	DB	0c6H
	DB	018H
	DB	0c6H
	DB	0b6H
	DB	0b5H
	DB	0d7H
	DB	0bdH
	DB	0f7H
	DB	0bdH
	DB	096H
	DB	0b5H
	DB	0d7H
	DB	0bdH
	DB	096H
	DB	0b5H
	DB	0b6H
	DB	0b5H
	DB	038H
	DB	0c6H
	DB	038H
	DB	0c6H
	DB	0f7H
	DB	0bdH
	DB	075H
	DB	0adH
	DB	0d7H
	DB	0bdH
	DB	0d7H
	DB	0bdH
	DB	0d7H
	DB	0bdH
	DB	0d7H
	DB	0bdH
	DB	096H
	DB	0b5H
	DB	0f7H
	DB	0bdH
	DB	059H
	DB	0ceH
	DB	018H
	DB	0c6H
	DB	0b6H
	DB	0b5H
	DB	0f7H
	DB	0bdH
	DB	018H
	DB	0c6H
	DB	0d7H
	DB	0bdH
	DB	0b6H
	DB	0b5H
	DB	0f7H
	DB	0bdH
	DB	0b6H
	DB	0b5H
	DB	0d7H
	DB	0bdH
	DB	038H
	DB	0c6H
	DB	0d7H
	DB	0bdH
	DB	096H
	DB	0b5H
	DB	0b6H
	DB	0b5H
	DB	0d7H
	DB	0bdH
	DB	038H
	DB	0c6H
	DB	018H
	DB	0c6H
	DB	0f7H
	DB	0bdH
	DB	0d7H
	DB	0bdH
	DB	0b6H
	DB	0b5H
	DB	0b6H
	DB	0b5H
	DB	0b6H
	DB	0b5H
	DB	018H
	DB	0c6H
	DB	059H
	DB	0ceH
	DB	018H
	DB	0c6H
	DB	0b6H
	DB	0b5H
	DB	075H
	DB	0adH
	DB	0f7H
	DB	0bdH
	DB	018H
	DB	0c6H
	DB	0d7H
	DB	0bdH
	DB	0b6H
	DB	0b5H
	DB	0d7H
	DB	0bdH
	DB	0d7H
	DB	0bdH
	DB	0f7H
	DB	0bdH
	DB	038H
	DB	0c6H
	DB	0f7H
	DB	0bdH
	DB	0d7H
	DB	0bdH
	DB	018H
	DB	0c6H
	DB	0d7H
	DB	0bdH
	DB	034H
	DB	0a5H
	DB	018H
	DB	0c6H
	DB	0f7H
	DB	0bdH
	DB	0b6H
	DB	0b5H
	DB	038H
	DB	0c6H
	DB	0f7H
	DB	0bdH
	DB	0f7H
	DB	0bdH
	DB	0b6H
	DB	0b5H
	DB	0f7H
	DB	0bdH
	DB	0f7H
	DB	0bdH
	DB	0f7H
	DB	0bdH
	DB	018H
	DB	0c6H
	DB	0d7H
	DB	0bdH
	DB	0d7H
	DB	0bdH
	DB	0b6H
	DB	0b5H
	DB	0f7H
	DB	0bdH
	DB	0b6H
	DB	0b5H
	DB	018H
	DB	0c6H
	DB	0d7H
	DB	0bdH
	DB	075H
	DB	0adH
	DB	0d7H
	DB	0bdH
	DB	038H
	DB	0c6H
	DB	0f7H
	DB	0bdH
	DB	0f7H
	DB	0bdH
	DB	038H
	DB	0c6H
	DB	0b6H
	DB	0b5H
	DB	018H
	DB	0c6H
	DB	018H
	DB	0c6H
	DB	0b6H
	DB	0b5H
	DB	0b6H
	DB	0b5H
	DB	0b6H
	DB	0b5H
	DB	038H
	DB	0c6H
	DB	0d7H
	DB	0bdH
	DB	0f7H
	DB	0bdH
	DB	0f7H
	DB	0bdH
	DB	0f7H
	DB	0bdH
	DB	0f7H
	DB	0bdH
	DB	0d7H
	DB	0bdH
	DB	075H
	DB	0adH
	DB	055H
	DB	0adH
	DB	059H
	DB	0ceH
	DB	038H
	DB	0c6H
	DB	0f7H
	DB	0bdH
	DB	0d7H
	DB	0bdH
	DB	096H
	DB	0b5H
	DB	0d7H
	DB	0bdH
	DB	0b6H
	DB	0b5H
	DB	0b6H
	DB	0b5H
	DB	038H
	DB	0c6H
	DB	0f7H
	DB	0bdH
	DB	0d7H
	DB	0bdH
	DB	0f7H
	DB	0bdH
	DB	055H
	DB	0adH
	DB	096H
	DB	0b5H
	DB	059H
	DB	0ceH
	DB	018H
	DB	0c6H
	DB	0b6H
	DB	0b5H
	DB	0d7H
	DB	0bdH
	DB	0d7H
	DB	0bdH
	DB	075H
	DB	0adH
	DB	0b6H
	DB	0b5H
	DB	038H
	DB	0c6H
	DB	0d7H
	DB	0bdH
	DB	0d7H
	DB	0bdH
	DB	0d7H
	DB	0bdH
	DB	018H
	DB	0c6H
	DB	0b6H
	DB	0b5H
	DB	018H
	DB	0c6H
	DB	0b6H
	DB	0b5H
	DB	075H
	DB	0adH
	DB	038H
	DB	0c6H
	DB	018H
	DB	0c6H
	DB	0f7H
	DB	0bdH
	DB	0d7H
	DB	0bdH
	DB	0b6H
	DB	0b5H
	DB	0f7H
	DB	0bdH
	DB	0d7H
	DB	0bdH
	DB	096H
	DB	0b5H
	DB	0f7H
	DB	0bdH
	DB	038H
	DB	0c6H
	DB	0d7H
	DB	0bdH
	DB	0b6H
	DB	0b5H
	DB	0d7H
	DB	0bdH
	DB	0f7H
	DB	0bdH
	DB	018H
	DB	0c6H
	DB	0d7H
	DB	0bdH
	DB	096H
	DB	0b5H
	DB	0d7H
	DB	0bdH
	DB	038H
	DB	0c6H
	DB	0b6H
	DB	0b5H
	DB	0d7H
	DB	0bdH
	DB	018H
	DB	0c6H
	DB	0d7H
	DB	0bdH
	DB	0b6H
	DB	0b5H
	DB	0f7H
	DB	0bdH
	DB	018H
	DB	0c6H
	DB	0d7H
	DB	0bdH
	DB	075H
	DB	0adH
	DB	0d7H
	DB	0bdH
	DB	059H
	DB	0ceH
	DB	038H
	DB	0c6H
	DB	0f7H
	DB	0bdH
	DB	0b6H
	DB	0b5H
	DB	0f7H
	DB	0bdH
	DB	0f7H
	DB	0bdH
	DB	0d7H
	DB	0bdH
	DB	096H
	DB	0b5H
	DB	0b6H
	DB	0b5H
	DB	018H
	DB	0c6H
	DB	018H
	DB	0c6H
	DB	038H
	DB	0c6H
	DB	018H
	DB	0c6H
	DB	0f7H
	DB	0bdH
	DB	0d7H
	DB	0bdH
	DB	0d7H
	DB	0bdH
	DB	0b6H
	DB	0b5H
	DB	0d7H
	DB	0bdH
	DB	038H
	DB	0c6H
	DB	0f7H
	DB	0bdH
	DB	0f7H
	DB	0bdH
	DB	0b6H
	DB	0b5H
	DB	0b6H
	DB	0b5H
	DB	096H
	DB	0b5H
	DB	018H
	DB	0c6H
	DB	018H
	DB	0c6H
	DB	0f7H
	DB	0bdH
	DB	038H
	DB	0c6H
	DB	0d7H
	DB	0bdH
	DB	018H
	DB	0c6H
	DB	0b6H
	DB	0b5H
	DB	0b6H
	DB	0b5H
	DB	096H
	DB	0b5H
	DB	0b6H
	DB	0b5H
	DB	059H
	DB	0ceH
	DB	018H
	DB	0c6H
	DB	0d7H
	DB	0bdH
	DB	0b6H
	DB	0b5H
	DB	0d7H
	DB	0bdH
	DB	0f7H
	DB	0bdH
	DB	0f7H
	DB	0bdH
	DB	0f7H
	DB	0bdH
	DB	0d7H
	DB	0bdH
	DB	0f7H
	DB	0bdH
	DB	018H
	DB	0c6H
	DB	0f7H
	DB	0bdH
	DB	0b6H
	DB	0b5H
	DB	018H
	DB	0c6H
	DB	0d7H
	DB	0bdH
	DB	0b6H
	DB	0b5H
	DB	075H
	DB	0adH
	DB	038H
	DB	0c6H
	DB	0d7H
	DB	0bdH
	DB	018H
	DB	0c6H
	DB	018H
	DB	0c6H
	DB	0d7H
	DB	0bdH
	DB	0b6H
	DB	0b5H
	DB	0b6H
	DB	0b5H
	DB	038H
	DB	0c6H
	DB	0f7H
	DB	0bdH
	DB	0d7H
	DB	0bdH
	DB	0d7H
	DB	0bdH
	DB	075H
	DB	0adH
	DB	0d7H
	DB	0bdH
	DB	0f7H
	DB	0bdH
	DB	018H
	DB	0c6H
	DB	018H
	DB	0c6H
	DB	0d7H
	DB	0bdH
	DB	0d7H
	DB	0bdH
	DB	0d7H
	DB	0bdH
	DB	018H
	DB	0c6H
	DB	0d7H
	DB	0bdH
	DB	0b6H
	DB	0b5H
	DB	0f7H
	DB	0bdH
	DB	0d7H
	DB	0bdH
	DB	018H
	DB	0c6H
	DB	0d7H
	DB	0bdH
	DB	0d7H
	DB	0bdH
	DB	018H
	DB	0c6H
	DB	0b6H
	DB	0b5H
	DB	0f7H
	DB	0bdH
	DB	096H
	DB	0b5H
	DB	038H
	DB	0c6H
	DB	038H
	DB	0c6H
	DB	0d7H
	DB	0bdH
	DB	0b6H
	DB	0b5H
	DB	0d7H
	DB	0bdH
	DB	096H
	DB	0b5H
	DB	096H
	DB	0b5H
	DB	0f7H
	DB	0bdH
	DB	059H
	DB	0ceH
	DB	0d7H
	DB	0bdH
	DB	0d7H
	DB	0bdH
	DB	0f7H
	DB	0bdH
	DB	0b6H
	DB	0b5H
	DB	096H
	DB	0b5H
	DB	038H
	DB	0c6H
	DB	0f7H
	DB	0bdH
	DB	0d7H
	DB	0bdH
	DB	096H
	DB	0b5H
	DB	018H
	DB	0c6H
	DB	0f7H
	DB	0bdH
	DB	0f7H
	DB	0bdH
	DB	0d7H
	DB	0bdH
	DB	0f7H
	DB	0bdH
	DB	096H
	DB	0b5H
	DB	018H
	DB	0c6H
	DB	0f7H
	DB	0bdH
	DB	0d7H
	DB	0bdH
	DB	096H
	DB	0b5H
	DB	0f7H
	DB	0bdH
	DB	038H
	DB	0c6H
	DB	0d7H
	DB	0bdH
	DB	0b6H
	DB	0b5H
	DB	018H
	DB	0c6H
	DB	0f7H
	DB	0bdH
	DB	0d7H
	DB	0bdH
	DB	0d7H
	DB	0bdH
	DB	0b6H
	DB	0b5H
	DB	055H
	DB	0adH
	DB	0f7H
	DB	0bdH
	DB	038H
	DB	0c6H
	DB	038H
	DB	0c6H
	DB	0b6H
	DB	0b5H
	DB	0d7H
	DB	0bdH
	DB	038H
	DB	0c6H
	DB	0d7H
	DB	0bdH
	DB	096H
	DB	0b5H
	DB	0b6H
	DB	0b5H
	DB	0b6H
	DB	0b5H
	DB	0f7H
	DB	0bdH
	DB	018H
	DB	0c6H
	DB	0d7H
	DB	0bdH
	DB	0b6H
	DB	0b5H
	DB	0f7H
	DB	0bdH
	DB	018H
	DB	0c6H
	DB	0d7H
	DB	0bdH
	DB	0b6H
	DB	0b5H
	DB	0d7H
	DB	0bdH
	DB	018H
	DB	0c6H
	DB	0d7H
	DB	0bdH
	DB	0f7H
	DB	0bdH
	DB	0f7H
	DB	0bdH
	DB	038H
	DB	0c6H
	DB	0f7H
	DB	0bdH
	DB	0b6H
	DB	0b5H
	DB	0b6H
	DB	0b5H
	DB	018H
	DB	0c6H
	DB	0f7H
	DB	0bdH
	DB	0b6H
	DB	0b5H
	DB	096H
	DB	0b5H
	DB	0f7H
	DB	0bdH
	DB	038H
	DB	0c6H
	DB	0f7H
	DB	0bdH
	DB	0f7H
	DB	0bdH
	DB	0b6H
	DB	0b5H
	DB	0f7H
	DB	0bdH
	DB	0f7H
	DB	0bdH
	DB	0b6H
	DB	0b5H
	DB	018H
	DB	0c6H
	DB	075H
	DB	0adH
	DB	0f7H
	DB	0bdH
	DB	059H
	DB	0ceH
	DB	018H
	DB	0c6H
	DB	0b6H
	DB	0b5H
	DB	0f7H
	DB	0bdH
	DB	0d7H
	DB	0bdH
	DB	0f7H
	DB	0bdH
	DB	096H
	DB	0b5H
	DB	096H
	DB	0b5H
	DB	0f7H
	DB	0bdH
	DB	038H
	DB	0c6H
	DB	038H
	DB	0c6H
	DB	0d7H
	DB	0bdH
	DB	0b6H
	DB	0b5H
	DB	0b6H
	DB	0b5H
	DB	096H
	DB	0b5H
	DB	038H
	DB	0c6H
	DB	0f7H
	DB	0bdH
	DB	0d7H
	DB	0bdH
	DB	018H
	DB	0c6H
	DB	0b6H
	DB	0b5H
	DB	055H
	DB	0adH
	DB	0b6H
	DB	0b5H
	DB	059H
	DB	0ceH
	DB	018H
	DB	0c6H
	DB	0f7H
	DB	0bdH
	DB	0d7H
	DB	0bdH
	DB	096H
	DB	0b5H
	DB	075H
	DB	0adH
	DB	0f7H
	DB	0bdH
	DB	018H
	DB	0c6H
	DB	0d7H
	DB	0bdH
	DB	0b6H
	DB	0b5H
	DB	0b6H
	DB	0b5H
	DB	059H
	DB	0ceH
	DB	018H
	DB	0c6H
	DB	018H
	DB	0c6H
	DB	0b6H
	DB	0b5H
	DB	018H
	DB	0c6H
	DB	0f7H
	DB	0bdH
	DB	055H
	DB	0adH
	DB	096H
	DB	0b5H
	DB	038H
	DB	0c6H
	DB	096H
	DB	0b5H
	DB	038H
	DB	0c6H
	DB	038H
	DB	0c6H
	DB	0d7H
	DB	0bdH
	DB	075H
	DB	0adH
	DB	018H
	DB	0c6H
	DB	018H
	DB	0c6H
	DB	075H
	DB	0adH
	DB	0d7H
	DB	0bdH
	DB	059H
	DB	0ceH
	DB	0b6H
	DB	0b5H
	DB	075H
	DB	0adH
	DB	018H
	DB	0c6H
	DB	018H
	DB	0c6H
	DB	096H
	DB	0b5H
	DB	096H
	DB	0b5H
	DB	0d7H
	DB	0bdH
	DB	038H
	DB	0c6H
	DB	018H
	DB	0c6H
	DB	0d7H
	DB	0bdH
	DB	0f7H
	DB	0bdH
	DB	0f7H
	DB	0bdH
	DB	0b6H
	DB	0b5H
	DB	0b6H
	DB	0b5H
	DB	0b6H
	DB	0b5H
	DB	0b6H
	DB	0b5H
	DB	0d7H
	DB	0bdH
	DB	018H
	DB	0c6H
	DB	038H
	DB	0c6H
	DB	0d7H
	DB	0bdH
	DB	075H
	DB	0adH
	DB	0f7H
	DB	0bdH
	DB	018H
	DB	0c6H
	DB	0f7H
	DB	0bdH
	DB	0d7H
	DB	0bdH
	DB	055H
	DB	0adH
	DB	075H
	DB	0adH
	DB	038H
	DB	0c6H
	DB	038H
	DB	0c6H
	DB	018H
	DB	0c6H
	DB	0d7H
	DB	0bdH
	DB	096H
	DB	0b5H
	DB	0d7H
	DB	0bdH
	DB	0b6H
	DB	0b5H
	DB	0b6H
	DB	0b5H
	DB	038H
	DB	0c6H
	DB	0f7H
	DB	0bdH
	DB	0b6H
	DB	0b5H
	DB	0f7H
	DB	0bdH
	DB	096H
	DB	0b5H
	DB	0f7H
	DB	0bdH
	DB	038H
	DB	0c6H
	DB	0b6H
	DB	0b5H
	DB	038H
	DB	0c6H
	DB	018H
	DB	0c6H
	DB	0b6H
	DB	0b5H
	DB	075H
	DB	0adH
	DB	0d7H
	DB	0bdH
	DB	038H
	DB	0c6H
	DB	0f7H
	DB	0bdH
	DB	0b6H
	DB	0b5H
	DB	0b6H
	DB	0b5H
	DB	018H
	DB	0c6H
	DB	0d7H
	DB	0bdH
	DB	0b6H
	DB	0b5H
	DB	0b6H
	DB	0b5H
	DB	0b6H
	DB	0b5H
	DB	059H
	DB	0ceH
	DB	018H
	DB	0c6H
	DB	0f7H
	DB	0bdH
	DB	018H
	DB	0c6H
	DB	096H
	DB	0b5H
	DB	096H
	DB	0b5H
	DB	0d7H
	DB	0bdH
	DB	0f7H
	DB	0bdH
	DB	059H
	DB	0ceH
	DB	018H
	DB	0c6H
	DB	0b6H
	DB	0b5H
	DB	0d7H
	DB	0bdH
	DB	096H
	DB	0b5H
	DB	0d7H
	DB	0bdH
	DB	059H
	DB	0ceH
	DB	0f7H
	DB	0bdH
	DB	055H
	DB	0adH
	DB	0d7H
	DB	0bdH
	DB	038H
	DB	0c6H
	DB	0b6H
	DB	0b5H
	DB	0b6H
	DB	0b5H
	DB	0d7H
	DB	0bdH
	DB	0d7H
	DB	0bdH
	DB	0f7H
	DB	0bdH
	DB	0b6H
	DB	0b5H
	DB	0f7H
	DB	0bdH
	DB	0b6H
	DB	0b5H
	DB	075H
	DB	0adH
	DB	018H
	DB	0c6H
	DB	018H
	DB	0c6H
	DB	059H
	DB	0ceH
	DB	018H
	DB	0c6H
	DB	0b6H
	DB	0b5H
	DB	0b6H
	DB	0b5H
	DB	0f7H
	DB	0bdH
	DB	0d7H
	DB	0bdH
	DB	055H
	DB	0adH
	DB	0f7H
	DB	0bdH
	DB	038H
	DB	0c6H
	DB	0d7H
	DB	0bdH
	DB	038H
	DB	0c6H
	DB	0f7H
	DB	0bdH
	DB	0f7H
	DB	0bdH
	DB	0b6H
	DB	0b5H
	DB	096H
	DB	0b5H
	DB	0d7H
	DB	0bdH
	DB	0d7H
	DB	0bdH
	DB	038H
	DB	0c6H
	DB	018H
	DB	0c6H
	DB	038H
	DB	0c6H
	DB	0f7H
	DB	0bdH
	DB	096H
	DB	0b5H
	DB	096H
	DB	0b5H
	DB	0b6H
	DB	0b5H
	DB	0d7H
	DB	0bdH
	DB	059H
	DB	0ceH
	DB	018H
	DB	0c6H
	DB	0b6H
	DB	0b5H
	DB	018H
	DB	0c6H
	DB	0b6H
	DB	0b5H
	DB	0b6H
	DB	0b5H
	DB	0b6H
	DB	0b5H
	DB	0f7H
	DB	0bdH
	DB	038H
	DB	0c6H
	DB	018H
	DB	0c6H
	DB	0d7H
	DB	0bdH
	DB	0b6H
	DB	0b5H
	DB	0d7H
	DB	0bdH
	DB	0f7H
	DB	0bdH
	DB	0d7H
	DB	0bdH
	DB	0f7H
	DB	0bdH
	DB	0f7H
	DB	0bdH
	DB	0d7H
	DB	0bdH
	DB	0f7H
	DB	0bdH
	DB	038H
	DB	0c6H
	DB	0d7H
	DB	0bdH
	DB	018H
	DB	0c6H
	DB	0f7H
	DB	0bdH
	DB	0d7H
	DB	0bdH
	DB	055H
	DB	0adH
	DB	0f7H
	DB	0bdH
	DB	059H
	DB	0ceH
	DB	0f7H
	DB	0bdH
	DB	0d7H
	DB	0bdH
	DB	0d7H
	DB	0bdH
	DB	0d7H
	DB	0bdH
	DB	075H
	DB	0adH
	DB	0d7H
	DB	0bdH
	DB	018H
	DB	0c6H
	DB	0f7H
	DB	0bdH
	DB	0d7H
	DB	0bdH
	DB	096H
	DB	0b5H
	DB	0d7H
	DB	0bdH
	DB	038H
	DB	0c6H
	DB	0f7H
	DB	0bdH
	DB	0f7H
	DB	0bdH
	DB	0d7H
	DB	0bdH
	DB	0b6H
	DB	0b5H
	DB	0b6H
	DB	0b5H
	DB	0f7H
	DB	0bdH
	DB	075H
	DB	0adH
	DB	0d7H
	DB	0bdH
	DB	059H
	DB	0ceH
	DB	0f7H
	DB	0bdH
	DB	0f7H
	DB	0bdH
	DB	0b6H
	DB	0b5H
	DB	0b6H
	DB	0b5H
	DB	0f7H
	DB	0bdH
	DB	055H
	DB	0adH
	DB	0b6H
	DB	0b5H
	DB	018H
	DB	0c6H
	DB	018H
	DB	0c6H
	DB	038H
	DB	0c6H
	DB	0f7H
	DB	0bdH
	DB	0d7H
	DB	0bdH
	DB	0f7H
	DB	0bdH
	DB	096H
	DB	0b5H
	DB	096H
	DB	0b5H
	DB	0f7H
	DB	0bdH
	DB	038H
	DB	0c6H
	DB	0f7H
	DB	0bdH
	DB	0b6H
	DB	0b5H
	DB	0b6H
	DB	0b5H
	DB	0d7H
	DB	0bdH
	DB	075H
	DB	0adH
	DB	018H
	DB	0c6H
	DB	038H
	DB	0c6H
	DB	0f7H
	DB	0bdH
	DB	0b6H
	DB	0b5H
	DB	0f7H
	DB	0bdH
	DB	0b6H
	DB	0b5H
	DB	038H
	DB	0c6H
	DB	038H
	DB	0c6H
	DB	0d7H
	DB	0bdH
	DB	075H
	DB	0adH
	DB	018H
	DB	0c6H
	DB	0d7H
	DB	0bdH
	DB	055H
	DB	0adH
	DB	0b6H
	DB	0b5H
	DB	018H
	DB	0c6H
	DB	038H
	DB	0c6H
	DB	0f7H
	DB	0bdH
	DB	0b6H
	DB	0b5H
	DB	0d7H
	DB	0bdH
	DB	018H
	DB	0c6H
	DB	0b6H
	DB	0b5H
	DB	0b6H
	DB	0b5H
	DB	0d7H
	DB	0bdH
	DB	096H
	DB	0b5H
	DB	018H
	DB	0c6H
	DB	0d7H
	DB	0bdH
	DB	018H
	DB	0c6H
	DB	0b6H
	DB	0b5H
	DB	0d7H
	DB	0bdH
	DB	0f7H
	DB	0bdH
	DB	096H
	DB	0b5H
	DB	0b6H
	DB	0b5H
	DB	0d7H
	DB	0bdH
	DB	0d7H
	DB	0bdH
	DB	038H
	DB	0c6H
	DB	0f7H
	DB	0bdH
	DB	0b6H
	DB	0b5H
	DB	0b6H
	DB	0b5H
	DB	018H
	DB	0c6H
	DB	0d7H
	DB	0bdH
	DB	0f7H
	DB	0bdH
	DB	0b6H
	DB	0b5H
	DB	0b6H
	DB	0b5H
	DB	018H
	DB	0c6H
	DB	0f7H
	DB	0bdH
	DB	0f7H
	DB	0bdH
	DB	0d7H
	DB	0bdH
	DB	0f7H
	DB	0bdH
	DB	0d7H
	DB	0bdH
	DB	0b6H
	DB	0b5H
	DB	018H
	DB	0c6H
	DB	018H
	DB	0c6H
	DB	018H
	DB	0c6H
	DB	0b6H
	DB	0b5H
	DB	075H
	DB	0adH
	DB	018H
	DB	0c6H
	DB	018H
	DB	0c6H
	DB	0d7H
	DB	0bdH
	DB	0d7H
	DB	0bdH
	DB	0f7H
	DB	0bdH
	DB	0d7H
	DB	0bdH
	DB	018H
	DB	0c6H
	DB	096H
	DB	0b5H
	DB	018H
	DB	0c6H
	DB	0b6H
	DB	0b5H
	DB	0f7H
	DB	0bdH
	DB	0f7H
	DB	0bdH
	DB	0f7H
	DB	0bdH
	DB	0d7H
	DB	0bdH
	DB	0f7H
	DB	0bdH
	DB	0f7H
	DB	0bdH
	DB	0d7H
	DB	0bdH
	DB	096H
	DB	0b5H
	DB	096H
	DB	0b5H
	DB	0f7H
	DB	0bdH
	DB	059H
	DB	0ceH
	DB	018H
	DB	0c6H
	DB	0d7H
	DB	0bdH
	DB	0f7H
	DB	0bdH
	DB	096H
	DB	0b5H
	DB	096H
	DB	0b5H
	DB	038H
	DB	0c6H
	DB	018H
	DB	0c6H
	DB	0d7H
	DB	0bdH
	DB	018H
	DB	0c6H
	DB	096H
	DB	0b5H
	DB	055H
	DB	0adH
	DB	018H
	DB	0c6H
	DB	038H
	DB	0c6H
	DB	018H
	DB	0c6H
	DB	0b6H
	DB	0b5H
	DB	0b6H
	DB	0b5H
	DB	0b6H
	DB	0b5H
	DB	055H
	DB	0adH
	DB	0f7H
	DB	0bdH
	DB	018H
	DB	0c6H
	DB	018H
	DB	0c6H
	DB	0b6H
	DB	0b5H
	DB	0b6H
	DB	0b5H
	DB	018H
	DB	0c6H
	DB	0d7H
	DB	0bdH
	DB	0f7H
	DB	0bdH
	DB	0d7H
	DB	0bdH
	DB	018H
	DB	0c6H
	DB	018H
	DB	0c6H
	DB	0b6H
	DB	0b5H
	DB	055H
	DB	0adH
	DB	0b6H
	DB	0b5H
	DB	0d7H
	DB	0bdH
	DB	018H
	DB	0c6H
	DB	038H
	DB	0c6H
	DB	0b6H
	DB	0b5H
	DB	0b6H
	DB	0b5H
	DB	038H
	DB	0c6H
	DB	018H
	DB	0c6H
	DB	096H
	DB	0b5H
	DB	096H
	DB	0b5H
	DB	038H
	DB	0c6H
	DB	018H
	DB	0c6H
	DB	0b6H
	DB	0b5H
	DB	0d7H
	DB	0bdH
	DB	038H
	DB	0c6H
	DB	096H
	DB	0b5H
	DB	0d7H
	DB	0bdH
	DB	0d7H
	DB	0bdH
	DB	018H
	DB	0c6H
	DB	018H
	DB	0c6H
	DB	0b6H
	DB	0b5H
	DB	0d7H
	DB	0bdH
	DB	0f7H
	DB	0bdH
	DB	0f7H
	DB	0bdH
	DB	0b6H
	DB	0b5H
	DB	075H
	DB	0adH
	DB	075H
	DB	0adH
	DB	059H
	DB	0ceH
	DB	038H
	DB	0c6H
	DB	0f7H
	DB	0bdH
	DB	0f7H
	DB	0bdH
	DB	096H
	DB	0b5H
	DB	075H
	DB	0adH
	DB	059H
	DB	0ceH
	DB	0f7H
	DB	0bdH
	DB	034H
	DB	0a5H
	DB	096H
	DB	0b5H
	DB	018H
	DB	0c6H
	DB	0d7H
	DB	0bdH
	DB	018H
	DB	0c6H
	DB	038H
	DB	0c6H
	DB	0f7H
	DB	0bdH
	DB	0d7H
	DB	0bdH
	DB	0f7H
	DB	0bdH
	DB	0b6H
	DB	0b5H
	DB	075H
	DB	0adH
	DB	038H
	DB	0c6H
	DB	0b6H
	DB	0b5H
	DB	0d7H
	DB	0bdH
	DB	038H
	DB	0c6H
	DB	0d7H
	DB	0bdH
	DB	0b6H
	DB	0b5H
	DB	038H
	DB	0c6H
	DB	0b6H
	DB	0b5H
	DB	0f7H
	DB	0bdH
	DB	0f7H
	DB	0bdH
	DB	096H
	DB	0b5H
	DB	096H
	DB	0b5H
	DB	038H
	DB	0c6H
	DB	0f7H
	DB	0bdH
	DB	0f7H
	DB	0bdH
	DB	0d7H
	DB	0bdH
	DB	0b6H
	DB	0b5H
	DB	0f7H
	DB	0bdH
	DB	0d7H
	DB	0bdH
	DB	034H
	DB	0a5H
	DB	0b6H
	DB	0b5H
	DB	0f7H
	DB	0bdH
	DB	018H
	DB	0c6H
	DB	018H
	DB	0c6H
	DB	0d7H
	DB	0bdH
	DB	0f7H
	DB	0bdH
	DB	0f7H
	DB	0bdH
	DB	096H
	DB	0b5H
	DB	0f7H
	DB	0bdH
	DB	0f7H
	DB	0bdH
	DB	038H
	DB	0c6H
	DB	0f7H
	DB	0bdH
	DB	0b6H
	DB	0b5H
	DB	0f7H
	DB	0bdH
	DB	0b6H
	DB	0b5H
	DB	096H
	DB	0b5H
	DB	038H
	DB	0c6H
	DB	0d7H
	DB	0bdH
	DB	0b6H
	DB	0b5H
	DB	018H
	DB	0c6H
	DB	0d7H
	DB	0bdH
	DB	0d7H
	DB	0bdH
	DB	0d7H
	DB	0bdH
	DB	0d7H
	DB	0bdH
	DB	0b6H
	DB	0b5H
	DB	018H
	DB	0c6H
	DB	0d7H
	DB	0bdH
	DB	0d7H
	DB	0bdH
	DB	0b6H
	DB	0b5H
	DB	096H
	DB	0b5H
	DB	038H
	DB	0c6H
	DB	0d7H
	DB	0bdH
	DB	018H
	DB	0c6H
	DB	038H
	DB	0c6H
	DB	0d7H
	DB	0bdH
	DB	096H
	DB	0b5H
	DB	096H
	DB	0b5H
	DB	0f7H
	DB	0bdH
	DB	0b6H
	DB	0b5H
	DB	038H
	DB	0c6H
	DB	018H
	DB	0c6H
	DB	0b6H
	DB	0b5H
	DB	0f7H
	DB	0bdH
	DB	0f7H
	DB	0bdH
	DB	0d7H
	DB	0bdH
	DB	0b6H
	DB	0b5H
	DB	0b6H
	DB	0b5H
	DB	0f7H
	DB	0bdH
	DB	0b6H
	DB	0b5H
	DB	018H
	DB	0c6H
	DB	038H
	DB	0c6H
	DB	018H
	DB	0c6H
	DB	0d7H
	DB	0bdH
	DB	0d7H
	DB	0bdH
	DB	0b6H
	DB	0b5H
	DB	0d7H
	DB	0bdH
	DB	0b6H
	DB	0b5H
	DB	018H
	DB	0c6H
	DB	018H
	DB	0c6H
	DB	096H
	DB	0b5H
	DB	0d7H
	DB	0bdH
	DB	096H
	DB	0b5H
	DB	055H
	DB	0adH
	DB	038H
	DB	0c6H
	DB	038H
	DB	0c6H
	DB	0d7H
	DB	0bdH
	DB	0b6H
	DB	0b5H
	DB	0f7H
	DB	0bdH
	DB	0f7H
	DB	0bdH
	DB	0d7H
	DB	0bdH
	DB	018H
	DB	0c6H
	DB	0d7H
	DB	0bdH
	DB	096H
	DB	0b5H
	DB	018H
	DB	0c6H
	DB	0f7H
	DB	0bdH
	DB	0d7H
	DB	0bdH
	DB	0f7H
	DB	0bdH
	DB	096H
	DB	0b5H
	DB	018H
	DB	0c6H
	DB	018H
	DB	0c6H
	DB	0d7H
	DB	0bdH
	DB	075H
	DB	0adH
	DB	0d7H
	DB	0bdH
	DB	059H
	DB	0ceH
	DB	018H
	DB	0c6H
	DB	0d7H
	DB	0bdH
	DB	0b6H
	DB	0b5H
	DB	0d7H
	DB	0bdH
	DB	096H
	DB	0b5H
	DB	0f7H
	DB	0bdH
	DB	038H
	DB	0c6H
	DB	0d7H
	DB	0bdH
	DB	0d7H
	DB	0bdH
	DB	0b6H
	DB	0b5H
	DB	0f7H
	DB	0bdH
	DB	0f7H
	DB	0bdH
	DB	018H
	DB	0c6H
	DB	0d7H
	DB	0bdH
	DB	0d7H
	DB	0bdH
	DB	0d7H
	DB	0bdH
	DB	0d7H
	DB	0bdH
	DB	0d7H
	DB	0bdH
	DB	075H
	DB	0adH
	DB	0f7H
	DB	0bdH
	DB	059H
	DB	0ceH
	DB	0f7H
	DB	0bdH
	DB	0f7H
	DB	0bdH
	DB	038H
	DB	0c6H
	DB	0d7H
	DB	0bdH
	DB	0d7H
	DB	0bdH
	DB	014H
	DB	0a5H
	DB	0b6H
	DB	0b5H
	DB	038H
	DB	0c6H
	DB	0b6H
	DB	0b5H
	DB	018H
	DB	0c6H
	DB	018H
	DB	0c6H
	DB	0d7H
	DB	0bdH
	DB	0b6H
	DB	0b5H
	DB	0b6H
	DB	0b5H
	DB	0d7H
	DB	0bdH
	DB	0f7H
	DB	0bdH
	DB	038H
	DB	0c6H
	DB	0f7H
	DB	0bdH
	DB	0d7H
	DB	0bdH
	DB	0b6H
	DB	0b5H
	DB	0d7H
	DB	0bdH
	DB	0d7H
	DB	0bdH
	DB	0f7H
	DB	0bdH
	DB	0f7H
	DB	0bdH
	DB	018H
	DB	0c6H
	DB	0d7H
	DB	0bdH
	DB	096H
	DB	0b5H
	DB	0d7H
	DB	0bdH
	DB	038H
	DB	0c6H
	DB	018H
	DB	0c6H
	DB	0f7H
	DB	0bdH
	DB	075H
	DB	0adH
	DB	018H
	DB	0c6H
	DB	0f7H
	DB	0bdH
	DB	075H
	DB	0adH
	DB	018H
	DB	0c6H
	DB	0d7H
	DB	0bdH
	DB	038H
	DB	0c6H
	DB	018H
	DB	0c6H
	DB	0d7H
	DB	0bdH
	DB	0b6H
	DB	0b5H
	DB	0f7H
	DB	0bdH
	DB	0b6H
	DB	0b5H
	DB	018H
	DB	0c6H
	DB	0f7H
	DB	0bdH
	DB	0b6H
	DB	0b5H
	DB	038H
	DB	0c6H
	DB	0b6H
	DB	0b5H
	DB	096H
	DB	0b5H
	DB	0b6H
	DB	0b5H
	DB	0f7H
	DB	0bdH
	DB	0b6H
	DB	0b5H
	DB	075H
	DB	0adH
	DB	0d7H
	DB	0bdH
	DB	018H
	DB	0c6H
	DB	096H
	DB	0b5H
	DB	038H
	DB	0c6H
	DB	018H
	DB	0c6H
	DB	0b6H
	DB	0b5H
	DB	096H
	DB	0b5H
	DB	038H
	DB	0c6H
	DB	0f7H
	DB	0bdH
	DB	018H
	DB	0c6H
	DB	0b6H
	DB	0b5H
	DB	0d7H
	DB	0bdH
	DB	018H
	DB	0c6H
	DB	0d7H
	DB	0bdH
	DB	0d7H
	DB	0bdH
	DB	0d7H
	DB	0bdH
	DB	0d7H
	DB	0bdH
	DB	0d7H
	DB	0bdH
	DB	0b6H
	DB	0b5H
	DB	038H
	DB	0c6H
	DB	038H
	DB	0c6H
	DB	0f7H
	DB	0bdH
	DB	096H
	DB	0b5H
	DB	0b6H
	DB	0b5H
	DB	038H
	DB	0c6H
	DB	0f7H
	DB	0bdH
	DB	0b6H
	DB	0b5H
	DB	018H
	DB	0c6H
	DB	018H
	DB	0c6H
	DB	0b6H
	DB	0b5H
	DB	0f7H
	DB	0bdH
	DB	075H
	DB	0adH
	DB	0d7H
	DB	0bdH
	DB	018H
	DB	0c6H
	DB	038H
	DB	0c6H
	DB	0d7H
	DB	0bdH
	DB	0b6H
	DB	0b5H
	DB	0b6H
	DB	0b5H
	DB	038H
	DB	0c6H
	DB	018H
	DB	0c6H
	DB	0b6H
	DB	0b5H
	DB	075H
	DB	0adH
	DB	0f7H
	DB	0bdH
	DB	0b6H
	DB	0b5H
	DB	038H
	DB	0c6H
	DB	0f7H
	DB	0bdH
	DB	018H
	DB	0c6H
	DB	0f7H
	DB	0bdH
	DB	0b6H
	DB	0b5H
	DB	0b6H
	DB	0b5H
	DB	0f7H
	DB	0bdH
	DB	0f7H
	DB	0bdH
	DB	0f7H
	DB	0bdH
	DB	0f7H
	DB	0bdH
	DB	0d7H
	DB	0bdH
	DB	0f7H
	DB	0bdH
	DB	0f7H
	DB	0bdH
	DB	0b6H
	DB	0b5H
	DB	018H
	DB	0c6H
	DB	0f7H
	DB	0bdH
	DB	0f7H
	DB	0bdH
	DB	096H
	DB	0b5H
	DB	075H
	DB	0adH
	DB	059H
	DB	0ceH
	DB	0f7H
	DB	0bdH
	DB	0f7H
	DB	0bdH
	DB	0d7H
	DB	0bdH
	DB	0b6H
	DB	0b5H
	DB	038H
	DB	0c6H
	DB	0d7H
	DB	0bdH
	DB	0d7H
	DB	0bdH
	DB	0b6H
	DB	0b5H
	DB	018H
	DB	0c6H
	DB	0d7H
	DB	0bdH
	DB	0f7H
	DB	0bdH
	DB	0f7H
	DB	0bdH
	DB	096H
	DB	0b5H
	DB	0d7H
	DB	0bdH
	DB	096H
	DB	0b5H
	DB	018H
	DB	0c6H
	DB	018H
	DB	0c6H
	DB	0f7H
	DB	0bdH
	DB	0d7H
	DB	0bdH
	DB	0d7H
	DB	0bdH
	DB	018H
	DB	0c6H
	DB	0b6H
	DB	0b5H
	DB	0b6H
	DB	0b5H
	DB	018H
	DB	0c6H
	DB	0d7H
	DB	0bdH
	DB	0d7H
	DB	0bdH
	DB	038H
	DB	0c6H
	DB	0f7H
	DB	0bdH
	DB	018H
	DB	0c6H
	DB	0b6H
	DB	0b5H
	DB	0f7H
	DB	0bdH
	DB	0d7H
	DB	0bdH
	DB	018H
	DB	0c6H
	DB	0d7H
	DB	0bdH
	DB	0b6H
	DB	0b5H
	DB	0f7H
	DB	0bdH
	DB	0b6H
	DB	0b5H
	DB	0f7H
	DB	0bdH
	DB	0b6H
	DB	0b5H
	DB	0f7H
	DB	0bdH
	DB	038H
	DB	0c6H
	DB	0d7H
	DB	0bdH
	DB	018H
	DB	0c6H
	DB	0b6H
	DB	0b5H
	DB	0b6H
	DB	0b5H
	DB	018H
	DB	0c6H
	DB	0d7H
	DB	0bdH
	DB	096H
	DB	0b5H
	DB	0b6H
	DB	0b5H
	DB	0f7H
	DB	0bdH
	DB	0d7H
	DB	0bdH
	DB	0f7H
	DB	0bdH
	DB	0d7H
	DB	0bdH
	DB	038H
	DB	0c6H
	DB	018H
	DB	0c6H
	DB	0d7H
	DB	0bdH
	DB	0b6H
	DB	0b5H
	DB	075H
	DB	0adH
	DB	0d7H
	DB	0bdH
	DB	0f7H
	DB	0bdH
	DB	059H
	DB	0ceH
	DB	018H
	DB	0c6H
	DB	0b6H
	DB	0b5H
	DB	0d7H
	DB	0bdH
	DB	018H
	DB	0c6H
	DB	0b6H
	DB	0b5H
	DB	096H
	DB	0b5H
	DB	018H
	DB	0c6H
	DB	096H
	DB	0b5H
	DB	0d7H
	DB	0bdH
	DB	059H
	DB	0ceH
	DB	0d7H
	DB	0bdH
	DB	0d7H
	DB	0bdH
	DB	0b6H
	DB	0b5H
	DB	018H
	DB	0c6H
	DB	0d7H
	DB	0bdH
	DB	0b6H
	DB	0b5H
	DB	055H
	DB	0adH
	DB	018H
	DB	0c6H
	DB	0f7H
	DB	0bdH
	DB	0d7H
	DB	0bdH
	DB	038H
	DB	0c6H
	DB	0f7H
	DB	0bdH
	DB	0f7H
	DB	0bdH
	DB	018H
	DB	0c6H
	DB	096H
	DB	0b5H
	DB	018H
	DB	0c6H
	DB	0b6H
	DB	0b5H
	DB	0f7H
	DB	0bdH
	DB	018H
	DB	0c6H
	DB	0f7H
	DB	0bdH
	DB	0f7H
	DB	0bdH
	DB	0b6H
	DB	0b5H
	DB	096H
	DB	0b5H
	DB	0f7H
	DB	0bdH
	DB	0b6H
	DB	0b5H
	DB	0f7H
	DB	0bdH
	DB	0f7H
	DB	0bdH
	DB	096H
	DB	0b5H
	DB	0f7H
	DB	0bdH
	DB	018H
	DB	0c6H
	DB	0d7H
	DB	0bdH
	DB	0b6H
	DB	0b5H
	DB	018H
	DB	0c6H
	DB	018H
	DB	0c6H
	DB	0b6H
	DB	0b5H
	DB	0b6H
	DB	0b5H
	DB	0f7H
	DB	0bdH
	DB	038H
	DB	0c6H
	DB	0b6H
	DB	0b5H
	DB	018H
	DB	0c6H
	DB	0f7H
	DB	0bdH
	DB	0b6H
	DB	0b5H
	DB	0b6H
	DB	0b5H
	DB	075H
	DB	0adH
	DB	0b6H
	DB	0b5H
	DB	059H
	DB	0ceH
	DB	038H
	DB	0c6H
	DB	0f7H
	DB	0bdH
	DB	0b6H
	DB	0b5H
	DB	018H
	DB	0c6H
	DB	0f7H
	DB	0bdH
	DB	0d7H
	DB	0bdH
	DB	096H
	DB	0b5H
	DB	0b6H
	DB	0b5H
	DB	018H
	DB	0c6H
	DB	0b6H
	DB	0b5H
	DB	0f7H
	DB	0bdH
	DB	038H
	DB	0c6H
	DB	0f7H
	DB	0bdH
	DB	096H
	DB	0b5H
	DB	0f7H
	DB	0bdH
	DB	0d7H
	DB	0bdH
	DB	018H
	DB	0c6H
	DB	0b6H
	DB	0b5H
	DB	0b6H
	DB	0b5H
	DB	038H
	DB	0c6H
	DB	0b6H
	DB	0b5H
	DB	0b6H
	DB	0b5H
	DB	096H
	DB	0b5H
	DB	096H
	DB	0b5H
	DB	038H
	DB	0c6H
	DB	038H
	DB	0c6H
	DB	0d7H
	DB	0bdH
	DB	075H
	DB	0adH
	DB	0d7H
	DB	0bdH
	DB	0f7H
	DB	0bdH
	DB	0b6H
	DB	0b5H
	DB	018H
	DB	0c6H
	DB	0d7H
	DB	0bdH
	DB	0b6H
	DB	0b5H
	DB	0f7H
	DB	0bdH
	DB	0f7H
	DB	0bdH
	DB	0d7H
	DB	0bdH
	DB	0d7H
	DB	0bdH
	DB	096H
	DB	0b5H
	DB	0d7H
	DB	0bdH
	DB	0f7H
	DB	0bdH
	DB	0b6H
	DB	0b5H
	DB	0d7H
	DB	0bdH
	DB	018H
	DB	0c6H
	DB	059H
	DB	0ceH
	DB	038H
	DB	0c6H
	DB	018H
	DB	0c6H
	DB	096H
	DB	0b5H
	DB	096H
	DB	0b5H
	DB	0b6H
	DB	0b5H
	DB	018H
	DB	0c6H
	DB	038H
	DB	0c6H
	DB	0d7H
	DB	0bdH
	DB	0b6H
	DB	0b5H
	DB	0f7H
	DB	0bdH
	DB	0f7H
	DB	0bdH
	DB	096H
	DB	0b5H
	DB	038H
	DB	0c6H
	DB	0d7H
	DB	0bdH
	DB	0b6H
	DB	0b5H
	DB	0d7H
	DB	0bdH
	DB	0d7H
	DB	0bdH
	DB	0f7H
	DB	0bdH
	DB	0d7H
	DB	0bdH
	DB	0d7H
	DB	0bdH
	DB	0b6H
	DB	0b5H
	DB	018H
	DB	0c6H
	DB	0f7H
	DB	0bdH
	DB	018H
	DB	0c6H
	DB	0f7H
	DB	0bdH
	DB	0f7H
	DB	0bdH
	DB	096H
	DB	0b5H
	DB	0b6H
	DB	0b5H
	DB	038H
	DB	0c6H
	DB	0b6H
	DB	0b5H
	DB	0b6H
	DB	0b5H
	DB	038H
	DB	0c6H
	DB	0f7H
	DB	0bdH
	DB	0b6H
	DB	0b5H
	DB	096H
	DB	0b5H
	DB	0d7H
	DB	0bdH
	DB	018H
	DB	0c6H
	DB	038H
	DB	0c6H
	DB	0d7H
	DB	0bdH
	DB	0b6H
	DB	0b5H
	DB	0d7H
	DB	0bdH
	DB	0d7H
	DB	0bdH
	DB	018H
	DB	0c6H
	DB	0f7H
	DB	0bdH
	DB	0b6H
	DB	0b5H
	DB	018H
	DB	0c6H
	DB	0f7H
	DB	0bdH
	DB	075H
	DB	0adH
	DB	038H
	DB	0c6H
	DB	0f7H
	DB	0bdH
	DB	0d7H
	DB	0bdH
	DB	018H
	DB	0c6H
	DB	096H
	DB	0b5H
	DB	0f7H
	DB	0bdH
	DB	0d7H
	DB	0bdH
	DB	0d7H
	DB	0bdH
	DB	038H
	DB	0c6H
	DB	0b6H
	DB	0b5H
	DB	0d7H
	DB	0bdH
	DB	018H
	DB	0c6H
	DB	0f7H
	DB	0bdH
	DB	0b6H
	DB	0b5H
	DB	075H
	DB	0adH
	DB	018H
	DB	0c6H
	DB	059H
	DB	0ceH
	DB	0d7H
	DB	0bdH
	DB	075H
	DB	0adH
	DB	038H
	DB	0c6H
	DB	0d7H
	DB	0bdH
	DB	0b6H
	DB	0b5H
	DB	0f7H
	DB	0bdH
	DB	0d7H
	DB	0bdH
	DB	0b6H
	DB	0b5H
	DB	096H
	DB	0b5H
	DB	0f7H
	DB	0bdH
	DB	018H
	DB	0c6H
	DB	055H
	DB	0adH
	DB	018H
	DB	0c6H
	DB	018H
	DB	0c6H
	DB	096H
	DB	0b5H
	DB	0b6H
	DB	0b5H
	DB	038H
	DB	0c6H
	DB	018H
	DB	0c6H
	DB	0f7H
	DB	0bdH
	DB	0f7H
	DB	0bdH
	DB	0d7H
	DB	0bdH
	DB	018H
	DB	0c6H
	DB	0f7H
	DB	0bdH
	DB	0d7H
	DB	0bdH
	DB	0d7H
	DB	0bdH
	DB	096H
	DB	0b5H
	DB	0d7H
	DB	0bdH
	DB	0f7H
	DB	0bdH
	DB	038H
	DB	0c6H
	DB	038H
	DB	0c6H
	DB	0b6H
	DB	0b5H
	DB	096H
	DB	0b5H
	DB	018H
	DB	0c6H
	DB	038H
	DB	0c6H
	DB	0b6H
	DB	0b5H
	DB	0b6H
	DB	0b5H
	DB	018H
	DB	0c6H
	DB	0d7H
	DB	0bdH
	DB	0b6H
	DB	0b5H
	DB	0f7H
	DB	0bdH
	DB	0d7H
	DB	0bdH
	DB	096H
	DB	0b5H
	DB	0d7H
	DB	0bdH
	DB	059H
	DB	0ceH
	DB	018H
	DB	0c6H
	DB	0d7H
	DB	0bdH
	DB	096H
	DB	0b5H
	DB	038H
	DB	0c6H
	DB	018H
	DB	0c6H
	DB	0b6H
	DB	0b5H
	DB	096H
	DB	0b5H
	DB	038H
	DB	0c6H
	DB	0b6H
	DB	0b5H
	DB	018H
	DB	0c6H
	DB	0f7H
	DB	0bdH
	DB	0d7H
	DB	0bdH
	DB	0f7H
	DB	0bdH
	DB	018H
	DB	0c6H
	DB	018H
	DB	0c6H
	DB	0d7H
	DB	0bdH
	DB	096H
	DB	0b5H
	DB	096H
	DB	0b5H
	DB	018H
	DB	0c6H
	DB	018H
	DB	0c6H
	DB	018H
	DB	0c6H
	DB	0d7H
	DB	0bdH
	DB	0b6H
	DB	0b5H
	DB	018H
	DB	0c6H
	DB	018H
	DB	0c6H
	DB	0b6H
	DB	0b5H
	DB	0d7H
	DB	0bdH
	DB	0b6H
	DB	0b5H
	DB	0f7H
	DB	0bdH
	DB	018H
	DB	0c6H
	DB	0b6H
	DB	0b5H
	DB	0f7H
	DB	0bdH
	DB	0b6H
	DB	0b5H
	DB	038H
	DB	0c6H
	DB	018H
	DB	0c6H
	DB	0b6H
	DB	0b5H
	DB	0f7H
	DB	0bdH
	DB	018H
	DB	0c6H
	DB	0b6H
	DB	0b5H
	DB	0f7H
	DB	0bdH
	DB	0f7H
	DB	0bdH
	DB	0b6H
	DB	0b5H
	DB	018H
	DB	0c6H
	DB	075H
	DB	0adH
	DB	0b6H
	DB	0b5H
	DB	059H
	DB	0ceH
	DB	0f7H
	DB	0bdH
	DB	0d7H
	DB	0bdH
	DB	0b6H
	DB	0b5H
	DB	018H
	DB	0c6H
	DB	0f7H
	DB	0bdH
	DB	0b6H
	DB	0b5H
	DB	096H
	DB	0b5H
	DB	096H
	DB	0b5H
	DB	018H
	DB	0c6H
	DB	038H
	DB	0c6H
	DB	038H
	DB	0c6H
	DB	018H
	DB	0c6H
	DB	0b6H
	DB	0b5H
	DB	0f7H
	DB	0bdH
	DB	0b6H
	DB	0b5H
	DB	018H
	DB	0c6H
	DB	0d7H
	DB	0bdH
	DB	075H
	DB	0adH
	DB	0f7H
	DB	0bdH
	DB	018H
	DB	0c6H
	DB	018H
	DB	0c6H
	DB	096H
	DB	0b5H
	DB	0b6H
	DB	0b5H
	DB	038H
	DB	0c6H
	DB	0f7H
	DB	0bdH
	DB	0d7H
	DB	0bdH
	DB	0b6H
	DB	0b5H
	DB	0f7H
	DB	0bdH
	DB	0d7H
	DB	0bdH
	DB	0d7H
	DB	0bdH
	DB	038H
	DB	0c6H
	DB	096H
	DB	0b5H
	DB	0b6H
	DB	0b5H
	DB	0b6H
	DB	0b5H
	DB	038H
	DB	0c6H
	DB	0d7H
	DB	0bdH
	DB	0b6H
	DB	0b5H
	DB	0f7H
	DB	0bdH
	DB	0d7H
	DB	0bdH
	DB	0b6H
	DB	0b5H
	DB	0d7H
	DB	0bdH
	DB	0f7H
	DB	0bdH
	DB	0f7H
	DB	0bdH
	DB	018H
	DB	0c6H
	DB	0f7H
	DB	0bdH
	DB	0b6H
	DB	0b5H
	DB	018H
	DB	0c6H
	DB	0f7H
	DB	0bdH
	DB	0d7H
	DB	0bdH
	DB	0d7H
	DB	0bdH
	DB	018H
	DB	0c6H
	DB	075H
	DB	0adH
	DB	0d7H
	DB	0bdH
	DB	059H
	DB	0ceH
	DB	0d7H
	DB	0bdH
	DB	0f7H
	DB	0bdH
	DB	0b6H
	DB	0b5H
	DB	0f7H
	DB	0bdH
	DB	0d7H
	DB	0bdH
	DB	096H
	DB	0b5H
	DB	0f7H
	DB	0bdH
	DB	038H
	DB	0c6H
	DB	0f7H
	DB	0bdH
	DB	075H
	DB	0adH
	DB	018H
	DB	0c6H
	DB	0f7H
	DB	0bdH
	DB	0b6H
	DB	0b5H
	DB	0f7H
	DB	0bdH
	DB	0f7H
	DB	0bdH
	DB	018H
	DB	0c6H
	DB	096H
	DB	0b5H
	DB	0d7H
	DB	0bdH
	DB	018H
	DB	0c6H
	DB	0f7H
	DB	0bdH
	DB	0d7H
	DB	0bdH
	DB	0d7H
	DB	0bdH
	DB	0d7H
	DB	0bdH
	DB	0d7H
	DB	0bdH
	DB	0b6H
	DB	0b5H
	DB	0f7H
	DB	0bdH
	DB	075H
	DB	0adH
	DB	096H
	DB	0b5H
	DB	059H
	DB	0ceH
	DB	018H
	DB	0c6H
	DB	0d7H
	DB	0bdH
	DB	0b6H
	DB	0b5H
	DB	0b6H
	DB	0b5H
	DB	038H
	DB	0c6H
	DB	0b6H
	DB	0b5H
	DB	0d7H
	DB	0bdH
	DB	038H
	DB	0c6H
	DB	0f7H
	DB	0bdH
	DB	0b6H
	DB	0b5H
	DB	0b6H
	DB	0b5H
	DB	0f7H
	DB	0bdH
	DB	096H
	DB	0b5H
	DB	0d7H
	DB	0bdH
	DB	0d7H
	DB	0bdH
	DB	0b6H
	DB	0b5H
	DB	059H
	DB	0ceH
	DB	038H
	DB	0c6H
	DB	0f7H
	DB	0bdH
	DB	0b6H
	DB	0b5H
	DB	018H
	DB	0c6H
	DB	0f7H
	DB	0bdH
	DB	0d7H
	DB	0bdH
	DB	096H
	DB	0b5H
	DB	0b6H
	DB	0b5H
	DB	0d7H
	DB	0bdH
	DB	0d7H
	DB	0bdH
	DB	018H
	DB	0c6H
	DB	038H
	DB	0c6H
	DB	018H
	DB	0c6H
	DB	0b6H
	DB	0b5H
	DB	0f7H
	DB	0bdH
	DB	0f7H
	DB	0bdH
	DB	018H
	DB	0c6H
	DB	0b6H
	DB	0b5H
	DB	0b6H
	DB	0b5H
	DB	018H
	DB	0c6H
	DB	0b6H
	DB	0b5H
	DB	0d7H
	DB	0bdH
	DB	0d7H
	DB	0bdH
	DB	0b6H
	DB	0b5H
	DB	038H
	DB	0c6H
	DB	0f7H
	DB	0bdH
	DB	0f7H
	DB	0bdH
	DB	0b6H
	DB	0b5H
	DB	0d7H
	DB	0bdH
	DB	0f7H
	DB	0bdH
	DB	0b6H
	DB	0b5H
	DB	018H
	DB	0c6H
	DB	0d7H
	DB	0bdH
	DB	0f7H
	DB	0bdH
	DB	0d7H
	DB	0bdH
	DB	0d7H
	DB	0bdH
	DB	0f7H
	DB	0bdH
	DB	0d7H
	DB	0bdH
	DB	0b6H
	DB	0b5H
	DB	0b6H
	DB	0b5H
	DB	0f7H
	DB	0bdH
	DB	0d7H
	DB	0bdH
	DB	018H
	DB	0c6H
	DB	0f7H
	DB	0bdH
	DB	038H
	DB	0c6H
	DB	0d7H
	DB	0bdH
	DB	0d7H
	DB	0bdH
	DB	0b6H
	DB	0b5H
	DB	0b6H
	DB	0b5H
	DB	0b6H
	DB	0b5H
	DB	0d7H
	DB	0bdH
	DB	018H
	DB	0c6H
	DB	0f7H
	DB	0bdH
	DB	0d7H
	DB	0bdH
	DB	0d7H
	DB	0bdH
	DB	0b6H
	DB	0b5H
	DB	096H
	DB	0b5H
	DB	038H
	DB	0c6H
	DB	0f7H
	DB	0bdH
	DB	0b6H
	DB	0b5H
	DB	0b6H
	DB	0b5H
	DB	018H
	DB	0c6H
	DB	038H
	DB	0c6H
	DB	0d7H
	DB	0bdH
	DB	0d7H
	DB	0bdH
	DB	096H
	DB	0b5H
	DB	0f7H
	DB	0bdH
	DB	018H
	DB	0c6H
	DB	0b6H
	DB	0b5H
	DB	0d7H
	DB	0bdH
	DB	038H
	DB	0c6H
	DB	0d7H
	DB	0bdH
	DB	0b6H
	DB	0b5H
	DB	038H
	DB	0c6H
	DB	0f7H
	DB	0bdH
	DB	0b6H
	DB	0b5H
	DB	0d7H
	DB	0bdH
	DB	018H
	DB	0c6H
	DB	0f7H
	DB	0bdH
	DB	096H
	DB	0b5H
	DB	0d7H
	DB	0bdH
	DB	018H
	DB	0c6H
	DB	038H
	DB	0c6H
	DB	0f7H
	DB	0bdH
	DB	0f7H
	DB	0bdH
	DB	0d7H
	DB	0bdH
	DB	096H
	DB	0b5H
	DB	0d7H
	DB	0bdH
	DB	038H
	DB	0c6H
	DB	0b6H
	DB	0b5H
	DB	0b6H
	DB	0b5H
	DB	018H
	DB	0c6H
	DB	0f7H
	DB	0bdH
	DB	018H
	DB	0c6H
	DB	0f7H
	DB	0bdH
	DB	0b6H
	DB	0b5H
	DB	0d7H
	DB	0bdH
	DB	0b6H
	DB	0b5H
	DB	0d7H
	DB	0bdH
	DB	038H
	DB	0c6H
	DB	0f7H
	DB	0bdH
	DB	0d7H
	DB	0bdH
	DB	0f7H
	DB	0bdH
	DB	096H
	DB	0b5H
	DB	0d7H
	DB	0bdH
	DB	0f7H
	DB	0bdH
	DB	0b6H
	DB	0b5H
	DB	096H
	DB	0b5H
	DB	038H
	DB	0c6H
	DB	0f7H
	DB	0bdH
	DB	0d7H
	DB	0bdH
	DB	096H
	DB	0b5H
	DB	018H
	DB	0c6H
	DB	038H
	DB	0c6H
	DB	0f7H
	DB	0bdH
	DB	0d7H
	DB	0bdH
	DB	0b6H
	DB	0b5H
	DB	0f7H
	DB	0bdH
	DB	018H
	DB	0c6H
	DB	018H
	DB	0c6H
	DB	0f7H
	DB	0bdH
	DB	075H
	DB	0adH
	DB	0b6H
	DB	0b5H
	DB	0f7H
	DB	0bdH
	DB	0d7H
	DB	0bdH
	DB	0b6H
	DB	0b5H
	DB	018H
	DB	0c6H
	DB	0f7H
	DB	0bdH
	DB	0f7H
	DB	0bdH
	DB	0f7H
	DB	0bdH
	DB	096H
	DB	0b5H
	DB	018H
	DB	0c6H
	DB	018H
	DB	0c6H
	DB	0d7H
	DB	0bdH
	DB	0b6H
	DB	0b5H
	DB	096H
	DB	0b5H
	DB	0f7H
	DB	0bdH
	DB	018H
	DB	0c6H
	DB	018H
	DB	0c6H
	DB	0f7H
	DB	0bdH
	DB	096H
	DB	0b5H
	DB	096H
	DB	0b5H
	DB	038H
	DB	0c6H
	DB	059H
	DB	0ceH
	DB	0d7H
	DB	0bdH
	DB	0b6H
	DB	0b5H
	DB	038H
	DB	0c6H
	DB	0d7H
	DB	0bdH
	DB	096H
	DB	0b5H
	DB	0f7H
	DB	0bdH
	DB	018H
	DB	0c6H
	DB	096H
	DB	0b5H
	DB	096H
	DB	0b5H
	DB	038H
	DB	0c6H
	DB	0d7H
	DB	0bdH
	DB	0b6H
	DB	0b5H
	DB	0d7H
	DB	0bdH
	DB	038H
	DB	0c6H
	DB	018H
	DB	0c6H
	DB	0d7H
	DB	0bdH
	DB	0b6H
	DB	0b5H
	DB	018H
	DB	0c6H
	DB	0b6H
	DB	0b5H
	DB	018H
	DB	0c6H
	DB	0d7H
	DB	0bdH
	DB	096H
	DB	0b5H
	DB	0d7H
	DB	0bdH
	DB	059H
	DB	0ceH
	DB	0f7H
	DB	0bdH
	DB	0d7H
	DB	0bdH
	DB	096H
	DB	0b5H
	DB	055H
	DB	0adH
	DB	018H
	DB	0c6H
	DB	018H
	DB	0c6H
	DB	038H
	DB	0c6H
	DB	0d7H
	DB	0bdH
	DB	0d7H
	DB	0bdH
	DB	0f7H
	DB	0bdH
	DB	0f7H
	DB	0bdH
	DB	0b6H
	DB	0b5H
	DB	018H
	DB	0c6H
	DB	055H
	DB	0adH
	DB	0b6H
	DB	0b5H
	DB	038H
	DB	0c6H
	DB	0b6H
	DB	0b5H
	DB	0f7H
	DB	0bdH
	DB	038H
	DB	0c6H
	DB	0f7H
	DB	0bdH
	DB	0d7H
	DB	0bdH
	DB	0d7H
	DB	0bdH
	DB	0f7H
	DB	0bdH
	DB	018H
	DB	0c6H
	DB	0f7H
	DB	0bdH
	DB	018H
	DB	0c6H
	DB	0b6H
	DB	0b5H
	DB	0d7H
	DB	0bdH
	DB	0f7H
	DB	0bdH
	DB	075H
	DB	0adH
	DB	0d7H
	DB	0bdH
	DB	059H
	DB	0ceH
	DB	0f7H
	DB	0bdH
	DB	0b6H
	DB	0b5H
	DB	0f7H
	DB	0bdH
	DB	018H
	DB	0c6H
	DB	0f7H
	DB	0bdH
	DB	0b6H
	DB	0b5H
	DB	096H
	DB	0b5H
	DB	075H
	DB	0adH
	DB	059H
	DB	0ceH
	DB	018H
	DB	0c6H
	DB	096H
	DB	0b5H
	DB	0f7H
	DB	0bdH
	DB	0d7H
	DB	0bdH
	DB	018H
	DB	0c6H
	DB	0b6H
	DB	0b5H
	DB	0f7H
	DB	0bdH
	DB	0b6H
	DB	0b5H
	DB	0b6H
	DB	0b5H
	DB	038H
	DB	0c6H
	DB	0f7H
	DB	0bdH
	DB	0d7H
	DB	0bdH
	DB	075H
	DB	0adH
	DB	0b6H
	DB	0b5H
	DB	059H
	DB	0ceH
	DB	0f7H
	DB	0bdH
	DB	0b6H
	DB	0b5H
	DB	0b6H
	DB	0b5H
	DB	0d7H
	DB	0bdH
	DB	018H
	DB	0c6H
	DB	0b6H
	DB	0b5H
	DB	038H
	DB	0c6H
	DB	0f7H
	DB	0bdH
	DB	0d7H
	DB	0bdH
	DB	075H
	DB	0adH
	DB	0b6H
	DB	0b5H
	DB	0d7H
	DB	0bdH
	DB	0b6H
	DB	0b5H
	DB	096H
	DB	0b5H
	DB	0b6H
	DB	0b5H
	DB	018H
	DB	0c6H
	DB	0b6H
	DB	0b5H
	DB	018H
	DB	0c6H
	DB	018H
	DB	0c6H
	DB	075H
	DB	0adH
	DB	096H
	DB	0b5H
	DB	0f7H
	DB	0bdH
	DB	0b6H
	DB	0b5H
	DB	018H
	DB	0c6H
	DB	0f7H
	DB	0bdH
	DB	0f7H
	DB	0bdH
	DB	0f7H
	DB	0bdH
	DB	096H
	DB	0b5H
	DB	018H
	DB	0c6H
	DB	038H
	DB	0c6H
	DB	0f7H
	DB	0bdH
	DB	018H
	DB	0c6H
	DB	0d7H
	DB	0bdH
	DB	075H
	DB	0adH
	DB	0b6H
	DB	0b5H
	DB	018H
	DB	0c6H
	DB	059H
	DB	0ceH
	DB	0f7H
	DB	0bdH
	DB	0f7H
	DB	0bdH
	DB	075H
	DB	0adH
	DB	0f7H
	DB	0bdH
	DB	0b6H
	DB	0b5H
	DB	096H
	DB	0b5H
	DB	018H
	DB	0c6H
	DB	059H
	DB	0ceH
	DB	018H
	DB	0c6H
	DB	096H
	DB	0b5H
	DB	0d7H
	DB	0bdH
	DB	038H
	DB	0c6H
	DB	0d7H
	DB	0bdH
	DB	0b6H
	DB	0b5H
	DB	0f7H
	DB	0bdH
	DB	038H
	DB	0c6H
	DB	0d7H
	DB	0bdH
	DB	0b6H
	DB	0b5H
	DB	0f7H
	DB	0bdH
	DB	096H
	DB	0b5H
	DB	0f7H
	DB	0bdH
	DB	038H
	DB	0c6H
	DB	0b6H
	DB	0b5H
	DB	018H
	DB	0c6H
	DB	0f7H
	DB	0bdH
	DB	096H
	DB	0b5H
	DB	0d7H
	DB	0bdH
	DB	0d7H
	DB	0bdH
	DB	038H
	DB	0c6H
	DB	018H
	DB	0c6H
	DB	0d7H
	DB	0bdH
	DB	0d7H
	DB	0bdH
	DB	055H
	DB	0adH
	DB	0d7H
	DB	0bdH
	DB	018H
	DB	0c6H
	DB	038H
	DB	0c6H
	DB	0d7H
	DB	0bdH
	DB	055H
	DB	0adH
	DB	018H
	DB	0c6H
	DB	018H
	DB	0c6H
	DB	038H
	DB	0c6H
	DB	0f7H
	DB	0bdH
	DB	0d7H
	DB	0bdH
	DB	0f7H
	DB	0bdH
	DB	038H
	DB	0c6H
	DB	0d7H
	DB	0bdH
	DB	0f7H
	DB	0bdH
	DB	0d7H
	DB	0bdH
	DB	096H
	DB	0b5H
	DB	018H
	DB	0c6H
	DB	0f7H
	DB	0bdH
	DB	0f7H
	DB	0bdH
	DB	0d7H
	DB	0bdH
	DB	038H
	DB	0c6H
	DB	0d7H
	DB	0bdH
	DB	0f7H
	DB	0bdH
	DB	0d7H
	DB	0bdH
	DB	0b6H
	DB	0b5H
	DB	018H
	DB	0c6H
	DB	0f7H
	DB	0bdH
	DB	0d7H
	DB	0bdH
	DB	0d7H
	DB	0bdH
	DB	0f7H
	DB	0bdH
	DB	0f7H
	DB	0bdH
	DB	0b6H
	DB	0b5H
	DB	0f7H
	DB	0bdH
	DB	0d7H
	DB	0bdH
	DB	0d7H
	DB	0bdH
	DB	018H
	DB	0c6H
	DB	0b6H
	DB	0b5H
	DB	0d7H
	DB	0bdH
	DB	0f7H
	DB	0bdH
	DB	0f7H
	DB	0bdH
	DB	0f7H
	DB	0bdH
	DB	0b6H
	DB	0b5H
	DB	0f7H
	DB	0bdH
	DB	0f7H
	DB	0bdH
	DB	0b6H
	DB	0b5H
	DB	018H
	DB	0c6H
	DB	0f7H
	DB	0bdH
	DB	0b6H
	DB	0b5H
	DB	018H
	DB	0c6H
	DB	0d7H
	DB	0bdH
	DB	038H
	DB	0c6H
	DB	0d7H
	DB	0bdH
	DB	0b6H
	DB	0b5H
	DB	0d7H
	DB	0bdH
	DB	018H
	DB	0c6H
	DB	0b6H
	DB	0b5H
	DB	096H
	DB	0b5H
	DB	018H
	DB	0c6H
	DB	038H
	DB	0c6H
	DB	018H
	DB	0c6H
	DB	0d7H
	DB	0bdH
	DB	096H
	DB	0b5H
	DB	096H
	DB	0b5H
	DB	038H
	DB	0c6H
	DB	0f7H
	DB	0bdH
	DB	0d7H
	DB	0bdH
	DB	0d7H
	DB	0bdH
	DB	018H
	DB	0c6H
	DB	018H
	DB	0c6H
	DB	0d7H
	DB	0bdH
	DB	0f7H
	DB	0bdH
	DB	096H
	DB	0b5H
