; Listing generated by Microsoft (R) Optimizing Compiler Version 19.30.30705.0 

	TITLE	D:\学习\毕业设计\方案1_GFX+底板\官方例程\DISPLAY\TouchGFX\build\Debug\obj\image_china-flag-small.obj
	.686P
	.XMM
	include listing.inc
	.model	flat

INCLUDELIB MSVCRTD
INCLUDELIB OLDNAMES

PUBLIC	?image_china_flag_small@@3QBEB			; image_china_flag_small
msvcjmc	SEGMENT
__BA83647B_Config@hpp DB 01H
__A011B931_image_china-flag-small@cpp DB 01H
msvcjmc	ENDS
CONST	SEGMENT
?image_china_flag_small@@3QBEB DB 042H			; image_china_flag_small
	DB	0d9H
	DB	042H
	DB	0d9H
	DB	042H
	DB	0d9H
	DB	042H
	DB	0d9H
	DB	042H
	DB	0d9H
	DB	042H
	DB	0d9H
	DB	042H
	DB	0d9H
	DB	042H
	DB	0d9H
	DB	042H
	DB	0d9H
	DB	042H
	DB	0d9H
	DB	042H
	DB	0d9H
	DB	042H
	DB	0d9H
	DB	042H
	DB	0d9H
	DB	042H
	DB	0d9H
	DB	042H
	DB	0d9H
	DB	042H
	DB	0d9H
	DB	042H
	DB	0d9H
	DB	042H
	DB	0d9H
	DB	042H
	DB	0d9H
	DB	042H
	DB	0d9H
	DB	042H
	DB	0d9H
	DB	042H
	DB	0d9H
	DB	042H
	DB	0d9H
	DB	042H
	DB	0d9H
	DB	042H
	DB	0d9H
	DB	042H
	DB	0d9H
	DB	042H
	DB	0d9H
	DB	042H
	DB	0d9H
	DB	042H
	DB	0d9H
	DB	042H
	DB	0d9H
	DB	042H
	DB	0d9H
	DB	042H
	DB	0d9H
	DB	042H
	DB	0d9H
	DB	042H
	DB	0d9H
	DB	042H
	DB	0d9H
	DB	042H
	DB	0d9H
	DB	042H
	DB	0d9H
	DB	042H
	DB	0d9H
	DB	042H
	DB	0d9H
	DB	042H
	DB	0d9H
	DB	042H
	DB	0d9H
	DB	042H
	DB	0d9H
	DB	042H
	DB	0d9H
	DB	042H
	DB	0d9H
	DB	042H
	DB	0d9H
	DB	042H
	DB	0d9H
	DB	042H
	DB	0d9H
	DB	042H
	DB	0d9H
	DB	042H
	DB	0d9H
	DB	042H
	DB	0d9H
	DB	042H
	DB	0d9H
	DB	042H
	DB	0d9H
	DB	042H
	DB	0d9H
	DB	042H
	DB	0d9H
	DB	042H
	DB	0d9H
	DB	042H
	DB	0d9H
	DB	042H
	DB	0d9H
	DB	042H
	DB	0d9H
	DB	042H
	DB	0d9H
	DB	042H
	DB	0d9H
	DB	042H
	DB	0d9H
	DB	042H
	DB	0d9H
	DB	042H
	DB	0d9H
	DB	042H
	DB	0d9H
	DB	042H
	DB	0d9H
	DB	042H
	DB	0d9H
	DB	042H
	DB	0d9H
	DB	042H
	DB	0d9H
	DB	042H
	DB	0d9H
	DB	042H
	DB	0d9H
	DB	042H
	DB	0d9H
	DB	042H
	DB	0d9H
	DB	042H
	DB	0d9H
	DB	042H
	DB	0d9H
	DB	042H
	DB	0d9H
	DB	042H
	DB	0d9H
	DB	042H
	DB	0d9H
	DB	042H
	DB	0d9H
	DB	042H
	DB	0d9H
	DB	042H
	DB	0d9H
	DB	042H
	DB	0d9H
	DB	042H
	DB	0d9H
	DB	042H
	DB	0d9H
	DB	042H
	DB	0d9H
	DB	042H
	DB	0d9H
	DB	042H
	DB	0d9H
	DB	042H
	DB	0d9H
	DB	042H
	DB	0d9H
	DB	042H
	DB	0d9H
	DB	042H
	DB	0d9H
	DB	042H
	DB	0d9H
	DB	042H
	DB	0d9H
	DB	042H
	DB	0d9H
	DB	042H
	DB	0d9H
	DB	042H
	DB	0d9H
	DB	042H
	DB	0d9H
	DB	042H
	DB	0d9H
	DB	042H
	DB	0d9H
	DB	042H
	DB	0d9H
	DB	042H
	DB	0d9H
	DB	042H
	DB	0d9H
	DB	042H
	DB	0d9H
	DB	042H
	DB	0d9H
	DB	042H
	DB	0d9H
	DB	042H
	DB	0d9H
	DB	042H
	DB	0d9H
	DB	042H
	DB	0d9H
	DB	042H
	DB	0d9H
	DB	042H
	DB	0d9H
	DB	042H
	DB	0d9H
	DB	042H
	DB	0d9H
	DB	042H
	DB	0d9H
	DB	042H
	DB	0d9H
	DB	042H
	DB	0d9H
	DB	042H
	DB	0d9H
	DB	042H
	DB	0d9H
	DB	042H
	DB	0d9H
	DB	042H
	DB	0d9H
	DB	042H
	DB	0d9H
	DB	042H
	DB	0d9H
	DB	042H
	DB	0d9H
	DB	042H
	DB	0d9H
	DB	042H
	DB	0d9H
	DB	042H
	DB	0d9H
	DB	042H
	DB	0d9H
	DB	042H
	DB	0d9H
	DB	042H
	DB	0d9H
	DB	042H
	DB	0d9H
	DB	042H
	DB	0d9H
	DB	042H
	DB	0d9H
	DB	042H
	DB	0d9H
	DB	042H
	DB	0d9H
	DB	042H
	DB	0d9H
	DB	042H
	DB	0d9H
	DB	042H
	DB	0d9H
	DB	042H
	DB	0d9H
	DB	042H
	DB	0d9H
	DB	042H
	DB	0d9H
	DB	042H
	DB	0d9H
	DB	042H
	DB	0d9H
	DB	042H
	DB	0d9H
	DB	042H
	DB	0d9H
	DB	042H
	DB	0d9H
	DB	042H
	DB	0d9H
	DB	042H
	DB	0d9H
	DB	042H
	DB	0d9H
	DB	042H
	DB	0d9H
	DB	042H
	DB	0d9H
	DB	042H
	DB	0d9H
	DB	042H
	DB	0d9H
	DB	042H
	DB	0d9H
	DB	042H
	DB	0d9H
	DB	042H
	DB	0d9H
	DB	042H
	DB	0d9H
	DB	042H
	DB	0d9H
	DB	042H
	DB	0d9H
	DB	042H
	DB	0d9H
	DB	042H
	DB	0d9H
	DB	042H
	DB	0d9H
	DB	042H
	DB	0d9H
	DB	042H
	DB	0d9H
	DB	042H
	DB	0d9H
	DB	042H
	DB	0d9H
	DB	042H
	DB	0d9H
	DB	042H
	DB	0d9H
	DB	042H
	DB	0d9H
	DB	042H
	DB	0d9H
	DB	042H
	DB	0d9H
	DB	042H
	DB	0d9H
	DB	042H
	DB	0d9H
	DB	042H
	DB	0d9H
	DB	042H
	DB	0d9H
	DB	042H
	DB	0d9H
	DB	042H
	DB	0d9H
	DB	042H
	DB	0d9H
	DB	042H
	DB	0d9H
	DB	042H
	DB	0d9H
	DB	042H
	DB	0d9H
	DB	042H
	DB	0d9H
	DB	042H
	DB	0d9H
	DB	042H
	DB	0d9H
	DB	042H
	DB	0d9H
	DB	042H
	DB	0d9H
	DB	042H
	DB	0d9H
	DB	042H
	DB	0d9H
	DB	042H
	DB	0d9H
	DB	042H
	DB	0d9H
	DB	042H
	DB	0d9H
	DB	042H
	DB	0d9H
	DB	042H
	DB	0d9H
	DB	042H
	DB	0d9H
	DB	042H
	DB	0d9H
	DB	042H
	DB	0d9H
	DB	042H
	DB	0d9H
	DB	042H
	DB	0d9H
	DB	042H
	DB	0d9H
	DB	042H
	DB	0d9H
	DB	042H
	DB	0d9H
	DB	042H
	DB	0d9H
	DB	042H
	DB	0d9H
	DB	042H
	DB	0d9H
	DB	042H
	DB	0d9H
	DB	042H
	DB	0d9H
	DB	042H
	DB	0d9H
	DB	042H
	DB	0d9H
	DB	042H
	DB	0d9H
	DB	042H
	DB	0d9H
	DB	042H
	DB	0d9H
	DB	042H
	DB	0d9H
	DB	042H
	DB	0d9H
	DB	042H
	DB	0d9H
	DB	042H
	DB	0d9H
	DB	042H
	DB	0d9H
	DB	042H
	DB	0d9H
	DB	042H
	DB	0d9H
	DB	042H
	DB	0d9H
	DB	042H
	DB	0d9H
	DB	042H
	DB	0d9H
	DB	042H
	DB	0d9H
	DB	042H
	DB	0d9H
	DB	042H
	DB	0d9H
	DB	042H
	DB	0d9H
	DB	042H
	DB	0d9H
	DB	042H
	DB	0d9H
	DB	042H
	DB	0d9H
	DB	042H
	DB	0d9H
	DB	042H
	DB	0d9H
	DB	042H
	DB	0d9H
	DB	042H
	DB	0d9H
	DB	042H
	DB	0d9H
	DB	042H
	DB	0d9H
	DB	042H
	DB	0d9H
	DB	042H
	DB	0d9H
	DB	042H
	DB	0d9H
	DB	042H
	DB	0d9H
	DB	042H
	DB	0d9H
	DB	042H
	DB	0d9H
	DB	042H
	DB	0d9H
	DB	042H
	DB	0d9H
	DB	042H
	DB	0d9H
	DB	042H
	DB	0d9H
	DB	042H
	DB	0d9H
	DB	042H
	DB	0d9H
	DB	042H
	DB	0d9H
	DB	042H
	DB	0d9H
	DB	042H
	DB	0d9H
	DB	042H
	DB	0d9H
	DB	042H
	DB	0d9H
	DB	042H
	DB	0d9H
	DB	042H
	DB	0d9H
	DB	042H
	DB	0d9H
	DB	042H
	DB	0d9H
	DB	042H
	DB	0d9H
	DB	042H
	DB	0d9H
	DB	042H
	DB	0d9H
	DB	042H
	DB	0d9H
	DB	042H
	DB	0d9H
	DB	042H
	DB	0d9H
	DB	042H
	DB	0d9H
	DB	042H
	DB	0d9H
	DB	042H
	DB	0d9H
	DB	042H
	DB	0d9H
	DB	042H
	DB	0d9H
	DB	042H
	DB	0d9H
	DB	042H
	DB	0d9H
	DB	042H
	DB	0d9H
	DB	042H
	DB	0d9H
	DB	042H
	DB	0d9H
	DB	042H
	DB	0d9H
	DB	042H
	DB	0d9H
	DB	042H
	DB	0d9H
	DB	042H
	DB	0d9H
	DB	042H
	DB	0d9H
	DB	042H
	DB	0d9H
	DB	042H
	DB	0d9H
	DB	042H
	DB	0d9H
	DB	042H
	DB	0d9H
	DB	042H
	DB	0d9H
	DB	042H
	DB	0d9H
	DB	042H
	DB	0d9H
	DB	042H
	DB	0d9H
	DB	042H
	DB	0d9H
	DB	042H
	DB	0d9H
	DB	042H
	DB	0d9H
	DB	042H
	DB	0d9H
	DB	042H
	DB	0d9H
	DB	042H
	DB	0d9H
	DB	042H
	DB	0d9H
	DB	042H
	DB	0d9H
	DB	042H
	DB	0d9H
	DB	042H
	DB	0d9H
	DB	042H
	DB	0d9H
	DB	042H
	DB	0d9H
	DB	042H
	DB	0d9H
	DB	042H
	DB	0d9H
	DB	042H
	DB	0d9H
	DB	042H
	DB	0d9H
	DB	042H
	DB	0d9H
	DB	042H
	DB	0d9H
	DB	042H
	DB	0d9H
	DB	042H
	DB	0d9H
	DB	042H
	DB	0d9H
	DB	042H
	DB	0d9H
	DB	042H
	DB	0d9H
	DB	042H
	DB	0d9H
	DB	042H
	DB	0d9H
	DB	042H
	DB	0d9H
	DB	042H
	DB	0d9H
	DB	042H
	DB	0d9H
	DB	042H
	DB	0d9H
	DB	042H
	DB	0d9H
	DB	042H
	DB	0d9H
	DB	042H
	DB	0d9H
	DB	042H
	DB	0d9H
	DB	042H
	DB	0d9H
	DB	042H
	DB	0d9H
	DB	042H
	DB	0d9H
	DB	042H
	DB	0d9H
	DB	042H
	DB	0d9H
	DB	042H
	DB	0d9H
	DB	042H
	DB	0d9H
	DB	042H
	DB	0d9H
	DB	042H
	DB	0d9H
	DB	042H
	DB	0d9H
	DB	042H
	DB	0d9H
	DB	042H
	DB	0d9H
	DB	042H
	DB	0d9H
	DB	042H
	DB	0d9H
	DB	042H
	DB	0d9H
	DB	042H
	DB	0d9H
	DB	042H
	DB	0d9H
	DB	042H
	DB	0d9H
	DB	042H
	DB	0d9H
	DB	042H
	DB	0d9H
	DB	042H
	DB	0d9H
	DB	042H
	DB	0d9H
	DB	042H
	DB	0d9H
	DB	042H
	DB	0d9H
	DB	042H
	DB	0d9H
	DB	042H
	DB	0d9H
	DB	042H
	DB	0d9H
	DB	042H
	DB	0d9H
	DB	042H
	DB	0d9H
	DB	042H
	DB	0d9H
	DB	042H
	DB	0d9H
	DB	042H
	DB	0d9H
	DB	042H
	DB	0d9H
	DB	042H
	DB	0d9H
	DB	042H
	DB	0d9H
	DB	042H
	DB	0d9H
	DB	042H
	DB	0d9H
	DB	042H
	DB	0d9H
	DB	042H
	DB	0d9H
	DB	042H
	DB	0d9H
	DB	042H
	DB	0d9H
	DB	042H
	DB	0d9H
	DB	042H
	DB	0d9H
	DB	042H
	DB	0d9H
	DB	042H
	DB	0d9H
	DB	042H
	DB	0d9H
	DB	042H
	DB	0d9H
	DB	042H
	DB	0d9H
	DB	042H
	DB	0d9H
	DB	042H
	DB	0d9H
	DB	042H
	DB	0d9H
	DB	042H
	DB	0d9H
	DB	042H
	DB	0d9H
	DB	042H
	DB	0d9H
	DB	042H
	DB	0d9H
	DB	042H
	DB	0d9H
	DB	042H
	DB	0d9H
	DB	042H
	DB	0d9H
	DB	042H
	DB	0d9H
	DB	042H
	DB	0d9H
	DB	042H
	DB	0d9H
	DB	042H
	DB	0d9H
	DB	042H
	DB	0d9H
	DB	042H
	DB	0d9H
	DB	042H
	DB	0d9H
	DB	042H
	DB	0d9H
	DB	042H
	DB	0d9H
	DB	042H
	DB	0d9H
	DB	042H
	DB	0d9H
	DB	042H
	DB	0d9H
	DB	042H
	DB	0d9H
	DB	042H
	DB	0d9H
	DB	042H
	DB	0d9H
	DB	042H
	DB	0d9H
	DB	042H
	DB	0d9H
	DB	042H
	DB	0d9H
	DB	042H
	DB	0d9H
	DB	042H
	DB	0d9H
	DB	042H
	DB	0d9H
	DB	042H
	DB	0d9H
	DB	042H
	DB	0d9H
	DB	042H
	DB	0d9H
	DB	042H
	DB	0d9H
	DB	042H
	DB	0d9H
	DB	042H
	DB	0d9H
	DB	042H
	DB	0d9H
	DB	042H
	DB	0d9H
	DB	042H
	DB	0d9H
	DB	042H
	DB	0d9H
	DB	042H
	DB	0d9H
	DB	042H
	DB	0d9H
	DB	042H
	DB	0d9H
	DB	042H
	DB	0d9H
	DB	042H
	DB	0d9H
	DB	042H
	DB	0d9H
	DB	042H
	DB	0d9H
	DB	042H
	DB	0d9H
	DB	042H
	DB	0d9H
	DB	042H
	DB	0d9H
	DB	042H
	DB	0d9H
	DB	042H
	DB	0d9H
	DB	042H
	DB	0d9H
	DB	042H
	DB	0d9H
	DB	042H
	DB	0d9H
	DB	042H
	DB	0d9H
	DB	042H
	DB	0d9H
	DB	042H
	DB	0d9H
	DB	042H
	DB	0d9H
	DB	042H
	DB	0d9H
	DB	042H
	DB	0d9H
	DB	042H
	DB	0d9H
	DB	042H
	DB	0d9H
	DB	042H
	DB	0d9H
	DB	042H
	DB	0d9H
	DB	042H
	DB	0d9H
	DB	042H
	DB	0d9H
	DB	042H
	DB	0d9H
	DB	042H
	DB	0d9H
	DB	042H
	DB	0d9H
	DB	042H
	DB	0d9H
	DB	042H
	DB	0d9H
	DB	042H
	DB	0d9H
	DB	0e1H
	DB	0eaH
	DB	021H
	DB	0e2H
	DB	042H
	DB	0d9H
	DB	042H
	DB	0d9H
	DB	061H
	DB	0ebH
	DB	0a1H
	DB	0e1H
	DB	042H
	DB	0d9H
	DB	042H
	DB	0d9H
	DB	042H
	DB	0d9H
	DB	042H
	DB	0d9H
	DB	042H
	DB	0d9H
	DB	042H
	DB	0d9H
	DB	042H
	DB	0d9H
	DB	042H
	DB	0d9H
	DB	042H
	DB	0d9H
	DB	042H
	DB	0d9H
	DB	042H
	DB	0d9H
	DB	042H
	DB	0d9H
	DB	042H
	DB	0d9H
	DB	042H
	DB	0d9H
	DB	042H
	DB	0d9H
	DB	042H
	DB	0d9H
	DB	042H
	DB	0d9H
	DB	062H
	DB	0d9H
	DB	0c0H
	DB	0f4H
	DB	021H
	DB	0ebH
	DB	042H
	DB	0d9H
	DB	041H
	DB	0e2H
	DB	060H
	DB	0f5H
	DB	0a1H
	DB	0e1H
	DB	042H
	DB	0d9H
	DB	042H
	DB	0d9H
	DB	042H
	DB	0d9H
	DB	042H
	DB	0d9H
	DB	042H
	DB	0d9H
	DB	042H
	DB	0d9H
	DB	042H
	DB	0d9H
	DB	042H
	DB	0d9H
	DB	042H
	DB	0d9H
	DB	042H
	DB	0d9H
	DB	042H
	DB	0d9H
	DB	042H
	DB	0d9H
	DB	042H
	DB	0d9H
	DB	042H
	DB	0d9H
	DB	042H
	DB	0d9H
	DB	081H
	DB	0d9H
	DB	061H
	DB	0e2H
	DB	042H
	DB	0d9H
	DB	062H
	DB	0d9H
	DB	042H
	DB	0d9H
	DB	042H
	DB	0d9H
	DB	042H
	DB	0d9H
	DB	062H
	DB	0d9H
	DB	042H
	DB	0d9H
	DB	061H
	DB	0e2H
	DB	042H
	DB	0d9H
	DB	042H
	DB	0d9H
	DB	042H
	DB	0d9H
	DB	042H
	DB	0d9H
	DB	042H
	DB	0d9H
	DB	042H
	DB	0d9H
	DB	042H
	DB	0d9H
	DB	042H
	DB	0d9H
	DB	042H
	DB	0d9H
	DB	042H
	DB	0d9H
	DB	042H
	DB	0d9H
	DB	042H
	DB	0d9H
	DB	042H
	DB	0d9H
	DB	042H
	DB	0d9H
	DB	0a1H
	DB	0e2H
	DB	0e0H
	DB	0fdH
	DB	0e1H
	DB	0e1H
	DB	042H
	DB	0d9H
	DB	042H
	DB	0d9H
	DB	042H
	DB	0d9H
	DB	042H
	DB	0d9H
	DB	042H
	DB	0d9H
	DB	062H
	DB	0d9H
	DB	060H
	DB	0f5H
	DB	0c1H
	DB	0ebH
	DB	042H
	DB	0d9H
	DB	042H
	DB	0d9H
	DB	042H
	DB	0d9H
	DB	042H
	DB	0d9H
	DB	042H
	DB	0d9H
	DB	042H
	DB	0d9H
	DB	042H
	DB	0d9H
	DB	042H
	DB	0d9H
	DB	042H
	DB	0d9H
	DB	042H
	DB	0d9H
	DB	042H
	DB	0d9H
	DB	042H
	DB	0d9H
	DB	042H
	DB	0d9H
	DB	042H
	DB	0d9H
	DB	062H
	DB	0d9H
	DB	042H
	DB	0d9H
	DB	042H
	DB	0d9H
	DB	042H
	DB	0d9H
	DB	042H
	DB	0d9H
	DB	042H
	DB	0d9H
	DB	042H
	DB	0d9H
	DB	042H
	DB	0d9H
	DB	062H
	DB	0d9H
	DB	062H
	DB	0d9H
	DB	042H
	DB	0d9H
	DB	042H
	DB	0d9H
	DB	042H
	DB	0d9H
	DB	042H
	DB	0d9H
	DB	042H
	DB	0d9H
	DB	042H
	DB	0d9H
	DB	042H
	DB	0d9H
	DB	042H
	DB	0d9H
	DB	042H
	DB	0d9H
	DB	042H
	DB	0d9H
	DB	042H
	DB	0d9H
	DB	042H
	DB	0d9H
	DB	042H
	DB	0d9H
	DB	042H
	DB	0d9H
	DB	042H
	DB	0d9H
	DB	042H
	DB	0d9H
	DB	061H
	DB	0d9H
	DB	062H
	DB	0d9H
	DB	042H
	DB	0d9H
	DB	042H
	DB	0d9H
	DB	042H
	DB	0d9H
	DB	042H
	DB	0d9H
	DB	042H
	DB	0d9H
	DB	042H
	DB	0d9H
	DB	042H
	DB	0d9H
	DB	042H
	DB	0d9H
	DB	042H
	DB	0d9H
	DB	042H
	DB	0d9H
	DB	042H
	DB	0d9H
	DB	042H
	DB	0d9H
	DB	042H
	DB	0d9H
	DB	042H
	DB	0d9H
	DB	042H
	DB	0d9H
	DB	042H
	DB	0d9H
	DB	042H
	DB	0d9H
	DB	042H
	DB	0d9H
	DB	042H
	DB	0d9H
	DB	042H
	DB	0d9H
	DB	042H
	DB	0d9H
	DB	042H
	DB	0d9H
	DB	0e1H
	DB	0e1H
	DB	0c0H
	DB	0f4H
	DB	042H
	DB	0d9H
	DB	042H
	DB	0d9H
	DB	0a1H
	DB	0e1H
	DB	042H
	DB	0d9H
	DB	042H
	DB	0d9H
	DB	042H
	DB	0d9H
	DB	042H
	DB	0d9H
	DB	042H
	DB	0d9H
	DB	042H
	DB	0d9H
	DB	042H
	DB	0d9H
	DB	042H
	DB	0d9H
	DB	042H
	DB	0d9H
	DB	042H
	DB	0d9H
	DB	042H
	DB	0d9H
	DB	042H
	DB	0d9H
	DB	042H
	DB	0d9H
	DB	042H
	DB	0d9H
	DB	042H
	DB	0d9H
	DB	042H
	DB	0d9H
	DB	042H
	DB	0d9H
	DB	042H
	DB	0d9H
	DB	042H
	DB	0d9H
	DB	0e1H
	DB	0e1H
	DB	0e0H
	DB	0feH
	DB	00H
	DB	0f5H
	DB	0c0H
	DB	0fdH
	DB	021H
	DB	0ebH
	DB	042H
	DB	0d9H
	DB	042H
	DB	0d9H
	DB	042H
	DB	0d9H
	DB	042H
	DB	0d9H
	DB	042H
	DB	0d9H
	DB	042H
	DB	0d9H
	DB	042H
	DB	0d9H
	DB	042H
	DB	0d9H
	DB	042H
	DB	0d9H
	DB	042H
	DB	0d9H
	DB	042H
	DB	0d9H
	DB	042H
	DB	0d9H
	DB	042H
	DB	0d9H
	DB	042H
	DB	0d9H
	DB	042H
	DB	0d9H
	DB	042H
	DB	0d9H
	DB	042H
	DB	0d9H
	DB	0e1H
	DB	0e1H
	DB	0a0H
	DB	0f4H
	DB	080H
	DB	0feH
	DB	0e0H
	DB	0feH
	DB	0e0H
	DB	0feH
	DB	0a0H
	DB	0f4H
	DB	042H
	DB	0d9H
	DB	042H
	DB	0d9H
	DB	042H
	DB	0d9H
	DB	042H
	DB	0d9H
	DB	042H
	DB	0d9H
	DB	042H
	DB	0d9H
	DB	042H
	DB	0d9H
	DB	042H
	DB	0d9H
	DB	042H
	DB	0d9H
	DB	042H
	DB	0d9H
	DB	042H
	DB	0d9H
	DB	042H
	DB	0d9H
	DB	042H
	DB	0d9H
	DB	042H
	DB	0d9H
	DB	042H
	DB	0d9H
	DB	042H
	DB	0d9H
	DB	042H
	DB	0d9H
	DB	042H
	DB	0d9H
	DB	042H
	DB	0d9H
	DB	062H
	DB	0d9H
	DB	021H
	DB	0ebH
	DB	0e0H
	DB	0feH
	DB	080H
	DB	0feH
	DB	080H
	DB	0feH
	DB	01H
	DB	0e2H
	DB	042H
	DB	0d9H
	DB	042H
	DB	0d9H
	DB	042H
	DB	0d9H
	DB	042H
	DB	0d9H
	DB	042H
	DB	0d9H
	DB	042H
	DB	0d9H
	DB	042H
	DB	0d9H
	DB	042H
	DB	0d9H
	DB	042H
	DB	0d9H
	DB	042H
	DB	0d9H
	DB	042H
	DB	0d9H
	DB	042H
	DB	0d9H
	DB	042H
	DB	0d9H
	DB	042H
	DB	0d9H
	DB	042H
	DB	0d9H
	DB	042H
	DB	0d9H
	DB	042H
	DB	0d9H
	DB	042H
	DB	0d9H
	DB	042H
	DB	0d9H
	DB	0e1H
	DB	0e1H
	DB	00H
	DB	0feH
	DB	081H
	DB	0e1H
	DB	01H
	DB	0e2H
	DB	0c1H
	DB	0e2H
	DB	042H
	DB	0d9H
	DB	042H
	DB	0d9H
	DB	042H
	DB	0d9H
	DB	042H
	DB	0d9H
	DB	042H
	DB	0d9H
	DB	042H
	DB	0d9H
	DB	042H
	DB	0d9H
	DB	042H
	DB	0d9H
	DB	042H
	DB	0d9H
	DB	042H
	DB	0d9H
	DB	042H
	DB	0d9H
	DB	042H
	DB	0d9H
	DB	042H
	DB	0d9H
	DB	042H
	DB	0d9H
	DB	042H
	DB	0d9H
	DB	042H
	DB	0d9H
	DB	042H
	DB	0d9H
	DB	042H
	DB	0d9H
	DB	042H
	DB	0d9H
	DB	0a1H
	DB	0e1H
	DB	01H
	DB	0e2H
	DB	042H
	DB	0d9H
	DB	042H
	DB	0d9H
	DB	042H
	DB	0d9H
	DB	042H
	DB	0d9H
	DB	042H
	DB	0d9H
	DB	042H
	DB	0d9H
	DB	042H
	DB	0d9H
	DB	042H
	DB	0d9H
	DB	042H
	DB	0d9H
	DB	042H
	DB	0d9H
	DB	042H
	DB	0d9H
	DB	042H
	DB	0d9H
	DB	042H
	DB	0d9H
	DB	042H
	DB	0d9H
	DB	042H
	DB	0d9H
	DB	042H
	DB	0d9H
	DB	042H
	DB	0d9H
	DB	042H
	DB	0d9H
	DB	042H
	DB	0d9H
	DB	042H
	DB	0d9H
	DB	042H
	DB	0d9H
	DB	042H
	DB	0d9H
	DB	042H
	DB	0d9H
	DB	042H
	DB	0d9H
	DB	042H
	DB	0d9H
	DB	042H
	DB	0d9H
	DB	042H
	DB	0d9H
	DB	042H
	DB	0d9H
	DB	042H
	DB	0d9H
	DB	042H
	DB	0d9H
	DB	042H
	DB	0d9H
	DB	042H
	DB	0d9H
	DB	042H
	DB	0d9H
	DB	042H
	DB	0d9H
	DB	042H
	DB	0d9H
	DB	042H
	DB	0d9H
	DB	042H
	DB	0d9H
	DB	042H
	DB	0d9H
	DB	042H
	DB	0d9H
	DB	042H
	DB	0d9H
	DB	042H
	DB	0d9H
	DB	042H
	DB	0d9H
	DB	042H
	DB	0d9H
	DB	042H
	DB	0d9H
	DB	042H
	DB	0d9H
	DB	042H
	DB	0d9H
	DB	042H
	DB	0d9H
	DB	042H
	DB	0d9H
	DB	042H
	DB	0d9H
	DB	042H
	DB	0d9H
	DB	042H
	DB	0d9H
	DB	042H
	DB	0d9H
	DB	042H
	DB	0d9H
	DB	042H
	DB	0d9H
	DB	042H
	DB	0d9H
	DB	042H
	DB	0d9H
	DB	042H
	DB	0d9H
	DB	042H
	DB	0d9H
	DB	042H
	DB	0d9H
	DB	042H
	DB	0d9H
	DB	042H
	DB	0d9H
	DB	042H
	DB	0d9H
	DB	042H
	DB	0d9H
	DB	042H
	DB	0d9H
	DB	042H
	DB	0d9H
	DB	042H
	DB	0d9H
CONST	ENDS
END
