; Listing generated by Microsoft (R) Optimizing Compiler Version 19.30.30705.0 

	TITLE	D:\学习\毕业设计\方案1_GFX+底板\官方例程\DISPLAY\TouchGFX\build\Debug\obj\image_infoBackground2.obj
	.686P
	.XMM
	include listing.inc
	.model	flat

INCLUDELIB MSVCRTD
INCLUDELIB OLDNAMES

PUBLIC	?image_infobackground2@@3QBEB			; image_infobackground2
msvcjmc	SEGMENT
__BA83647B_Config@hpp DB 01H
__3453070E_image_infoBackground2@cpp DB 01H
msvcjmc	ENDS
CONST	SEGMENT
?image_infobackground2@@3QBEB DB 055H			; image_infobackground2
	DB	014H
	DB	055H
	DB	014H
	DB	0fH
	DB	013H
	DB	0a8H
	DB	011H
	DB	0a8H
	DB	011H
	DB	0a8H
	DB	011H
	DB	088H
	DB	011H
	DB	088H
	DB	011H
	DB	088H
	DB	011H
	DB	088H
	DB	011H
	DB	088H
	DB	011H
	DB	088H
	DB	011H
	DB	087H
	DB	011H
	DB	067H
	DB	011H
	DB	067H
	DB	011H
	DB	067H
	DB	011H
	DB	067H
	DB	011H
	DB	067H
	DB	011H
	DB	067H
	DB	011H
	DB	067H
	DB	011H
	DB	047H
	DB	011H
	DB	047H
	DB	011H
	DB	046H
	DB	09H
	DB	046H
	DB	09H
	DB	046H
	DB	011H
	DB	046H
	DB	011H
	DB	046H
	DB	09H
	DB	026H
	DB	09H
	DB	026H
	DB	09H
	DB	026H
	DB	09H
	DB	026H
	DB	09H
	DB	026H
	DB	09H
	DB	025H
	DB	09H
	DB	05H
	DB	09H
	DB	05H
	DB	09H
	DB	05H
	DB	09H
	DB	05H
	DB	09H
	DB	05H
	DB	09H
	DB	05H
	DB	09H
	DB	05H
	DB	09H
	DB	0e5H
	DB	08H
	DB	0e4H
	DB	08H
	DB	0e4H
	DB	08H
	DB	0e4H
	DB	08H
	DB	0e4H
	DB	08H
	DB	0e4H
	DB	08H
	DB	0c4H
	DB	08H
	DB	0c4H
	DB	08H
	DB	0c4H
	DB	08H
	DB	0c4H
	DB	08H
	DB	0c4H
	DB	08H
	DB	0c4H
	DB	08H
	DB	0c3H
	DB	08H
	DB	0a3H
	DB	08H
	DB	0a3H
	DB	08H
	DB	0a3H
	DB	08H
	DB	0a3H
	DB	08H
	DB	0a3H
	DB	08H
	DB	0a3H
	DB	08H
	DB	0a3H
	DB	08H
	DB	0a3H
	DB	08H
	DB	0a3H
	DB	08H
	DB	0a3H
	DB	08H
	DB	0a3H
	DB	08H
	DB	0a3H
	DB	08H
	DB	0a3H
	DB	08H
	DB	0a3H
	DB	08H
	DB	055H
	DB	014H
	DB	055H
	DB	014H
	DB	0efH
	DB	012H
	DB	0a8H
	DB	011H
	DB	0a8H
	DB	011H
	DB	0a8H
	DB	011H
	DB	0a8H
	DB	011H
	DB	088H
	DB	011H
	DB	088H
	DB	011H
	DB	088H
	DB	011H
	DB	088H
	DB	011H
	DB	088H
	DB	011H
	DB	088H
	DB	011H
	DB	067H
	DB	011H
	DB	067H
	DB	011H
	DB	067H
	DB	011H
	DB	067H
	DB	011H
	DB	067H
	DB	011H
	DB	067H
	DB	011H
	DB	047H
	DB	011H
	DB	047H
	DB	011H
	DB	047H
	DB	09H
	DB	047H
	DB	011H
	DB	046H
	DB	09H
	DB	046H
	DB	09H
	DB	026H
	DB	09H
	DB	026H
	DB	09H
	DB	026H
	DB	09H
	DB	026H
	DB	09H
	DB	026H
	DB	09H
	DB	026H
	DB	09H
	DB	025H
	DB	09H
	DB	025H
	DB	09H
	DB	05H
	DB	09H
	DB	05H
	DB	09H
	DB	05H
	DB	09H
	DB	05H
	DB	09H
	DB	05H
	DB	09H
	DB	05H
	DB	09H
	DB	0e5H
	DB	08H
	DB	0e5H
	DB	08H
	DB	0e5H
	DB	08H
	DB	0e4H
	DB	08H
	DB	0e4H
	DB	08H
	DB	0e4H
	DB	08H
	DB	0e4H
	DB	08H
	DB	0c4H
	DB	08H
	DB	0c4H
	DB	08H
	DB	0c4H
	DB	08H
	DB	0c4H
	DB	08H
	DB	0c4H
	DB	08H
	DB	0c4H
	DB	08H
	DB	0c3H
	DB	08H
	DB	0a3H
	DB	08H
	DB	0a3H
	DB	08H
	DB	0a3H
	DB	00H
	DB	0a3H
	DB	08H
	DB	0a3H
	DB	08H
	DB	0a3H
	DB	08H
	DB	0a3H
	DB	08H
	DB	0a3H
	DB	08H
	DB	0a3H
	DB	08H
	DB	0a3H
	DB	08H
	DB	0a3H
	DB	08H
	DB	0a3H
	DB	08H
	DB	0a3H
	DB	08H
	DB	0a3H
	DB	08H
	DB	055H
	DB	014H
	DB	055H
	DB	014H
	DB	0fH
	DB	013H
	DB	0a9H
	DB	011H
	DB	0a8H
	DB	011H
	DB	0a8H
	DB	011H
	DB	0a8H
	DB	011H
	DB	0a8H
	DB	011H
	DB	088H
	DB	011H
	DB	088H
	DB	011H
	DB	088H
	DB	011H
	DB	088H
	DB	011H
	DB	068H
	DB	011H
	DB	087H
	DB	011H
	DB	067H
	DB	011H
	DB	067H
	DB	011H
	DB	067H
	DB	011H
	DB	067H
	DB	011H
	DB	047H
	DB	011H
	DB	067H
	DB	011H
	DB	047H
	DB	011H
	DB	047H
	DB	09H
	DB	046H
	DB	09H
	DB	046H
	DB	09H
	DB	046H
	DB	09H
	DB	046H
	DB	09H
	DB	026H
	DB	011H
	DB	026H
	DB	09H
	DB	026H
	DB	09H
	DB	026H
	DB	09H
	DB	026H
	DB	09H
	DB	025H
	DB	09H
	DB	05H
	DB	09H
	DB	05H
	DB	09H
	DB	05H
	DB	09H
	DB	05H
	DB	09H
	DB	05H
	DB	09H
	DB	05H
	DB	09H
	DB	05H
	DB	09H
	DB	05H
	DB	09H
	DB	0e5H
	DB	08H
	DB	0e5H
	DB	08H
	DB	0e4H
	DB	08H
	DB	0e4H
	DB	08H
	DB	0e4H
	DB	08H
	DB	0e4H
	DB	08H
	DB	0c4H
	DB	08H
	DB	0c4H
	DB	08H
	DB	0c4H
	DB	08H
	DB	0c4H
	DB	08H
	DB	0c4H
	DB	08H
	DB	0c3H
	DB	08H
	DB	0c3H
	DB	08H
	DB	0a3H
	DB	08H
	DB	0a3H
	DB	08H
	DB	0a3H
	DB	08H
	DB	0a3H
	DB	08H
	DB	0a3H
	DB	08H
	DB	0a3H
	DB	08H
	DB	0a3H
	DB	08H
	DB	0a3H
	DB	08H
	DB	0a3H
	DB	08H
	DB	0a3H
	DB	08H
	DB	0a3H
	DB	08H
	DB	0a3H
	DB	08H
	DB	0a3H
	DB	08H
	DB	0a3H
	DB	08H
	DB	055H
	DB	014H
	DB	055H
	DB	014H
	DB	0fH
	DB	013H
	DB	0a8H
	DB	011H
	DB	0a8H
	DB	011H
	DB	0a8H
	DB	011H
	DB	0a8H
	DB	011H
	DB	088H
	DB	011H
	DB	088H
	DB	011H
	DB	088H
	DB	011H
	DB	088H
	DB	011H
	DB	088H
	DB	011H
	DB	088H
	DB	011H
	DB	067H
	DB	011H
	DB	067H
	DB	011H
	DB	067H
	DB	011H
	DB	067H
	DB	011H
	DB	067H
	DB	011H
	DB	067H
	DB	011H
	DB	067H
	DB	011H
	DB	067H
	DB	011H
	DB	047H
	DB	011H
	DB	046H
	DB	09H
	DB	046H
	DB	09H
	DB	046H
	DB	011H
	DB	046H
	DB	09H
	DB	046H
	DB	09H
	DB	026H
	DB	09H
	DB	026H
	DB	09H
	DB	026H
	DB	09H
	DB	026H
	DB	09H
	DB	026H
	DB	09H
	DB	05H
	DB	09H
	DB	05H
	DB	09H
	DB	05H
	DB	09H
	DB	05H
	DB	09H
	DB	05H
	DB	09H
	DB	05H
	DB	09H
	DB	05H
	DB	09H
	DB	0e5H
	DB	08H
	DB	0e5H
	DB	08H
	DB	0e4H
	DB	08H
	DB	0e4H
	DB	08H
	DB	0e4H
	DB	08H
	DB	0e4H
	DB	08H
	DB	0e4H
	DB	08H
	DB	0c4H
	DB	08H
	DB	0c4H
	DB	08H
	DB	0c4H
	DB	08H
	DB	0c4H
	DB	08H
	DB	0c4H
	DB	08H
	DB	0c3H
	DB	08H
	DB	0a3H
	DB	08H
	DB	0a3H
	DB	08H
	DB	0a3H
	DB	08H
	DB	0a3H
	DB	08H
	DB	0a3H
	DB	08H
	DB	0a3H
	DB	08H
	DB	0a3H
	DB	08H
	DB	0a3H
	DB	08H
	DB	0a3H
	DB	08H
	DB	0a3H
	DB	08H
	DB	0a3H
	DB	08H
	DB	0a3H
	DB	08H
	DB	0a3H
	DB	08H
	DB	0a3H
	DB	08H
	DB	0a3H
	DB	08H
	DB	055H
	DB	014H
	DB	055H
	DB	014H
	DB	0fH
	DB	013H
	DB	0a8H
	DB	011H
	DB	0a8H
	DB	011H
	DB	0a8H
	DB	011H
	DB	0a8H
	DB	011H
	DB	088H
	DB	011H
	DB	088H
	DB	011H
	DB	088H
	DB	011H
	DB	088H
	DB	011H
	DB	088H
	DB	011H
	DB	087H
	DB	011H
	DB	087H
	DB	011H
	DB	067H
	DB	011H
	DB	067H
	DB	011H
	DB	067H
	DB	011H
	DB	067H
	DB	011H
	DB	067H
	DB	011H
	DB	047H
	DB	011H
	DB	067H
	DB	011H
	DB	047H
	DB	011H
	DB	046H
	DB	09H
	DB	046H
	DB	011H
	DB	046H
	DB	011H
	DB	046H
	DB	09H
	DB	046H
	DB	09H
	DB	026H
	DB	09H
	DB	026H
	DB	09H
	DB	026H
	DB	09H
	DB	026H
	DB	09H
	DB	026H
	DB	09H
	DB	025H
	DB	09H
	DB	05H
	DB	09H
	DB	05H
	DB	09H
	DB	05H
	DB	09H
	DB	05H
	DB	09H
	DB	05H
	DB	09H
	DB	05H
	DB	09H
	DB	05H
	DB	09H
	DB	0e5H
	DB	08H
	DB	0e4H
	DB	08H
	DB	0e5H
	DB	08H
	DB	0e4H
	DB	08H
	DB	0e4H
	DB	08H
	DB	0e4H
	DB	08H
	DB	0c4H
	DB	08H
	DB	0c4H
	DB	08H
	DB	0c4H
	DB	08H
	DB	0c4H
	DB	08H
	DB	0c4H
	DB	08H
	DB	0c3H
	DB	08H
	DB	0c3H
	DB	08H
	DB	0a3H
	DB	08H
	DB	0a3H
	DB	08H
	DB	0a3H
	DB	08H
	DB	0a3H
	DB	08H
	DB	0a3H
	DB	08H
	DB	0a3H
	DB	08H
	DB	0a3H
	DB	08H
	DB	0a3H
	DB	08H
	DB	0a3H
	DB	08H
	DB	0a3H
	DB	08H
	DB	0a3H
	DB	08H
	DB	0a3H
	DB	08H
	DB	0a3H
	DB	08H
	DB	0a3H
	DB	08H
	DB	055H
	DB	014H
	DB	055H
	DB	014H
	DB	0fH
	DB	013H
	DB	0a8H
	DB	011H
	DB	0a8H
	DB	011H
	DB	0a8H
	DB	011H
	DB	0a8H
	DB	011H
	DB	088H
	DB	011H
	DB	088H
	DB	011H
	DB	088H
	DB	011H
	DB	088H
	DB	011H
	DB	088H
	DB	011H
	DB	088H
	DB	011H
	DB	068H
	DB	011H
	DB	067H
	DB	011H
	DB	067H
	DB	011H
	DB	067H
	DB	011H
	DB	067H
	DB	011H
	DB	067H
	DB	011H
	DB	067H
	DB	011H
	DB	047H
	DB	011H
	DB	047H
	DB	011H
	DB	047H
	DB	09H
	DB	046H
	DB	09H
	DB	046H
	DB	09H
	DB	046H
	DB	011H
	DB	046H
	DB	09H
	DB	026H
	DB	09H
	DB	026H
	DB	09H
	DB	026H
	DB	09H
	DB	026H
	DB	09H
	DB	025H
	DB	09H
	DB	05H
	DB	09H
	DB	05H
	DB	09H
	DB	05H
	DB	09H
	DB	05H
	DB	09H
	DB	05H
	DB	09H
	DB	05H
	DB	09H
	DB	05H
	DB	09H
	DB	05H
	DB	09H
	DB	0e5H
	DB	08H
	DB	0e5H
	DB	08H
	DB	0e4H
	DB	08H
	DB	0e4H
	DB	08H
	DB	0e4H
	DB	08H
	DB	0e4H
	DB	08H
	DB	0e4H
	DB	08H
	DB	0c4H
	DB	08H
	DB	0c4H
	DB	08H
	DB	0c4H
	DB	08H
	DB	0c4H
	DB	08H
	DB	0c4H
	DB	08H
	DB	0a3H
	DB	08H
	DB	0a3H
	DB	08H
	DB	0a3H
	DB	08H
	DB	0a3H
	DB	08H
	DB	0a3H
	DB	08H
	DB	0a3H
	DB	08H
	DB	0a3H
	DB	08H
	DB	0a3H
	DB	08H
	DB	0a3H
	DB	08H
	DB	0a3H
	DB	08H
	DB	0a3H
	DB	08H
	DB	0a3H
	DB	08H
	DB	0a3H
	DB	08H
	DB	0a3H
	DB	08H
	DB	0a3H
	DB	08H
	DB	055H
	DB	014H
	DB	055H
	DB	014H
	DB	0fH
	DB	013H
	DB	0a8H
	DB	011H
	DB	0a8H
	DB	011H
	DB	0a8H
	DB	011H
	DB	088H
	DB	011H
	DB	088H
	DB	011H
	DB	088H
	DB	011H
	DB	088H
	DB	011H
	DB	088H
	DB	011H
	DB	088H
	DB	011H
	DB	088H
	DB	011H
	DB	067H
	DB	011H
	DB	067H
	DB	011H
	DB	067H
	DB	011H
	DB	067H
	DB	011H
	DB	067H
	DB	011H
	DB	067H
	DB	011H
	DB	047H
	DB	011H
	DB	067H
	DB	011H
	DB	047H
	DB	011H
	DB	047H
	DB	011H
	DB	046H
	DB	09H
	DB	046H
	DB	09H
	DB	046H
	DB	09H
	DB	026H
	DB	09H
	DB	026H
	DB	09H
	DB	026H
	DB	09H
	DB	026H
	DB	09H
	DB	026H
	DB	09H
	DB	026H
	DB	09H
	DB	026H
	DB	09H
	DB	025H
	DB	09H
	DB	05H
	DB	09H
	DB	05H
	DB	09H
	DB	05H
	DB	09H
	DB	05H
	DB	09H
	DB	05H
	DB	09H
	DB	05H
	DB	09H
	DB	0e5H
	DB	08H
	DB	0e5H
	DB	08H
	DB	0e4H
	DB	08H
	DB	0e4H
	DB	08H
	DB	0e4H
	DB	08H
	DB	0e4H
	DB	08H
	DB	0e4H
	DB	08H
	DB	0c4H
	DB	08H
	DB	0c4H
	DB	08H
	DB	0c4H
	DB	08H
	DB	0c4H
	DB	08H
	DB	0c4H
	DB	08H
	DB	0c3H
	DB	08H
	DB	0a3H
	DB	08H
	DB	0a3H
	DB	08H
	DB	0a3H
	DB	08H
	DB	0a3H
	DB	08H
	DB	0a3H
	DB	08H
	DB	0a3H
	DB	08H
	DB	0a3H
	DB	08H
	DB	0a3H
	DB	08H
	DB	0a3H
	DB	08H
	DB	0a3H
	DB	08H
	DB	0a3H
	DB	08H
	DB	0a3H
	DB	08H
	DB	0a3H
	DB	08H
	DB	0a3H
	DB	08H
	DB	055H
	DB	014H
	DB	055H
	DB	014H
	DB	0fH
	DB	013H
	DB	0a8H
	DB	011H
	DB	0a8H
	DB	011H
	DB	0a8H
	DB	011H
	DB	0a8H
	DB	011H
	DB	0a8H
	DB	011H
	DB	088H
	DB	011H
	DB	088H
	DB	011H
	DB	088H
	DB	011H
	DB	088H
	DB	011H
	DB	088H
	DB	011H
	DB	087H
	DB	011H
	DB	067H
	DB	011H
	DB	067H
	DB	011H
	DB	067H
	DB	011H
	DB	067H
	DB	011H
	DB	067H
	DB	011H
	DB	067H
	DB	011H
	DB	047H
	DB	011H
	DB	047H
	DB	011H
	DB	047H
	DB	011H
	DB	046H
	DB	011H
	DB	046H
	DB	09H
	DB	046H
	DB	09H
	DB	046H
	DB	09H
	DB	026H
	DB	09H
	DB	026H
	DB	09H
	DB	026H
	DB	09H
	DB	026H
	DB	09H
	DB	026H
	DB	09H
	DB	025H
	DB	09H
	DB	025H
	DB	09H
	DB	05H
	DB	09H
	DB	05H
	DB	09H
	DB	05H
	DB	09H
	DB	05H
	DB	09H
	DB	05H
	DB	09H
	DB	05H
	DB	09H
	DB	0e5H
	DB	08H
	DB	0e5H
	DB	08H
	DB	0e4H
	DB	08H
	DB	0e4H
	DB	08H
	DB	0e4H
	DB	08H
	DB	0e4H
	DB	08H
	DB	0c4H
	DB	08H
	DB	0c4H
	DB	08H
	DB	0c4H
	DB	08H
	DB	0c4H
	DB	08H
	DB	0c4H
	DB	08H
	DB	0c3H
	DB	08H
	DB	0c3H
	DB	08H
	DB	0c3H
	DB	08H
	DB	0a3H
	DB	08H
	DB	0a3H
	DB	08H
	DB	0a3H
	DB	08H
	DB	0a3H
	DB	08H
	DB	0a3H
	DB	08H
	DB	0a3H
	DB	08H
	DB	0a3H
	DB	08H
	DB	0a3H
	DB	08H
	DB	0a3H
	DB	08H
	DB	0a3H
	DB	08H
	DB	0a3H
	DB	08H
	DB	0a3H
	DB	08H
	DB	0a3H
	DB	08H
	DB	055H
	DB	014H
	DB	055H
	DB	014H
	DB	0fH
	DB	013H
	DB	0a8H
	DB	011H
	DB	0a8H
	DB	011H
	DB	0a8H
	DB	011H
	DB	0a8H
	DB	011H
	DB	088H
	DB	011H
	DB	088H
	DB	011H
	DB	088H
	DB	011H
	DB	088H
	DB	011H
	DB	088H
	DB	011H
	DB	088H
	DB	011H
	DB	087H
	DB	011H
	DB	067H
	DB	011H
	DB	067H
	DB	011H
	DB	067H
	DB	011H
	DB	067H
	DB	011H
	DB	067H
	DB	011H
	DB	047H
	DB	011H
	DB	067H
	DB	011H
	DB	047H
	DB	09H
	DB	046H
	DB	09H
	DB	046H
	DB	09H
	DB	046H
	DB	09H
	DB	046H
	DB	09H
	DB	026H
	DB	09H
	DB	026H
	DB	09H
	DB	026H
	DB	09H
	DB	026H
	DB	09H
	DB	026H
	DB	09H
	DB	026H
	DB	09H
	DB	026H
	DB	09H
	DB	025H
	DB	09H
	DB	05H
	DB	09H
	DB	05H
	DB	09H
	DB	05H
	DB	09H
	DB	05H
	DB	09H
	DB	05H
	DB	09H
	DB	05H
	DB	09H
	DB	0e5H
	DB	08H
	DB	0e5H
	DB	08H
	DB	0e5H
	DB	08H
	DB	0e4H
	DB	08H
	DB	0e4H
	DB	08H
	DB	0e4H
	DB	08H
	DB	0c4H
	DB	08H
	DB	0c4H
	DB	08H
	DB	0c4H
	DB	08H
	DB	0c4H
	DB	08H
	DB	0c4H
	DB	08H
	DB	0c4H
	DB	08H
	DB	0c3H
	DB	08H
	DB	0a3H
	DB	08H
	DB	0a3H
	DB	08H
	DB	0a3H
	DB	08H
	DB	0a3H
	DB	08H
	DB	0a3H
	DB	08H
	DB	0a3H
	DB	08H
	DB	0a3H
	DB	08H
	DB	0a3H
	DB	08H
	DB	0a3H
	DB	08H
	DB	0a3H
	DB	08H
	DB	0a3H
	DB	08H
	DB	0a3H
	DB	08H
	DB	0a3H
	DB	08H
	DB	0a3H
	DB	08H
	DB	055H
	DB	014H
	DB	055H
	DB	014H
	DB	0fH
	DB	013H
	DB	0a8H
	DB	011H
	DB	0a8H
	DB	011H
	DB	088H
	DB	011H
	DB	0a8H
	DB	011H
	DB	088H
	DB	011H
	DB	088H
	DB	011H
	DB	088H
	DB	011H
	DB	088H
	DB	011H
	DB	088H
	DB	011H
	DB	088H
	DB	011H
	DB	067H
	DB	011H
	DB	067H
	DB	011H
	DB	067H
	DB	011H
	DB	067H
	DB	011H
	DB	067H
	DB	011H
	DB	067H
	DB	011H
	DB	067H
	DB	011H
	DB	067H
	DB	011H
	DB	047H
	DB	09H
	DB	047H
	DB	09H
	DB	046H
	DB	09H
	DB	046H
	DB	011H
	DB	046H
	DB	09H
	DB	046H
	DB	09H
	DB	046H
	DB	09H
	DB	026H
	DB	09H
	DB	026H
	DB	09H
	DB	026H
	DB	09H
	DB	025H
	DB	09H
	DB	025H
	DB	09H
	DB	025H
	DB	09H
	DB	05H
	DB	09H
	DB	05H
	DB	09H
	DB	05H
	DB	09H
	DB	05H
	DB	09H
	DB	05H
	DB	09H
	DB	05H
	DB	09H
	DB	0e5H
	DB	08H
	DB	0e5H
	DB	08H
	DB	0e5H
	DB	08H
	DB	0e4H
	DB	08H
	DB	0e4H
	DB	08H
	DB	0e4H
	DB	08H
	DB	0e4H
	DB	08H
	DB	0c4H
	DB	08H
	DB	0c4H
	DB	08H
	DB	0c4H
	DB	08H
	DB	0c4H
	DB	08H
	DB	0c4H
	DB	08H
	DB	0a3H
	DB	08H
	DB	0a3H
	DB	08H
	DB	0a3H
	DB	08H
	DB	0a3H
	DB	08H
	DB	0a3H
	DB	08H
	DB	0a3H
	DB	08H
	DB	0a3H
	DB	08H
	DB	0a3H
	DB	08H
	DB	0a3H
	DB	08H
	DB	0a3H
	DB	08H
	DB	0a3H
	DB	08H
	DB	0a3H
	DB	08H
	DB	0a3H
	DB	08H
	DB	0a3H
	DB	08H
	DB	0a3H
	DB	08H
	DB	055H
	DB	014H
	DB	055H
	DB	014H
	DB	0fH
	DB	013H
	DB	0a8H
	DB	011H
	DB	0a8H
	DB	011H
	DB	0a8H
	DB	011H
	DB	0a8H
	DB	011H
	DB	088H
	DB	011H
	DB	088H
	DB	011H
	DB	088H
	DB	011H
	DB	088H
	DB	011H
	DB	088H
	DB	011H
	DB	088H
	DB	011H
	DB	087H
	DB	011H
	DB	067H
	DB	011H
	DB	067H
	DB	011H
	DB	067H
	DB	011H
	DB	067H
	DB	011H
	DB	067H
	DB	011H
	DB	067H
	DB	011H
	DB	067H
	DB	09H
	DB	047H
	DB	011H
	DB	046H
	DB	09H
	DB	046H
	DB	09H
	DB	046H
	DB	09H
	DB	046H
	DB	011H
	DB	046H
	DB	09H
	DB	026H
	DB	09H
	DB	026H
	DB	09H
	DB	026H
	DB	09H
	DB	026H
	DB	09H
	DB	026H
	DB	09H
	DB	025H
	DB	09H
	DB	05H
	DB	09H
	DB	05H
	DB	09H
	DB	05H
	DB	09H
	DB	05H
	DB	09H
	DB	05H
	DB	09H
	DB	05H
	DB	09H
	DB	05H
	DB	09H
	DB	0e5H
	DB	08H
	DB	0e5H
	DB	08H
	DB	0e4H
	DB	08H
	DB	0e4H
	DB	08H
	DB	0e4H
	DB	08H
	DB	0e4H
	DB	08H
	DB	0e4H
	DB	08H
	DB	0c4H
	DB	08H
	DB	0c4H
	DB	08H
	DB	0c4H
	DB	08H
	DB	0c4H
	DB	08H
	DB	0c4H
	DB	08H
	DB	0c3H
	DB	08H
	DB	0a3H
	DB	08H
	DB	0a3H
	DB	08H
	DB	0a3H
	DB	08H
	DB	0a3H
	DB	00H
	DB	0a3H
	DB	08H
	DB	0a3H
	DB	08H
	DB	0a3H
	DB	08H
	DB	0a3H
	DB	08H
	DB	0a3H
	DB	08H
	DB	0a3H
	DB	08H
	DB	0a3H
	DB	08H
	DB	0a3H
	DB	08H
	DB	0a3H
	DB	08H
	DB	0a3H
	DB	08H
	DB	055H
	DB	014H
	DB	055H
	DB	014H
	DB	0fH
	DB	013H
	DB	0a8H
	DB	011H
	DB	0a8H
	DB	011H
	DB	0a8H
	DB	011H
	DB	088H
	DB	011H
	DB	0a8H
	DB	011H
	DB	088H
	DB	011H
	DB	088H
	DB	011H
	DB	088H
	DB	011H
	DB	088H
	DB	011H
	DB	087H
	DB	011H
	DB	087H
	DB	011H
	DB	067H
	DB	011H
	DB	067H
	DB	011H
	DB	067H
	DB	011H
	DB	067H
	DB	011H
	DB	067H
	DB	011H
	DB	067H
	DB	011H
	DB	047H
	DB	011H
	DB	047H
	DB	011H
	DB	046H
	DB	011H
	DB	046H
	DB	09H
	DB	046H
	DB	09H
	DB	046H
	DB	09H
	DB	026H
	DB	09H
	DB	026H
	DB	09H
	DB	026H
	DB	09H
	DB	026H
	DB	09H
	DB	026H
	DB	09H
	DB	026H
	DB	09H
	DB	026H
	DB	09H
	DB	05H
	DB	09H
	DB	05H
	DB	09H
	DB	05H
	DB	09H
	DB	05H
	DB	09H
	DB	05H
	DB	09H
	DB	05H
	DB	09H
	DB	05H
	DB	09H
	DB	0e5H
	DB	08H
	DB	0e5H
	DB	08H
	DB	0e4H
	DB	08H
	DB	0e4H
	DB	08H
	DB	0e4H
	DB	08H
	DB	0e4H
	DB	08H
	DB	0c4H
	DB	08H
	DB	0c4H
	DB	08H
	DB	0c4H
	DB	08H
	DB	0c4H
	DB	08H
	DB	0c4H
	DB	08H
	DB	0c4H
	DB	08H
	DB	0c3H
	DB	08H
	DB	0c3H
	DB	08H
	DB	0a3H
	DB	08H
	DB	0a3H
	DB	08H
	DB	0a3H
	DB	08H
	DB	0a3H
	DB	08H
	DB	0a3H
	DB	08H
	DB	0a3H
	DB	08H
	DB	0a3H
	DB	08H
	DB	0a3H
	DB	08H
	DB	0a3H
	DB	08H
	DB	0a3H
	DB	08H
	DB	0a3H
	DB	08H
	DB	0a3H
	DB	08H
	DB	0a3H
	DB	08H
	DB	055H
	DB	014H
	DB	055H
	DB	014H
	DB	0fH
	DB	013H
	DB	0a9H
	DB	011H
	DB	0a8H
	DB	011H
	DB	0a8H
	DB	011H
	DB	0a8H
	DB	011H
	DB	088H
	DB	011H
	DB	088H
	DB	011H
	DB	088H
	DB	011H
	DB	088H
	DB	011H
	DB	088H
	DB	011H
	DB	088H
	DB	011H
	DB	087H
	DB	011H
	DB	067H
	DB	011H
	DB	067H
	DB	011H
	DB	067H
	DB	011H
	DB	067H
	DB	011H
	DB	067H
	DB	011H
	DB	067H
	DB	011H
	DB	047H
	DB	011H
	DB	067H
	DB	011H
	DB	047H
	DB	011H
	DB	046H
	DB	011H
	DB	046H
	DB	09H
	DB	046H
	DB	09H
	DB	046H
	DB	09H
	DB	026H
	DB	09H
	DB	026H
	DB	09H
	DB	026H
	DB	09H
	DB	026H
	DB	09H
	DB	026H
	DB	09H
	DB	026H
	DB	09H
	DB	025H
	DB	09H
	DB	05H
	DB	09H
	DB	05H
	DB	09H
	DB	05H
	DB	09H
	DB	05H
	DB	09H
	DB	05H
	DB	09H
	DB	0e5H
	DB	08H
	DB	0e5H
	DB	08H
	DB	0e5H
	DB	08H
	DB	0e4H
	DB	08H
	DB	0e4H
	DB	08H
	DB	0e4H
	DB	08H
	DB	0c4H
	DB	08H
	DB	0e4H
	DB	08H
	DB	0c4H
	DB	08H
	DB	0c4H
	DB	08H
	DB	0c4H
	DB	08H
	DB	0c4H
	DB	08H
	DB	0c4H
	DB	08H
	DB	0a3H
	DB	08H
	DB	0c3H
	DB	08H
	DB	0a3H
	DB	08H
	DB	0a3H
	DB	08H
	DB	0a3H
	DB	08H
	DB	0a3H
	DB	08H
	DB	0a3H
	DB	08H
	DB	0a3H
	DB	08H
	DB	0a3H
	DB	08H
	DB	0a3H
	DB	08H
	DB	0a3H
	DB	08H
	DB	0a3H
	DB	08H
	DB	0a3H
	DB	08H
	DB	0a3H
	DB	08H
	DB	0a3H
	DB	08H
	DB	055H
	DB	014H
	DB	055H
	DB	014H
	DB	0efH
	DB	012H
	DB	0a9H
	DB	011H
	DB	0a8H
	DB	011H
	DB	0a8H
	DB	011H
	DB	0a8H
	DB	011H
	DB	088H
	DB	011H
	DB	088H
	DB	011H
	DB	088H
	DB	011H
	DB	088H
	DB	011H
	DB	088H
	DB	011H
	DB	088H
	DB	011H
	DB	068H
	DB	011H
	DB	087H
	DB	011H
	DB	067H
	DB	011H
	DB	067H
	DB	011H
	DB	067H
	DB	011H
	DB	067H
	DB	011H
	DB	067H
	DB	09H
	DB	047H
	DB	011H
	DB	047H
	DB	011H
	DB	047H
	DB	09H
	DB	046H
	DB	09H
	DB	046H
	DB	09H
	DB	046H
	DB	09H
	DB	026H
	DB	011H
	DB	026H
	DB	09H
	DB	026H
	DB	09H
	DB	026H
	DB	09H
	DB	026H
	DB	09H
	DB	026H
	DB	09H
	DB	025H
	DB	09H
	DB	05H
	DB	09H
	DB	05H
	DB	09H
	DB	05H
	DB	09H
	DB	05H
	DB	09H
	DB	05H
	DB	09H
	DB	05H
	DB	09H
	DB	05H
	DB	09H
	DB	0e5H
	DB	08H
	DB	0e5H
	DB	08H
	DB	0e4H
	DB	08H
	DB	0e4H
	DB	08H
	DB	0e4H
	DB	08H
	DB	0e4H
	DB	08H
	DB	0e4H
	DB	08H
	DB	0c4H
	DB	08H
	DB	0c4H
	DB	08H
	DB	0c4H
	DB	08H
	DB	0c4H
	DB	08H
	DB	0c4H
	DB	08H
	DB	0c3H
	DB	08H
	DB	0a3H
	DB	08H
	DB	0a3H
	DB	08H
	DB	0a3H
	DB	08H
	DB	0a3H
	DB	08H
	DB	0a3H
	DB	08H
	DB	0a3H
	DB	08H
	DB	0a3H
	DB	08H
	DB	0a3H
	DB	08H
	DB	0a3H
	DB	08H
	DB	0a3H
	DB	08H
	DB	0a3H
	DB	08H
	DB	0a3H
	DB	08H
	DB	0a3H
	DB	08H
	DB	0a3H
	DB	08H
	DB	055H
	DB	014H
	DB	055H
	DB	014H
	DB	0fH
	DB	013H
	DB	0a8H
	DB	011H
	DB	0a8H
	DB	011H
	DB	0a8H
	DB	011H
	DB	0a8H
	DB	011H
	DB	0a8H
	DB	011H
	DB	088H
	DB	011H
	DB	088H
	DB	011H
	DB	088H
	DB	011H
	DB	088H
	DB	011H
	DB	088H
	DB	011H
	DB	087H
	DB	011H
	DB	067H
	DB	011H
	DB	067H
	DB	011H
	DB	067H
	DB	011H
	DB	067H
	DB	011H
	DB	067H
	DB	011H
	DB	067H
	DB	011H
	DB	067H
	DB	011H
	DB	047H
	DB	011H
	DB	047H
	DB	09H
	DB	046H
	DB	09H
	DB	046H
	DB	09H
	DB	046H
	DB	09H
	DB	046H
	DB	09H
	DB	026H
	DB	09H
	DB	026H
	DB	09H
	DB	026H
	DB	09H
	DB	026H
	DB	09H
	DB	026H
	DB	09H
	DB	025H
	DB	09H
	DB	05H
	DB	09H
	DB	05H
	DB	09H
	DB	05H
	DB	09H
	DB	05H
	DB	09H
	DB	05H
	DB	09H
	DB	05H
	DB	09H
	DB	0e5H
	DB	08H
	DB	05H
	DB	09H
	DB	0e5H
	DB	08H
	DB	0e5H
	DB	08H
	DB	0e4H
	DB	08H
	DB	0e4H
	DB	08H
	DB	0e4H
	DB	08H
	DB	0c4H
	DB	08H
	DB	0c4H
	DB	08H
	DB	0c4H
	DB	08H
	DB	0c4H
	DB	08H
	DB	0c4H
	DB	08H
	DB	0c4H
	DB	08H
	DB	0c3H
	DB	08H
	DB	0a3H
	DB	08H
	DB	0a3H
	DB	08H
	DB	0a3H
	DB	08H
	DB	0a3H
	DB	08H
	DB	0a3H
	DB	08H
	DB	0a3H
	DB	08H
	DB	0a3H
	DB	08H
	DB	0a3H
	DB	08H
	DB	0a3H
	DB	08H
	DB	0a3H
	DB	08H
	DB	0a3H
	DB	08H
	DB	0a3H
	DB	08H
	DB	0a3H
	DB	08H
	DB	0a3H
	DB	08H
	DB	055H
	DB	014H
	DB	055H
	DB	014H
	DB	0fH
	DB	013H
	DB	0a8H
	DB	011H
	DB	0a8H
	DB	011H
	DB	0a8H
	DB	011H
	DB	088H
	DB	011H
	DB	0a8H
	DB	011H
	DB	088H
	DB	011H
	DB	088H
	DB	011H
	DB	088H
	DB	011H
	DB	088H
	DB	011H
	DB	087H
	DB	011H
	DB	087H
	DB	011H
	DB	067H
	DB	011H
	DB	067H
	DB	011H
	DB	067H
	DB	011H
	DB	067H
	DB	011H
	DB	067H
	DB	011H
	DB	067H
	DB	011H
	DB	047H
	DB	011H
	DB	047H
	DB	09H
	DB	047H
	DB	011H
	DB	046H
	DB	011H
	DB	046H
	DB	09H
	DB	046H
	DB	09H
	DB	026H
	DB	09H
	DB	026H
	DB	09H
	DB	026H
	DB	09H
	DB	026H
	DB	09H
	DB	026H
	DB	09H
	DB	026H
	DB	09H
	DB	025H
	DB	09H
	DB	06H
	DB	09H
	DB	05H
	DB	09H
	DB	05H
	DB	09H
	DB	05H
	DB	09H
	DB	05H
	DB	09H
	DB	05H
	DB	09H
	DB	05H
	DB	09H
	DB	0e5H
	DB	08H
	DB	0e5H
	DB	08H
	DB	0e4H
	DB	08H
	DB	0e4H
	DB	08H
	DB	0e4H
	DB	08H
	DB	0c4H
	DB	08H
	DB	0e4H
	DB	08H
	DB	0c4H
	DB	08H
	DB	0c4H
	DB	08H
	DB	0c4H
	DB	08H
	DB	0c4H
	DB	08H
	DB	0c4H
	DB	08H
	DB	0c3H
	DB	08H
	DB	0a3H
	DB	08H
	DB	0a3H
	DB	08H
	DB	0a3H
	DB	08H
	DB	0a3H
	DB	08H
	DB	0a3H
	DB	08H
	DB	0a3H
	DB	08H
	DB	0a3H
	DB	08H
	DB	0a3H
	DB	08H
	DB	0a3H
	DB	08H
	DB	0a3H
	DB	08H
	DB	0a3H
	DB	08H
	DB	0a3H
	DB	08H
	DB	0a3H
	DB	08H
	DB	0a3H
	DB	08H
	DB	055H
	DB	014H
	DB	055H
	DB	014H
	DB	0fH
	DB	013H
	DB	0a8H
	DB	011H
	DB	0a8H
	DB	011H
	DB	0a8H
	DB	011H
	DB	0a8H
	DB	011H
	DB	0a8H
	DB	011H
	DB	088H
	DB	011H
	DB	088H
	DB	011H
	DB	088H
	DB	011H
	DB	088H
	DB	011H
	DB	088H
	DB	011H
	DB	067H
	DB	011H
	DB	067H
	DB	011H
	DB	067H
	DB	011H
	DB	067H
	DB	011H
	DB	067H
	DB	011H
	DB	067H
	DB	011H
	DB	067H
	DB	011H
	DB	047H
	DB	011H
	DB	047H
	DB	011H
	DB	047H
	DB	09H
	DB	046H
	DB	09H
	DB	046H
	DB	09H
	DB	046H
	DB	09H
	DB	046H
	DB	09H
	DB	026H
	DB	09H
	DB	026H
	DB	09H
	DB	026H
	DB	09H
	DB	026H
	DB	09H
	DB	026H
	DB	09H
	DB	026H
	DB	09H
	DB	05H
	DB	09H
	DB	05H
	DB	09H
	DB	05H
	DB	09H
	DB	05H
	DB	09H
	DB	05H
	DB	09H
	DB	05H
	DB	09H
	DB	0e5H
	DB	08H
	DB	0e5H
	DB	08H
	DB	0e5H
	DB	08H
	DB	0e4H
	DB	08H
	DB	0e4H
	DB	08H
	DB	0e4H
	DB	08H
	DB	0e4H
	DB	08H
	DB	0e4H
	DB	08H
	DB	0c4H
	DB	08H
	DB	0c4H
	DB	08H
	DB	0c4H
	DB	08H
	DB	0c4H
	DB	08H
	DB	0c4H
	DB	08H
	DB	0c3H
	DB	08H
	DB	0c3H
	DB	08H
	DB	0a3H
	DB	08H
	DB	0a3H
	DB	08H
	DB	0a3H
	DB	08H
	DB	0a3H
	DB	08H
	DB	0a3H
	DB	08H
	DB	0a3H
	DB	08H
	DB	0a3H
	DB	08H
	DB	0a3H
	DB	08H
	DB	0a3H
	DB	08H
	DB	0a3H
	DB	08H
	DB	0a3H
	DB	08H
	DB	0a3H
	DB	08H
	DB	0a3H
	DB	08H
	DB	055H
	DB	014H
	DB	055H
	DB	014H
	DB	0fH
	DB	013H
	DB	0a8H
	DB	011H
	DB	0a8H
	DB	011H
	DB	0a8H
	DB	011H
	DB	0a8H
	DB	011H
	DB	088H
	DB	011H
	DB	088H
	DB	011H
	DB	088H
	DB	011H
	DB	088H
	DB	011H
	DB	088H
	DB	011H
	DB	088H
	DB	011H
	DB	087H
	DB	011H
	DB	067H
	DB	011H
	DB	067H
	DB	011H
	DB	067H
	DB	011H
	DB	067H
	DB	011H
	DB	067H
	DB	011H
	DB	067H
	DB	011H
	DB	067H
	DB	011H
	DB	047H
	DB	011H
	DB	047H
	DB	09H
	DB	046H
	DB	011H
	DB	046H
	DB	09H
	DB	046H
	DB	09H
	DB	046H
	DB	09H
	DB	026H
	DB	09H
	DB	026H
	DB	09H
	DB	026H
	DB	09H
	DB	026H
	DB	09H
	DB	026H
	DB	09H
	DB	06H
	DB	09H
	DB	025H
	DB	09H
	DB	05H
	DB	09H
	DB	05H
	DB	09H
	DB	05H
	DB	09H
	DB	05H
	DB	09H
	DB	05H
	DB	09H
	DB	0e5H
	DB	08H
	DB	0e5H
	DB	08H
	DB	0e4H
	DB	08H
	DB	0e4H
	DB	08H
	DB	0e4H
	DB	08H
	DB	0e4H
	DB	08H
	DB	0e4H
	DB	08H
	DB	0e4H
	DB	08H
	DB	0c4H
	DB	08H
	DB	0c4H
	DB	08H
	DB	0c4H
	DB	08H
	DB	0c4H
	DB	08H
	DB	0c4H
	DB	08H
	DB	0c3H
	DB	08H
	DB	0a3H
	DB	08H
	DB	0a3H
	DB	08H
	DB	0a3H
	DB	08H
	DB	0a3H
	DB	08H
	DB	0a3H
	DB	08H
	DB	0a3H
	DB	08H
	DB	0a3H
	DB	08H
	DB	0a3H
	DB	08H
	DB	0a3H
	DB	08H
	DB	0a3H
	DB	08H
	DB	0a3H
	DB	08H
	DB	0a3H
	DB	08H
	DB	0a3H
	DB	08H
	DB	0a3H
	DB	08H
	DB	055H
	DB	014H
	DB	055H
	DB	014H
	DB	0fH
	DB	013H
	DB	0a9H
	DB	011H
	DB	0a8H
	DB	011H
	DB	0a8H
	DB	011H
	DB	0a8H
	DB	011H
	DB	0a8H
	DB	011H
	DB	088H
	DB	011H
	DB	088H
	DB	011H
	DB	088H
	DB	011H
	DB	088H
	DB	011H
	DB	088H
	DB	011H
	DB	067H
	DB	011H
	DB	067H
	DB	011H
	DB	067H
	DB	011H
	DB	067H
	DB	011H
	DB	067H
	DB	011H
	DB	067H
	DB	011H
	DB	067H
	DB	011H
	DB	047H
	DB	09H
	DB	047H
	DB	011H
	DB	047H
	DB	09H
	DB	046H
	DB	011H
	DB	046H
	DB	09H
	DB	046H
	DB	09H
	DB	046H
	DB	09H
	DB	046H
	DB	09H
	DB	026H
	DB	09H
	DB	026H
	DB	09H
	DB	026H
	DB	09H
	DB	026H
	DB	09H
	DB	025H
	DB	09H
	DB	05H
	DB	09H
	DB	05H
	DB	09H
	DB	05H
	DB	09H
	DB	05H
	DB	09H
	DB	05H
	DB	09H
	DB	05H
	DB	09H
	DB	05H
	DB	09H
	DB	0e5H
	DB	08H
	DB	0e5H
	DB	08H
	DB	0e4H
	DB	08H
	DB	0e4H
	DB	08H
	DB	0e4H
	DB	08H
	DB	0e4H
	DB	08H
	DB	0e4H
	DB	08H
	DB	0c4H
	DB	08H
	DB	0c4H
	DB	08H
	DB	0c4H
	DB	08H
	DB	0c4H
	DB	08H
	DB	0c4H
	DB	08H
	DB	0c3H
	DB	08H
	DB	0c3H
	DB	08H
	DB	0a3H
	DB	08H
	DB	0a3H
	DB	08H
	DB	0a3H
	DB	08H
	DB	0a3H
	DB	08H
	DB	0a3H
	DB	08H
	DB	0a3H
	DB	08H
	DB	0a3H
	DB	08H
	DB	0a3H
	DB	08H
	DB	0a3H
	DB	08H
	DB	0a3H
	DB	08H
	DB	0a3H
	DB	08H
	DB	0a3H
	DB	08H
	DB	0a3H
	DB	08H
	DB	055H
	DB	014H
	DB	055H
	DB	014H
	DB	0fH
	DB	013H
	DB	0a8H
	DB	011H
	DB	0a8H
	DB	011H
	DB	0a8H
	DB	011H
	DB	0a8H
	DB	011H
	DB	0a8H
	DB	011H
	DB	088H
	DB	011H
	DB	088H
	DB	011H
	DB	088H
	DB	011H
	DB	088H
	DB	011H
	DB	088H
	DB	011H
	DB	087H
	DB	011H
	DB	067H
	DB	011H
	DB	067H
	DB	011H
	DB	067H
	DB	011H
	DB	067H
	DB	011H
	DB	067H
	DB	011H
	DB	047H
	DB	011H
	DB	067H
	DB	011H
	DB	047H
	DB	09H
	DB	047H
	DB	011H
	DB	046H
	DB	011H
	DB	046H
	DB	09H
	DB	046H
	DB	09H
	DB	046H
	DB	09H
	DB	046H
	DB	09H
	DB	026H
	DB	09H
	DB	026H
	DB	09H
	DB	026H
	DB	09H
	DB	026H
	DB	09H
	DB	026H
	DB	09H
	DB	025H
	DB	09H
	DB	05H
	DB	09H
	DB	05H
	DB	09H
	DB	05H
	DB	09H
	DB	05H
	DB	09H
	DB	05H
	DB	09H
	DB	05H
	DB	09H
	DB	05H
	DB	09H
	DB	0e5H
	DB	08H
	DB	0e4H
	DB	08H
	DB	0e4H
	DB	08H
	DB	0e4H
	DB	08H
	DB	0e4H
	DB	08H
	DB	0e4H
	DB	08H
	DB	0c4H
	DB	08H
	DB	0c4H
	DB	08H
	DB	0c4H
	DB	08H
	DB	0c4H
	DB	08H
	DB	0c3H
	DB	08H
	DB	0c3H
	DB	08H
	DB	0c3H
	DB	08H
	DB	0a3H
	DB	08H
	DB	0a3H
	DB	08H
	DB	0a3H
	DB	08H
	DB	0a3H
	DB	08H
	DB	0a3H
	DB	08H
	DB	0a3H
	DB	08H
	DB	0a3H
	DB	08H
	DB	0a3H
	DB	08H
	DB	0a3H
	DB	08H
	DB	0a3H
	DB	08H
	DB	0a3H
	DB	08H
	DB	0a3H
	DB	08H
	DB	0a3H
	DB	08H
	DB	055H
	DB	014H
	DB	055H
	DB	014H
	DB	0fH
	DB	013H
	DB	0a9H
	DB	011H
	DB	0a8H
	DB	011H
	DB	0a8H
	DB	011H
	DB	0a8H
	DB	011H
	DB	0a8H
	DB	011H
	DB	088H
	DB	011H
	DB	088H
	DB	011H
	DB	088H
	DB	011H
	DB	088H
	DB	011H
	DB	088H
	DB	011H
	DB	087H
	DB	011H
	DB	067H
	DB	011H
	DB	067H
	DB	011H
	DB	067H
	DB	011H
	DB	067H
	DB	011H
	DB	067H
	DB	011H
	DB	067H
	DB	011H
	DB	047H
	DB	011H
	DB	067H
	DB	011H
	DB	047H
	DB	09H
	DB	047H
	DB	011H
	DB	046H
	DB	011H
	DB	046H
	DB	09H
	DB	046H
	DB	09H
	DB	026H
	DB	09H
	DB	026H
	DB	09H
	DB	026H
	DB	09H
	DB	026H
	DB	09H
	DB	026H
	DB	09H
	DB	026H
	DB	09H
	DB	025H
	DB	09H
	DB	05H
	DB	09H
	DB	05H
	DB	09H
	DB	05H
	DB	09H
	DB	05H
	DB	09H
	DB	05H
	DB	09H
	DB	05H
	DB	09H
	DB	05H
	DB	09H
	DB	0e5H
	DB	08H
	DB	0e5H
	DB	08H
	DB	0e4H
	DB	08H
	DB	0e4H
	DB	08H
	DB	0e4H
	DB	08H
	DB	0c4H
	DB	08H
	DB	0e4H
	DB	08H
	DB	0c4H
	DB	08H
	DB	0c4H
	DB	08H
	DB	0c4H
	DB	08H
	DB	0c4H
	DB	08H
	DB	0c4H
	DB	08H
	DB	0a3H
	DB	08H
	DB	0a3H
	DB	08H
	DB	0a3H
	DB	08H
	DB	0a3H
	DB	08H
	DB	0a3H
	DB	08H
	DB	0a3H
	DB	08H
	DB	0a3H
	DB	08H
	DB	0a3H
	DB	08H
	DB	0a3H
	DB	08H
	DB	0a3H
	DB	08H
	DB	0a3H
	DB	08H
	DB	0a3H
	DB	08H
	DB	0a3H
	DB	08H
	DB	0a3H
	DB	08H
	DB	055H
	DB	014H
	DB	055H
	DB	014H
	DB	0fH
	DB	013H
	DB	0a8H
	DB	011H
	DB	0a8H
	DB	011H
	DB	0a8H
	DB	011H
	DB	0a8H
	DB	011H
	DB	088H
	DB	011H
	DB	088H
	DB	011H
	DB	088H
	DB	011H
	DB	088H
	DB	011H
	DB	088H
	DB	011H
	DB	088H
	DB	011H
	DB	087H
	DB	011H
	DB	067H
	DB	011H
	DB	067H
	DB	011H
	DB	067H
	DB	011H
	DB	067H
	DB	011H
	DB	067H
	DB	011H
	DB	067H
	DB	011H
	DB	067H
	DB	011H
	DB	047H
	DB	09H
	DB	046H
	DB	09H
	DB	047H
	DB	09H
	DB	046H
	DB	011H
	DB	046H
	DB	09H
	DB	046H
	DB	09H
	DB	026H
	DB	09H
	DB	026H
	DB	09H
	DB	026H
	DB	09H
	DB	026H
	DB	09H
	DB	026H
	DB	09H
	DB	026H
	DB	09H
	DB	026H
	DB	09H
	DB	05H
	DB	09H
	DB	05H
	DB	09H
	DB	05H
	DB	09H
	DB	05H
	DB	09H
	DB	05H
	DB	09H
	DB	0e5H
	DB	08H
	DB	0e5H
	DB	08H
	DB	0e5H
	DB	08H
	DB	0e4H
	DB	08H
	DB	0e4H
	DB	08H
	DB	0e4H
	DB	08H
	DB	0e4H
	DB	08H
	DB	0e4H
	DB	08H
	DB	0e4H
	DB	08H
	DB	0c4H
	DB	08H
	DB	0c4H
	DB	08H
	DB	0c4H
	DB	08H
	DB	0c3H
	DB	08H
	DB	0c4H
	DB	08H
	DB	0c3H
	DB	08H
	DB	0c3H
	DB	08H
	DB	0a3H
	DB	08H
	DB	0a3H
	DB	08H
	DB	0a3H
	DB	08H
	DB	0a3H
	DB	08H
	DB	0a3H
	DB	08H
	DB	0a3H
	DB	08H
	DB	0a3H
	DB	08H
	DB	0a3H
	DB	08H
	DB	0a3H
	DB	08H
	DB	0a3H
	DB	08H
	DB	0a3H
	DB	08H
	DB	0a3H
	DB	08H
	DB	055H
	DB	014H
	DB	055H
	DB	014H
	DB	0fH
	DB	013H
	DB	0a9H
	DB	011H
	DB	0a8H
	DB	011H
	DB	0a8H
	DB	011H
	DB	0a8H
	DB	011H
	DB	088H
	DB	011H
	DB	088H
	DB	011H
	DB	088H
	DB	011H
	DB	088H
	DB	011H
	DB	088H
	DB	011H
	DB	088H
	DB	011H
	DB	087H
	DB	011H
	DB	067H
	DB	011H
	DB	067H
	DB	011H
	DB	067H
	DB	011H
	DB	067H
	DB	011H
	DB	067H
	DB	011H
	DB	067H
	DB	011H
	DB	067H
	DB	011H
	DB	047H
	DB	011H
	DB	047H
	DB	09H
	DB	047H
	DB	011H
	DB	046H
	DB	09H
	DB	046H
	DB	09H
	DB	046H
	DB	09H
	DB	026H
	DB	09H
	DB	026H
	DB	09H
	DB	026H
	DB	09H
	DB	026H
	DB	09H
	DB	026H
	DB	09H
	DB	026H
	DB	09H
	DB	05H
	DB	09H
	DB	05H
	DB	09H
	DB	05H
	DB	09H
	DB	05H
	DB	09H
	DB	05H
	DB	09H
	DB	05H
	DB	09H
	DB	05H
	DB	09H
	DB	05H
	DB	09H
	DB	0e5H
	DB	08H
	DB	0e5H
	DB	08H
	DB	0e4H
	DB	08H
	DB	0e4H
	DB	08H
	DB	0e4H
	DB	08H
	DB	0e4H
	DB	08H
	DB	0c4H
	DB	08H
	DB	0c4H
	DB	08H
	DB	0c4H
	DB	08H
	DB	0c4H
	DB	08H
	DB	0c4H
	DB	08H
	DB	0c3H
	DB	08H
	DB	0c3H
	DB	08H
	DB	0a3H
	DB	08H
	DB	0a3H
	DB	08H
	DB	0a3H
	DB	08H
	DB	0a3H
	DB	08H
	DB	0a3H
	DB	08H
	DB	0a3H
	DB	08H
	DB	0a3H
	DB	08H
	DB	0a3H
	DB	08H
	DB	0a3H
	DB	08H
	DB	0a3H
	DB	08H
	DB	0a3H
	DB	08H
	DB	0a3H
	DB	08H
	DB	0a3H
	DB	08H
	DB	055H
	DB	014H
	DB	055H
	DB	014H
	DB	0fH
	DB	013H
	DB	0a9H
	DB	011H
	DB	0a8H
	DB	011H
	DB	0a8H
	DB	011H
	DB	0a8H
	DB	011H
	DB	088H
	DB	011H
	DB	088H
	DB	011H
	DB	088H
	DB	011H
	DB	088H
	DB	011H
	DB	088H
	DB	011H
	DB	088H
	DB	011H
	DB	087H
	DB	011H
	DB	067H
	DB	011H
	DB	067H
	DB	011H
	DB	067H
	DB	011H
	DB	067H
	DB	011H
	DB	067H
	DB	011H
	DB	067H
	DB	011H
	DB	047H
	DB	011H
	DB	047H
	DB	011H
	DB	047H
	DB	011H
	DB	046H
	DB	011H
	DB	046H
	DB	09H
	DB	046H
	DB	09H
	DB	046H
	DB	09H
	DB	026H
	DB	09H
	DB	026H
	DB	09H
	DB	026H
	DB	09H
	DB	026H
	DB	09H
	DB	026H
	DB	09H
	DB	026H
	DB	09H
	DB	025H
	DB	09H
	DB	05H
	DB	09H
	DB	05H
	DB	09H
	DB	05H
	DB	09H
	DB	05H
	DB	09H
	DB	05H
	DB	09H
	DB	05H
	DB	09H
	DB	05H
	DB	09H
	DB	0e5H
	DB	08H
	DB	0e5H
	DB	08H
	DB	0e4H
	DB	08H
	DB	0e4H
	DB	08H
	DB	0e4H
	DB	08H
	DB	0e4H
	DB	08H
	DB	0c4H
	DB	08H
	DB	0c4H
	DB	08H
	DB	0c4H
	DB	08H
	DB	0c4H
	DB	08H
	DB	0c4H
	DB	08H
	DB	0c4H
	DB	08H
	DB	0a3H
	DB	08H
	DB	0a3H
	DB	08H
	DB	0a3H
	DB	08H
	DB	0a3H
	DB	08H
	DB	0a3H
	DB	08H
	DB	0a3H
	DB	08H
	DB	0a3H
	DB	08H
	DB	0a3H
	DB	08H
	DB	0a3H
	DB	08H
	DB	0a3H
	DB	08H
	DB	0a3H
	DB	08H
	DB	0a3H
	DB	08H
	DB	0a3H
	DB	08H
	DB	0a3H
	DB	08H
	DB	055H
	DB	014H
	DB	055H
	DB	014H
	DB	0fH
	DB	013H
	DB	0a9H
	DB	011H
	DB	0a8H
	DB	011H
	DB	0a8H
	DB	011H
	DB	0a8H
	DB	011H
	DB	088H
	DB	011H
	DB	088H
	DB	011H
	DB	088H
	DB	011H
	DB	088H
	DB	011H
	DB	088H
	DB	011H
	DB	088H
	DB	011H
	DB	088H
	DB	011H
	DB	067H
	DB	011H
	DB	067H
	DB	011H
	DB	067H
	DB	011H
	DB	067H
	DB	011H
	DB	067H
	DB	011H
	DB	067H
	DB	011H
	DB	047H
	DB	011H
	DB	047H
	DB	011H
	DB	047H
	DB	09H
	DB	046H
	DB	09H
	DB	046H
	DB	09H
	DB	046H
	DB	09H
	DB	046H
	DB	09H
	DB	046H
	DB	09H
	DB	026H
	DB	09H
	DB	026H
	DB	09H
	DB	026H
	DB	09H
	DB	026H
	DB	09H
	DB	025H
	DB	09H
	DB	05H
	DB	09H
	DB	05H
	DB	09H
	DB	05H
	DB	09H
	DB	05H
	DB	09H
	DB	05H
	DB	09H
	DB	05H
	DB	09H
	DB	0e5H
	DB	08H
	DB	0e5H
	DB	08H
	DB	0e5H
	DB	08H
	DB	0e4H
	DB	08H
	DB	0e4H
	DB	08H
	DB	0e4H
	DB	08H
	DB	0e4H
	DB	08H
	DB	0e4H
	DB	08H
	DB	0c4H
	DB	08H
	DB	0c4H
	DB	08H
	DB	0c4H
	DB	08H
	DB	0c4H
	DB	08H
	DB	0c4H
	DB	08H
	DB	0c3H
	DB	08H
	DB	0a3H
	DB	08H
	DB	0a3H
	DB	08H
	DB	0a3H
	DB	08H
	DB	0a3H
	DB	08H
	DB	0a3H
	DB	08H
	DB	0a3H
	DB	08H
	DB	0a3H
	DB	08H
	DB	0a3H
	DB	08H
	DB	0a3H
	DB	08H
	DB	0a3H
	DB	08H
	DB	0a3H
	DB	08H
	DB	0a3H
	DB	08H
	DB	0a3H
	DB	08H
	DB	0a3H
	DB	08H
	DB	055H
	DB	014H
	DB	055H
	DB	014H
	DB	0fH
	DB	013H
	DB	0a9H
	DB	011H
	DB	0a8H
	DB	011H
	DB	0a8H
	DB	011H
	DB	0a8H
	DB	011H
	DB	088H
	DB	011H
	DB	0a8H
	DB	011H
	DB	088H
	DB	011H
	DB	088H
	DB	011H
	DB	088H
	DB	011H
	DB	088H
	DB	011H
	DB	088H
	DB	011H
	DB	087H
	DB	011H
	DB	067H
	DB	011H
	DB	067H
	DB	011H
	DB	067H
	DB	011H
	DB	067H
	DB	011H
	DB	067H
	DB	011H
	DB	067H
	DB	011H
	DB	067H
	DB	011H
	DB	047H
	DB	011H
	DB	047H
	DB	09H
	DB	046H
	DB	09H
	DB	046H
	DB	09H
	DB	046H
	DB	09H
	DB	026H
	DB	09H
	DB	026H
	DB	09H
	DB	026H
	DB	09H
	DB	026H
	DB	09H
	DB	026H
	DB	09H
	DB	026H
	DB	09H
	DB	05H
	DB	09H
	DB	025H
	DB	09H
	DB	05H
	DB	09H
	DB	05H
	DB	09H
	DB	05H
	DB	09H
	DB	05H
	DB	09H
	DB	05H
	DB	09H
	DB	05H
	DB	09H
	DB	0e5H
	DB	08H
	DB	0e5H
	DB	08H
	DB	0e4H
	DB	08H
	DB	0e4H
	DB	08H
	DB	0e4H
	DB	08H
	DB	0e4H
	DB	08H
	DB	0c4H
	DB	08H
	DB	0c4H
	DB	08H
	DB	0c4H
	DB	08H
	DB	0c4H
	DB	08H
	DB	0c4H
	DB	08H
	DB	0c4H
	DB	08H
	DB	0a3H
	DB	08H
	DB	0a3H
	DB	08H
	DB	0a3H
	DB	08H
	DB	0a3H
	DB	08H
	DB	0a3H
	DB	08H
	DB	0a3H
	DB	08H
	DB	0a3H
	DB	08H
	DB	0a3H
	DB	08H
	DB	0a3H
	DB	08H
	DB	0a3H
	DB	08H
	DB	0a3H
	DB	08H
	DB	0a3H
	DB	08H
	DB	0a3H
	DB	08H
	DB	0a3H
	DB	08H
	DB	055H
	DB	014H
	DB	055H
	DB	014H
	DB	0fH
	DB	013H
	DB	0a8H
	DB	011H
	DB	0a8H
	DB	011H
	DB	0a8H
	DB	011H
	DB	0a8H
	DB	011H
	DB	088H
	DB	011H
	DB	088H
	DB	011H
	DB	088H
	DB	011H
	DB	088H
	DB	011H
	DB	088H
	DB	011H
	DB	088H
	DB	011H
	DB	068H
	DB	011H
	DB	067H
	DB	011H
	DB	067H
	DB	011H
	DB	067H
	DB	011H
	DB	067H
	DB	011H
	DB	067H
	DB	011H
	DB	067H
	DB	011H
	DB	067H
	DB	09H
	DB	047H
	DB	011H
	DB	047H
	DB	09H
	DB	047H
	DB	09H
	DB	046H
	DB	09H
	DB	046H
	DB	011H
	DB	046H
	DB	09H
	DB	046H
	DB	09H
	DB	026H
	DB	09H
	DB	026H
	DB	09H
	DB	026H
	DB	09H
	DB	026H
	DB	09H
	DB	026H
	DB	09H
	DB	05H
	DB	09H
	DB	025H
	DB	09H
	DB	05H
	DB	09H
	DB	05H
	DB	09H
	DB	05H
	DB	09H
	DB	05H
	DB	09H
	DB	05H
	DB	09H
	DB	05H
	DB	09H
	DB	0e5H
	DB	08H
	DB	0e5H
	DB	08H
	DB	0e4H
	DB	08H
	DB	0e4H
	DB	08H
	DB	0e4H
	DB	08H
	DB	0e4H
	DB	08H
	DB	0c4H
	DB	08H
	DB	0c4H
	DB	08H
	DB	0c4H
	DB	08H
	DB	0c4H
	DB	08H
	DB	0c4H
	DB	08H
	DB	0c4H
	DB	08H
	DB	0c3H
	DB	08H
	DB	0c3H
	DB	08H
	DB	0a3H
	DB	08H
	DB	0a3H
	DB	08H
	DB	0a3H
	DB	00H
	DB	0a3H
	DB	08H
	DB	0a3H
	DB	08H
	DB	0a3H
	DB	08H
	DB	0a3H
	DB	08H
	DB	0a3H
	DB	08H
	DB	0a3H
	DB	08H
	DB	0a3H
	DB	08H
	DB	0a3H
	DB	08H
	DB	0a3H
	DB	08H
	DB	055H
	DB	014H
	DB	055H
	DB	014H
	DB	0fH
	DB	013H
	DB	0a9H
	DB	011H
	DB	0a8H
	DB	011H
	DB	0a8H
	DB	011H
	DB	0a8H
	DB	011H
	DB	088H
	DB	011H
	DB	088H
	DB	011H
	DB	088H
	DB	011H
	DB	088H
	DB	011H
	DB	088H
	DB	011H
	DB	088H
	DB	011H
	DB	087H
	DB	011H
	DB	067H
	DB	011H
	DB	067H
	DB	011H
	DB	067H
	DB	011H
	DB	067H
	DB	011H
	DB	067H
	DB	011H
	DB	067H
	DB	011H
	DB	067H
	DB	011H
	DB	047H
	DB	011H
	DB	047H
	DB	09H
	DB	046H
	DB	011H
	DB	046H
	DB	09H
	DB	046H
	DB	09H
	DB	046H
	DB	09H
	DB	026H
	DB	09H
	DB	026H
	DB	09H
	DB	026H
	DB	09H
	DB	026H
	DB	09H
	DB	026H
	DB	09H
	DB	025H
	DB	09H
	DB	025H
	DB	09H
	DB	05H
	DB	09H
	DB	05H
	DB	09H
	DB	05H
	DB	09H
	DB	05H
	DB	09H
	DB	05H
	DB	09H
	DB	05H
	DB	09H
	DB	0e5H
	DB	08H
	DB	0e5H
	DB	08H
	DB	0e4H
	DB	08H
	DB	0e4H
	DB	08H
	DB	0e4H
	DB	08H
	DB	0e4H
	DB	08H
	DB	0e4H
	DB	08H
	DB	0c4H
	DB	08H
	DB	0c4H
	DB	08H
	DB	0c4H
	DB	08H
	DB	0c4H
	DB	08H
	DB	0c4H
	DB	08H
	DB	0c3H
	DB	08H
	DB	0a3H
	DB	08H
	DB	0a3H
	DB	08H
	DB	0a3H
	DB	08H
	DB	0a3H
	DB	08H
	DB	0a3H
	DB	08H
	DB	0a3H
	DB	08H
	DB	0a3H
	DB	08H
	DB	0a3H
	DB	08H
	DB	0a3H
	DB	08H
	DB	0a3H
	DB	08H
	DB	0a3H
	DB	08H
	DB	0a3H
	DB	08H
	DB	0a3H
	DB	08H
	DB	0a3H
	DB	08H
	DB	055H
	DB	014H
	DB	055H
	DB	014H
	DB	0fH
	DB	013H
	DB	0a8H
	DB	011H
	DB	0a8H
	DB	011H
	DB	0a8H
	DB	011H
	DB	0a8H
	DB	011H
	DB	0a8H
	DB	011H
	DB	088H
	DB	011H
	DB	088H
	DB	011H
	DB	088H
	DB	011H
	DB	088H
	DB	011H
	DB	088H
	DB	011H
	DB	088H
	DB	011H
	DB	067H
	DB	011H
	DB	067H
	DB	011H
	DB	067H
	DB	011H
	DB	067H
	DB	011H
	DB	067H
	DB	011H
	DB	067H
	DB	011H
	DB	067H
	DB	09H
	DB	047H
	DB	011H
	DB	047H
	DB	011H
	DB	046H
	DB	09H
	DB	046H
	DB	011H
	DB	046H
	DB	011H
	DB	046H
	DB	09H
	DB	046H
	DB	09H
	DB	026H
	DB	09H
	DB	026H
	DB	09H
	DB	026H
	DB	09H
	DB	026H
	DB	09H
	DB	026H
	DB	09H
	DB	025H
	DB	09H
	DB	05H
	DB	09H
	DB	05H
	DB	09H
	DB	05H
	DB	09H
	DB	05H
	DB	09H
	DB	05H
	DB	09H
	DB	05H
	DB	09H
	DB	0e5H
	DB	08H
	DB	0e5H
	DB	08H
	DB	0e5H
	DB	08H
	DB	0e4H
	DB	08H
	DB	0e4H
	DB	08H
	DB	0e4H
	DB	08H
	DB	0e4H
	DB	08H
	DB	0c4H
	DB	08H
	DB	0c4H
	DB	08H
	DB	0c4H
	DB	08H
	DB	0c4H
	DB	08H
	DB	0c4H
	DB	08H
	DB	0c4H
	DB	08H
	DB	0a3H
	DB	08H
	DB	0a3H
	DB	08H
	DB	0a3H
	DB	08H
	DB	0a3H
	DB	08H
	DB	0a3H
	DB	08H
	DB	0a3H
	DB	08H
	DB	0a3H
	DB	08H
	DB	0a3H
	DB	08H
	DB	0a3H
	DB	08H
	DB	0a3H
	DB	08H
	DB	0a3H
	DB	08H
	DB	0a3H
	DB	08H
	DB	0a3H
	DB	08H
	DB	0a3H
	DB	08H
	DB	055H
	DB	014H
	DB	055H
	DB	014H
	DB	0fH
	DB	013H
	DB	0a9H
	DB	011H
	DB	0a9H
	DB	011H
	DB	0a8H
	DB	011H
	DB	0a8H
	DB	011H
	DB	0a8H
	DB	011H
	DB	088H
	DB	011H
	DB	088H
	DB	011H
	DB	088H
	DB	011H
	DB	088H
	DB	011H
	DB	088H
	DB	011H
	DB	087H
	DB	011H
	DB	067H
	DB	011H
	DB	067H
	DB	011H
	DB	067H
	DB	011H
	DB	067H
	DB	011H
	DB	067H
	DB	011H
	DB	067H
	DB	011H
	DB	047H
	DB	011H
	DB	047H
	DB	011H
	DB	047H
	DB	09H
	DB	046H
	DB	09H
	DB	046H
	DB	09H
	DB	046H
	DB	09H
	DB	046H
	DB	011H
	DB	026H
	DB	09H
	DB	026H
	DB	09H
	DB	026H
	DB	09H
	DB	026H
	DB	09H
	DB	026H
	DB	09H
	DB	026H
	DB	09H
	DB	05H
	DB	09H
	DB	025H
	DB	09H
	DB	05H
	DB	09H
	DB	05H
	DB	09H
	DB	05H
	DB	09H
	DB	05H
	DB	09H
	DB	05H
	DB	09H
	DB	05H
	DB	09H
	DB	0e5H
	DB	08H
	DB	0e5H
	DB	08H
	DB	0e4H
	DB	08H
	DB	0e4H
	DB	08H
	DB	0e4H
	DB	08H
	DB	0e4H
	DB	08H
	DB	0c4H
	DB	08H
	DB	0c4H
	DB	08H
	DB	0c4H
	DB	08H
	DB	0c4H
	DB	08H
	DB	0c4H
	DB	08H
	DB	0c3H
	DB	08H
	DB	0c3H
	DB	08H
	DB	0a3H
	DB	08H
	DB	0a3H
	DB	08H
	DB	0a3H
	DB	08H
	DB	0a3H
	DB	08H
	DB	0a3H
	DB	08H
	DB	0a3H
	DB	08H
	DB	0a3H
	DB	08H
	DB	0a3H
	DB	08H
	DB	0a3H
	DB	08H
	DB	0a3H
	DB	08H
	DB	0a3H
	DB	08H
	DB	0a3H
	DB	08H
	DB	0a3H
	DB	08H
	DB	055H
	DB	014H
	DB	055H
	DB	014H
	DB	0fH
	DB	013H
	DB	0a9H
	DB	011H
	DB	0a9H
	DB	011H
	DB	0a8H
	DB	011H
	DB	0a8H
	DB	011H
	DB	0a8H
	DB	011H
	DB	088H
	DB	011H
	DB	088H
	DB	011H
	DB	088H
	DB	011H
	DB	088H
	DB	011H
	DB	088H
	DB	011H
	DB	068H
	DB	011H
	DB	067H
	DB	011H
	DB	067H
	DB	011H
	DB	067H
	DB	011H
	DB	067H
	DB	011H
	DB	067H
	DB	011H
	DB	067H
	DB	011H
	DB	067H
	DB	011H
	DB	067H
	DB	011H
	DB	047H
	DB	011H
	DB	046H
	DB	011H
	DB	046H
	DB	011H
	DB	046H
	DB	09H
	DB	046H
	DB	09H
	DB	046H
	DB	09H
	DB	026H
	DB	09H
	DB	026H
	DB	09H
	DB	026H
	DB	09H
	DB	026H
	DB	09H
	DB	026H
	DB	09H
	DB	026H
	DB	09H
	DB	025H
	DB	09H
	DB	05H
	DB	09H
	DB	05H
	DB	09H
	DB	05H
	DB	09H
	DB	05H
	DB	09H
	DB	05H
	DB	09H
	DB	05H
	DB	09H
	DB	0e5H
	DB	08H
	DB	0e5H
	DB	08H
	DB	0e4H
	DB	08H
	DB	0e4H
	DB	08H
	DB	0e4H
	DB	08H
	DB	0e4H
	DB	08H
	DB	0e4H
	DB	08H
	DB	0c4H
	DB	08H
	DB	0c4H
	DB	08H
	DB	0c4H
	DB	08H
	DB	0c4H
	DB	08H
	DB	0c4H
	DB	08H
	DB	0a3H
	DB	08H
	DB	0a3H
	DB	08H
	DB	0a3H
	DB	08H
	DB	0a3H
	DB	08H
	DB	0a3H
	DB	08H
	DB	0a3H
	DB	08H
	DB	0a3H
	DB	08H
	DB	0a3H
	DB	08H
	DB	0a3H
	DB	08H
	DB	0a3H
	DB	08H
	DB	0a3H
	DB	08H
	DB	0a3H
	DB	08H
	DB	0a3H
	DB	08H
	DB	0a3H
	DB	08H
	DB	055H
	DB	014H
	DB	055H
	DB	014H
	DB	0fH
	DB	013H
	DB	0a8H
	DB	011H
	DB	0a8H
	DB	011H
	DB	0a8H
	DB	011H
	DB	0a8H
	DB	011H
	DB	0a8H
	DB	011H
	DB	088H
	DB	011H
	DB	088H
	DB	011H
	DB	088H
	DB	011H
	DB	088H
	DB	011H
	DB	088H
	DB	011H
	DB	087H
	DB	011H
	DB	087H
	DB	011H
	DB	067H
	DB	011H
	DB	067H
	DB	011H
	DB	067H
	DB	011H
	DB	067H
	DB	011H
	DB	067H
	DB	011H
	DB	067H
	DB	011H
	DB	047H
	DB	011H
	DB	047H
	DB	011H
	DB	046H
	DB	011H
	DB	046H
	DB	09H
	DB	046H
	DB	09H
	DB	026H
	DB	09H
	DB	046H
	DB	09H
	DB	026H
	DB	09H
	DB	026H
	DB	09H
	DB	026H
	DB	09H
	DB	026H
	DB	09H
	DB	025H
	DB	09H
	DB	025H
	DB	09H
	DB	05H
	DB	09H
	DB	05H
	DB	09H
	DB	05H
	DB	09H
	DB	05H
	DB	09H
	DB	05H
	DB	09H
	DB	05H
	DB	09H
	DB	0e5H
	DB	08H
	DB	0e5H
	DB	08H
	DB	0e5H
	DB	08H
	DB	0e4H
	DB	08H
	DB	0e4H
	DB	08H
	DB	0e4H
	DB	08H
	DB	0e4H
	DB	08H
	DB	0c4H
	DB	08H
	DB	0c4H
	DB	08H
	DB	0c4H
	DB	08H
	DB	0c4H
	DB	08H
	DB	0c4H
	DB	08H
	DB	0c3H
	DB	08H
	DB	0c3H
	DB	08H
	DB	0c3H
	DB	08H
	DB	0a3H
	DB	08H
	DB	0a3H
	DB	08H
	DB	0a3H
	DB	08H
	DB	0a3H
	DB	08H
	DB	0a3H
	DB	08H
	DB	0a3H
	DB	08H
	DB	0a3H
	DB	08H
	DB	0a3H
	DB	08H
	DB	0a3H
	DB	08H
	DB	0a3H
	DB	08H
	DB	0a3H
	DB	08H
	DB	0a3H
	DB	08H
	DB	055H
	DB	014H
	DB	055H
	DB	014H
	DB	0fH
	DB	013H
	DB	0a9H
	DB	011H
	DB	0a8H
	DB	011H
	DB	0a8H
	DB	011H
	DB	0a8H
	DB	011H
	DB	0a8H
	DB	011H
	DB	088H
	DB	011H
	DB	088H
	DB	011H
	DB	088H
	DB	011H
	DB	088H
	DB	011H
	DB	088H
	DB	011H
	DB	087H
	DB	011H
	DB	067H
	DB	011H
	DB	067H
	DB	011H
	DB	067H
	DB	011H
	DB	067H
	DB	011H
	DB	067H
	DB	011H
	DB	067H
	DB	011H
	DB	047H
	DB	011H
	DB	047H
	DB	011H
	DB	047H
	DB	011H
	DB	046H
	DB	09H
	DB	046H
	DB	09H
	DB	046H
	DB	09H
	DB	046H
	DB	09H
	DB	046H
	DB	09H
	DB	026H
	DB	09H
	DB	026H
	DB	09H
	DB	026H
	DB	09H
	DB	026H
	DB	09H
	DB	026H
	DB	09H
	DB	025H
	DB	09H
	DB	025H
	DB	09H
	DB	05H
	DB	09H
	DB	05H
	DB	09H
	DB	05H
	DB	09H
	DB	05H
	DB	09H
	DB	05H
	DB	09H
	DB	05H
	DB	09H
	DB	0e5H
	DB	08H
	DB	0e5H
	DB	08H
	DB	0e5H
	DB	08H
	DB	0e4H
	DB	08H
	DB	0e4H
	DB	08H
	DB	0e4H
	DB	08H
	DB	0c4H
	DB	08H
	DB	0c4H
	DB	08H
	DB	0c4H
	DB	08H
	DB	0c4H
	DB	08H
	DB	0c4H
	DB	08H
	DB	0c4H
	DB	08H
	DB	0c3H
	DB	08H
	DB	0a3H
	DB	08H
	DB	0a3H
	DB	08H
	DB	0a3H
	DB	08H
	DB	0a3H
	DB	08H
	DB	0a3H
	DB	08H
	DB	0a3H
	DB	08H
	DB	0a3H
	DB	08H
	DB	0a3H
	DB	08H
	DB	0a3H
	DB	08H
	DB	0a3H
	DB	08H
	DB	0a3H
	DB	08H
	DB	0a3H
	DB	08H
	DB	0a3H
	DB	08H
	DB	055H
	DB	014H
	DB	055H
	DB	014H
	DB	0fH
	DB	013H
	DB	0a9H
	DB	011H
	DB	0a8H
	DB	011H
	DB	0a8H
	DB	011H
	DB	0a8H
	DB	011H
	DB	0a8H
	DB	011H
	DB	088H
	DB	011H
	DB	088H
	DB	011H
	DB	088H
	DB	011H
	DB	088H
	DB	011H
	DB	088H
	DB	011H
	DB	087H
	DB	011H
	DB	087H
	DB	011H
	DB	067H
	DB	011H
	DB	067H
	DB	011H
	DB	067H
	DB	011H
	DB	067H
	DB	011H
	DB	067H
	DB	011H
	DB	067H
	DB	011H
	DB	047H
	DB	011H
	DB	047H
	DB	011H
	DB	047H
	DB	011H
	DB	046H
	DB	09H
	DB	046H
	DB	09H
	DB	046H
	DB	09H
	DB	046H
	DB	09H
	DB	026H
	DB	09H
	DB	026H
	DB	09H
	DB	026H
	DB	09H
	DB	026H
	DB	09H
	DB	026H
	DB	09H
	DB	025H
	DB	09H
	DB	05H
	DB	09H
	DB	05H
	DB	09H
	DB	05H
	DB	09H
	DB	05H
	DB	09H
	DB	05H
	DB	09H
	DB	05H
	DB	09H
	DB	05H
	DB	09H
	DB	0e5H
	DB	08H
	DB	0e4H
	DB	08H
	DB	0e5H
	DB	08H
	DB	0e4H
	DB	08H
	DB	0e4H
	DB	08H
	DB	0e4H
	DB	08H
	DB	0c4H
	DB	08H
	DB	0c4H
	DB	08H
	DB	0c4H
	DB	08H
	DB	0c4H
	DB	08H
	DB	0c4H
	DB	08H
	DB	0c3H
	DB	08H
	DB	0c3H
	DB	08H
	DB	0a3H
	DB	08H
	DB	0a3H
	DB	08H
	DB	0a3H
	DB	08H
	DB	0a3H
	DB	08H
	DB	0a3H
	DB	08H
	DB	0a3H
	DB	08H
	DB	0a3H
	DB	08H
	DB	0a3H
	DB	08H
	DB	0a3H
	DB	08H
	DB	0a3H
	DB	08H
	DB	0a3H
	DB	08H
	DB	0a3H
	DB	08H
	DB	0a3H
	DB	08H
	DB	055H
	DB	014H
	DB	055H
	DB	014H
	DB	0fH
	DB	013H
	DB	0a9H
	DB	011H
	DB	0a8H
	DB	011H
	DB	0a8H
	DB	011H
	DB	0a8H
	DB	011H
	DB	0a8H
	DB	011H
	DB	088H
	DB	011H
	DB	088H
	DB	011H
	DB	088H
	DB	011H
	DB	088H
	DB	011H
	DB	088H
	DB	011H
	DB	088H
	DB	011H
	DB	087H
	DB	011H
	DB	067H
	DB	011H
	DB	067H
	DB	011H
	DB	067H
	DB	011H
	DB	067H
	DB	011H
	DB	067H
	DB	011H
	DB	047H
	DB	011H
	DB	067H
	DB	011H
	DB	047H
	DB	011H
	DB	046H
	DB	011H
	DB	046H
	DB	011H
	DB	046H
	DB	09H
	DB	026H
	DB	09H
	DB	026H
	DB	09H
	DB	026H
	DB	09H
	DB	026H
	DB	09H
	DB	026H
	DB	09H
	DB	026H
	DB	09H
	DB	026H
	DB	09H
	DB	025H
	DB	09H
	DB	05H
	DB	09H
	DB	05H
	DB	09H
	DB	05H
	DB	09H
	DB	05H
	DB	09H
	DB	05H
	DB	09H
	DB	05H
	DB	09H
	DB	05H
	DB	09H
	DB	0e5H
	DB	08H
	DB	0e5H
	DB	08H
	DB	0e4H
	DB	08H
	DB	0e4H
	DB	08H
	DB	0e4H
	DB	08H
	DB	0e4H
	DB	08H
	DB	0c4H
	DB	08H
	DB	0c4H
	DB	08H
	DB	0c4H
	DB	08H
	DB	0c4H
	DB	08H
	DB	0c4H
	DB	08H
	DB	0c4H
	DB	08H
	DB	0c3H
	DB	08H
	DB	0a3H
	DB	08H
	DB	0a3H
	DB	08H
	DB	0a3H
	DB	08H
	DB	0a3H
	DB	08H
	DB	0a3H
	DB	08H
	DB	0a3H
	DB	08H
	DB	0a3H
	DB	08H
	DB	0a3H
	DB	08H
	DB	0a3H
	DB	08H
	DB	0a3H
	DB	08H
	DB	0a3H
	DB	08H
	DB	0a3H
	DB	08H
	DB	0a3H
	DB	08H
	DB	055H
	DB	014H
	DB	055H
	DB	014H
	DB	0fH
	DB	013H
	DB	0a9H
	DB	011H
	DB	0a8H
	DB	011H
	DB	0a8H
	DB	011H
	DB	0a8H
	DB	011H
	DB	088H
	DB	011H
	DB	088H
	DB	011H
	DB	088H
	DB	011H
	DB	088H
	DB	011H
	DB	088H
	DB	011H
	DB	088H
	DB	011H
	DB	088H
	DB	011H
	DB	087H
	DB	011H
	DB	067H
	DB	011H
	DB	067H
	DB	011H
	DB	067H
	DB	011H
	DB	067H
	DB	011H
	DB	067H
	DB	011H
	DB	067H
	DB	011H
	DB	067H
	DB	011H
	DB	047H
	DB	011H
	DB	046H
	DB	011H
	DB	046H
	DB	09H
	DB	046H
	DB	011H
	DB	046H
	DB	09H
	DB	046H
	DB	09H
	DB	026H
	DB	09H
	DB	026H
	DB	09H
	DB	026H
	DB	09H
	DB	026H
	DB	09H
	DB	026H
	DB	09H
	DB	025H
	DB	09H
	DB	05H
	DB	09H
	DB	05H
	DB	09H
	DB	05H
	DB	09H
	DB	05H
	DB	09H
	DB	05H
	DB	09H
	DB	05H
	DB	09H
	DB	05H
	DB	09H
	DB	0e5H
	DB	08H
	DB	0e5H
	DB	08H
	DB	0e4H
	DB	08H
	DB	0e4H
	DB	08H
	DB	0e4H
	DB	08H
	DB	0e4H
	DB	08H
	DB	0e4H
	DB	08H
	DB	0c4H
	DB	08H
	DB	0c4H
	DB	08H
	DB	0c4H
	DB	08H
	DB	0c4H
	DB	08H
	DB	0c3H
	DB	08H
	DB	0a4H
	DB	08H
	DB	0a3H
	DB	08H
	DB	0a3H
	DB	08H
	DB	0a3H
	DB	08H
	DB	0a3H
	DB	00H
	DB	0a3H
	DB	08H
	DB	0a3H
	DB	08H
	DB	0a3H
	DB	08H
	DB	0a3H
	DB	08H
	DB	0a3H
	DB	08H
	DB	0a3H
	DB	08H
	DB	0a3H
	DB	08H
	DB	0a3H
	DB	08H
	DB	0a3H
	DB	08H
	DB	055H
	DB	014H
	DB	055H
	DB	014H
	DB	0fH
	DB	013H
	DB	0a9H
	DB	011H
	DB	0a8H
	DB	011H
	DB	0a8H
	DB	011H
	DB	0a8H
	DB	011H
	DB	088H
	DB	011H
	DB	088H
	DB	011H
	DB	088H
	DB	011H
	DB	088H
	DB	011H
	DB	088H
	DB	011H
	DB	088H
	DB	011H
	DB	088H
	DB	011H
	DB	067H
	DB	011H
	DB	067H
	DB	011H
	DB	067H
	DB	011H
	DB	067H
	DB	011H
	DB	067H
	DB	011H
	DB	067H
	DB	011H
	DB	067H
	DB	011H
	DB	047H
	DB	011H
	DB	047H
	DB	09H
	DB	047H
	DB	011H
	DB	046H
	DB	011H
	DB	046H
	DB	011H
	DB	046H
	DB	09H
	DB	026H
	DB	09H
	DB	026H
	DB	09H
	DB	026H
	DB	09H
	DB	026H
	DB	09H
	DB	026H
	DB	09H
	DB	026H
	DB	09H
	DB	06H
	DB	09H
	DB	05H
	DB	09H
	DB	05H
	DB	09H
	DB	05H
	DB	09H
	DB	05H
	DB	09H
	DB	05H
	DB	09H
	DB	05H
	DB	09H
	DB	0e5H
	DB	08H
	DB	0e5H
	DB	08H
	DB	0e5H
	DB	08H
	DB	0e4H
	DB	08H
	DB	0e4H
	DB	08H
	DB	0e4H
	DB	08H
	DB	0e4H
	DB	08H
	DB	0c4H
	DB	08H
	DB	0e4H
	DB	08H
	DB	0c4H
	DB	08H
	DB	0c4H
	DB	08H
	DB	0c4H
	DB	08H
	DB	0c3H
	DB	08H
	DB	0a3H
	DB	08H
	DB	0a3H
	DB	08H
	DB	0a3H
	DB	08H
	DB	0a3H
	DB	08H
	DB	0a3H
	DB	08H
	DB	0a3H
	DB	08H
	DB	0a3H
	DB	08H
	DB	0a3H
	DB	08H
	DB	0a3H
	DB	08H
	DB	0a3H
	DB	08H
	DB	0a3H
	DB	08H
	DB	0a3H
	DB	08H
	DB	0a3H
	DB	08H
	DB	0a3H
	DB	08H
	DB	055H
	DB	014H
	DB	055H
	DB	014H
	DB	0fH
	DB	013H
	DB	0a9H
	DB	011H
	DB	0a8H
	DB	011H
	DB	0a8H
	DB	011H
	DB	0a8H
	DB	011H
	DB	0a8H
	DB	011H
	DB	0a8H
	DB	011H
	DB	088H
	DB	011H
	DB	088H
	DB	011H
	DB	088H
	DB	011H
	DB	088H
	DB	011H
	DB	088H
	DB	011H
	DB	067H
	DB	011H
	DB	067H
	DB	011H
	DB	067H
	DB	011H
	DB	067H
	DB	011H
	DB	067H
	DB	011H
	DB	067H
	DB	011H
	DB	067H
	DB	011H
	DB	067H
	DB	011H
	DB	047H
	DB	011H
	DB	047H
	DB	09H
	DB	046H
	DB	09H
	DB	046H
	DB	011H
	DB	046H
	DB	09H
	DB	046H
	DB	09H
	DB	026H
	DB	09H
	DB	026H
	DB	09H
	DB	026H
	DB	09H
	DB	026H
	DB	09H
	DB	026H
	DB	09H
	DB	05H
	DB	09H
	DB	05H
	DB	09H
	DB	05H
	DB	09H
	DB	05H
	DB	09H
	DB	05H
	DB	09H
	DB	05H
	DB	09H
	DB	05H
	DB	09H
	DB	05H
	DB	09H
	DB	0e5H
	DB	08H
	DB	0e5H
	DB	08H
	DB	0e4H
	DB	08H
	DB	0e4H
	DB	08H
	DB	0e4H
	DB	08H
	DB	0e4H
	DB	08H
	DB	0c4H
	DB	08H
	DB	0c4H
	DB	08H
	DB	0c4H
	DB	08H
	DB	0c4H
	DB	08H
	DB	0c4H
	DB	08H
	DB	0c4H
	DB	08H
	DB	0c3H
	DB	08H
	DB	0a3H
	DB	08H
	DB	0a3H
	DB	08H
	DB	0a3H
	DB	08H
	DB	0a3H
	DB	08H
	DB	0a3H
	DB	08H
	DB	0a3H
	DB	08H
	DB	0a3H
	DB	08H
	DB	0a3H
	DB	08H
	DB	0a3H
	DB	08H
	DB	0a3H
	DB	08H
	DB	0a3H
	DB	08H
	DB	0a3H
	DB	08H
	DB	0a3H
	DB	08H
	DB	055H
	DB	014H
	DB	055H
	DB	014H
	DB	0fH
	DB	013H
	DB	0a9H
	DB	011H
	DB	0a9H
	DB	011H
	DB	0a8H
	DB	011H
	DB	0a8H
	DB	011H
	DB	0a8H
	DB	011H
	DB	088H
	DB	011H
	DB	088H
	DB	011H
	DB	088H
	DB	011H
	DB	088H
	DB	011H
	DB	088H
	DB	011H
	DB	087H
	DB	011H
	DB	068H
	DB	011H
	DB	067H
	DB	011H
	DB	067H
	DB	011H
	DB	067H
	DB	011H
	DB	067H
	DB	011H
	DB	067H
	DB	011H
	DB	067H
	DB	011H
	DB	047H
	DB	011H
	DB	047H
	DB	09H
	DB	046H
	DB	011H
	DB	046H
	DB	09H
	DB	046H
	DB	09H
	DB	046H
	DB	09H
	DB	046H
	DB	09H
	DB	046H
	DB	09H
	DB	026H
	DB	09H
	DB	026H
	DB	09H
	DB	026H
	DB	09H
	DB	026H
	DB	09H
	DB	06H
	DB	09H
	DB	025H
	DB	09H
	DB	05H
	DB	09H
	DB	05H
	DB	09H
	DB	05H
	DB	09H
	DB	05H
	DB	09H
	DB	05H
	DB	09H
	DB	05H
	DB	09H
	DB	0e5H
	DB	08H
	DB	0e5H
	DB	08H
	DB	0e5H
	DB	08H
	DB	0e4H
	DB	08H
	DB	0e4H
	DB	08H
	DB	0e4H
	DB	08H
	DB	0c4H
	DB	08H
	DB	0c4H
	DB	08H
	DB	0c4H
	DB	08H
	DB	0c4H
	DB	08H
	DB	0c4H
	DB	08H
	DB	0c4H
	DB	08H
	DB	0a3H
	DB	08H
	DB	0c3H
	DB	08H
	DB	0a3H
	DB	08H
	DB	0a3H
	DB	08H
	DB	0a3H
	DB	08H
	DB	0a3H
	DB	08H
	DB	0a3H
	DB	08H
	DB	0a3H
	DB	08H
	DB	0a3H
	DB	08H
	DB	0a3H
	DB	08H
	DB	0a3H
	DB	08H
	DB	0a3H
	DB	08H
	DB	0a3H
	DB	08H
	DB	0a3H
	DB	08H
	DB	055H
	DB	014H
	DB	055H
	DB	014H
	DB	0fH
	DB	013H
	DB	0a9H
	DB	011H
	DB	0a8H
	DB	011H
	DB	0a8H
	DB	011H
	DB	0a8H
	DB	011H
	DB	088H
	DB	011H
	DB	088H
	DB	011H
	DB	088H
	DB	011H
	DB	088H
	DB	011H
	DB	088H
	DB	011H
	DB	088H
	DB	011H
	DB	088H
	DB	011H
	DB	087H
	DB	011H
	DB	067H
	DB	011H
	DB	067H
	DB	011H
	DB	067H
	DB	011H
	DB	067H
	DB	011H
	DB	067H
	DB	011H
	DB	067H
	DB	011H
	DB	047H
	DB	011H
	DB	047H
	DB	09H
	DB	046H
	DB	011H
	DB	046H
	DB	09H
	DB	046H
	DB	09H
	DB	046H
	DB	09H
	DB	046H
	DB	09H
	DB	026H
	DB	09H
	DB	026H
	DB	09H
	DB	026H
	DB	09H
	DB	026H
	DB	09H
	DB	026H
	DB	09H
	DB	026H
	DB	09H
	DB	025H
	DB	09H
	DB	05H
	DB	09H
	DB	05H
	DB	09H
	DB	05H
	DB	09H
	DB	05H
	DB	09H
	DB	05H
	DB	09H
	DB	05H
	DB	09H
	DB	05H
	DB	09H
	DB	0e4H
	DB	08H
	DB	0e4H
	DB	08H
	DB	0e4H
	DB	08H
	DB	0e4H
	DB	08H
	DB	0e4H
	DB	08H
	DB	0c4H
	DB	08H
	DB	0c4H
	DB	08H
	DB	0c4H
	DB	08H
	DB	0c4H
	DB	08H
	DB	0c4H
	DB	08H
	DB	0c3H
	DB	08H
	DB	0c3H
	DB	08H
	DB	0a3H
	DB	08H
	DB	0a3H
	DB	08H
	DB	0a3H
	DB	08H
	DB	0a3H
	DB	08H
	DB	0a3H
	DB	08H
	DB	0a3H
	DB	08H
	DB	0a3H
	DB	08H
	DB	0a3H
	DB	08H
	DB	0a3H
	DB	08H
	DB	0a3H
	DB	08H
	DB	0a3H
	DB	08H
	DB	0a3H
	DB	08H
	DB	0a3H
	DB	08H
	DB	055H
	DB	014H
	DB	055H
	DB	014H
	DB	0fH
	DB	013H
	DB	0a9H
	DB	011H
	DB	0a9H
	DB	011H
	DB	0a8H
	DB	011H
	DB	0a8H
	DB	011H
	DB	088H
	DB	011H
	DB	088H
	DB	011H
	DB	088H
	DB	011H
	DB	088H
	DB	011H
	DB	088H
	DB	011H
	DB	088H
	DB	011H
	DB	088H
	DB	011H
	DB	087H
	DB	011H
	DB	067H
	DB	011H
	DB	067H
	DB	011H
	DB	067H
	DB	011H
	DB	067H
	DB	011H
	DB	067H
	DB	011H
	DB	047H
	DB	011H
	DB	047H
	DB	011H
	DB	047H
	DB	011H
	DB	047H
	DB	011H
	DB	046H
	DB	09H
	DB	046H
	DB	09H
	DB	046H
	DB	011H
	DB	026H
	DB	09H
	DB	026H
	DB	09H
	DB	026H
	DB	09H
	DB	026H
	DB	09H
	DB	026H
	DB	09H
	DB	026H
	DB	09H
	DB	026H
	DB	09H
	DB	05H
	DB	09H
	DB	05H
	DB	09H
	DB	05H
	DB	09H
	DB	05H
	DB	09H
	DB	05H
	DB	09H
	DB	05H
	DB	09H
	DB	0e5H
	DB	08H
	DB	0e5H
	DB	08H
	DB	0e5H
	DB	08H
	DB	0e4H
	DB	08H
	DB	0e4H
	DB	08H
	DB	0e4H
	DB	08H
	DB	0e4H
	DB	08H
	DB	0e4H
	DB	08H
	DB	0c4H
	DB	08H
	DB	0c4H
	DB	08H
	DB	0c4H
	DB	08H
	DB	0c4H
	DB	08H
	DB	0c4H
	DB	08H
	DB	0c3H
	DB	08H
	DB	0a3H
	DB	08H
	DB	0a3H
	DB	08H
	DB	0a3H
	DB	08H
	DB	0a3H
	DB	08H
	DB	0a3H
	DB	08H
	DB	0a3H
	DB	08H
	DB	0a3H
	DB	08H
	DB	0a3H
	DB	08H
	DB	0a3H
	DB	08H
	DB	0a3H
	DB	08H
	DB	0a3H
	DB	08H
	DB	0a3H
	DB	08H
	DB	0a3H
	DB	08H
	DB	055H
	DB	014H
	DB	055H
	DB	014H
	DB	0fH
	DB	013H
	DB	0a9H
	DB	011H
	DB	0a8H
	DB	011H
	DB	0a8H
	DB	011H
	DB	0a8H
	DB	011H
	DB	0a8H
	DB	011H
	DB	088H
	DB	011H
	DB	088H
	DB	011H
	DB	088H
	DB	011H
	DB	088H
	DB	011H
	DB	088H
	DB	011H
	DB	087H
	DB	011H
	DB	087H
	DB	011H
	DB	067H
	DB	011H
	DB	067H
	DB	011H
	DB	067H
	DB	011H
	DB	067H
	DB	011H
	DB	067H
	DB	011H
	DB	047H
	DB	011H
	DB	047H
	DB	011H
	DB	047H
	DB	011H
	DB	046H
	DB	09H
	DB	046H
	DB	09H
	DB	046H
	DB	011H
	DB	046H
	DB	09H
	DB	026H
	DB	09H
	DB	026H
	DB	09H
	DB	026H
	DB	09H
	DB	026H
	DB	09H
	DB	026H
	DB	09H
	DB	026H
	DB	09H
	DB	06H
	DB	09H
	DB	025H
	DB	09H
	DB	05H
	DB	09H
	DB	05H
	DB	09H
	DB	05H
	DB	09H
	DB	05H
	DB	09H
	DB	05H
	DB	09H
	DB	05H
	DB	09H
	DB	0e5H
	DB	08H
	DB	0e5H
	DB	08H
	DB	0e4H
	DB	08H
	DB	0e4H
	DB	08H
	DB	0e4H
	DB	08H
	DB	0e4H
	DB	08H
	DB	0e4H
	DB	08H
	DB	0c4H
	DB	08H
	DB	0c4H
	DB	08H
	DB	0c4H
	DB	08H
	DB	0c4H
	DB	08H
	DB	0c4H
	DB	08H
	DB	0c3H
	DB	08H
	DB	0a3H
	DB	08H
	DB	0a3H
	DB	08H
	DB	0a3H
	DB	08H
	DB	0a3H
	DB	08H
	DB	0a3H
	DB	08H
	DB	0a3H
	DB	08H
	DB	0a3H
	DB	08H
	DB	0a3H
	DB	08H
	DB	0a3H
	DB	08H
	DB	0a3H
	DB	08H
	DB	0a3H
	DB	08H
	DB	0a3H
	DB	08H
	DB	0a3H
	DB	08H
	DB	055H
	DB	014H
	DB	055H
	DB	014H
	DB	0fH
	DB	013H
	DB	0a9H
	DB	011H
	DB	0a8H
	DB	011H
	DB	0a8H
	DB	011H
	DB	0a8H
	DB	011H
	DB	088H
	DB	011H
	DB	088H
	DB	011H
	DB	088H
	DB	011H
	DB	088H
	DB	011H
	DB	088H
	DB	011H
	DB	088H
	DB	011H
	DB	087H
	DB	011H
	DB	088H
	DB	011H
	DB	087H
	DB	011H
	DB	067H
	DB	011H
	DB	067H
	DB	011H
	DB	067H
	DB	011H
	DB	067H
	DB	011H
	DB	067H
	DB	011H
	DB	047H
	DB	011H
	DB	047H
	DB	09H
	DB	047H
	DB	09H
	DB	047H
	DB	09H
	DB	046H
	DB	011H
	DB	046H
	DB	09H
	DB	026H
	DB	09H
	DB	026H
	DB	09H
	DB	026H
	DB	09H
	DB	026H
	DB	09H
	DB	026H
	DB	09H
	DB	026H
	DB	09H
	DB	025H
	DB	09H
	DB	05H
	DB	09H
	DB	05H
	DB	09H
	DB	05H
	DB	09H
	DB	05H
	DB	09H
	DB	05H
	DB	09H
	DB	05H
	DB	09H
	DB	05H
	DB	09H
	DB	05H
	DB	09H
	DB	0e5H
	DB	08H
	DB	0e4H
	DB	08H
	DB	0e4H
	DB	08H
	DB	0e4H
	DB	08H
	DB	0c4H
	DB	08H
	DB	0c4H
	DB	08H
	DB	0c4H
	DB	08H
	DB	0c4H
	DB	08H
	DB	0c4H
	DB	08H
	DB	0c4H
	DB	08H
	DB	0c3H
	DB	08H
	DB	0c3H
	DB	08H
	DB	0a3H
	DB	08H
	DB	0a3H
	DB	08H
	DB	0a3H
	DB	08H
	DB	0a3H
	DB	08H
	DB	0a3H
	DB	08H
	DB	0a3H
	DB	08H
	DB	0a3H
	DB	08H
	DB	0a3H
	DB	08H
	DB	0a3H
	DB	08H
	DB	0a3H
	DB	08H
	DB	0a3H
	DB	08H
	DB	0a3H
	DB	08H
	DB	0a3H
	DB	08H
	DB	055H
	DB	014H
	DB	055H
	DB	014H
	DB	0fH
	DB	013H
	DB	0a9H
	DB	011H
	DB	0a9H
	DB	011H
	DB	0a8H
	DB	011H
	DB	0a8H
	DB	011H
	DB	0a8H
	DB	011H
	DB	088H
	DB	011H
	DB	088H
	DB	011H
	DB	088H
	DB	011H
	DB	088H
	DB	011H
	DB	088H
	DB	011H
	DB	087H
	DB	011H
	DB	067H
	DB	011H
	DB	067H
	DB	011H
	DB	067H
	DB	011H
	DB	067H
	DB	011H
	DB	067H
	DB	011H
	DB	067H
	DB	011H
	DB	067H
	DB	011H
	DB	047H
	DB	011H
	DB	047H
	DB	011H
	DB	047H
	DB	011H
	DB	046H
	DB	09H
	DB	046H
	DB	011H
	DB	046H
	DB	09H
	DB	046H
	DB	09H
	DB	026H
	DB	09H
	DB	026H
	DB	09H
	DB	026H
	DB	09H
	DB	026H
	DB	09H
	DB	026H
	DB	09H
	DB	025H
	DB	09H
	DB	05H
	DB	09H
	DB	05H
	DB	09H
	DB	05H
	DB	09H
	DB	05H
	DB	09H
	DB	05H
	DB	09H
	DB	05H
	DB	09H
	DB	05H
	DB	09H
	DB	0e5H
	DB	08H
	DB	0e5H
	DB	08H
	DB	0e5H
	DB	08H
	DB	0e4H
	DB	08H
	DB	0e4H
	DB	08H
	DB	0e4H
	DB	08H
	DB	0c4H
	DB	08H
	DB	0c4H
	DB	08H
	DB	0c4H
	DB	08H
	DB	0c4H
	DB	08H
	DB	0c4H
	DB	08H
	DB	0c4H
	DB	08H
	DB	0c3H
	DB	08H
	DB	0c3H
	DB	08H
	DB	0a3H
	DB	08H
	DB	0a3H
	DB	08H
	DB	0a3H
	DB	08H
	DB	0a3H
	DB	08H
	DB	0a3H
	DB	08H
	DB	0a3H
	DB	08H
	DB	0a3H
	DB	08H
	DB	0a3H
	DB	08H
	DB	0a3H
	DB	08H
	DB	0a3H
	DB	08H
	DB	0a3H
	DB	08H
	DB	0a3H
	DB	08H
	DB	055H
	DB	014H
	DB	055H
	DB	014H
	DB	0fH
	DB	013H
	DB	0a9H
	DB	011H
	DB	0a8H
	DB	011H
	DB	0a8H
	DB	011H
	DB	0a8H
	DB	011H
	DB	0a8H
	DB	011H
	DB	088H
	DB	011H
	DB	088H
	DB	011H
	DB	088H
	DB	011H
	DB	088H
	DB	011H
	DB	088H
	DB	011H
	DB	088H
	DB	011H
	DB	087H
	DB	011H
	DB	067H
	DB	011H
	DB	067H
	DB	011H
	DB	067H
	DB	011H
	DB	067H
	DB	011H
	DB	067H
	DB	011H
	DB	067H
	DB	011H
	DB	047H
	DB	011H
	DB	047H
	DB	011H
	DB	047H
	DB	09H
	DB	046H
	DB	011H
	DB	046H
	DB	09H
	DB	046H
	DB	09H
	DB	026H
	DB	09H
	DB	046H
	DB	09H
	DB	026H
	DB	09H
	DB	026H
	DB	09H
	DB	026H
	DB	09H
	DB	026H
	DB	09H
	DB	026H
	DB	09H
	DB	025H
	DB	09H
	DB	05H
	DB	09H
	DB	05H
	DB	09H
	DB	05H
	DB	09H
	DB	05H
	DB	09H
	DB	05H
	DB	09H
	DB	05H
	DB	09H
	DB	0e5H
	DB	08H
	DB	0e5H
	DB	08H
	DB	0e5H
	DB	08H
	DB	0e4H
	DB	08H
	DB	0e4H
	DB	08H
	DB	0e4H
	DB	08H
	DB	0e4H
	DB	08H
	DB	0c4H
	DB	08H
	DB	0c4H
	DB	08H
	DB	0c4H
	DB	08H
	DB	0c4H
	DB	08H
	DB	0c4H
	DB	08H
	DB	0c3H
	DB	08H
	DB	0c3H
	DB	08H
	DB	0c3H
	DB	08H
	DB	0a3H
	DB	08H
	DB	0a3H
	DB	08H
	DB	0a3H
	DB	08H
	DB	0a3H
	DB	08H
	DB	0a3H
	DB	08H
	DB	0a3H
	DB	08H
	DB	0a3H
	DB	08H
	DB	0a3H
	DB	08H
	DB	0a3H
	DB	08H
	DB	0a3H
	DB	08H
	DB	0a3H
	DB	08H
	DB	055H
	DB	014H
	DB	055H
	DB	014H
	DB	0fH
	DB	013H
	DB	0a9H
	DB	011H
	DB	0a8H
	DB	011H
	DB	0a8H
	DB	011H
	DB	0a8H
	DB	011H
	DB	0a8H
	DB	011H
	DB	0a8H
	DB	011H
	DB	088H
	DB	011H
	DB	088H
	DB	011H
	DB	088H
	DB	011H
	DB	088H
	DB	011H
	DB	088H
	DB	011H
	DB	088H
	DB	011H
	DB	067H
	DB	011H
	DB	067H
	DB	011H
	DB	067H
	DB	011H
	DB	067H
	DB	011H
	DB	067H
	DB	011H
	DB	047H
	DB	011H
	DB	067H
	DB	09H
	DB	047H
	DB	011H
	DB	047H
	DB	011H
	DB	046H
	DB	011H
	DB	046H
	DB	09H
	DB	046H
	DB	09H
	DB	046H
	DB	09H
	DB	026H
	DB	09H
	DB	026H
	DB	09H
	DB	026H
	DB	09H
	DB	026H
	DB	09H
	DB	026H
	DB	09H
	DB	025H
	DB	09H
	DB	05H
	DB	09H
	DB	025H
	DB	09H
	DB	05H
	DB	09H
	DB	05H
	DB	09H
	DB	05H
	DB	09H
	DB	05H
	DB	09H
	DB	05H
	DB	09H
	DB	05H
	DB	09H
	DB	0e5H
	DB	08H
	DB	0e4H
	DB	08H
	DB	0e4H
	DB	08H
	DB	0e4H
	DB	08H
	DB	0e4H
	DB	08H
	DB	0c4H
	DB	08H
	DB	0c4H
	DB	08H
	DB	0c4H
	DB	08H
	DB	0c4H
	DB	08H
	DB	0c4H
	DB	08H
	DB	0c4H
	DB	08H
	DB	0c3H
	DB	08H
	DB	0a3H
	DB	08H
	DB	0a3H
	DB	08H
	DB	0a3H
	DB	08H
	DB	0a3H
	DB	08H
	DB	0a3H
	DB	08H
	DB	0a3H
	DB	08H
	DB	0a3H
	DB	08H
	DB	0a3H
	DB	08H
	DB	0a3H
	DB	08H
	DB	0a3H
	DB	08H
	DB	0a3H
	DB	08H
	DB	0a3H
	DB	08H
	DB	0a3H
	DB	08H
	DB	055H
	DB	014H
	DB	055H
	DB	014H
	DB	0fH
	DB	013H
	DB	0a9H
	DB	011H
	DB	0a8H
	DB	011H
	DB	0a8H
	DB	011H
	DB	0a8H
	DB	011H
	DB	0a8H
	DB	011H
	DB	0a8H
	DB	011H
	DB	088H
	DB	011H
	DB	088H
	DB	011H
	DB	088H
	DB	011H
	DB	088H
	DB	011H
	DB	087H
	DB	011H
	DB	067H
	DB	011H
	DB	067H
	DB	011H
	DB	067H
	DB	011H
	DB	067H
	DB	011H
	DB	067H
	DB	011H
	DB	067H
	DB	011H
	DB	047H
	DB	011H
	DB	067H
	DB	011H
	DB	047H
	DB	011H
	DB	047H
	DB	011H
	DB	046H
	DB	011H
	DB	046H
	DB	09H
	DB	046H
	DB	09H
	DB	046H
	DB	09H
	DB	046H
	DB	09H
	DB	026H
	DB	09H
	DB	026H
	DB	09H
	DB	026H
	DB	09H
	DB	026H
	DB	09H
	DB	026H
	DB	09H
	DB	025H
	DB	09H
	DB	025H
	DB	09H
	DB	05H
	DB	09H
	DB	05H
	DB	09H
	DB	05H
	DB	09H
	DB	05H
	DB	09H
	DB	05H
	DB	09H
	DB	0e5H
	DB	08H
	DB	0e5H
	DB	08H
	DB	0e4H
	DB	08H
	DB	0e4H
	DB	08H
	DB	0e4H
	DB	08H
	DB	0e4H
	DB	08H
	DB	0e4H
	DB	08H
	DB	0c4H
	DB	08H
	DB	0c4H
	DB	08H
	DB	0c4H
	DB	08H
	DB	0c4H
	DB	08H
	DB	0c4H
	DB	08H
	DB	0c3H
	DB	08H
	DB	0a3H
	DB	08H
	DB	0a3H
	DB	08H
	DB	0a3H
	DB	08H
	DB	0a3H
	DB	08H
	DB	0a3H
	DB	08H
	DB	0a3H
	DB	08H
	DB	0a3H
	DB	08H
	DB	0a3H
	DB	08H
	DB	0a3H
	DB	08H
	DB	0a3H
	DB	08H
	DB	0a3H
	DB	08H
	DB	0a3H
	DB	08H
	DB	0a3H
	DB	08H
	DB	055H
	DB	014H
	DB	055H
	DB	014H
	DB	0fH
	DB	013H
	DB	0a9H
	DB	011H
	DB	0a8H
	DB	011H
	DB	0a8H
	DB	011H
	DB	0a8H
	DB	011H
	DB	0a8H
	DB	011H
	DB	0a8H
	DB	011H
	DB	088H
	DB	011H
	DB	088H
	DB	011H
	DB	088H
	DB	011H
	DB	088H
	DB	011H
	DB	088H
	DB	011H
	DB	088H
	DB	011H
	DB	067H
	DB	011H
	DB	067H
	DB	011H
	DB	067H
	DB	011H
	DB	067H
	DB	011H
	DB	067H
	DB	011H
	DB	067H
	DB	011H
	DB	047H
	DB	011H
	DB	047H
	DB	09H
	DB	047H
	DB	09H
	DB	046H
	DB	011H
	DB	046H
	DB	011H
	DB	046H
	DB	09H
	DB	046H
	DB	09H
	DB	026H
	DB	09H
	DB	026H
	DB	09H
	DB	026H
	DB	09H
	DB	026H
	DB	09H
	DB	026H
	DB	09H
	DB	025H
	DB	09H
	DB	025H
	DB	09H
	DB	05H
	DB	09H
	DB	05H
	DB	09H
	DB	05H
	DB	09H
	DB	05H
	DB	09H
	DB	05H
	DB	09H
	DB	05H
	DB	09H
	DB	0e5H
	DB	08H
	DB	0e5H
	DB	08H
	DB	0e4H
	DB	08H
	DB	0e4H
	DB	08H
	DB	0e4H
	DB	08H
	DB	0e4H
	DB	08H
	DB	0e4H
	DB	08H
	DB	0e4H
	DB	08H
	DB	0c4H
	DB	08H
	DB	0c4H
	DB	08H
	DB	0c4H
	DB	08H
	DB	0c4H
	DB	08H
	DB	0c4H
	DB	08H
	DB	0c3H
	DB	08H
	DB	0a3H
	DB	08H
	DB	0a3H
	DB	08H
	DB	0a3H
	DB	08H
	DB	0a3H
	DB	00H
	DB	0a3H
	DB	08H
	DB	0a3H
	DB	08H
	DB	0a3H
	DB	08H
	DB	0a3H
	DB	08H
	DB	0a3H
	DB	08H
	DB	0a3H
	DB	08H
	DB	0a3H
	DB	08H
	DB	0a3H
	DB	08H
	DB	055H
	DB	014H
	DB	055H
	DB	014H
	DB	0fH
	DB	013H
	DB	0a9H
	DB	011H
	DB	0a8H
	DB	011H
	DB	0a8H
	DB	011H
	DB	0a8H
	DB	011H
	DB	0a8H
	DB	011H
	DB	088H
	DB	011H
	DB	088H
	DB	011H
	DB	088H
	DB	011H
	DB	088H
	DB	011H
	DB	088H
	DB	011H
	DB	088H
	DB	011H
	DB	087H
	DB	011H
	DB	067H
	DB	011H
	DB	067H
	DB	011H
	DB	067H
	DB	011H
	DB	067H
	DB	011H
	DB	067H
	DB	011H
	DB	047H
	DB	011H
	DB	067H
	DB	09H
	DB	047H
	DB	011H
	DB	047H
	DB	09H
	DB	046H
	DB	011H
	DB	046H
	DB	09H
	DB	046H
	DB	09H
	DB	046H
	DB	09H
	DB	026H
	DB	09H
	DB	026H
	DB	09H
	DB	026H
	DB	09H
	DB	026H
	DB	09H
	DB	026H
	DB	09H
	DB	026H
	DB	09H
	DB	025H
	DB	09H
	DB	05H
	DB	09H
	DB	05H
	DB	09H
	DB	05H
	DB	09H
	DB	05H
	DB	09H
	DB	05H
	DB	09H
	DB	05H
	DB	09H
	DB	0e5H
	DB	08H
	DB	05H
	DB	09H
	DB	0e4H
	DB	08H
	DB	0e4H
	DB	08H
	DB	0e4H
	DB	08H
	DB	0e4H
	DB	08H
	DB	0c4H
	DB	08H
	DB	0c4H
	DB	08H
	DB	0c4H
	DB	08H
	DB	0c4H
	DB	08H
	DB	0c4H
	DB	08H
	DB	0c3H
	DB	08H
	DB	0a4H
	DB	08H
	DB	0a3H
	DB	08H
	DB	0a3H
	DB	08H
	DB	0a3H
	DB	08H
	DB	0a3H
	DB	08H
	DB	0a3H
	DB	08H
	DB	0a3H
	DB	08H
	DB	0a3H
	DB	08H
	DB	0a3H
	DB	08H
	DB	0a3H
	DB	08H
	DB	0a3H
	DB	08H
	DB	0a3H
	DB	08H
	DB	0a3H
	DB	08H
	DB	0a3H
	DB	08H
	DB	055H
	DB	014H
	DB	055H
	DB	014H
	DB	0fH
	DB	013H
	DB	0a9H
	DB	011H
	DB	0a8H
	DB	011H
	DB	0a8H
	DB	011H
	DB	0a8H
	DB	011H
	DB	088H
	DB	011H
	DB	088H
	DB	011H
	DB	088H
	DB	011H
	DB	088H
	DB	011H
	DB	088H
	DB	011H
	DB	088H
	DB	011H
	DB	088H
	DB	011H
	DB	088H
	DB	011H
	DB	067H
	DB	011H
	DB	067H
	DB	011H
	DB	067H
	DB	011H
	DB	067H
	DB	011H
	DB	067H
	DB	011H
	DB	067H
	DB	011H
	DB	047H
	DB	011H
	DB	047H
	DB	011H
	DB	046H
	DB	09H
	DB	046H
	DB	09H
	DB	046H
	DB	09H
	DB	046H
	DB	09H
	DB	046H
	DB	09H
	DB	026H
	DB	09H
	DB	026H
	DB	09H
	DB	026H
	DB	09H
	DB	026H
	DB	09H
	DB	026H
	DB	09H
	DB	026H
	DB	09H
	DB	025H
	DB	09H
	DB	05H
	DB	09H
	DB	05H
	DB	09H
	DB	05H
	DB	09H
	DB	05H
	DB	09H
	DB	05H
	DB	09H
	DB	05H
	DB	09H
	DB	0e5H
	DB	08H
	DB	0e5H
	DB	08H
	DB	0e5H
	DB	08H
	DB	0e4H
	DB	08H
	DB	0e4H
	DB	08H
	DB	0e4H
	DB	08H
	DB	0c4H
	DB	08H
	DB	0c4H
	DB	08H
	DB	0c4H
	DB	08H
	DB	0c4H
	DB	08H
	DB	0c4H
	DB	08H
	DB	0c4H
	DB	08H
	DB	0c3H
	DB	08H
	DB	0c3H
	DB	08H
	DB	0a3H
	DB	08H
	DB	0a3H
	DB	08H
	DB	0a3H
	DB	08H
	DB	0a3H
	DB	08H
	DB	0a3H
	DB	08H
	DB	0a3H
	DB	08H
	DB	0a3H
	DB	08H
	DB	0a3H
	DB	08H
	DB	0a3H
	DB	08H
	DB	0a3H
	DB	08H
	DB	0a3H
	DB	08H
	DB	0a3H
	DB	08H
	DB	055H
	DB	014H
	DB	055H
	DB	014H
	DB	0fH
	DB	013H
	DB	0a9H
	DB	011H
	DB	0a8H
	DB	011H
	DB	0a9H
	DB	011H
	DB	0a8H
	DB	011H
	DB	0a8H
	DB	011H
	DB	088H
	DB	011H
	DB	088H
	DB	011H
	DB	088H
	DB	011H
	DB	088H
	DB	011H
	DB	088H
	DB	011H
	DB	088H
	DB	011H
	DB	068H
	DB	011H
	DB	067H
	DB	011H
	DB	067H
	DB	011H
	DB	067H
	DB	011H
	DB	067H
	DB	011H
	DB	067H
	DB	011H
	DB	067H
	DB	011H
	DB	067H
	DB	011H
	DB	047H
	DB	011H
	DB	047H
	DB	011H
	DB	046H
	DB	09H
	DB	046H
	DB	09H
	DB	046H
	DB	09H
	DB	046H
	DB	09H
	DB	026H
	DB	09H
	DB	026H
	DB	09H
	DB	026H
	DB	09H
	DB	026H
	DB	09H
	DB	026H
	DB	09H
	DB	06H
	DB	09H
	DB	05H
	DB	09H
	DB	05H
	DB	09H
	DB	05H
	DB	09H
	DB	05H
	DB	09H
	DB	05H
	DB	09H
	DB	05H
	DB	09H
	DB	05H
	DB	09H
	DB	0e5H
	DB	08H
	DB	0e5H
	DB	08H
	DB	0e4H
	DB	08H
	DB	0e4H
	DB	08H
	DB	0e4H
	DB	08H
	DB	0e4H
	DB	08H
	DB	0c4H
	DB	08H
	DB	0c4H
	DB	08H
	DB	0c4H
	DB	08H
	DB	0c4H
	DB	08H
	DB	0c4H
	DB	08H
	DB	0c4H
	DB	08H
	DB	0c3H
	DB	08H
	DB	0c3H
	DB	08H
	DB	0a3H
	DB	08H
	DB	0a3H
	DB	08H
	DB	0a3H
	DB	08H
	DB	0a3H
	DB	08H
	DB	0a3H
	DB	08H
	DB	0a3H
	DB	08H
	DB	0a3H
	DB	08H
	DB	0a3H
	DB	08H
	DB	0a3H
	DB	08H
	DB	0a3H
	DB	08H
	DB	0a3H
	DB	08H
	DB	0a3H
	DB	08H
	DB	055H
	DB	014H
	DB	055H
	DB	014H
	DB	0fH
	DB	013H
	DB	0a9H
	DB	011H
	DB	0a9H
	DB	011H
	DB	0a8H
	DB	011H
	DB	0a8H
	DB	011H
	DB	0a8H
	DB	011H
	DB	0a8H
	DB	011H
	DB	088H
	DB	011H
	DB	088H
	DB	011H
	DB	088H
	DB	011H
	DB	088H
	DB	011H
	DB	088H
	DB	011H
	DB	068H
	DB	011H
	DB	067H
	DB	011H
	DB	067H
	DB	011H
	DB	067H
	DB	011H
	DB	067H
	DB	011H
	DB	067H
	DB	011H
	DB	067H
	DB	011H
	DB	067H
	DB	011H
	DB	047H
	DB	09H
	DB	047H
	DB	011H
	DB	046H
	DB	011H
	DB	046H
	DB	011H
	DB	046H
	DB	09H
	DB	046H
	DB	09H
	DB	026H
	DB	09H
	DB	026H
	DB	09H
	DB	026H
	DB	09H
	DB	026H
	DB	09H
	DB	026H
	DB	09H
	DB	026H
	DB	09H
	DB	026H
	DB	09H
	DB	05H
	DB	09H
	DB	05H
	DB	09H
	DB	05H
	DB	09H
	DB	05H
	DB	09H
	DB	05H
	DB	09H
	DB	05H
	DB	09H
	DB	05H
	DB	09H
	DB	0e5H
	DB	08H
	DB	0e5H
	DB	08H
	DB	0e4H
	DB	08H
	DB	0e4H
	DB	08H
	DB	0e4H
	DB	08H
	DB	0e4H
	DB	08H
	DB	0e4H
	DB	08H
	DB	0c4H
	DB	08H
	DB	0c4H
	DB	08H
	DB	0c4H
	DB	08H
	DB	0c4H
	DB	08H
	DB	0c4H
	DB	08H
	DB	0c3H
	DB	08H
	DB	0a3H
	DB	08H
	DB	0a3H
	DB	08H
	DB	0a3H
	DB	08H
	DB	0a3H
	DB	08H
	DB	0a3H
	DB	08H
	DB	0a3H
	DB	08H
	DB	0a3H
	DB	08H
	DB	0a3H
	DB	08H
	DB	0a3H
	DB	08H
	DB	0a3H
	DB	08H
	DB	0a3H
	DB	08H
	DB	0a3H
	DB	08H
	DB	055H
	DB	014H
	DB	055H
	DB	014H
	DB	0fH
	DB	013H
	DB	0a9H
	DB	011H
	DB	0a8H
	DB	011H
	DB	0a9H
	DB	011H
	DB	0a8H
	DB	011H
	DB	0a8H
	DB	011H
	DB	088H
	DB	011H
	DB	088H
	DB	011H
	DB	088H
	DB	011H
	DB	088H
	DB	011H
	DB	088H
	DB	011H
	DB	088H
	DB	011H
	DB	088H
	DB	011H
	DB	067H
	DB	011H
	DB	067H
	DB	011H
	DB	067H
	DB	011H
	DB	067H
	DB	011H
	DB	067H
	DB	011H
	DB	067H
	DB	011H
	DB	047H
	DB	011H
	DB	047H
	DB	011H
	DB	047H
	DB	011H
	DB	046H
	DB	09H
	DB	046H
	DB	011H
	DB	046H
	DB	09H
	DB	046H
	DB	09H
	DB	026H
	DB	09H
	DB	026H
	DB	09H
	DB	026H
	DB	09H
	DB	026H
	DB	09H
	DB	026H
	DB	09H
	DB	026H
	DB	09H
	DB	05H
	DB	09H
	DB	05H
	DB	09H
	DB	05H
	DB	09H
	DB	05H
	DB	09H
	DB	05H
	DB	09H
	DB	05H
	DB	09H
	DB	0e5H
	DB	08H
	DB	0e5H
	DB	08H
	DB	0e5H
	DB	08H
	DB	0e4H
	DB	08H
	DB	0e4H
	DB	08H
	DB	0e4H
	DB	08H
	DB	0e4H
	DB	08H
	DB	0e4H
	DB	08H
	DB	0c4H
	DB	08H
	DB	0c4H
	DB	08H
	DB	0c4H
	DB	08H
	DB	0c4H
	DB	08H
	DB	0c4H
	DB	08H
	DB	0c4H
	DB	08H
	DB	0c3H
	DB	08H
	DB	0a3H
	DB	08H
	DB	0a3H
	DB	08H
	DB	0a3H
	DB	08H
	DB	0a3H
	DB	08H
	DB	0a3H
	DB	08H
	DB	0a3H
	DB	08H
	DB	0a3H
	DB	08H
	DB	0a3H
	DB	08H
	DB	0a3H
	DB	08H
	DB	0a3H
	DB	08H
	DB	0a3H
	DB	08H
	DB	0a3H
	DB	08H
	DB	055H
	DB	014H
	DB	055H
	DB	014H
	DB	0fH
	DB	013H
	DB	0a9H
	DB	011H
	DB	0a9H
	DB	011H
	DB	0a8H
	DB	011H
	DB	0a8H
	DB	011H
	DB	0a8H
	DB	011H
	DB	088H
	DB	011H
	DB	088H
	DB	011H
	DB	088H
	DB	011H
	DB	088H
	DB	011H
	DB	088H
	DB	011H
	DB	088H
	DB	011H
	DB	087H
	DB	011H
	DB	067H
	DB	011H
	DB	067H
	DB	011H
	DB	067H
	DB	011H
	DB	067H
	DB	011H
	DB	067H
	DB	011H
	DB	067H
	DB	011H
	DB	047H
	DB	011H
	DB	047H
	DB	011H
	DB	047H
	DB	011H
	DB	047H
	DB	011H
	DB	046H
	DB	09H
	DB	046H
	DB	09H
	DB	046H
	DB	09H
	DB	046H
	DB	09H
	DB	026H
	DB	09H
	DB	026H
	DB	09H
	DB	026H
	DB	09H
	DB	026H
	DB	09H
	DB	026H
	DB	09H
	DB	025H
	DB	09H
	DB	05H
	DB	09H
	DB	05H
	DB	09H
	DB	05H
	DB	09H
	DB	05H
	DB	09H
	DB	05H
	DB	09H
	DB	05H
	DB	09H
	DB	05H
	DB	09H
	DB	05H
	DB	09H
	DB	0e4H
	DB	08H
	DB	0e4H
	DB	08H
	DB	0e4H
	DB	08H
	DB	0e4H
	DB	08H
	DB	0c4H
	DB	08H
	DB	0c4H
	DB	08H
	DB	0c4H
	DB	08H
	DB	0c4H
	DB	08H
	DB	0c4H
	DB	08H
	DB	0c4H
	DB	08H
	DB	0c3H
	DB	08H
	DB	0c3H
	DB	08H
	DB	0a3H
	DB	08H
	DB	0a3H
	DB	08H
	DB	0a3H
	DB	08H
	DB	0a3H
	DB	08H
	DB	0a3H
	DB	08H
	DB	0a3H
	DB	08H
	DB	0a3H
	DB	08H
	DB	0a3H
	DB	08H
	DB	0a3H
	DB	08H
	DB	0a3H
	DB	08H
	DB	0a3H
	DB	08H
	DB	0a3H
	DB	08H
	DB	055H
	DB	014H
	DB	055H
	DB	014H
	DB	0fH
	DB	013H
	DB	0a9H
	DB	011H
	DB	0a9H
	DB	011H
	DB	0a8H
	DB	011H
	DB	0a8H
	DB	011H
	DB	088H
	DB	011H
	DB	088H
	DB	011H
	DB	088H
	DB	011H
	DB	088H
	DB	011H
	DB	088H
	DB	011H
	DB	088H
	DB	011H
	DB	088H
	DB	011H
	DB	088H
	DB	011H
	DB	087H
	DB	011H
	DB	067H
	DB	011H
	DB	067H
	DB	011H
	DB	067H
	DB	011H
	DB	067H
	DB	011H
	DB	067H
	DB	09H
	DB	067H
	DB	011H
	DB	067H
	DB	011H
	DB	047H
	DB	09H
	DB	046H
	DB	09H
	DB	046H
	DB	09H
	DB	046H
	DB	011H
	DB	046H
	DB	09H
	DB	046H
	DB	09H
	DB	026H
	DB	09H
	DB	026H
	DB	09H
	DB	026H
	DB	09H
	DB	026H
	DB	09H
	DB	026H
	DB	09H
	DB	06H
	DB	09H
	DB	05H
	DB	09H
	DB	05H
	DB	09H
	DB	05H
	DB	09H
	DB	05H
	DB	09H
	DB	05H
	DB	09H
	DB	05H
	DB	09H
	DB	05H
	DB	09H
	DB	0e5H
	DB	08H
	DB	0e4H
	DB	08H
	DB	0e4H
	DB	08H
	DB	0e4H
	DB	08H
	DB	0e4H
	DB	08H
	DB	0e4H
	DB	08H
	DB	0e4H
	DB	08H
	DB	0c4H
	DB	08H
	DB	0c4H
	DB	08H
	DB	0c4H
	DB	08H
	DB	0c4H
	DB	08H
	DB	0c3H
	DB	08H
	DB	0c3H
	DB	08H
	DB	0a3H
	DB	08H
	DB	0a3H
	DB	08H
	DB	0a3H
	DB	08H
	DB	0a3H
	DB	08H
	DB	0a3H
	DB	08H
	DB	0a3H
	DB	08H
	DB	0a3H
	DB	08H
	DB	0a3H
	DB	08H
	DB	0a3H
	DB	08H
	DB	0a3H
	DB	08H
	DB	0a3H
	DB	08H
	DB	0a3H
	DB	08H
	DB	055H
	DB	014H
	DB	055H
	DB	014H
	DB	0fH
	DB	013H
	DB	0a9H
	DB	011H
	DB	0a8H
	DB	011H
	DB	0a8H
	DB	011H
	DB	0a8H
	DB	011H
	DB	0a8H
	DB	011H
	DB	0a8H
	DB	011H
	DB	088H
	DB	011H
	DB	088H
	DB	011H
	DB	088H
	DB	011H
	DB	088H
	DB	011H
	DB	088H
	DB	011H
	DB	088H
	DB	011H
	DB	067H
	DB	011H
	DB	067H
	DB	011H
	DB	067H
	DB	011H
	DB	067H
	DB	011H
	DB	067H
	DB	011H
	DB	067H
	DB	011H
	DB	047H
	DB	011H
	DB	047H
	DB	09H
	DB	047H
	DB	09H
	DB	046H
	DB	011H
	DB	046H
	DB	09H
	DB	046H
	DB	09H
	DB	046H
	DB	09H
	DB	026H
	DB	09H
	DB	026H
	DB	09H
	DB	026H
	DB	09H
	DB	026H
	DB	09H
	DB	026H
	DB	09H
	DB	026H
	DB	09H
	DB	026H
	DB	09H
	DB	05H
	DB	09H
	DB	05H
	DB	09H
	DB	05H
	DB	09H
	DB	05H
	DB	09H
	DB	05H
	DB	09H
	DB	05H
	DB	09H
	DB	0e5H
	DB	08H
	DB	0e5H
	DB	08H
	DB	0e5H
	DB	08H
	DB	0e5H
	DB	08H
	DB	0e4H
	DB	08H
	DB	0e4H
	DB	08H
	DB	0c4H
	DB	08H
	DB	0c4H
	DB	08H
	DB	0c4H
	DB	08H
	DB	0c4H
	DB	08H
	DB	0c4H
	DB	08H
	DB	0c4H
	DB	08H
	DB	0c4H
	DB	08H
	DB	0a3H
	DB	08H
	DB	0c3H
	DB	08H
	DB	0a3H
	DB	08H
	DB	0a3H
	DB	08H
	DB	0a3H
	DB	08H
	DB	0a3H
	DB	08H
	DB	0a3H
	DB	08H
	DB	0a3H
	DB	08H
	DB	0a3H
	DB	08H
	DB	0a3H
	DB	08H
	DB	0a3H
	DB	08H
	DB	0a3H
	DB	08H
	DB	0a3H
	DB	08H
	DB	055H
	DB	014H
	DB	055H
	DB	014H
	DB	0fH
	DB	013H
	DB	0a9H
	DB	011H
	DB	0a9H
	DB	011H
	DB	0a8H
	DB	011H
	DB	0a8H
	DB	011H
	DB	0a8H
	DB	011H
	DB	088H
	DB	011H
	DB	088H
	DB	011H
	DB	088H
	DB	011H
	DB	088H
	DB	011H
	DB	088H
	DB	011H
	DB	088H
	DB	011H
	DB	087H
	DB	011H
	DB	067H
	DB	011H
	DB	067H
	DB	011H
	DB	067H
	DB	011H
	DB	067H
	DB	011H
	DB	067H
	DB	011H
	DB	067H
	DB	011H
	DB	067H
	DB	011H
	DB	047H
	DB	011H
	DB	047H
	DB	011H
	DB	046H
	DB	011H
	DB	046H
	DB	011H
	DB	046H
	DB	09H
	DB	026H
	DB	09H
	DB	046H
	DB	09H
	DB	026H
	DB	09H
	DB	026H
	DB	09H
	DB	026H
	DB	09H
	DB	026H
	DB	09H
	DB	026H
	DB	09H
	DB	06H
	DB	09H
	DB	05H
	DB	09H
	DB	05H
	DB	09H
	DB	05H
	DB	09H
	DB	05H
	DB	09H
	DB	05H
	DB	09H
	DB	05H
	DB	09H
	DB	05H
	DB	09H
	DB	0e5H
	DB	08H
	DB	0e5H
	DB	08H
	DB	0e4H
	DB	08H
	DB	0e4H
	DB	08H
	DB	0e4H
	DB	08H
	DB	0e4H
	DB	08H
	DB	0e4H
	DB	08H
	DB	0c4H
	DB	08H
	DB	0c4H
	DB	08H
	DB	0c4H
	DB	08H
	DB	0c4H
	DB	08H
	DB	0c4H
	DB	08H
	DB	0c3H
	DB	08H
	DB	0a3H
	DB	08H
	DB	0a3H
	DB	08H
	DB	0a3H
	DB	08H
	DB	0a3H
	DB	00H
	DB	0a3H
	DB	08H
	DB	0a3H
	DB	08H
	DB	0a3H
	DB	08H
	DB	0a3H
	DB	08H
	DB	0a3H
	DB	08H
	DB	0a3H
	DB	08H
	DB	0a3H
	DB	08H
	DB	0a3H
	DB	08H
	DB	055H
	DB	014H
	DB	055H
	DB	014H
	DB	0fH
	DB	013H
	DB	0a9H
	DB	011H
	DB	0a9H
	DB	011H
	DB	0a9H
	DB	011H
	DB	0a8H
	DB	011H
	DB	0a8H
	DB	011H
	DB	0a8H
	DB	011H
	DB	088H
	DB	011H
	DB	088H
	DB	011H
	DB	088H
	DB	011H
	DB	088H
	DB	011H
	DB	088H
	DB	011H
	DB	087H
	DB	011H
	DB	067H
	DB	011H
	DB	067H
	DB	011H
	DB	067H
	DB	011H
	DB	067H
	DB	011H
	DB	067H
	DB	011H
	DB	067H
	DB	011H
	DB	047H
	DB	011H
	DB	047H
	DB	011H
	DB	046H
	DB	09H
	DB	047H
	DB	011H
	DB	046H
	DB	09H
	DB	046H
	DB	09H
	DB	046H
	DB	09H
	DB	026H
	DB	09H
	DB	026H
	DB	09H
	DB	026H
	DB	09H
	DB	026H
	DB	09H
	DB	026H
	DB	09H
	DB	026H
	DB	09H
	DB	025H
	DB	09H
	DB	025H
	DB	09H
	DB	05H
	DB	09H
	DB	05H
	DB	09H
	DB	05H
	DB	09H
	DB	05H
	DB	09H
	DB	05H
	DB	09H
	DB	0e5H
	DB	08H
	DB	0e5H
	DB	08H
	DB	0e5H
	DB	08H
	DB	0e4H
	DB	08H
	DB	0e4H
	DB	08H
	DB	0e4H
	DB	08H
	DB	0e4H
	DB	08H
	DB	0e4H
	DB	08H
	DB	0c4H
	DB	08H
	DB	0c4H
	DB	08H
	DB	0c4H
	DB	08H
	DB	0c4H
	DB	08H
	DB	0c4H
	DB	08H
	DB	0a3H
	DB	08H
	DB	0c3H
	DB	08H
	DB	0a3H
	DB	08H
	DB	0a3H
	DB	08H
	DB	0a3H
	DB	08H
	DB	0a3H
	DB	08H
	DB	0a3H
	DB	08H
	DB	0a3H
	DB	08H
	DB	0a3H
	DB	08H
	DB	0a3H
	DB	08H
	DB	0a3H
	DB	08H
	DB	0a3H
	DB	08H
	DB	0a3H
	DB	08H
	DB	055H
	DB	014H
	DB	055H
	DB	014H
	DB	0fH
	DB	013H
	DB	0a9H
	DB	011H
	DB	0a9H
	DB	011H
	DB	0a8H
	DB	011H
	DB	0a8H
	DB	011H
	DB	0a8H
	DB	011H
	DB	0a8H
	DB	011H
	DB	088H
	DB	011H
	DB	088H
	DB	011H
	DB	088H
	DB	011H
	DB	088H
	DB	011H
	DB	088H
	DB	011H
	DB	087H
	DB	011H
	DB	087H
	DB	011H
	DB	067H
	DB	011H
	DB	067H
	DB	011H
	DB	067H
	DB	011H
	DB	067H
	DB	011H
	DB	067H
	DB	011H
	DB	047H
	DB	011H
	DB	047H
	DB	011H
	DB	047H
	DB	011H
	DB	046H
	DB	011H
	DB	046H
	DB	09H
	DB	046H
	DB	011H
	DB	046H
	DB	09H
	DB	046H
	DB	09H
	DB	026H
	DB	09H
	DB	026H
	DB	09H
	DB	026H
	DB	09H
	DB	026H
	DB	09H
	DB	026H
	DB	09H
	DB	06H
	DB	09H
	DB	05H
	DB	09H
	DB	05H
	DB	09H
	DB	05H
	DB	09H
	DB	05H
	DB	09H
	DB	05H
	DB	09H
	DB	05H
	DB	09H
	DB	0e5H
	DB	08H
	DB	0e5H
	DB	08H
	DB	0e5H
	DB	08H
	DB	0e4H
	DB	08H
	DB	0e4H
	DB	08H
	DB	0e4H
	DB	08H
	DB	0e4H
	DB	08H
	DB	0c4H
	DB	08H
	DB	0c4H
	DB	08H
	DB	0c4H
	DB	08H
	DB	0c4H
	DB	08H
	DB	0c4H
	DB	08H
	DB	0c3H
	DB	08H
	DB	0c3H
	DB	08H
	DB	0a3H
	DB	08H
	DB	0a3H
	DB	08H
	DB	0a3H
	DB	08H
	DB	0a3H
	DB	08H
	DB	0a3H
	DB	08H
	DB	0a3H
	DB	08H
	DB	0a3H
	DB	08H
	DB	0a3H
	DB	08H
	DB	0a3H
	DB	08H
	DB	0a3H
	DB	08H
	DB	0a3H
	DB	08H
	DB	0a3H
	DB	08H
	DB	055H
	DB	014H
	DB	055H
	DB	014H
	DB	0fH
	DB	013H
	DB	0a9H
	DB	011H
	DB	0a9H
	DB	011H
	DB	0a8H
	DB	011H
	DB	0a8H
	DB	011H
	DB	0a8H
	DB	011H
	DB	0a8H
	DB	011H
	DB	088H
	DB	011H
	DB	088H
	DB	011H
	DB	088H
	DB	011H
	DB	088H
	DB	011H
	DB	088H
	DB	011H
	DB	068H
	DB	011H
	DB	067H
	DB	011H
	DB	067H
	DB	011H
	DB	067H
	DB	011H
	DB	067H
	DB	011H
	DB	067H
	DB	011H
	DB	067H
	DB	011H
	DB	067H
	DB	011H
	DB	047H
	DB	011H
	DB	047H
	DB	011H
	DB	046H
	DB	011H
	DB	046H
	DB	011H
	DB	046H
	DB	09H
	DB	046H
	DB	011H
	DB	026H
	DB	09H
	DB	026H
	DB	09H
	DB	026H
	DB	09H
	DB	026H
	DB	09H
	DB	026H
	DB	09H
	DB	026H
	DB	09H
	DB	025H
	DB	09H
	DB	025H
	DB	09H
	DB	05H
	DB	09H
	DB	05H
	DB	09H
	DB	05H
	DB	09H
	DB	05H
	DB	09H
	DB	05H
	DB	09H
	DB	05H
	DB	09H
	DB	0e5H
	DB	08H
	DB	0e4H
	DB	08H
	DB	0e4H
	DB	08H
	DB	0e4H
	DB	08H
	DB	0e4H
	DB	08H
	DB	0e4H
	DB	08H
	DB	0e4H
	DB	08H
	DB	0c4H
	DB	08H
	DB	0c4H
	DB	08H
	DB	0c4H
	DB	08H
	DB	0c4H
	DB	08H
	DB	0c3H
	DB	08H
	DB	0c3H
	DB	08H
	DB	0a3H
	DB	08H
	DB	0a3H
	DB	08H
	DB	0a3H
	DB	08H
	DB	0a3H
	DB	08H
	DB	0a3H
	DB	08H
	DB	0a3H
	DB	08H
	DB	0a3H
	DB	08H
	DB	0a3H
	DB	08H
	DB	0a3H
	DB	08H
	DB	0a3H
	DB	08H
	DB	0a3H
	DB	08H
	DB	0a3H
	DB	08H
	DB	055H
	DB	014H
	DB	055H
	DB	014H
	DB	0fH
	DB	013H
	DB	0a9H
	DB	011H
	DB	0a9H
	DB	011H
	DB	0a9H
	DB	011H
	DB	0a8H
	DB	011H
	DB	0a8H
	DB	011H
	DB	088H
	DB	011H
	DB	088H
	DB	011H
	DB	088H
	DB	011H
	DB	088H
	DB	011H
	DB	088H
	DB	011H
	DB	088H
	DB	011H
	DB	068H
	DB	011H
	DB	087H
	DB	011H
	DB	067H
	DB	011H
	DB	067H
	DB	011H
	DB	067H
	DB	011H
	DB	067H
	DB	011H
	DB	067H
	DB	011H
	DB	067H
	DB	011H
	DB	047H
	DB	011H
	DB	047H
	DB	011H
	DB	046H
	DB	09H
	DB	046H
	DB	09H
	DB	046H
	DB	09H
	DB	046H
	DB	011H
	DB	046H
	DB	09H
	DB	026H
	DB	09H
	DB	026H
	DB	09H
	DB	026H
	DB	09H
	DB	026H
	DB	09H
	DB	026H
	DB	09H
	DB	026H
	DB	09H
	DB	05H
	DB	09H
	DB	05H
	DB	09H
	DB	05H
	DB	09H
	DB	05H
	DB	09H
	DB	05H
	DB	09H
	DB	05H
	DB	09H
	DB	0e5H
	DB	08H
	DB	0e5H
	DB	08H
	DB	0e5H
	DB	08H
	DB	0e5H
	DB	08H
	DB	0e4H
	DB	08H
	DB	0e4H
	DB	08H
	DB	0e4H
	DB	08H
	DB	0c4H
	DB	08H
	DB	0c4H
	DB	08H
	DB	0c4H
	DB	08H
	DB	0c4H
	DB	08H
	DB	0c4H
	DB	08H
	DB	0c3H
	DB	08H
	DB	0a3H
	DB	08H
	DB	0a3H
	DB	08H
	DB	0a3H
	DB	08H
	DB	0a3H
	DB	08H
	DB	0a3H
	DB	08H
	DB	0a3H
	DB	08H
	DB	0a3H
	DB	08H
	DB	0a3H
	DB	08H
	DB	0a3H
	DB	08H
	DB	0a3H
	DB	08H
	DB	0a3H
	DB	08H
	DB	0a3H
	DB	08H
	DB	0a3H
	DB	08H
	DB	055H
	DB	014H
	DB	055H
	DB	014H
	DB	0fH
	DB	013H
	DB	0a9H
	DB	011H
	DB	0a9H
	DB	011H
	DB	0a8H
	DB	011H
	DB	0a8H
	DB	011H
	DB	0a8H
	DB	011H
	DB	0a8H
	DB	011H
	DB	088H
	DB	011H
	DB	088H
	DB	011H
	DB	088H
	DB	011H
	DB	088H
	DB	011H
	DB	088H
	DB	011H
	DB	088H
	DB	011H
	DB	067H
	DB	011H
	DB	067H
	DB	011H
	DB	067H
	DB	011H
	DB	067H
	DB	011H
	DB	067H
	DB	011H
	DB	067H
	DB	011H
	DB	067H
	DB	011H
	DB	067H
	DB	09H
	DB	047H
	DB	011H
	DB	047H
	DB	09H
	DB	046H
	DB	09H
	DB	046H
	DB	09H
	DB	046H
	DB	09H
	DB	026H
	DB	09H
	DB	026H
	DB	09H
	DB	026H
	DB	09H
	DB	026H
	DB	09H
	DB	026H
	DB	09H
	DB	026H
	DB	09H
	DB	05H
	DB	09H
	DB	025H
	DB	09H
	DB	05H
	DB	09H
	DB	05H
	DB	09H
	DB	05H
	DB	09H
	DB	05H
	DB	09H
	DB	05H
	DB	09H
	DB	05H
	DB	09H
	DB	0e5H
	DB	08H
	DB	0e5H
	DB	08H
	DB	0e4H
	DB	08H
	DB	0e4H
	DB	08H
	DB	0e4H
	DB	08H
	DB	0e4H
	DB	08H
	DB	0c4H
	DB	08H
	DB	0c4H
	DB	08H
	DB	0c4H
	DB	08H
	DB	0c4H
	DB	08H
	DB	0c4H
	DB	08H
	DB	0c3H
	DB	08H
	DB	0c3H
	DB	08H
	DB	0a3H
	DB	08H
	DB	0a3H
	DB	08H
	DB	0a3H
	DB	08H
	DB	0a3H
	DB	08H
	DB	0a3H
	DB	08H
	DB	0a3H
	DB	08H
	DB	0a3H
	DB	08H
	DB	0a3H
	DB	08H
	DB	0a3H
	DB	08H
	DB	0a3H
	DB	08H
	DB	0a3H
	DB	08H
	DB	0a3H
	DB	08H
	DB	055H
	DB	014H
	DB	055H
	DB	014H
	DB	0fH
	DB	013H
	DB	0a9H
	DB	011H
	DB	0a9H
	DB	011H
	DB	0a8H
	DB	011H
	DB	0a8H
	DB	011H
	DB	0a8H
	DB	011H
	DB	0a8H
	DB	011H
	DB	088H
	DB	011H
	DB	088H
	DB	011H
	DB	088H
	DB	011H
	DB	088H
	DB	011H
	DB	088H
	DB	011H
	DB	088H
	DB	011H
	DB	067H
	DB	011H
	DB	067H
	DB	011H
	DB	067H
	DB	011H
	DB	067H
	DB	011H
	DB	067H
	DB	011H
	DB	067H
	DB	011H
	DB	067H
	DB	09H
	DB	047H
	DB	011H
	DB	047H
	DB	011H
	DB	047H
	DB	011H
	DB	046H
	DB	011H
	DB	046H
	DB	09H
	DB	046H
	DB	09H
	DB	026H
	DB	09H
	DB	026H
	DB	09H
	DB	026H
	DB	09H
	DB	026H
	DB	09H
	DB	026H
	DB	09H
	DB	026H
	DB	09H
	DB	025H
	DB	09H
	DB	05H
	DB	09H
	DB	05H
	DB	09H
	DB	05H
	DB	09H
	DB	05H
	DB	09H
	DB	05H
	DB	09H
	DB	05H
	DB	09H
	DB	0e5H
	DB	08H
	DB	0e5H
	DB	08H
	DB	0e5H
	DB	08H
	DB	0e4H
	DB	08H
	DB	0e4H
	DB	08H
	DB	0e4H
	DB	08H
	DB	0e4H
	DB	08H
	DB	0e4H
	DB	08H
	DB	0c4H
	DB	08H
	DB	0c4H
	DB	08H
	DB	0c4H
	DB	08H
	DB	0c4H
	DB	08H
	DB	0c4H
	DB	08H
	DB	0c3H
	DB	08H
	DB	0c3H
	DB	08H
	DB	0a3H
	DB	08H
	DB	0a3H
	DB	08H
	DB	0a3H
	DB	08H
	DB	0a3H
	DB	08H
	DB	0a3H
	DB	08H
	DB	0a3H
	DB	08H
	DB	0a3H
	DB	08H
	DB	0a3H
	DB	08H
	DB	0a3H
	DB	08H
	DB	0a3H
	DB	08H
	DB	0a3H
	DB	08H
	DB	055H
	DB	014H
	DB	055H
	DB	014H
	DB	0fH
	DB	013H
	DB	0a9H
	DB	011H
	DB	0a9H
	DB	011H
	DB	0a8H
	DB	011H
	DB	0a8H
	DB	011H
	DB	0a8H
	DB	011H
	DB	0a8H
	DB	011H
	DB	088H
	DB	011H
	DB	088H
	DB	011H
	DB	088H
	DB	011H
	DB	088H
	DB	011H
	DB	088H
	DB	011H
	DB	088H
	DB	011H
	DB	068H
	DB	011H
	DB	067H
	DB	011H
	DB	067H
	DB	011H
	DB	067H
	DB	011H
	DB	067H
	DB	011H
	DB	067H
	DB	011H
	DB	047H
	DB	011H
	DB	047H
	DB	011H
	DB	047H
	DB	011H
	DB	046H
	DB	011H
	DB	046H
	DB	011H
	DB	046H
	DB	011H
	DB	046H
	DB	09H
	DB	026H
	DB	09H
	DB	026H
	DB	09H
	DB	026H
	DB	09H
	DB	026H
	DB	09H
	DB	026H
	DB	09H
	DB	026H
	DB	09H
	DB	06H
	DB	09H
	DB	05H
	DB	09H
	DB	05H
	DB	09H
	DB	05H
	DB	09H
	DB	05H
	DB	09H
	DB	05H
	DB	09H
	DB	05H
	DB	09H
	DB	0e5H
	DB	08H
	DB	0e5H
	DB	08H
	DB	0e5H
	DB	08H
	DB	0e4H
	DB	08H
	DB	0e4H
	DB	08H
	DB	0e4H
	DB	08H
	DB	0e4H
	DB	08H
	DB	0e4H
	DB	08H
	DB	0e4H
	DB	08H
	DB	0c4H
	DB	08H
	DB	0c4H
	DB	08H
	DB	0c4H
	DB	08H
	DB	0c4H
	DB	08H
	DB	0c3H
	DB	08H
	DB	0c3H
	DB	08H
	DB	0a3H
	DB	08H
	DB	0a3H
	DB	08H
	DB	0a3H
	DB	08H
	DB	0a3H
	DB	08H
	DB	0a3H
	DB	08H
	DB	0a3H
	DB	08H
	DB	0a3H
	DB	08H
	DB	0a3H
	DB	08H
	DB	0a3H
	DB	08H
	DB	0a3H
	DB	08H
	DB	0a3H
	DB	08H
	DB	055H
	DB	014H
	DB	055H
	DB	014H
	DB	0fH
	DB	013H
	DB	0c9H
	DB	011H
	DB	0a9H
	DB	011H
	DB	0a9H
	DB	011H
	DB	0a8H
	DB	011H
	DB	0a8H
	DB	011H
	DB	0a8H
	DB	011H
	DB	088H
	DB	011H
	DB	088H
	DB	011H
	DB	088H
	DB	011H
	DB	088H
	DB	011H
	DB	088H
	DB	011H
	DB	087H
	DB	011H
	DB	067H
	DB	011H
	DB	087H
	DB	011H
	DB	067H
	DB	011H
	DB	067H
	DB	011H
	DB	067H
	DB	011H
	DB	067H
	DB	011H
	DB	067H
	DB	011H
	DB	047H
	DB	011H
	DB	047H
	DB	011H
	DB	047H
	DB	09H
	DB	046H
	DB	09H
	DB	046H
	DB	09H
	DB	046H
	DB	09H
	DB	046H
	DB	09H
	DB	026H
	DB	09H
	DB	026H
	DB	09H
	DB	026H
	DB	09H
	DB	026H
	DB	09H
	DB	026H
	DB	09H
	DB	025H
	DB	09H
	DB	025H
	DB	09H
	DB	05H
	DB	09H
	DB	05H
	DB	09H
	DB	05H
	DB	09H
	DB	05H
	DB	09H
	DB	05H
	DB	09H
	DB	05H
	DB	09H
	DB	05H
	DB	09H
	DB	0e5H
	DB	08H
	DB	0e5H
	DB	08H
	DB	0e4H
	DB	08H
	DB	0e4H
	DB	08H
	DB	0e4H
	DB	08H
	DB	0c4H
	DB	08H
	DB	0c4H
	DB	08H
	DB	0c4H
	DB	08H
	DB	0c4H
	DB	08H
	DB	0c4H
	DB	08H
	DB	0c3H
	DB	08H
	DB	0c3H
	DB	08H
	DB	0a3H
	DB	08H
	DB	0a3H
	DB	08H
	DB	0a3H
	DB	08H
	DB	0a3H
	DB	08H
	DB	0a3H
	DB	08H
	DB	0a3H
	DB	08H
	DB	0a3H
	DB	08H
	DB	0a3H
	DB	08H
	DB	0a3H
	DB	08H
	DB	0a3H
	DB	08H
	DB	0a3H
	DB	08H
	DB	0a3H
	DB	08H
	DB	055H
	DB	014H
	DB	055H
	DB	014H
	DB	0fH
	DB	013H
	DB	0a9H
	DB	011H
	DB	0a9H
	DB	011H
	DB	0a9H
	DB	011H
	DB	0a8H
	DB	011H
	DB	0a8H
	DB	011H
	DB	088H
	DB	011H
	DB	088H
	DB	011H
	DB	088H
	DB	011H
	DB	088H
	DB	011H
	DB	088H
	DB	011H
	DB	088H
	DB	011H
	DB	088H
	DB	011H
	DB	087H
	DB	011H
	DB	087H
	DB	011H
	DB	067H
	DB	011H
	DB	067H
	DB	011H
	DB	067H
	DB	011H
	DB	067H
	DB	011H
	DB	067H
	DB	011H
	DB	067H
	DB	011H
	DB	047H
	DB	011H
	DB	047H
	DB	09H
	DB	046H
	DB	09H
	DB	046H
	DB	011H
	DB	046H
	DB	09H
	DB	026H
	DB	09H
	DB	026H
	DB	09H
	DB	026H
	DB	09H
	DB	026H
	DB	09H
	DB	026H
	DB	09H
	DB	026H
	DB	09H
	DB	025H
	DB	09H
	DB	05H
	DB	09H
	DB	05H
	DB	09H
	DB	05H
	DB	09H
	DB	05H
	DB	09H
	DB	05H
	DB	09H
	DB	05H
	DB	09H
	DB	05H
	DB	09H
	DB	0e5H
	DB	08H
	DB	0e5H
	DB	08H
	DB	0e4H
	DB	08H
	DB	0e4H
	DB	08H
	DB	0e4H
	DB	08H
	DB	0e4H
	DB	08H
	DB	0e4H
	DB	08H
	DB	0c4H
	DB	08H
	DB	0c4H
	DB	08H
	DB	0c4H
	DB	08H
	DB	0c4H
	DB	08H
	DB	0c4H
	DB	08H
	DB	0c3H
	DB	08H
	DB	0c3H
	DB	08H
	DB	0a3H
	DB	08H
	DB	0a3H
	DB	08H
	DB	0a3H
	DB	08H
	DB	0a3H
	DB	08H
	DB	0a3H
	DB	08H
	DB	0a3H
	DB	08H
	DB	0a3H
	DB	08H
	DB	0a3H
	DB	08H
	DB	0a3H
	DB	08H
	DB	0a3H
	DB	08H
	DB	0a3H
	DB	08H
	DB	055H
	DB	014H
	DB	055H
	DB	014H
	DB	0fH
	DB	013H
	DB	0a9H
	DB	011H
	DB	0a9H
	DB	011H
	DB	0a8H
	DB	011H
	DB	0a8H
	DB	011H
	DB	0a8H
	DB	011H
	DB	0a8H
	DB	011H
	DB	088H
	DB	011H
	DB	088H
	DB	011H
	DB	088H
	DB	011H
	DB	088H
	DB	011H
	DB	088H
	DB	011H
	DB	088H
	DB	011H
	DB	087H
	DB	011H
	DB	067H
	DB	011H
	DB	067H
	DB	011H
	DB	067H
	DB	011H
	DB	067H
	DB	011H
	DB	067H
	DB	011H
	DB	047H
	DB	011H
	DB	067H
	DB	011H
	DB	047H
	DB	011H
	DB	047H
	DB	011H
	DB	046H
	DB	011H
	DB	046H
	DB	09H
	DB	046H
	DB	011H
	DB	046H
	DB	09H
	DB	026H
	DB	09H
	DB	026H
	DB	09H
	DB	026H
	DB	09H
	DB	026H
	DB	09H
	DB	026H
	DB	09H
	DB	026H
	DB	09H
	DB	05H
	DB	09H
	DB	05H
	DB	09H
	DB	05H
	DB	09H
	DB	05H
	DB	09H
	DB	05H
	DB	09H
	DB	05H
	DB	09H
	DB	0e5H
	DB	08H
	DB	0e5H
	DB	08H
	DB	0e5H
	DB	08H
	DB	0e5H
	DB	08H
	DB	0e4H
	DB	08H
	DB	0e4H
	DB	08H
	DB	0e4H
	DB	08H
	DB	0c4H
	DB	08H
	DB	0c4H
	DB	08H
	DB	0c4H
	DB	08H
	DB	0c4H
	DB	08H
	DB	0c4H
	DB	08H
	DB	0c4H
	DB	08H
	DB	0c3H
	DB	08H
	DB	0a3H
	DB	08H
	DB	0a3H
	DB	08H
	DB	0a3H
	DB	08H
	DB	0a3H
	DB	08H
	DB	0a3H
	DB	08H
	DB	0a3H
	DB	08H
	DB	0a3H
	DB	08H
	DB	0a3H
	DB	08H
	DB	0a3H
	DB	08H
	DB	0a3H
	DB	08H
	DB	0a3H
	DB	08H
	DB	0a3H
	DB	08H
	DB	055H
	DB	014H
	DB	055H
	DB	014H
	DB	0fH
	DB	013H
	DB	0a9H
	DB	011H
	DB	0a8H
	DB	011H
	DB	0a9H
	DB	011H
	DB	0a8H
	DB	011H
	DB	0a8H
	DB	011H
	DB	0a8H
	DB	011H
	DB	088H
	DB	011H
	DB	088H
	DB	011H
	DB	088H
	DB	011H
	DB	088H
	DB	011H
	DB	088H
	DB	011H
	DB	068H
	DB	011H
	DB	087H
	DB	011H
	DB	067H
	DB	011H
	DB	067H
	DB	011H
	DB	067H
	DB	011H
	DB	067H
	DB	011H
	DB	067H
	DB	011H
	DB	067H
	DB	011H
	DB	047H
	DB	011H
	DB	047H
	DB	011H
	DB	046H
	DB	011H
	DB	046H
	DB	09H
	DB	046H
	DB	09H
	DB	046H
	DB	09H
	DB	046H
	DB	09H
	DB	026H
	DB	09H
	DB	026H
	DB	09H
	DB	026H
	DB	09H
	DB	026H
	DB	09H
	DB	026H
	DB	09H
	DB	026H
	DB	09H
	DB	025H
	DB	09H
	DB	05H
	DB	09H
	DB	05H
	DB	09H
	DB	05H
	DB	09H
	DB	05H
	DB	09H
	DB	05H
	DB	09H
	DB	0e5H
	DB	08H
	DB	05H
	DB	09H
	DB	0e5H
	DB	08H
	DB	0e4H
	DB	08H
	DB	0e4H
	DB	08H
	DB	0e4H
	DB	08H
	DB	0e4H
	DB	08H
	DB	0c4H
	DB	08H
	DB	0e4H
	DB	08H
	DB	0c4H
	DB	08H
	DB	0c4H
	DB	08H
	DB	0c4H
	DB	08H
	DB	0c4H
	DB	08H
	DB	0c3H
	DB	08H
	DB	0a3H
	DB	08H
	DB	0c3H
	DB	08H
	DB	0a3H
	DB	08H
	DB	0a3H
	DB	08H
	DB	0a3H
	DB	08H
	DB	0a3H
	DB	08H
	DB	0a3H
	DB	08H
	DB	0a3H
	DB	08H
	DB	0a3H
	DB	08H
	DB	0a3H
	DB	08H
	DB	0a3H
	DB	08H
	DB	0a3H
	DB	08H
	DB	055H
	DB	014H
	DB	055H
	DB	014H
	DB	0fH
	DB	013H
	DB	0a9H
	DB	011H
	DB	0a9H
	DB	011H
	DB	0a8H
	DB	011H
	DB	0a8H
	DB	011H
	DB	0a8H
	DB	011H
	DB	0a8H
	DB	011H
	DB	088H
	DB	011H
	DB	088H
	DB	011H
	DB	088H
	DB	011H
	DB	088H
	DB	011H
	DB	088H
	DB	011H
	DB	088H
	DB	011H
	DB	068H
	DB	011H
	DB	067H
	DB	011H
	DB	067H
	DB	011H
	DB	067H
	DB	011H
	DB	067H
	DB	011H
	DB	067H
	DB	011H
	DB	067H
	DB	011H
	DB	047H
	DB	011H
	DB	047H
	DB	011H
	DB	046H
	DB	09H
	DB	047H
	DB	011H
	DB	046H
	DB	09H
	DB	046H
	DB	09H
	DB	046H
	DB	09H
	DB	026H
	DB	09H
	DB	026H
	DB	09H
	DB	026H
	DB	09H
	DB	026H
	DB	09H
	DB	026H
	DB	09H
	DB	025H
	DB	09H
	DB	025H
	DB	09H
	DB	05H
	DB	09H
	DB	05H
	DB	09H
	DB	05H
	DB	09H
	DB	05H
	DB	09H
	DB	05H
	DB	09H
	DB	05H
	DB	09H
	DB	0e5H
	DB	08H
	DB	0e5H
	DB	08H
	DB	0e4H
	DB	08H
	DB	0e4H
	DB	08H
	DB	0e4H
	DB	08H
	DB	0e4H
	DB	08H
	DB	0c4H
	DB	08H
	DB	0c4H
	DB	08H
	DB	0c4H
	DB	08H
	DB	0c4H
	DB	08H
	DB	0c4H
	DB	08H
	DB	0c4H
	DB	08H
	DB	0c3H
	DB	08H
	DB	0a3H
	DB	08H
	DB	0a3H
	DB	08H
	DB	0a3H
	DB	08H
	DB	0a3H
	DB	08H
	DB	0a3H
	DB	08H
	DB	0a3H
	DB	08H
	DB	0a3H
	DB	08H
	DB	0a3H
	DB	08H
	DB	0a3H
	DB	08H
	DB	0a3H
	DB	08H
	DB	0a3H
	DB	08H
	DB	0a3H
	DB	08H
	DB	055H
	DB	014H
	DB	055H
	DB	014H
	DB	0fH
	DB	013H
	DB	0a9H
	DB	011H
	DB	0a9H
	DB	011H
	DB	0a9H
	DB	011H
	DB	0a8H
	DB	011H
	DB	0a8H
	DB	011H
	DB	0a8H
	DB	011H
	DB	0a8H
	DB	011H
	DB	088H
	DB	011H
	DB	088H
	DB	011H
	DB	088H
	DB	011H
	DB	088H
	DB	011H
	DB	088H
	DB	011H
	DB	068H
	DB	011H
	DB	067H
	DB	011H
	DB	067H
	DB	011H
	DB	067H
	DB	011H
	DB	067H
	DB	011H
	DB	067H
	DB	011H
	DB	067H
	DB	011H
	DB	047H
	DB	011H
	DB	047H
	DB	011H
	DB	047H
	DB	09H
	DB	046H
	DB	09H
	DB	046H
	DB	011H
	DB	046H
	DB	09H
	DB	046H
	DB	09H
	DB	026H
	DB	09H
	DB	026H
	DB	09H
	DB	026H
	DB	09H
	DB	026H
	DB	09H
	DB	026H
	DB	09H
	DB	026H
	DB	09H
	DB	05H
	DB	09H
	DB	05H
	DB	09H
	DB	05H
	DB	09H
	DB	05H
	DB	09H
	DB	05H
	DB	09H
	DB	05H
	DB	09H
	DB	05H
	DB	09H
	DB	05H
	DB	09H
	DB	0e5H
	DB	08H
	DB	0e4H
	DB	08H
	DB	0e4H
	DB	08H
	DB	0e4H
	DB	08H
	DB	0e4H
	DB	08H
	DB	0e4H
	DB	08H
	DB	0c4H
	DB	08H
	DB	0c4H
	DB	08H
	DB	0c4H
	DB	08H
	DB	0c4H
	DB	08H
	DB	0c4H
	DB	08H
	DB	0c3H
	DB	08H
	DB	0c3H
	DB	08H
	DB	0a3H
	DB	08H
	DB	0a3H
	DB	08H
	DB	0a3H
	DB	08H
	DB	0a3H
	DB	08H
	DB	0a3H
	DB	08H
	DB	0a3H
	DB	08H
	DB	0a3H
	DB	08H
	DB	0a3H
	DB	08H
	DB	0a3H
	DB	08H
	DB	0a3H
	DB	08H
	DB	0a3H
	DB	08H
	DB	055H
	DB	014H
	DB	055H
	DB	014H
	DB	0fH
	DB	013H
	DB	0a9H
	DB	011H
	DB	0a9H
	DB	011H
	DB	0a9H
	DB	011H
	DB	0a8H
	DB	011H
	DB	0a8H
	DB	011H
	DB	088H
	DB	011H
	DB	0a8H
	DB	011H
	DB	088H
	DB	011H
	DB	088H
	DB	011H
	DB	088H
	DB	011H
	DB	088H
	DB	011H
	DB	088H
	DB	011H
	DB	087H
	DB	011H
	DB	067H
	DB	011H
	DB	067H
	DB	011H
	DB	067H
	DB	011H
	DB	067H
	DB	011H
	DB	067H
	DB	011H
	DB	067H
	DB	011H
	DB	047H
	DB	011H
	DB	047H
	DB	011H
	DB	047H
	DB	011H
	DB	046H
	DB	09H
	DB	046H
	DB	09H
	DB	046H
	DB	09H
	DB	026H
	DB	09H
	DB	026H
	DB	09H
	DB	026H
	DB	09H
	DB	026H
	DB	09H
	DB	026H
	DB	09H
	DB	026H
	DB	09H
	DB	025H
	DB	09H
	DB	025H
	DB	09H
	DB	05H
	DB	09H
	DB	05H
	DB	09H
	DB	05H
	DB	09H
	DB	05H
	DB	09H
	DB	05H
	DB	09H
	DB	05H
	DB	09H
	DB	0e5H
	DB	08H
	DB	0e5H
	DB	08H
	DB	0e4H
	DB	08H
	DB	0e4H
	DB	08H
	DB	0e4H
	DB	08H
	DB	0e4H
	DB	08H
	DB	0c4H
	DB	08H
	DB	0c4H
	DB	08H
	DB	0c4H
	DB	08H
	DB	0c4H
	DB	08H
	DB	0c4H
	DB	08H
	DB	0c3H
	DB	08H
	DB	0c3H
	DB	08H
	DB	0a3H
	DB	08H
	DB	0a3H
	DB	08H
	DB	0a3H
	DB	08H
	DB	0a3H
	DB	08H
	DB	0a3H
	DB	08H
	DB	0a3H
	DB	08H
	DB	0a3H
	DB	08H
	DB	0a3H
	DB	08H
	DB	0a3H
	DB	08H
	DB	0a3H
	DB	08H
	DB	0a3H
	DB	08H
	DB	0a3H
	DB	08H
	DB	055H
	DB	014H
	DB	055H
	DB	014H
	DB	0fH
	DB	013H
	DB	0a9H
	DB	011H
	DB	0a9H
	DB	011H
	DB	0a8H
	DB	011H
	DB	0a8H
	DB	011H
	DB	0a8H
	DB	011H
	DB	0a8H
	DB	011H
	DB	088H
	DB	011H
	DB	088H
	DB	011H
	DB	088H
	DB	011H
	DB	088H
	DB	011H
	DB	088H
	DB	011H
	DB	088H
	DB	011H
	DB	088H
	DB	011H
	DB	067H
	DB	011H
	DB	067H
	DB	011H
	DB	067H
	DB	011H
	DB	067H
	DB	011H
	DB	067H
	DB	011H
	DB	067H
	DB	09H
	DB	047H
	DB	011H
	DB	047H
	DB	09H
	DB	047H
	DB	011H
	DB	046H
	DB	09H
	DB	046H
	DB	09H
	DB	046H
	DB	09H
	DB	046H
	DB	09H
	DB	026H
	DB	09H
	DB	026H
	DB	09H
	DB	026H
	DB	09H
	DB	026H
	DB	09H
	DB	026H
	DB	09H
	DB	025H
	DB	09H
	DB	025H
	DB	09H
	DB	05H
	DB	09H
	DB	05H
	DB	09H
	DB	05H
	DB	09H
	DB	05H
	DB	09H
	DB	05H
	DB	09H
	DB	0e5H
	DB	08H
	DB	05H
	DB	09H
	DB	0e5H
	DB	08H
	DB	0e5H
	DB	08H
	DB	0e4H
	DB	08H
	DB	0e4H
	DB	08H
	DB	0e4H
	DB	08H
	DB	0e4H
	DB	08H
	DB	0c4H
	DB	08H
	DB	0c4H
	DB	08H
	DB	0c4H
	DB	08H
	DB	0c4H
	DB	08H
	DB	0c4H
	DB	08H
	DB	0c3H
	DB	08H
	DB	0a3H
	DB	08H
	DB	0c3H
	DB	08H
	DB	0a3H
	DB	08H
	DB	0a3H
	DB	08H
	DB	0a3H
	DB	08H
	DB	0a3H
	DB	08H
	DB	0a3H
	DB	08H
	DB	0a3H
	DB	08H
	DB	0a3H
	DB	08H
	DB	0a3H
	DB	08H
	DB	0a3H
	DB	08H
	DB	0a3H
	DB	08H
	DB	055H
	DB	014H
	DB	055H
	DB	014H
	DB	0fH
	DB	013H
	DB	0a9H
	DB	011H
	DB	0a9H
	DB	011H
	DB	0a8H
	DB	011H
	DB	0a8H
	DB	011H
	DB	0a8H
	DB	011H
	DB	0a8H
	DB	011H
	DB	0a8H
	DB	011H
	DB	088H
	DB	011H
	DB	088H
	DB	011H
	DB	088H
	DB	011H
	DB	088H
	DB	011H
	DB	088H
	DB	011H
	DB	067H
	DB	011H
	DB	067H
	DB	011H
	DB	067H
	DB	011H
	DB	067H
	DB	011H
	DB	067H
	DB	011H
	DB	067H
	DB	011H
	DB	067H
	DB	011H
	DB	047H
	DB	011H
	DB	047H
	DB	011H
	DB	047H
	DB	011H
	DB	046H
	DB	09H
	DB	046H
	DB	011H
	DB	046H
	DB	011H
	DB	046H
	DB	09H
	DB	026H
	DB	09H
	DB	026H
	DB	09H
	DB	026H
	DB	09H
	DB	026H
	DB	09H
	DB	026H
	DB	09H
	DB	026H
	DB	09H
	DB	025H
	DB	09H
	DB	025H
	DB	09H
	DB	05H
	DB	09H
	DB	05H
	DB	09H
	DB	05H
	DB	09H
	DB	05H
	DB	09H
	DB	05H
	DB	09H
	DB	0e5H
	DB	08H
	DB	0e5H
	DB	08H
	DB	0e4H
	DB	08H
	DB	0e4H
	DB	08H
	DB	0e4H
	DB	08H
	DB	0e4H
	DB	08H
	DB	0e4H
	DB	08H
	DB	0c4H
	DB	08H
	DB	0c4H
	DB	08H
	DB	0c4H
	DB	08H
	DB	0c4H
	DB	08H
	DB	0c4H
	DB	08H
	DB	0c3H
	DB	08H
	DB	0c3H
	DB	08H
	DB	0a3H
	DB	08H
	DB	0a3H
	DB	08H
	DB	0a3H
	DB	08H
	DB	0a3H
	DB	08H
	DB	0a3H
	DB	08H
	DB	0a3H
	DB	08H
	DB	0a3H
	DB	08H
	DB	0a3H
	DB	08H
	DB	0a3H
	DB	08H
	DB	0a3H
	DB	08H
	DB	0a3H
	DB	08H
	DB	055H
	DB	014H
	DB	055H
	DB	014H
	DB	0fH
	DB	013H
	DB	0a9H
	DB	011H
	DB	0a9H
	DB	011H
	DB	0a8H
	DB	011H
	DB	0a8H
	DB	011H
	DB	0a8H
	DB	011H
	DB	0a8H
	DB	011H
	DB	088H
	DB	011H
	DB	088H
	DB	011H
	DB	088H
	DB	011H
	DB	088H
	DB	011H
	DB	088H
	DB	011H
	DB	088H
	DB	011H
	DB	087H
	DB	011H
	DB	067H
	DB	011H
	DB	067H
	DB	011H
	DB	067H
	DB	011H
	DB	067H
	DB	011H
	DB	067H
	DB	011H
	DB	047H
	DB	011H
	DB	047H
	DB	011H
	DB	047H
	DB	09H
	DB	047H
	DB	09H
	DB	046H
	DB	09H
	DB	046H
	DB	011H
	DB	046H
	DB	09H
	DB	026H
	DB	09H
	DB	026H
	DB	09H
	DB	026H
	DB	09H
	DB	026H
	DB	09H
	DB	026H
	DB	09H
	DB	026H
	DB	09H
	DB	026H
	DB	09H
	DB	025H
	DB	09H
	DB	025H
	DB	09H
	DB	05H
	DB	09H
	DB	05H
	DB	09H
	DB	05H
	DB	09H
	DB	05H
	DB	09H
	DB	05H
	DB	09H
	DB	05H
	DB	09H
	DB	0e5H
	DB	08H
	DB	0e5H
	DB	08H
	DB	0e4H
	DB	08H
	DB	0e4H
	DB	08H
	DB	0e4H
	DB	08H
	DB	0c4H
	DB	08H
	DB	0c4H
	DB	08H
	DB	0c4H
	DB	08H
	DB	0c4H
	DB	08H
	DB	0c4H
	DB	08H
	DB	0c4H
	DB	08H
	DB	0c3H
	DB	08H
	DB	0a3H
	DB	08H
	DB	0a3H
	DB	08H
	DB	0a3H
	DB	08H
	DB	0a3H
	DB	08H
	DB	0a3H
	DB	08H
	DB	0a3H
	DB	08H
	DB	0a3H
	DB	08H
	DB	0a3H
	DB	08H
	DB	0a3H
	DB	08H
	DB	0a3H
	DB	08H
	DB	0a3H
	DB	08H
	DB	0a3H
	DB	08H
	DB	055H
	DB	014H
	DB	055H
	DB	014H
	DB	0fH
	DB	013H
	DB	0a9H
	DB	011H
	DB	0a9H
	DB	011H
	DB	0a8H
	DB	011H
	DB	0a8H
	DB	011H
	DB	0a8H
	DB	011H
	DB	0a8H
	DB	011H
	DB	0a8H
	DB	011H
	DB	088H
	DB	011H
	DB	088H
	DB	011H
	DB	088H
	DB	011H
	DB	088H
	DB	011H
	DB	088H
	DB	011H
	DB	068H
	DB	011H
	DB	067H
	DB	011H
	DB	067H
	DB	011H
	DB	067H
	DB	011H
	DB	067H
	DB	011H
	DB	067H
	DB	011H
	DB	067H
	DB	011H
	DB	047H
	DB	011H
	DB	047H
	DB	011H
	DB	047H
	DB	09H
	DB	046H
	DB	09H
	DB	046H
	DB	09H
	DB	046H
	DB	09H
	DB	046H
	DB	09H
	DB	026H
	DB	09H
	DB	026H
	DB	09H
	DB	026H
	DB	09H
	DB	026H
	DB	09H
	DB	026H
	DB	09H
	DB	026H
	DB	09H
	DB	05H
	DB	09H
	DB	05H
	DB	09H
	DB	05H
	DB	09H
	DB	05H
	DB	09H
	DB	05H
	DB	09H
	DB	05H
	DB	09H
	DB	05H
	DB	09H
	DB	05H
	DB	09H
	DB	0e4H
	DB	08H
	DB	0e4H
	DB	08H
	DB	0e4H
	DB	08H
	DB	0e4H
	DB	08H
	DB	0c4H
	DB	08H
	DB	0e4H
	DB	08H
	DB	0c4H
	DB	08H
	DB	0c4H
	DB	08H
	DB	0c4H
	DB	08H
	DB	0c4H
	DB	08H
	DB	0c4H
	DB	08H
	DB	0c3H
	DB	08H
	DB	0c3H
	DB	08H
	DB	0a3H
	DB	08H
	DB	0a3H
	DB	08H
	DB	0a3H
	DB	08H
	DB	0a3H
	DB	08H
	DB	0a3H
	DB	08H
	DB	0a3H
	DB	08H
	DB	0a3H
	DB	08H
	DB	0a3H
	DB	08H
	DB	0a3H
	DB	08H
	DB	0a3H
	DB	08H
	DB	0a3H
	DB	08H
	DB	055H
	DB	014H
	DB	055H
	DB	014H
	DB	0fH
	DB	013H
	DB	0c9H
	DB	011H
	DB	0a9H
	DB	011H
	DB	0a9H
	DB	011H
	DB	0a8H
	DB	011H
	DB	0a8H
	DB	011H
	DB	0a8H
	DB	011H
	DB	088H
	DB	011H
	DB	088H
	DB	011H
	DB	088H
	DB	011H
	DB	088H
	DB	011H
	DB	088H
	DB	011H
	DB	088H
	DB	011H
	DB	088H
	DB	011H
	DB	067H
	DB	011H
	DB	067H
	DB	011H
	DB	067H
	DB	011H
	DB	067H
	DB	011H
	DB	067H
	DB	011H
	DB	067H
	DB	011H
	DB	067H
	DB	09H
	DB	047H
	DB	09H
	DB	047H
	DB	011H
	DB	046H
	DB	09H
	DB	046H
	DB	011H
	DB	046H
	DB	011H
	DB	046H
	DB	09H
	DB	026H
	DB	09H
	DB	026H
	DB	09H
	DB	026H
	DB	09H
	DB	026H
	DB	09H
	DB	026H
	DB	09H
	DB	026H
	DB	09H
	DB	025H
	DB	09H
	DB	05H
	DB	09H
	DB	05H
	DB	09H
	DB	05H
	DB	09H
	DB	05H
	DB	09H
	DB	05H
	DB	09H
	DB	05H
	DB	09H
	DB	0e5H
	DB	08H
	DB	0e5H
	DB	08H
	DB	0e4H
	DB	08H
	DB	0e4H
	DB	08H
	DB	0e4H
	DB	08H
	DB	0e4H
	DB	08H
	DB	0e4H
	DB	08H
	DB	0c4H
	DB	08H
	DB	0c4H
	DB	08H
	DB	0c4H
	DB	08H
	DB	0c4H
	DB	08H
	DB	0c4H
	DB	08H
	DB	0c3H
	DB	08H
	DB	0a3H
	DB	08H
	DB	0a3H
	DB	08H
	DB	0a3H
	DB	08H
	DB	0a3H
	DB	08H
	DB	0a3H
	DB	08H
	DB	0a3H
	DB	08H
	DB	0a3H
	DB	08H
	DB	0a3H
	DB	08H
	DB	0a3H
	DB	08H
	DB	0a3H
	DB	08H
	DB	0a3H
	DB	08H
	DB	0a3H
	DB	08H
	DB	055H
	DB	014H
	DB	055H
	DB	014H
	DB	0fH
	DB	013H
	DB	0a9H
	DB	011H
	DB	0a9H
	DB	011H
	DB	0a9H
	DB	011H
	DB	0a8H
	DB	011H
	DB	0a8H
	DB	011H
	DB	088H
	DB	011H
	DB	0a8H
	DB	011H
	DB	088H
	DB	011H
	DB	088H
	DB	011H
	DB	088H
	DB	011H
	DB	088H
	DB	011H
	DB	088H
	DB	011H
	DB	088H
	DB	011H
	DB	067H
	DB	011H
	DB	067H
	DB	011H
	DB	067H
	DB	011H
	DB	067H
	DB	011H
	DB	067H
	DB	011H
	DB	067H
	DB	011H
	DB	047H
	DB	011H
	DB	047H
	DB	011H
	DB	047H
	DB	011H
	DB	046H
	DB	011H
	DB	046H
	DB	011H
	DB	046H
	DB	09H
	DB	026H
	DB	09H
	DB	026H
	DB	09H
	DB	026H
	DB	09H
	DB	026H
	DB	09H
	DB	026H
	DB	09H
	DB	026H
	DB	09H
	DB	026H
	DB	09H
	DB	025H
	DB	09H
	DB	05H
	DB	09H
	DB	05H
	DB	09H
	DB	05H
	DB	09H
	DB	05H
	DB	09H
	DB	05H
	DB	09H
	DB	05H
	DB	09H
	DB	05H
	DB	09H
	DB	0e5H
	DB	08H
	DB	0e5H
	DB	08H
	DB	0e4H
	DB	08H
	DB	0e4H
	DB	08H
	DB	0e4H
	DB	08H
	DB	0c4H
	DB	08H
	DB	0c4H
	DB	08H
	DB	0c4H
	DB	08H
	DB	0c4H
	DB	08H
	DB	0c4H
	DB	08H
	DB	0c4H
	DB	08H
	DB	0c3H
	DB	08H
	DB	0c3H
	DB	08H
	DB	0a3H
	DB	08H
	DB	0a3H
	DB	08H
	DB	0a3H
	DB	08H
	DB	0a3H
	DB	08H
	DB	0a3H
	DB	08H
	DB	0a3H
	DB	08H
	DB	0a3H
	DB	08H
	DB	0a3H
	DB	08H
	DB	0a3H
	DB	08H
	DB	0a3H
	DB	08H
	DB	0a3H
	DB	08H
	DB	055H
	DB	014H
	DB	055H
	DB	014H
	DB	0fH
	DB	013H
	DB	0a9H
	DB	011H
	DB	0a9H
	DB	011H
	DB	0a8H
	DB	011H
	DB	0a8H
	DB	011H
	DB	0a8H
	DB	011H
	DB	0a8H
	DB	011H
	DB	088H
	DB	011H
	DB	088H
	DB	011H
	DB	088H
	DB	011H
	DB	088H
	DB	011H
	DB	088H
	DB	011H
	DB	088H
	DB	011H
	DB	087H
	DB	011H
	DB	087H
	DB	011H
	DB	067H
	DB	011H
	DB	067H
	DB	011H
	DB	067H
	DB	011H
	DB	067H
	DB	011H
	DB	067H
	DB	011H
	DB	047H
	DB	011H
	DB	047H
	DB	011H
	DB	046H
	DB	09H
	DB	046H
	DB	011H
	DB	046H
	DB	011H
	DB	046H
	DB	011H
	DB	046H
	DB	09H
	DB	026H
	DB	09H
	DB	026H
	DB	09H
	DB	026H
	DB	09H
	DB	026H
	DB	09H
	DB	026H
	DB	09H
	DB	026H
	DB	09H
	DB	025H
	DB	09H
	DB	05H
	DB	09H
	DB	05H
	DB	09H
	DB	05H
	DB	09H
	DB	05H
	DB	09H
	DB	05H
	DB	09H
	DB	0e5H
	DB	08H
	DB	05H
	DB	09H
	DB	0e5H
	DB	08H
	DB	0e4H
	DB	08H
	DB	0e4H
	DB	08H
	DB	0e4H
	DB	08H
	DB	0e4H
	DB	08H
	DB	0e4H
	DB	08H
	DB	0e4H
	DB	08H
	DB	0c4H
	DB	08H
	DB	0c4H
	DB	08H
	DB	0c4H
	DB	08H
	DB	0c4H
	DB	08H
	DB	0c3H
	DB	08H
	DB	0a3H
	DB	08H
	DB	0a3H
	DB	08H
	DB	0a3H
	DB	08H
	DB	0a3H
	DB	08H
	DB	0a3H
	DB	08H
	DB	0a3H
	DB	08H
	DB	0a3H
	DB	08H
	DB	0a3H
	DB	08H
	DB	0a3H
	DB	08H
	DB	0a3H
	DB	08H
	DB	0a3H
	DB	08H
	DB	0a3H
	DB	08H
	DB	055H
	DB	014H
	DB	055H
	DB	014H
	DB	0fH
	DB	013H
	DB	0a9H
	DB	011H
	DB	0a9H
	DB	011H
	DB	0a9H
	DB	011H
	DB	0a8H
	DB	011H
	DB	0a8H
	DB	011H
	DB	0a8H
	DB	011H
	DB	088H
	DB	011H
	DB	088H
	DB	011H
	DB	088H
	DB	011H
	DB	088H
	DB	011H
	DB	088H
	DB	011H
	DB	088H
	DB	011H
	DB	087H
	DB	011H
	DB	087H
	DB	011H
	DB	067H
	DB	011H
	DB	067H
	DB	011H
	DB	067H
	DB	011H
	DB	067H
	DB	011H
	DB	067H
	DB	011H
	DB	047H
	DB	011H
	DB	047H
	DB	09H
	DB	047H
	DB	011H
	DB	046H
	DB	011H
	DB	046H
	DB	09H
	DB	046H
	DB	09H
	DB	026H
	DB	09H
	DB	026H
	DB	09H
	DB	026H
	DB	09H
	DB	026H
	DB	09H
	DB	026H
	DB	09H
	DB	026H
	DB	09H
	DB	026H
	DB	09H
	DB	025H
	DB	09H
	DB	05H
	DB	09H
	DB	05H
	DB	09H
	DB	05H
	DB	09H
	DB	05H
	DB	09H
	DB	05H
	DB	09H
	DB	05H
	DB	09H
	DB	05H
	DB	09H
	DB	0e5H
	DB	08H
	DB	0e4H
	DB	08H
	DB	0e4H
	DB	08H
	DB	0e4H
	DB	08H
	DB	0e4H
	DB	08H
	DB	0e4H
	DB	08H
	DB	0c4H
	DB	08H
	DB	0c4H
	DB	08H
	DB	0c4H
	DB	08H
	DB	0c4H
	DB	08H
	DB	0c4H
	DB	08H
	DB	0c4H
	DB	08H
	DB	0c3H
	DB	08H
	DB	0c3H
	DB	08H
	DB	0a3H
	DB	08H
	DB	0a3H
	DB	08H
	DB	0a3H
	DB	08H
	DB	0a3H
	DB	08H
	DB	0a3H
	DB	08H
	DB	0a3H
	DB	08H
	DB	0a3H
	DB	08H
	DB	0a3H
	DB	08H
	DB	0a3H
	DB	08H
	DB	0a3H
	DB	08H
	DB	055H
	DB	014H
	DB	055H
	DB	014H
	DB	0fH
	DB	013H
	DB	0a9H
	DB	011H
	DB	0a9H
	DB	011H
	DB	0a8H
	DB	011H
	DB	0a8H
	DB	011H
	DB	0a8H
	DB	011H
	DB	0a8H
	DB	011H
	DB	0a8H
	DB	011H
	DB	088H
	DB	011H
	DB	088H
	DB	011H
	DB	088H
	DB	011H
	DB	088H
	DB	011H
	DB	088H
	DB	011H
	DB	088H
	DB	011H
	DB	087H
	DB	011H
	DB	087H
	DB	011H
	DB	067H
	DB	011H
	DB	067H
	DB	011H
	DB	067H
	DB	011H
	DB	067H
	DB	011H
	DB	067H
	DB	011H
	DB	047H
	DB	011H
	DB	047H
	DB	09H
	DB	046H
	DB	011H
	DB	046H
	DB	09H
	DB	046H
	DB	09H
	DB	046H
	DB	09H
	DB	026H
	DB	09H
	DB	026H
	DB	09H
	DB	026H
	DB	09H
	DB	026H
	DB	09H
	DB	026H
	DB	09H
	DB	026H
	DB	09H
	DB	026H
	DB	09H
	DB	05H
	DB	09H
	DB	05H
	DB	09H
	DB	05H
	DB	09H
	DB	05H
	DB	09H
	DB	05H
	DB	09H
	DB	0e5H
	DB	08H
	DB	0e5H
	DB	08H
	DB	05H
	DB	09H
	DB	0e5H
	DB	08H
	DB	0e4H
	DB	08H
	DB	0e4H
	DB	08H
	DB	0e4H
	DB	08H
	DB	0e4H
	DB	08H
	DB	0e4H
	DB	08H
	DB	0c4H
	DB	08H
	DB	0c4H
	DB	08H
	DB	0c4H
	DB	08H
	DB	0c4H
	DB	08H
	DB	0c3H
	DB	08H
	DB	0c3H
	DB	08H
	DB	0a3H
	DB	08H
	DB	0a3H
	DB	08H
	DB	0a3H
	DB	08H
	DB	0a3H
	DB	08H
	DB	0a3H
	DB	08H
	DB	0a3H
	DB	08H
	DB	0a3H
	DB	08H
	DB	0a3H
	DB	08H
	DB	0a3H
	DB	08H
	DB	0a3H
	DB	08H
	DB	0a3H
	DB	08H
	DB	055H
	DB	014H
	DB	055H
	DB	014H
	DB	0fH
	DB	013H
	DB	0a9H
	DB	011H
	DB	0a9H
	DB	011H
	DB	0a8H
	DB	011H
	DB	0a8H
	DB	011H
	DB	0a8H
	DB	011H
	DB	0a8H
	DB	011H
	DB	088H
	DB	011H
	DB	088H
	DB	011H
	DB	088H
	DB	011H
	DB	088H
	DB	011H
	DB	088H
	DB	011H
	DB	088H
	DB	011H
	DB	088H
	DB	011H
	DB	067H
	DB	011H
	DB	067H
	DB	011H
	DB	067H
	DB	011H
	DB	067H
	DB	011H
	DB	067H
	DB	011H
	DB	067H
	DB	011H
	DB	067H
	DB	011H
	DB	047H
	DB	011H
	DB	046H
	DB	09H
	DB	046H
	DB	011H
	DB	046H
	DB	09H
	DB	046H
	DB	09H
	DB	046H
	DB	09H
	DB	046H
	DB	09H
	DB	026H
	DB	09H
	DB	026H
	DB	09H
	DB	026H
	DB	09H
	DB	026H
	DB	09H
	DB	025H
	DB	09H
	DB	06H
	DB	09H
	DB	05H
	DB	09H
	DB	05H
	DB	09H
	DB	05H
	DB	09H
	DB	05H
	DB	09H
	DB	05H
	DB	09H
	DB	05H
	DB	09H
	DB	05H
	DB	09H
	DB	0e5H
	DB	08H
	DB	0e4H
	DB	08H
	DB	0e4H
	DB	08H
	DB	0e4H
	DB	08H
	DB	0e4H
	DB	08H
	DB	0e4H
	DB	08H
	DB	0c4H
	DB	08H
	DB	0c4H
	DB	08H
	DB	0c4H
	DB	08H
	DB	0c4H
	DB	08H
	DB	0c4H
	DB	08H
	DB	0c3H
	DB	08H
	DB	0c3H
	DB	08H
	DB	0a3H
	DB	08H
	DB	0a3H
	DB	08H
	DB	0a3H
	DB	08H
	DB	0a3H
	DB	08H
	DB	0a3H
	DB	08H
	DB	0a3H
	DB	08H
	DB	0a3H
	DB	08H
	DB	0a3H
	DB	08H
	DB	0a3H
	DB	08H
	DB	0a3H
	DB	08H
	DB	0a3H
	DB	08H
	DB	055H
	DB	014H
	DB	055H
	DB	014H
	DB	0fH
	DB	013H
	DB	0a9H
	DB	011H
	DB	0a9H
	DB	011H
	DB	0a9H
	DB	011H
	DB	0a8H
	DB	011H
	DB	0a8H
	DB	011H
	DB	0a8H
	DB	011H
	DB	0a8H
	DB	011H
	DB	088H
	DB	011H
	DB	088H
	DB	011H
	DB	088H
	DB	011H
	DB	088H
	DB	011H
	DB	088H
	DB	011H
	DB	088H
	DB	011H
	DB	067H
	DB	011H
	DB	067H
	DB	011H
	DB	067H
	DB	011H
	DB	067H
	DB	011H
	DB	067H
	DB	011H
	DB	067H
	DB	011H
	DB	067H
	DB	011H
	DB	047H
	DB	011H
	DB	047H
	DB	011H
	DB	046H
	DB	09H
	DB	046H
	DB	09H
	DB	046H
	DB	09H
	DB	046H
	DB	09H
	DB	046H
	DB	09H
	DB	026H
	DB	09H
	DB	026H
	DB	09H
	DB	026H
	DB	09H
	DB	026H
	DB	09H
	DB	026H
	DB	09H
	DB	025H
	DB	09H
	DB	025H
	DB	09H
	DB	05H
	DB	09H
	DB	05H
	DB	09H
	DB	05H
	DB	09H
	DB	05H
	DB	09H
	DB	0e5H
	DB	08H
	DB	05H
	DB	09H
	DB	0e5H
	DB	08H
	DB	0e5H
	DB	08H
	DB	0e4H
	DB	08H
	DB	0e4H
	DB	08H
	DB	0e4H
	DB	08H
	DB	0e4H
	DB	08H
	DB	0e4H
	DB	08H
	DB	0c4H
	DB	08H
	DB	0c4H
	DB	08H
	DB	0c4H
	DB	08H
	DB	0c4H
	DB	08H
	DB	0c3H
	DB	08H
	DB	0a3H
	DB	08H
	DB	0a3H
	DB	08H
	DB	0a3H
	DB	08H
	DB	0a3H
	DB	08H
	DB	0a3H
	DB	08H
	DB	0a3H
	DB	08H
	DB	0a3H
	DB	08H
	DB	0a3H
	DB	08H
	DB	0a3H
	DB	08H
	DB	0a3H
	DB	08H
	DB	0a3H
	DB	08H
	DB	0a3H
	DB	08H
	DB	055H
	DB	014H
	DB	055H
	DB	014H
	DB	0fH
	DB	013H
	DB	0a9H
	DB	011H
	DB	0a9H
	DB	011H
	DB	0a9H
	DB	011H
	DB	0a8H
	DB	011H
	DB	0a8H
	DB	011H
	DB	0a8H
	DB	011H
	DB	088H
	DB	011H
	DB	088H
	DB	011H
	DB	088H
	DB	011H
	DB	088H
	DB	011H
	DB	088H
	DB	011H
	DB	088H
	DB	011H
	DB	088H
	DB	011H
	DB	087H
	DB	011H
	DB	067H
	DB	011H
	DB	067H
	DB	011H
	DB	067H
	DB	011H
	DB	067H
	DB	011H
	DB	067H
	DB	011H
	DB	067H
	DB	011H
	DB	067H
	DB	09H
	DB	047H
	DB	011H
	DB	046H
	DB	011H
	DB	046H
	DB	09H
	DB	046H
	DB	09H
	DB	046H
	DB	09H
	DB	026H
	DB	09H
	DB	026H
	DB	09H
	DB	026H
	DB	09H
	DB	026H
	DB	09H
	DB	026H
	DB	09H
	DB	026H
	DB	09H
	DB	025H
	DB	09H
	DB	05H
	DB	09H
	DB	05H
	DB	09H
	DB	05H
	DB	09H
	DB	05H
	DB	09H
	DB	05H
	DB	09H
	DB	05H
	DB	09H
	DB	05H
	DB	09H
	DB	0e5H
	DB	08H
	DB	0e5H
	DB	08H
	DB	0e4H
	DB	08H
	DB	0e4H
	DB	08H
	DB	0e4H
	DB	08H
	DB	0e4H
	DB	08H
	DB	0e4H
	DB	08H
	DB	0c4H
	DB	08H
	DB	0c4H
	DB	08H
	DB	0c4H
	DB	08H
	DB	0c4H
	DB	08H
	DB	0c4H
	DB	08H
	DB	0c3H
	DB	08H
	DB	0c3H
	DB	08H
	DB	0a3H
	DB	08H
	DB	0a3H
	DB	08H
	DB	0a3H
	DB	08H
	DB	0a3H
	DB	08H
	DB	0a3H
	DB	08H
	DB	0a3H
	DB	08H
	DB	0a3H
	DB	08H
	DB	0a3H
	DB	08H
	DB	0a3H
	DB	08H
	DB	0a3H
	DB	08H
	DB	055H
	DB	014H
	DB	055H
	DB	014H
	DB	0fH
	DB	013H
	DB	0c9H
	DB	011H
	DB	0a9H
	DB	011H
	DB	0a9H
	DB	011H
	DB	0a9H
	DB	011H
	DB	0a8H
	DB	011H
	DB	0a8H
	DB	011H
	DB	0a8H
	DB	011H
	DB	088H
	DB	011H
	DB	088H
	DB	011H
	DB	088H
	DB	011H
	DB	088H
	DB	011H
	DB	088H
	DB	011H
	DB	088H
	DB	011H
	DB	087H
	DB	011H
	DB	067H
	DB	011H
	DB	067H
	DB	011H
	DB	067H
	DB	011H
	DB	067H
	DB	011H
	DB	067H
	DB	011H
	DB	067H
	DB	011H
	DB	047H
	DB	011H
	DB	047H
	DB	09H
	DB	046H
	DB	09H
	DB	046H
	DB	09H
	DB	046H
	DB	011H
	DB	046H
	DB	09H
	DB	026H
	DB	09H
	DB	026H
	DB	09H
	DB	026H
	DB	09H
	DB	026H
	DB	09H
	DB	026H
	DB	09H
	DB	026H
	DB	09H
	DB	025H
	DB	09H
	DB	05H
	DB	09H
	DB	05H
	DB	09H
	DB	05H
	DB	09H
	DB	05H
	DB	09H
	DB	05H
	DB	09H
	DB	05H
	DB	09H
	DB	05H
	DB	09H
	DB	0e5H
	DB	08H
	DB	0e5H
	DB	08H
	DB	0e4H
	DB	08H
	DB	0e4H
	DB	08H
	DB	0e4H
	DB	08H
	DB	0e4H
	DB	08H
	DB	0c4H
	DB	08H
	DB	0c4H
	DB	08H
	DB	0c4H
	DB	08H
	DB	0c4H
	DB	08H
	DB	0c4H
	DB	08H
	DB	0c4H
	DB	08H
	DB	0c3H
	DB	08H
	DB	0a3H
	DB	08H
	DB	0a3H
	DB	08H
	DB	0a3H
	DB	08H
	DB	0a3H
	DB	08H
	DB	0a3H
	DB	08H
	DB	0a3H
	DB	08H
	DB	0a3H
	DB	08H
	DB	0a3H
	DB	08H
	DB	0a3H
	DB	08H
	DB	0a3H
	DB	08H
	DB	0a3H
	DB	08H
	DB	055H
	DB	014H
	DB	055H
	DB	014H
	DB	0fH
	DB	013H
	DB	0a9H
	DB	011H
	DB	0a9H
	DB	011H
	DB	0a9H
	DB	011H
	DB	0a9H
	DB	011H
	DB	0a8H
	DB	011H
	DB	0a8H
	DB	011H
	DB	0a8H
	DB	011H
	DB	088H
	DB	011H
	DB	088H
	DB	011H
	DB	088H
	DB	011H
	DB	088H
	DB	011H
	DB	088H
	DB	011H
	DB	088H
	DB	011H
	DB	087H
	DB	011H
	DB	067H
	DB	011H
	DB	067H
	DB	011H
	DB	067H
	DB	011H
	DB	067H
	DB	011H
	DB	067H
	DB	011H
	DB	067H
	DB	011H
	DB	047H
	DB	011H
	DB	047H
	DB	09H
	DB	046H
	DB	09H
	DB	046H
	DB	011H
	DB	046H
	DB	09H
	DB	046H
	DB	09H
	DB	046H
	DB	09H
	DB	026H
	DB	09H
	DB	026H
	DB	09H
	DB	026H
	DB	09H
	DB	026H
	DB	09H
	DB	026H
	DB	09H
	DB	025H
	DB	09H
	DB	025H
	DB	09H
	DB	05H
	DB	09H
	DB	05H
	DB	09H
	DB	05H
	DB	09H
	DB	05H
	DB	09H
	DB	05H
	DB	09H
	DB	0e5H
	DB	08H
	DB	0e5H
	DB	08H
	DB	0e5H
	DB	08H
	DB	0e4H
	DB	08H
	DB	0e4H
	DB	08H
	DB	0e4H
	DB	08H
	DB	0c4H
	DB	08H
	DB	0e4H
	DB	08H
	DB	0c4H
	DB	08H
	DB	0c4H
	DB	08H
	DB	0c4H
	DB	08H
	DB	0c4H
	DB	08H
	DB	0c3H
	DB	08H
	DB	0a3H
	DB	08H
	DB	0a3H
	DB	08H
	DB	0a3H
	DB	08H
	DB	0a3H
	DB	08H
	DB	0a3H
	DB	08H
	DB	0a3H
	DB	08H
	DB	0a3H
	DB	08H
	DB	0a3H
	DB	08H
	DB	0a3H
	DB	08H
	DB	0a3H
	DB	08H
	DB	0a3H
	DB	08H
	DB	0a3H
	DB	08H
	DB	055H
	DB	014H
	DB	055H
	DB	014H
	DB	0fH
	DB	013H
	DB	0c9H
	DB	011H
	DB	0a9H
	DB	011H
	DB	0a9H
	DB	011H
	DB	0a8H
	DB	011H
	DB	0a8H
	DB	011H
	DB	0a8H
	DB	011H
	DB	0a8H
	DB	011H
	DB	088H
	DB	011H
	DB	088H
	DB	011H
	DB	088H
	DB	011H
	DB	088H
	DB	011H
	DB	088H
	DB	011H
	DB	087H
	DB	011H
	DB	087H
	DB	011H
	DB	067H
	DB	011H
	DB	067H
	DB	011H
	DB	067H
	DB	011H
	DB	067H
	DB	011H
	DB	067H
	DB	011H
	DB	047H
	DB	011H
	DB	047H
	DB	011H
	DB	047H
	DB	011H
	DB	047H
	DB	09H
	DB	046H
	DB	09H
	DB	046H
	DB	09H
	DB	046H
	DB	09H
	DB	026H
	DB	09H
	DB	026H
	DB	09H
	DB	026H
	DB	09H
	DB	026H
	DB	09H
	DB	026H
	DB	09H
	DB	026H
	DB	09H
	DB	05H
	DB	09H
	DB	05H
	DB	09H
	DB	05H
	DB	09H
	DB	05H
	DB	09H
	DB	05H
	DB	09H
	DB	05H
	DB	09H
	DB	05H
	DB	09H
	DB	05H
	DB	09H
	DB	05H
	DB	09H
	DB	0e4H
	DB	08H
	DB	0e4H
	DB	08H
	DB	0e4H
	DB	08H
	DB	0e4H
	DB	08H
	DB	0e4H
	DB	08H
	DB	0c4H
	DB	08H
	DB	0c4H
	DB	08H
	DB	0c4H
	DB	08H
	DB	0c4H
	DB	08H
	DB	0c4H
	DB	08H
	DB	0c3H
	DB	08H
	DB	0c3H
	DB	08H
	DB	0a3H
	DB	08H
	DB	0a3H
	DB	08H
	DB	0a3H
	DB	08H
	DB	0a3H
	DB	08H
	DB	0a3H
	DB	08H
	DB	0a3H
	DB	08H
	DB	0a3H
	DB	08H
	DB	0a3H
	DB	08H
	DB	0a3H
	DB	08H
	DB	0a3H
	DB	08H
	DB	0a3H
	DB	08H
	DB	055H
	DB	014H
	DB	055H
	DB	014H
	DB	0fH
	DB	013H
	DB	0a9H
	DB	011H
	DB	0a9H
	DB	011H
	DB	0a9H
	DB	011H
	DB	0a9H
	DB	011H
	DB	0a8H
	DB	011H
	DB	0a8H
	DB	011H
	DB	088H
	DB	011H
	DB	088H
	DB	011H
	DB	088H
	DB	011H
	DB	088H
	DB	011H
	DB	088H
	DB	011H
	DB	088H
	DB	011H
	DB	088H
	DB	011H
	DB	087H
	DB	011H
	DB	067H
	DB	011H
	DB	067H
	DB	011H
	DB	067H
	DB	011H
	DB	067H
	DB	011H
	DB	067H
	DB	011H
	DB	067H
	DB	011H
	DB	047H
	DB	011H
	DB	047H
	DB	011H
	DB	047H
	DB	09H
	DB	046H
	DB	09H
	DB	046H
	DB	09H
	DB	046H
	DB	09H
	DB	026H
	DB	09H
	DB	026H
	DB	09H
	DB	026H
	DB	09H
	DB	026H
	DB	09H
	DB	026H
	DB	09H
	DB	025H
	DB	09H
	DB	025H
	DB	09H
	DB	05H
	DB	09H
	DB	05H
	DB	09H
	DB	05H
	DB	09H
	DB	05H
	DB	09H
	DB	05H
	DB	09H
	DB	05H
	DB	09H
	DB	05H
	DB	09H
	DB	0e5H
	DB	08H
	DB	0e5H
	DB	08H
	DB	0e4H
	DB	08H
	DB	0e4H
	DB	08H
	DB	0e4H
	DB	08H
	DB	0e4H
	DB	08H
	DB	0c4H
	DB	08H
	DB	0c4H
	DB	08H
	DB	0c4H
	DB	08H
	DB	0c4H
	DB	08H
	DB	0c4H
	DB	08H
	DB	0c3H
	DB	08H
	DB	0c3H
	DB	08H
	DB	0a3H
	DB	08H
	DB	0a3H
	DB	08H
	DB	0a3H
	DB	08H
	DB	0a3H
	DB	08H
	DB	0a3H
	DB	08H
	DB	0a3H
	DB	08H
	DB	0a3H
	DB	08H
	DB	0a3H
	DB	08H
	DB	0a3H
	DB	08H
	DB	0a3H
	DB	08H
	DB	0a3H
	DB	08H
	DB	055H
	DB	014H
	DB	055H
	DB	014H
	DB	0fH
	DB	013H
	DB	0a9H
	DB	011H
	DB	0a9H
	DB	011H
	DB	0a9H
	DB	011H
	DB	0a8H
	DB	011H
	DB	0a8H
	DB	011H
	DB	0a8H
	DB	011H
	DB	0a8H
	DB	011H
	DB	0a8H
	DB	011H
	DB	088H
	DB	011H
	DB	088H
	DB	011H
	DB	088H
	DB	011H
	DB	088H
	DB	011H
	DB	068H
	DB	011H
	DB	067H
	DB	011H
	DB	067H
	DB	011H
	DB	067H
	DB	011H
	DB	067H
	DB	011H
	DB	067H
	DB	011H
	DB	067H
	DB	011H
	DB	067H
	DB	011H
	DB	067H
	DB	011H
	DB	047H
	DB	011H
	DB	047H
	DB	011H
	DB	046H
	DB	09H
	DB	046H
	DB	09H
	DB	046H
	DB	09H
	DB	026H
	DB	09H
	DB	026H
	DB	09H
	DB	026H
	DB	09H
	DB	026H
	DB	09H
	DB	026H
	DB	09H
	DB	026H
	DB	09H
	DB	025H
	DB	09H
	DB	05H
	DB	09H
	DB	05H
	DB	09H
	DB	05H
	DB	09H
	DB	05H
	DB	09H
	DB	05H
	DB	09H
	DB	05H
	DB	09H
	DB	0e5H
	DB	08H
	DB	0e5H
	DB	08H
	DB	0e4H
	DB	08H
	DB	0e4H
	DB	08H
	DB	0e4H
	DB	08H
	DB	0e4H
	DB	08H
	DB	0e4H
	DB	08H
	DB	0c4H
	DB	08H
	DB	0c4H
	DB	08H
	DB	0c4H
	DB	08H
	DB	0c4H
	DB	08H
	DB	0c4H
	DB	08H
	DB	0c3H
	DB	08H
	DB	0c3H
	DB	08H
	DB	0a3H
	DB	08H
	DB	0a3H
	DB	08H
	DB	0a3H
	DB	08H
	DB	0a3H
	DB	08H
	DB	0a3H
	DB	08H
	DB	0a3H
	DB	08H
	DB	0a3H
	DB	08H
	DB	0a3H
	DB	08H
	DB	0a3H
	DB	08H
	DB	0a3H
	DB	08H
	DB	0a3H
	DB	08H
	DB	055H
	DB	014H
	DB	055H
	DB	014H
	DB	0fH
	DB	013H
	DB	0a9H
	DB	011H
	DB	0c9H
	DB	011H
	DB	0a9H
	DB	011H
	DB	0a8H
	DB	011H
	DB	0a8H
	DB	011H
	DB	0a8H
	DB	011H
	DB	0a8H
	DB	011H
	DB	0a8H
	DB	011H
	DB	088H
	DB	011H
	DB	088H
	DB	011H
	DB	088H
	DB	011H
	DB	088H
	DB	011H
	DB	088H
	DB	011H
	DB	067H
	DB	011H
	DB	067H
	DB	011H
	DB	067H
	DB	011H
	DB	067H
	DB	011H
	DB	067H
	DB	011H
	DB	067H
	DB	011H
	DB	047H
	DB	011H
	DB	067H
	DB	011H
	DB	047H
	DB	011H
	DB	046H
	DB	011H
	DB	046H
	DB	09H
	DB	046H
	DB	09H
	DB	026H
	DB	011H
	DB	026H
	DB	09H
	DB	026H
	DB	09H
	DB	026H
	DB	09H
	DB	026H
	DB	09H
	DB	026H
	DB	09H
	DB	026H
	DB	09H
	DB	025H
	DB	09H
	DB	05H
	DB	09H
	DB	05H
	DB	09H
	DB	05H
	DB	09H
	DB	05H
	DB	09H
	DB	05H
	DB	09H
	DB	05H
	DB	09H
	DB	0e5H
	DB	08H
	DB	0e5H
	DB	08H
	DB	0e4H
	DB	08H
	DB	0e5H
	DB	08H
	DB	0e4H
	DB	08H
	DB	0e4H
	DB	08H
	DB	0c4H
	DB	08H
	DB	0e4H
	DB	08H
	DB	0c4H
	DB	08H
	DB	0c4H
	DB	08H
	DB	0c4H
	DB	08H
	DB	0c4H
	DB	08H
	DB	0c3H
	DB	08H
	DB	0c3H
	DB	08H
	DB	0a3H
	DB	08H
	DB	0a3H
	DB	08H
	DB	0a3H
	DB	08H
	DB	0a3H
	DB	08H
	DB	0a3H
	DB	08H
	DB	0a3H
	DB	08H
	DB	0a3H
	DB	08H
	DB	0a3H
	DB	08H
	DB	0a3H
	DB	08H
	DB	0a3H
	DB	08H
	DB	0a3H
	DB	08H
	DB	055H
	DB	014H
	DB	055H
	DB	014H
	DB	0fH
	DB	013H
	DB	0a9H
	DB	011H
	DB	0a9H
	DB	011H
	DB	0a9H
	DB	011H
	DB	0a8H
	DB	011H
	DB	0a8H
	DB	011H
	DB	0a8H
	DB	011H
	DB	0a8H
	DB	011H
	DB	0a8H
	DB	011H
	DB	088H
	DB	011H
	DB	088H
	DB	011H
	DB	088H
	DB	011H
	DB	088H
	DB	011H
	DB	088H
	DB	011H
	DB	067H
	DB	011H
	DB	067H
	DB	011H
	DB	067H
	DB	011H
	DB	067H
	DB	011H
	DB	067H
	DB	011H
	DB	067H
	DB	011H
	DB	067H
	DB	011H
	DB	047H
	DB	09H
	DB	047H
	DB	011H
	DB	047H
	DB	011H
	DB	046H
	DB	011H
	DB	046H
	DB	011H
	DB	046H
	DB	09H
	DB	026H
	DB	09H
	DB	026H
	DB	09H
	DB	026H
	DB	09H
	DB	026H
	DB	09H
	DB	026H
	DB	09H
	DB	026H
	DB	09H
	DB	026H
	DB	09H
	DB	025H
	DB	09H
	DB	05H
	DB	09H
	DB	05H
	DB	09H
	DB	05H
	DB	09H
	DB	05H
	DB	09H
	DB	05H
	DB	09H
	DB	0e5H
	DB	08H
	DB	0e5H
	DB	08H
	DB	0e5H
	DB	08H
	DB	0e4H
	DB	08H
	DB	0e4H
	DB	08H
	DB	0e4H
	DB	08H
	DB	0e4H
	DB	08H
	DB	0c4H
	DB	08H
	DB	0e4H
	DB	08H
	DB	0c4H
	DB	08H
	DB	0c4H
	DB	08H
	DB	0c4H
	DB	08H
	DB	0c4H
	DB	08H
	DB	0a3H
	DB	08H
	DB	0a3H
	DB	08H
	DB	0a3H
	DB	08H
	DB	0a3H
	DB	08H
	DB	0a3H
	DB	08H
	DB	0a3H
	DB	08H
	DB	0a3H
	DB	08H
	DB	0a3H
	DB	08H
	DB	0a3H
	DB	08H
	DB	0a3H
	DB	08H
	DB	0a3H
	DB	08H
	DB	0a3H
	DB	08H
	DB	055H
	DB	014H
	DB	055H
	DB	014H
	DB	0fH
	DB	013H
	DB	0c9H
	DB	011H
	DB	0a9H
	DB	011H
	DB	0a9H
	DB	011H
	DB	0a8H
	DB	011H
	DB	0a8H
	DB	011H
	DB	0a8H
	DB	011H
	DB	0a8H
	DB	011H
	DB	088H
	DB	011H
	DB	088H
	DB	011H
	DB	088H
	DB	011H
	DB	088H
	DB	011H
	DB	088H
	DB	011H
	DB	087H
	DB	011H
	DB	087H
	DB	011H
	DB	067H
	DB	011H
	DB	067H
	DB	011H
	DB	067H
	DB	011H
	DB	067H
	DB	011H
	DB	067H
	DB	011H
	DB	067H
	DB	011H
	DB	047H
	DB	011H
	DB	047H
	DB	011H
	DB	047H
	DB	09H
	DB	046H
	DB	09H
	DB	046H
	DB	09H
	DB	046H
	DB	09H
	DB	026H
	DB	09H
	DB	026H
	DB	09H
	DB	026H
	DB	09H
	DB	026H
	DB	09H
	DB	026H
	DB	09H
	DB	026H
	DB	09H
	DB	026H
	DB	09H
	DB	05H
	DB	09H
	DB	05H
	DB	09H
	DB	05H
	DB	09H
	DB	05H
	DB	09H
	DB	05H
	DB	09H
	DB	05H
	DB	09H
	DB	05H
	DB	09H
	DB	0e5H
	DB	08H
	DB	0e5H
	DB	08H
	DB	0e4H
	DB	08H
	DB	0e4H
	DB	08H
	DB	0e4H
	DB	08H
	DB	0e4H
	DB	08H
	DB	0e4H
	DB	08H
	DB	0c4H
	DB	08H
	DB	0c4H
	DB	08H
	DB	0c4H
	DB	08H
	DB	0c4H
	DB	08H
	DB	0c4H
	DB	08H
	DB	0c3H
	DB	08H
	DB	0a3H
	DB	08H
	DB	0a3H
	DB	08H
	DB	0a3H
	DB	08H
	DB	0a3H
	DB	08H
	DB	0a3H
	DB	08H
	DB	0a3H
	DB	08H
	DB	0a3H
	DB	08H
	DB	0a3H
	DB	08H
	DB	0a3H
	DB	08H
	DB	0a3H
	DB	08H
	DB	0a3H
	DB	08H
	DB	055H
	DB	014H
	DB	055H
	DB	014H
	DB	0fH
	DB	013H
	DB	0a9H
	DB	011H
	DB	0a9H
	DB	011H
	DB	0a9H
	DB	011H
	DB	0a8H
	DB	011H
	DB	0a8H
	DB	011H
	DB	0a8H
	DB	011H
	DB	0a8H
	DB	011H
	DB	0a8H
	DB	011H
	DB	088H
	DB	011H
	DB	088H
	DB	011H
	DB	088H
	DB	011H
	DB	088H
	DB	011H
	DB	088H
	DB	011H
	DB	068H
	DB	011H
	DB	067H
	DB	011H
	DB	067H
	DB	011H
	DB	067H
	DB	011H
	DB	067H
	DB	011H
	DB	067H
	DB	011H
	DB	047H
	DB	011H
	DB	047H
	DB	011H
	DB	047H
	DB	09H
	DB	047H
	DB	09H
	DB	046H
	DB	09H
	DB	046H
	DB	09H
	DB	046H
	DB	09H
	DB	026H
	DB	09H
	DB	026H
	DB	09H
	DB	026H
	DB	09H
	DB	026H
	DB	09H
	DB	026H
	DB	09H
	DB	026H
	DB	09H
	DB	025H
	DB	09H
	DB	05H
	DB	09H
	DB	05H
	DB	09H
	DB	05H
	DB	09H
	DB	05H
	DB	09H
	DB	05H
	DB	09H
	DB	05H
	DB	09H
	DB	05H
	DB	09H
	DB	0e5H
	DB	08H
	DB	0e5H
	DB	08H
	DB	0e5H
	DB	08H
	DB	0e4H
	DB	08H
	DB	0e4H
	DB	08H
	DB	0e4H
	DB	08H
	DB	0c4H
	DB	08H
	DB	0c4H
	DB	08H
	DB	0c4H
	DB	08H
	DB	0c4H
	DB	08H
	DB	0c4H
	DB	08H
	DB	0c4H
	DB	08H
	DB	0a3H
	DB	08H
	DB	0a3H
	DB	08H
	DB	0a3H
	DB	08H
	DB	0a3H
	DB	08H
	DB	0a3H
	DB	08H
	DB	0a3H
	DB	08H
	DB	0a3H
	DB	08H
	DB	0a3H
	DB	08H
	DB	0a3H
	DB	08H
	DB	0a3H
	DB	08H
	DB	0a3H
	DB	08H
	DB	0a3H
	DB	08H
	DB	055H
	DB	014H
	DB	055H
	DB	014H
	DB	0fH
	DB	013H
	DB	0a9H
	DB	011H
	DB	0c9H
	DB	011H
	DB	0a9H
	DB	011H
	DB	0a8H
	DB	011H
	DB	0a8H
	DB	011H
	DB	0a8H
	DB	011H
	DB	0a8H
	DB	011H
	DB	0a8H
	DB	011H
	DB	088H
	DB	011H
	DB	088H
	DB	011H
	DB	088H
	DB	011H
	DB	088H
	DB	011H
	DB	088H
	DB	011H
	DB	087H
	DB	011H
	DB	067H
	DB	011H
	DB	067H
	DB	011H
	DB	067H
	DB	011H
	DB	067H
	DB	011H
	DB	067H
	DB	011H
	DB	047H
	DB	011H
	DB	047H
	DB	011H
	DB	047H
	DB	09H
	DB	047H
	DB	011H
	DB	046H
	DB	011H
	DB	046H
	DB	09H
	DB	046H
	DB	011H
	DB	046H
	DB	09H
	DB	026H
	DB	09H
	DB	026H
	DB	09H
	DB	026H
	DB	09H
	DB	026H
	DB	09H
	DB	026H
	DB	09H
	DB	025H
	DB	09H
	DB	025H
	DB	09H
	DB	05H
	DB	09H
	DB	05H
	DB	09H
	DB	05H
	DB	09H
	DB	05H
	DB	09H
	DB	05H
	DB	09H
	DB	05H
	DB	09H
	DB	0e5H
	DB	08H
	DB	0e4H
	DB	08H
	DB	0e4H
	DB	08H
	DB	0e4H
	DB	08H
	DB	0e4H
	DB	08H
	DB	0e4H
	DB	08H
	DB	0c4H
	DB	08H
	DB	0c4H
	DB	08H
	DB	0c4H
	DB	08H
	DB	0c4H
	DB	08H
	DB	0c4H
	DB	08H
	DB	0c4H
	DB	08H
	DB	0c3H
	DB	08H
	DB	0a3H
	DB	08H
	DB	0a3H
	DB	08H
	DB	0a3H
	DB	08H
	DB	0a3H
	DB	08H
	DB	0a3H
	DB	08H
	DB	0a3H
	DB	08H
	DB	0a3H
	DB	08H
	DB	0a3H
	DB	08H
	DB	0a3H
	DB	08H
	DB	0a3H
	DB	08H
	DB	0a3H
	DB	08H
	DB	055H
	DB	014H
	DB	055H
	DB	014H
	DB	0fH
	DB	013H
	DB	0a9H
	DB	011H
	DB	0a9H
	DB	011H
	DB	0a9H
	DB	011H
	DB	0a9H
	DB	011H
	DB	0a8H
	DB	011H
	DB	0a8H
	DB	011H
	DB	0a8H
	DB	011H
	DB	088H
	DB	011H
	DB	088H
	DB	011H
	DB	088H
	DB	011H
	DB	088H
	DB	011H
	DB	088H
	DB	011H
	DB	088H
	DB	011H
	DB	068H
	DB	011H
	DB	067H
	DB	011H
	DB	067H
	DB	011H
	DB	067H
	DB	011H
	DB	067H
	DB	011H
	DB	067H
	DB	011H
	DB	067H
	DB	09H
	DB	047H
	DB	011H
	DB	047H
	DB	011H
	DB	046H
	DB	011H
	DB	046H
	DB	09H
	DB	046H
	DB	09H
	DB	046H
	DB	09H
	DB	046H
	DB	09H
	DB	026H
	DB	09H
	DB	026H
	DB	09H
	DB	026H
	DB	09H
	DB	026H
	DB	09H
	DB	026H
	DB	09H
	DB	025H
	DB	09H
	DB	025H
	DB	09H
	DB	05H
	DB	09H
	DB	05H
	DB	09H
	DB	05H
	DB	09H
	DB	05H
	DB	09H
	DB	05H
	DB	09H
	DB	05H
	DB	09H
	DB	0e5H
	DB	08H
	DB	0e5H
	DB	08H
	DB	0e4H
	DB	08H
	DB	0e4H
	DB	08H
	DB	0e4H
	DB	08H
	DB	0e4H
	DB	08H
	DB	0e4H
	DB	08H
	DB	0c4H
	DB	08H
	DB	0c4H
	DB	08H
	DB	0c4H
	DB	08H
	DB	0c4H
	DB	08H
	DB	0c4H
	DB	08H
	DB	0c3H
	DB	08H
	DB	0a3H
	DB	08H
	DB	0a3H
	DB	08H
	DB	0a3H
	DB	08H
	DB	0a3H
	DB	08H
	DB	0a3H
	DB	08H
	DB	0a3H
	DB	08H
	DB	0a3H
	DB	08H
	DB	0a3H
	DB	08H
	DB	0a3H
	DB	08H
	DB	0a3H
	DB	08H
	DB	0a3H
	DB	08H
	DB	055H
	DB	014H
	DB	055H
	DB	014H
	DB	0fH
	DB	013H
	DB	0a9H
	DB	011H
	DB	0a9H
	DB	011H
	DB	0a9H
	DB	011H
	DB	0a8H
	DB	011H
	DB	0a8H
	DB	011H
	DB	0a8H
	DB	011H
	DB	088H
	DB	011H
	DB	088H
	DB	011H
	DB	088H
	DB	011H
	DB	088H
	DB	011H
	DB	088H
	DB	011H
	DB	088H
	DB	011H
	DB	087H
	DB	011H
	DB	068H
	DB	011H
	DB	067H
	DB	011H
	DB	067H
	DB	011H
	DB	067H
	DB	011H
	DB	067H
	DB	011H
	DB	067H
	DB	011H
	DB	067H
	DB	011H
	DB	067H
	DB	011H
	DB	047H
	DB	011H
	DB	047H
	DB	011H
	DB	046H
	DB	09H
	DB	046H
	DB	09H
	DB	046H
	DB	09H
	DB	046H
	DB	09H
	DB	046H
	DB	09H
	DB	026H
	DB	09H
	DB	026H
	DB	09H
	DB	026H
	DB	09H
	DB	026H
	DB	09H
	DB	06H
	DB	09H
	DB	05H
	DB	09H
	DB	05H
	DB	09H
	DB	05H
	DB	09H
	DB	05H
	DB	09H
	DB	05H
	DB	09H
	DB	05H
	DB	09H
	DB	05H
	DB	09H
	DB	0e5H
	DB	08H
	DB	0e5H
	DB	08H
	DB	0e4H
	DB	08H
	DB	0e4H
	DB	08H
	DB	0e4H
	DB	08H
	DB	0e4H
	DB	08H
	DB	0c4H
	DB	08H
	DB	0c4H
	DB	08H
	DB	0c4H
	DB	08H
	DB	0c4H
	DB	08H
	DB	0c4H
	DB	08H
	DB	0c4H
	DB	08H
	DB	0c3H
	DB	08H
	DB	0a3H
	DB	08H
	DB	0a3H
	DB	08H
	DB	0a3H
	DB	08H
	DB	0a3H
	DB	08H
	DB	0a3H
	DB	08H
	DB	0a3H
	DB	08H
	DB	0a3H
	DB	08H
	DB	0a3H
	DB	08H
	DB	0a3H
	DB	08H
	DB	0a3H
	DB	08H
	DB	0a3H
	DB	08H
	DB	055H
	DB	014H
	DB	055H
	DB	014H
	DB	0fH
	DB	013H
	DB	0a9H
	DB	011H
	DB	0a9H
	DB	011H
	DB	0a9H
	DB	011H
	DB	0a8H
	DB	011H
	DB	0a8H
	DB	011H
	DB	0a8H
	DB	011H
	DB	0a8H
	DB	011H
	DB	088H
	DB	011H
	DB	088H
	DB	011H
	DB	088H
	DB	011H
	DB	088H
	DB	011H
	DB	088H
	DB	011H
	DB	068H
	DB	011H
	DB	087H
	DB	011H
	DB	067H
	DB	011H
	DB	067H
	DB	011H
	DB	067H
	DB	011H
	DB	067H
	DB	011H
	DB	067H
	DB	011H
	DB	067H
	DB	011H
	DB	047H
	DB	011H
	DB	047H
	DB	09H
	DB	047H
	DB	011H
	DB	046H
	DB	011H
	DB	046H
	DB	09H
	DB	046H
	DB	09H
	DB	046H
	DB	09H
	DB	026H
	DB	09H
	DB	026H
	DB	09H
	DB	026H
	DB	09H
	DB	026H
	DB	09H
	DB	026H
	DB	09H
	DB	026H
	DB	09H
	DB	025H
	DB	09H
	DB	05H
	DB	09H
	DB	05H
	DB	09H
	DB	05H
	DB	09H
	DB	05H
	DB	09H
	DB	05H
	DB	09H
	DB	05H
	DB	09H
	DB	0e5H
	DB	08H
	DB	0e5H
	DB	08H
	DB	0e4H
	DB	08H
	DB	0e4H
	DB	08H
	DB	0e4H
	DB	08H
	DB	0e4H
	DB	08H
	DB	0e4H
	DB	08H
	DB	0c4H
	DB	08H
	DB	0c4H
	DB	08H
	DB	0c4H
	DB	08H
	DB	0c4H
	DB	08H
	DB	0c4H
	DB	08H
	DB	0c3H
	DB	08H
	DB	0a3H
	DB	08H
	DB	0a3H
	DB	08H
	DB	0a3H
	DB	08H
	DB	0a3H
	DB	00H
	DB	0a3H
	DB	08H
	DB	0a3H
	DB	08H
	DB	0a3H
	DB	08H
	DB	0a3H
	DB	08H
	DB	0a3H
	DB	08H
	DB	0a3H
	DB	08H
	DB	0a3H
	DB	08H
	DB	055H
	DB	014H
	DB	055H
	DB	014H
	DB	0fH
	DB	013H
	DB	0a9H
	DB	011H
	DB	0a9H
	DB	011H
	DB	0a9H
	DB	011H
	DB	0a9H
	DB	011H
	DB	0a8H
	DB	011H
	DB	0a8H
	DB	011H
	DB	0a8H
	DB	011H
	DB	088H
	DB	011H
	DB	088H
	DB	011H
	DB	088H
	DB	011H
	DB	088H
	DB	011H
	DB	088H
	DB	011H
	DB	087H
	DB	011H
	DB	068H
	DB	011H
	DB	067H
	DB	011H
	DB	067H
	DB	011H
	DB	067H
	DB	011H
	DB	067H
	DB	011H
	DB	067H
	DB	011H
	DB	067H
	DB	011H
	DB	047H
	DB	011H
	DB	047H
	DB	011H
	DB	046H
	DB	011H
	DB	046H
	DB	011H
	DB	046H
	DB	09H
	DB	046H
	DB	09H
	DB	026H
	DB	09H
	DB	026H
	DB	09H
	DB	026H
	DB	09H
	DB	026H
	DB	09H
	DB	026H
	DB	09H
	DB	026H
	DB	09H
	DB	06H
	DB	09H
	DB	05H
	DB	09H
	DB	05H
	DB	09H
	DB	05H
	DB	09H
	DB	05H
	DB	09H
	DB	05H
	DB	09H
	DB	05H
	DB	09H
	DB	05H
	DB	09H
	DB	0e5H
	DB	08H
	DB	0e5H
	DB	08H
	DB	0e5H
	DB	08H
	DB	0e4H
	DB	08H
	DB	0e4H
	DB	08H
	DB	0e4H
	DB	08H
	DB	0c4H
	DB	08H
	DB	0c4H
	DB	08H
	DB	0c4H
	DB	08H
	DB	0c4H
	DB	08H
	DB	0c4H
	DB	08H
	DB	0c4H
	DB	08H
	DB	0c3H
	DB	08H
	DB	0a3H
	DB	08H
	DB	0a3H
	DB	08H
	DB	0a3H
	DB	08H
	DB	0a3H
	DB	08H
	DB	0a3H
	DB	08H
	DB	0a3H
	DB	08H
	DB	0a3H
	DB	08H
	DB	0a3H
	DB	08H
	DB	0a3H
	DB	08H
	DB	0a3H
	DB	08H
	DB	0a3H
	DB	08H
	DB	055H
	DB	014H
	DB	055H
	DB	014H
	DB	0fH
	DB	013H
	DB	0a9H
	DB	011H
	DB	0a9H
	DB	011H
	DB	0a9H
	DB	011H
	DB	0a8H
	DB	011H
	DB	0a8H
	DB	011H
	DB	0a8H
	DB	011H
	DB	088H
	DB	011H
	DB	088H
	DB	011H
	DB	088H
	DB	011H
	DB	088H
	DB	011H
	DB	088H
	DB	011H
	DB	088H
	DB	011H
	DB	088H
	DB	011H
	DB	068H
	DB	011H
	DB	067H
	DB	011H
	DB	067H
	DB	011H
	DB	067H
	DB	011H
	DB	067H
	DB	011H
	DB	067H
	DB	011H
	DB	067H
	DB	011H
	DB	047H
	DB	011H
	DB	047H
	DB	011H
	DB	046H
	DB	09H
	DB	046H
	DB	09H
	DB	046H
	DB	09H
	DB	046H
	DB	09H
	DB	026H
	DB	011H
	DB	046H
	DB	09H
	DB	026H
	DB	09H
	DB	026H
	DB	09H
	DB	026H
	DB	09H
	DB	026H
	DB	09H
	DB	025H
	DB	09H
	DB	025H
	DB	09H
	DB	05H
	DB	09H
	DB	05H
	DB	09H
	DB	05H
	DB	09H
	DB	05H
	DB	09H
	DB	05H
	DB	09H
	DB	05H
	DB	09H
	DB	0e5H
	DB	08H
	DB	0e4H
	DB	08H
	DB	0e4H
	DB	08H
	DB	0e4H
	DB	08H
	DB	0e4H
	DB	08H
	DB	0e4H
	DB	08H
	DB	0c4H
	DB	08H
	DB	0c4H
	DB	08H
	DB	0c4H
	DB	08H
	DB	0c4H
	DB	08H
	DB	0c4H
	DB	08H
	DB	0c4H
	DB	08H
	DB	0c3H
	DB	08H
	DB	0c3H
	DB	08H
	DB	0a3H
	DB	08H
	DB	0a3H
	DB	08H
	DB	0a3H
	DB	08H
	DB	0a3H
	DB	08H
	DB	0a3H
	DB	08H
	DB	0a3H
	DB	08H
	DB	0a3H
	DB	08H
	DB	0a3H
	DB	08H
	DB	0a3H
	DB	08H
	DB	0a3H
	DB	08H
	DB	055H
	DB	014H
	DB	055H
	DB	014H
	DB	0fH
	DB	013H
	DB	0c9H
	DB	011H
	DB	0a9H
	DB	011H
	DB	0a9H
	DB	011H
	DB	0a9H
	DB	011H
	DB	0a8H
	DB	011H
	DB	0a8H
	DB	011H
	DB	0a8H
	DB	011H
	DB	088H
	DB	011H
	DB	088H
	DB	011H
	DB	088H
	DB	011H
	DB	088H
	DB	011H
	DB	088H
	DB	011H
	DB	088H
	DB	011H
	DB	088H
	DB	011H
	DB	067H
	DB	011H
	DB	067H
	DB	011H
	DB	067H
	DB	011H
	DB	067H
	DB	011H
	DB	067H
	DB	011H
	DB	047H
	DB	011H
	DB	047H
	DB	011H
	DB	047H
	DB	011H
	DB	047H
	DB	09H
	DB	046H
	DB	011H
	DB	046H
	DB	09H
	DB	046H
	DB	09H
	DB	046H
	DB	09H
	DB	026H
	DB	09H
	DB	026H
	DB	09H
	DB	026H
	DB	09H
	DB	026H
	DB	09H
	DB	026H
	DB	09H
	DB	026H
	DB	09H
	DB	05H
	DB	09H
	DB	05H
	DB	09H
	DB	05H
	DB	09H
	DB	05H
	DB	09H
	DB	05H
	DB	09H
	DB	05H
	DB	09H
	DB	0e5H
	DB	08H
	DB	05H
	DB	09H
	DB	0e5H
	DB	08H
	DB	0e5H
	DB	08H
	DB	0e4H
	DB	08H
	DB	0e4H
	DB	08H
	DB	0e4H
	DB	08H
	DB	0c4H
	DB	08H
	DB	0e4H
	DB	08H
	DB	0c4H
	DB	08H
	DB	0c4H
	DB	08H
	DB	0c4H
	DB	08H
	DB	0c4H
	DB	08H
	DB	0c3H
	DB	08H
	DB	0a3H
	DB	08H
	DB	0a3H
	DB	08H
	DB	0a3H
	DB	08H
	DB	0a3H
	DB	08H
	DB	0a3H
	DB	08H
	DB	0a3H
	DB	08H
	DB	0a3H
	DB	08H
	DB	0a3H
	DB	08H
	DB	0a3H
	DB	08H
	DB	0a3H
	DB	08H
	DB	0a3H
	DB	08H
	DB	055H
	DB	014H
	DB	055H
	DB	014H
	DB	0fH
	DB	013H
	DB	0a9H
	DB	011H
	DB	0a9H
	DB	011H
	DB	0a9H
	DB	011H
	DB	0a9H
	DB	011H
	DB	0a8H
	DB	011H
	DB	0a8H
	DB	011H
	DB	0a8H
	DB	011H
	DB	088H
	DB	011H
	DB	088H
	DB	011H
	DB	088H
	DB	011H
	DB	088H
	DB	011H
	DB	088H
	DB	011H
	DB	088H
	DB	011H
	DB	067H
	DB	011H
	DB	067H
	DB	011H
	DB	067H
	DB	011H
	DB	067H
	DB	011H
	DB	067H
	DB	011H
	DB	067H
	DB	011H
	DB	067H
	DB	011H
	DB	067H
	DB	011H
	DB	047H
	DB	011H
	DB	047H
	DB	011H
	DB	047H
	DB	09H
	DB	046H
	DB	09H
	DB	046H
	DB	09H
	DB	046H
	DB	09H
	DB	026H
	DB	09H
	DB	026H
	DB	09H
	DB	026H
	DB	09H
	DB	026H
	DB	09H
	DB	026H
	DB	09H
	DB	026H
	DB	09H
	DB	025H
	DB	09H
	DB	05H
	DB	09H
	DB	05H
	DB	09H
	DB	05H
	DB	09H
	DB	05H
	DB	09H
	DB	05H
	DB	09H
	DB	05H
	DB	09H
	DB	0e5H
	DB	08H
	DB	0e5H
	DB	08H
	DB	0e4H
	DB	08H
	DB	0e4H
	DB	08H
	DB	0e4H
	DB	08H
	DB	0e4H
	DB	08H
	DB	0e4H
	DB	08H
	DB	0c4H
	DB	08H
	DB	0c4H
	DB	08H
	DB	0c4H
	DB	08H
	DB	0c4H
	DB	08H
	DB	0c4H
	DB	08H
	DB	0c3H
	DB	08H
	DB	0c3H
	DB	08H
	DB	0a3H
	DB	08H
	DB	0a3H
	DB	08H
	DB	0a3H
	DB	08H
	DB	0a3H
	DB	08H
	DB	0a3H
	DB	08H
	DB	0a3H
	DB	08H
	DB	0a3H
	DB	08H
	DB	0a3H
	DB	08H
	DB	0a3H
	DB	08H
	DB	0a3H
	DB	08H
	DB	055H
	DB	014H
	DB	055H
	DB	014H
	DB	0fH
	DB	013H
	DB	0c9H
	DB	011H
	DB	0a9H
	DB	011H
	DB	0a9H
	DB	011H
	DB	0a8H
	DB	011H
	DB	0a8H
	DB	011H
	DB	0a8H
	DB	011H
	DB	0a8H
	DB	011H
	DB	088H
	DB	011H
	DB	088H
	DB	011H
	DB	088H
	DB	011H
	DB	088H
	DB	011H
	DB	088H
	DB	011H
	DB	088H
	DB	011H
	DB	087H
	DB	011H
	DB	067H
	DB	011H
	DB	067H
	DB	011H
	DB	067H
	DB	011H
	DB	067H
	DB	011H
	DB	067H
	DB	011H
	DB	067H
	DB	011H
	DB	067H
	DB	011H
	DB	047H
	DB	011H
	DB	047H
	DB	09H
	DB	046H
	DB	011H
	DB	046H
	DB	09H
	DB	046H
	DB	09H
	DB	046H
	DB	09H
	DB	026H
	DB	09H
	DB	026H
	DB	09H
	DB	026H
	DB	09H
	DB	026H
	DB	09H
	DB	026H
	DB	09H
	DB	026H
	DB	09H
	DB	025H
	DB	09H
	DB	05H
	DB	09H
	DB	05H
	DB	09H
	DB	05H
	DB	09H
	DB	05H
	DB	09H
	DB	05H
	DB	09H
	DB	05H
	DB	09H
	DB	0e5H
	DB	08H
	DB	0e5H
	DB	08H
	DB	0e4H
	DB	08H
	DB	0e4H
	DB	08H
	DB	0e4H
	DB	08H
	DB	0e4H
	DB	08H
	DB	0e4H
	DB	08H
	DB	0e4H
	DB	08H
	DB	0c4H
	DB	08H
	DB	0c4H
	DB	08H
	DB	0c4H
	DB	08H
	DB	0c4H
	DB	08H
	DB	0c3H
	DB	08H
	DB	0c3H
	DB	08H
	DB	0a3H
	DB	08H
	DB	0a3H
	DB	08H
	DB	0a3H
	DB	08H
	DB	0a3H
	DB	08H
	DB	0a3H
	DB	08H
	DB	0a3H
	DB	08H
	DB	0a3H
	DB	08H
	DB	0a3H
	DB	08H
	DB	0a3H
	DB	08H
	DB	0a3H
	DB	08H
	DB	055H
	DB	014H
	DB	055H
	DB	014H
	DB	0fH
	DB	013H
	DB	0c9H
	DB	011H
	DB	0a9H
	DB	011H
	DB	0a9H
	DB	011H
	DB	0a8H
	DB	011H
	DB	0a8H
	DB	011H
	DB	0a8H
	DB	011H
	DB	0a8H
	DB	011H
	DB	088H
	DB	011H
	DB	088H
	DB	011H
	DB	088H
	DB	011H
	DB	088H
	DB	011H
	DB	088H
	DB	011H
	DB	088H
	DB	011H
	DB	088H
	DB	011H
	DB	067H
	DB	011H
	DB	067H
	DB	011H
	DB	067H
	DB	011H
	DB	067H
	DB	011H
	DB	067H
	DB	011H
	DB	067H
	DB	011H
	DB	067H
	DB	011H
	DB	047H
	DB	011H
	DB	047H
	DB	011H
	DB	046H
	DB	09H
	DB	046H
	DB	011H
	DB	046H
	DB	09H
	DB	026H
	DB	011H
	DB	046H
	DB	09H
	DB	026H
	DB	09H
	DB	026H
	DB	09H
	DB	026H
	DB	09H
	DB	026H
	DB	09H
	DB	026H
	DB	09H
	DB	05H
	DB	09H
	DB	05H
	DB	09H
	DB	05H
	DB	09H
	DB	05H
	DB	09H
	DB	05H
	DB	09H
	DB	05H
	DB	09H
	DB	05H
	DB	09H
	DB	0e5H
	DB	08H
	DB	05H
	DB	09H
	DB	0e4H
	DB	08H
	DB	0e4H
	DB	08H
	DB	0e4H
	DB	08H
	DB	0e4H
	DB	08H
	DB	0e4H
	DB	08H
	DB	0e4H
	DB	08H
	DB	0c4H
	DB	08H
	DB	0c4H
	DB	08H
	DB	0c4H
	DB	08H
	DB	0c3H
	DB	08H
	DB	0c3H
	DB	08H
	DB	0a3H
	DB	08H
	DB	0a3H
	DB	08H
	DB	0a3H
	DB	08H
	DB	0a3H
	DB	08H
	DB	0a3H
	DB	08H
	DB	0a3H
	DB	08H
	DB	0a3H
	DB	08H
	DB	0a3H
	DB	08H
	DB	0a3H
	DB	08H
	DB	0a3H
	DB	08H
	DB	0a3H
	DB	08H
	DB	055H
	DB	014H
	DB	055H
	DB	014H
	DB	0fH
	DB	013H
	DB	0c9H
	DB	011H
	DB	0a9H
	DB	011H
	DB	0a9H
	DB	011H
	DB	0a8H
	DB	011H
	DB	0a8H
	DB	011H
	DB	0a8H
	DB	011H
	DB	0a8H
	DB	011H
	DB	088H
	DB	011H
	DB	088H
	DB	011H
	DB	088H
	DB	011H
	DB	088H
	DB	011H
	DB	088H
	DB	011H
	DB	088H
	DB	011H
	DB	068H
	DB	011H
	DB	067H
	DB	011H
	DB	067H
	DB	011H
	DB	067H
	DB	011H
	DB	067H
	DB	011H
	DB	067H
	DB	011H
	DB	067H
	DB	011H
	DB	047H
	DB	011H
	DB	047H
	DB	011H
	DB	046H
	DB	011H
	DB	047H
	DB	011H
	DB	046H
	DB	09H
	DB	046H
	DB	09H
	DB	046H
	DB	09H
	DB	026H
	DB	09H
	DB	026H
	DB	09H
	DB	026H
	DB	09H
	DB	026H
	DB	09H
	DB	026H
	DB	09H
	DB	026H
	DB	09H
	DB	025H
	DB	09H
	DB	05H
	DB	09H
	DB	05H
	DB	09H
	DB	05H
	DB	09H
	DB	05H
	DB	09H
	DB	05H
	DB	09H
	DB	05H
	DB	09H
	DB	0e5H
	DB	08H
	DB	0e5H
	DB	08H
	DB	0e5H
	DB	08H
	DB	0e4H
	DB	08H
	DB	0e4H
	DB	08H
	DB	0e4H
	DB	08H
	DB	0e4H
	DB	08H
	DB	0c4H
	DB	08H
	DB	0c4H
	DB	08H
	DB	0c4H
	DB	08H
	DB	0c4H
	DB	08H
	DB	0c3H
	DB	08H
	DB	0c3H
	DB	08H
	DB	0c3H
	DB	08H
	DB	0a3H
	DB	08H
	DB	0a3H
	DB	08H
	DB	0a3H
	DB	08H
	DB	0a3H
	DB	08H
	DB	0a3H
	DB	08H
	DB	0a3H
	DB	08H
	DB	0a3H
	DB	08H
	DB	0a3H
	DB	08H
	DB	0a3H
	DB	08H
	DB	0a3H
	DB	08H
	DB	055H
	DB	014H
	DB	055H
	DB	014H
	DB	0fH
	DB	013H
	DB	0c9H
	DB	011H
	DB	0a9H
	DB	011H
	DB	0a9H
	DB	011H
	DB	0a8H
	DB	011H
	DB	0a8H
	DB	011H
	DB	0a8H
	DB	011H
	DB	0a8H
	DB	011H
	DB	0a8H
	DB	011H
	DB	088H
	DB	011H
	DB	088H
	DB	011H
	DB	088H
	DB	011H
	DB	088H
	DB	011H
	DB	088H
	DB	011H
	DB	088H
	DB	011H
	DB	067H
	DB	011H
	DB	067H
	DB	011H
	DB	067H
	DB	011H
	DB	067H
	DB	011H
	DB	067H
	DB	011H
	DB	067H
	DB	011H
	DB	067H
	DB	011H
	DB	047H
	DB	011H
	DB	047H
	DB	011H
	DB	047H
	DB	011H
	DB	046H
	DB	011H
	DB	046H
	DB	09H
	DB	046H
	DB	09H
	DB	026H
	DB	09H
	DB	026H
	DB	09H
	DB	026H
	DB	09H
	DB	026H
	DB	09H
	DB	026H
	DB	09H
	DB	026H
	DB	09H
	DB	06H
	DB	09H
	DB	025H
	DB	09H
	DB	05H
	DB	09H
	DB	05H
	DB	09H
	DB	05H
	DB	09H
	DB	05H
	DB	09H
	DB	05H
	DB	09H
	DB	0e5H
	DB	08H
	DB	0e5H
	DB	08H
	DB	0e4H
	DB	08H
	DB	0e4H
	DB	08H
	DB	0e4H
	DB	08H
	DB	0e4H
	DB	08H
	DB	0e4H
	DB	08H
	DB	0c4H
	DB	08H
	DB	0c4H
	DB	08H
	DB	0c4H
	DB	08H
	DB	0c4H
	DB	08H
	DB	0c4H
	DB	08H
	DB	0c3H
	DB	08H
	DB	0c3H
	DB	08H
	DB	0a3H
	DB	08H
	DB	0a3H
	DB	08H
	DB	0a3H
	DB	08H
	DB	0a3H
	DB	00H
	DB	0a3H
	DB	08H
	DB	0a3H
	DB	08H
	DB	0a3H
	DB	08H
	DB	0a3H
	DB	08H
	DB	0a3H
	DB	08H
	DB	0a3H
	DB	08H
	DB	055H
	DB	014H
	DB	055H
	DB	014H
	DB	0fH
	DB	013H
	DB	0c9H
	DB	011H
	DB	0a9H
	DB	011H
	DB	0a9H
	DB	011H
	DB	0a8H
	DB	011H
	DB	0a8H
	DB	011H
	DB	0a8H
	DB	011H
	DB	0a8H
	DB	011H
	DB	088H
	DB	011H
	DB	088H
	DB	011H
	DB	088H
	DB	011H
	DB	088H
	DB	011H
	DB	088H
	DB	011H
	DB	088H
	DB	011H
	DB	087H
	DB	011H
	DB	067H
	DB	011H
	DB	067H
	DB	011H
	DB	067H
	DB	011H
	DB	067H
	DB	011H
	DB	067H
	DB	011H
	DB	067H
	DB	011H
	DB	067H
	DB	011H
	DB	067H
	DB	011H
	DB	047H
	DB	011H
	DB	046H
	DB	09H
	DB	046H
	DB	09H
	DB	046H
	DB	09H
	DB	046H
	DB	09H
	DB	026H
	DB	09H
	DB	026H
	DB	09H
	DB	026H
	DB	09H
	DB	026H
	DB	09H
	DB	026H
	DB	09H
	DB	06H
	DB	09H
	DB	05H
	DB	09H
	DB	05H
	DB	09H
	DB	05H
	DB	09H
	DB	05H
	DB	09H
	DB	05H
	DB	09H
	DB	05H
	DB	09H
	DB	05H
	DB	09H
	DB	0e5H
	DB	08H
	DB	0e5H
	DB	08H
	DB	0e5H
	DB	08H
	DB	0e4H
	DB	08H
	DB	0e4H
	DB	08H
	DB	0e4H
	DB	08H
	DB	0e4H
	DB	08H
	DB	0c4H
	DB	08H
	DB	0c4H
	DB	08H
	DB	0c4H
	DB	08H
	DB	0c4H
	DB	08H
	DB	0c3H
	DB	08H
	DB	0c4H
	DB	08H
	DB	0c3H
	DB	08H
	DB	0a3H
	DB	08H
	DB	0a3H
	DB	08H
	DB	0a3H
	DB	08H
	DB	0a3H
	DB	08H
	DB	0a3H
	DB	08H
	DB	0a3H
	DB	08H
	DB	0a3H
	DB	08H
	DB	0a3H
	DB	08H
	DB	0a3H
	DB	08H
	DB	0a3H
	DB	08H
	DB	055H
	DB	014H
	DB	055H
	DB	014H
	DB	0fH
	DB	013H
	DB	0a9H
	DB	011H
	DB	0c9H
	DB	011H
	DB	0a9H
	DB	011H
	DB	0a9H
	DB	011H
	DB	0a8H
	DB	011H
	DB	0a8H
	DB	011H
	DB	0a8H
	DB	011H
	DB	088H
	DB	011H
	DB	088H
	DB	011H
	DB	088H
	DB	011H
	DB	088H
	DB	011H
	DB	088H
	DB	011H
	DB	088H
	DB	011H
	DB	088H
	DB	011H
	DB	067H
	DB	011H
	DB	067H
	DB	011H
	DB	067H
	DB	011H
	DB	067H
	DB	011H
	DB	067H
	DB	011H
	DB	067H
	DB	011H
	DB	067H
	DB	011H
	DB	067H
	DB	09H
	DB	047H
	DB	011H
	DB	047H
	DB	011H
	DB	046H
	DB	09H
	DB	046H
	DB	09H
	DB	046H
	DB	09H
	DB	026H
	DB	09H
	DB	026H
	DB	09H
	DB	026H
	DB	09H
	DB	026H
	DB	09H
	DB	026H
	DB	09H
	DB	025H
	DB	09H
	DB	05H
	DB	09H
	DB	05H
	DB	09H
	DB	05H
	DB	09H
	DB	05H
	DB	09H
	DB	05H
	DB	09H
	DB	05H
	DB	09H
	DB	05H
	DB	09H
	DB	05H
	DB	09H
	DB	0e5H
	DB	08H
	DB	0e5H
	DB	08H
	DB	0e4H
	DB	08H
	DB	0e4H
	DB	08H
	DB	0c4H
	DB	08H
	DB	0e4H
	DB	08H
	DB	0e4H
	DB	08H
	DB	0c4H
	DB	08H
	DB	0c4H
	DB	08H
	DB	0c4H
	DB	08H
	DB	0c4H
	DB	08H
	DB	0c3H
	DB	08H
	DB	0a3H
	DB	08H
	DB	0c3H
	DB	08H
	DB	0a3H
	DB	08H
	DB	0a3H
	DB	08H
	DB	0a3H
	DB	08H
	DB	0a3H
	DB	08H
	DB	0a3H
	DB	08H
	DB	0a3H
	DB	08H
	DB	0a3H
	DB	08H
	DB	0a3H
	DB	08H
	DB	0a3H
	DB	08H
	DB	055H
	DB	014H
	DB	055H
	DB	014H
	DB	0fH
	DB	013H
	DB	0c9H
	DB	011H
	DB	0a9H
	DB	011H
	DB	0a9H
	DB	011H
	DB	0a9H
	DB	011H
	DB	0a8H
	DB	011H
	DB	0a8H
	DB	011H
	DB	0a8H
	DB	011H
	DB	0a8H
	DB	011H
	DB	088H
	DB	011H
	DB	088H
	DB	011H
	DB	088H
	DB	011H
	DB	088H
	DB	011H
	DB	088H
	DB	011H
	DB	087H
	DB	011H
	DB	067H
	DB	011H
	DB	067H
	DB	011H
	DB	067H
	DB	011H
	DB	067H
	DB	011H
	DB	067H
	DB	011H
	DB	067H
	DB	011H
	DB	067H
	DB	011H
	DB	047H
	DB	011H
	DB	047H
	DB	011H
	DB	046H
	DB	09H
	DB	046H
	DB	09H
	DB	046H
	DB	09H
	DB	046H
	DB	09H
	DB	046H
	DB	09H
	DB	026H
	DB	09H
	DB	026H
	DB	09H
	DB	026H
	DB	09H
	DB	026H
	DB	09H
	DB	025H
	DB	09H
	DB	05H
	DB	09H
	DB	05H
	DB	09H
	DB	05H
	DB	09H
	DB	05H
	DB	09H
	DB	05H
	DB	09H
	DB	05H
	DB	09H
	DB	0e5H
	DB	08H
	DB	05H
	DB	09H
	DB	0e5H
	DB	08H
	DB	0e5H
	DB	08H
	DB	0e4H
	DB	08H
	DB	0e4H
	DB	08H
	DB	0e4H
	DB	08H
	DB	0e4H
	DB	08H
	DB	0e4H
	DB	08H
	DB	0c4H
	DB	08H
	DB	0c4H
	DB	08H
	DB	0c4H
	DB	08H
	DB	0c4H
	DB	08H
	DB	0c4H
	DB	08H
	DB	0c3H
	DB	08H
	DB	0a3H
	DB	08H
	DB	0a3H
	DB	08H
	DB	0a3H
	DB	08H
	DB	0a3H
	DB	08H
	DB	0a3H
	DB	08H
	DB	0a3H
	DB	08H
	DB	0a3H
	DB	08H
	DB	0a3H
	DB	08H
	DB	0a3H
	DB	08H
	DB	0a3H
	DB	08H
	DB	055H
	DB	014H
	DB	055H
	DB	014H
	DB	0fH
	DB	013H
	DB	0c9H
	DB	011H
	DB	0a9H
	DB	011H
	DB	0a9H
	DB	011H
	DB	0a8H
	DB	011H
	DB	0a8H
	DB	011H
	DB	0a8H
	DB	011H
	DB	0a8H
	DB	011H
	DB	0a8H
	DB	011H
	DB	088H
	DB	011H
	DB	088H
	DB	011H
	DB	088H
	DB	011H
	DB	088H
	DB	011H
	DB	088H
	DB	011H
	DB	087H
	DB	011H
	DB	067H
	DB	011H
	DB	067H
	DB	011H
	DB	067H
	DB	011H
	DB	067H
	DB	011H
	DB	067H
	DB	011H
	DB	067H
	DB	011H
	DB	047H
	DB	011H
	DB	047H
	DB	09H
	DB	047H
	DB	011H
	DB	046H
	DB	09H
	DB	046H
	DB	09H
	DB	046H
	DB	09H
	DB	026H
	DB	09H
	DB	046H
	DB	09H
	DB	026H
	DB	09H
	DB	026H
	DB	09H
	DB	026H
	DB	09H
	DB	026H
	DB	09H
	DB	026H
	DB	09H
	DB	025H
	DB	09H
	DB	025H
	DB	09H
	DB	05H
	DB	09H
	DB	05H
	DB	09H
	DB	05H
	DB	09H
	DB	05H
	DB	09H
	DB	05H
	DB	09H
	DB	05H
	DB	09H
	DB	0e5H
	DB	08H
	DB	0e5H
	DB	08H
	DB	0e4H
	DB	08H
	DB	0e4H
	DB	08H
	DB	0e4H
	DB	08H
	DB	0e4H
	DB	08H
	DB	0e4H
	DB	08H
	DB	0c4H
	DB	08H
	DB	0c4H
	DB	08H
	DB	0c4H
	DB	08H
	DB	0c4H
	DB	08H
	DB	0c3H
	DB	08H
	DB	0a3H
	DB	08H
	DB	0a3H
	DB	08H
	DB	0a3H
	DB	08H
	DB	0a3H
	DB	08H
	DB	0a3H
	DB	08H
	DB	0a3H
	DB	08H
	DB	0a3H
	DB	08H
	DB	0a3H
	DB	08H
	DB	0a3H
	DB	08H
	DB	0a3H
	DB	08H
	DB	0a3H
	DB	08H
	DB	055H
	DB	014H
	DB	055H
	DB	014H
	DB	0fH
	DB	013H
	DB	0a9H
	DB	011H
	DB	0a9H
	DB	011H
	DB	0a9H
	DB	011H
	DB	0a8H
	DB	011H
	DB	0a8H
	DB	011H
	DB	0a8H
	DB	011H
	DB	0a8H
	DB	011H
	DB	088H
	DB	011H
	DB	088H
	DB	011H
	DB	088H
	DB	011H
	DB	088H
	DB	011H
	DB	088H
	DB	011H
	DB	088H
	DB	011H
	DB	088H
	DB	011H
	DB	087H
	DB	011H
	DB	067H
	DB	011H
	DB	067H
	DB	011H
	DB	067H
	DB	011H
	DB	067H
	DB	011H
	DB	067H
	DB	011H
	DB	067H
	DB	011H
	DB	047H
	DB	011H
	DB	047H
	DB	011H
	DB	046H
	DB	09H
	DB	046H
	DB	011H
	DB	046H
	DB	09H
	DB	046H
	DB	09H
	DB	046H
	DB	09H
	DB	026H
	DB	09H
	DB	026H
	DB	09H
	DB	026H
	DB	09H
	DB	026H
	DB	09H
	DB	026H
	DB	09H
	DB	05H
	DB	09H
	DB	05H
	DB	09H
	DB	05H
	DB	09H
	DB	05H
	DB	09H
	DB	05H
	DB	09H
	DB	05H
	DB	09H
	DB	05H
	DB	09H
	DB	0e5H
	DB	08H
	DB	0e5H
	DB	08H
	DB	0e5H
	DB	08H
	DB	0e4H
	DB	08H
	DB	0e4H
	DB	08H
	DB	0e4H
	DB	08H
	DB	0e4H
	DB	08H
	DB	0e4H
	DB	08H
	DB	0c4H
	DB	08H
	DB	0c4H
	DB	08H
	DB	0c4H
	DB	08H
	DB	0c4H
	DB	08H
	DB	0c4H
	DB	08H
	DB	0a3H
	DB	08H
	DB	0a3H
	DB	08H
	DB	0a3H
	DB	08H
	DB	0a3H
	DB	08H
	DB	0a3H
	DB	08H
	DB	0a3H
	DB	08H
	DB	0a3H
	DB	08H
	DB	0a3H
	DB	08H
	DB	0a3H
	DB	08H
	DB	0a3H
	DB	08H
	DB	0a3H
	DB	08H
	DB	055H
	DB	014H
	DB	055H
	DB	014H
	DB	0fH
	DB	013H
	DB	0c9H
	DB	011H
	DB	0a9H
	DB	011H
	DB	0a9H
	DB	011H
	DB	0a9H
	DB	011H
	DB	0a8H
	DB	011H
	DB	0a8H
	DB	011H
	DB	0a8H
	DB	011H
	DB	0a8H
	DB	011H
	DB	088H
	DB	011H
	DB	088H
	DB	011H
	DB	088H
	DB	011H
	DB	088H
	DB	011H
	DB	088H
	DB	011H
	DB	088H
	DB	011H
	DB	067H
	DB	011H
	DB	067H
	DB	011H
	DB	067H
	DB	011H
	DB	067H
	DB	011H
	DB	067H
	DB	011H
	DB	067H
	DB	011H
	DB	047H
	DB	011H
	DB	047H
	DB	011H
	DB	047H
	DB	011H
	DB	046H
	DB	011H
	DB	046H
	DB	011H
	DB	046H
	DB	09H
	DB	046H
	DB	09H
	DB	046H
	DB	09H
	DB	026H
	DB	09H
	DB	026H
	DB	09H
	DB	026H
	DB	09H
	DB	026H
	DB	09H
	DB	026H
	DB	09H
	DB	025H
	DB	09H
	DB	05H
	DB	09H
	DB	05H
	DB	09H
	DB	05H
	DB	09H
	DB	05H
	DB	09H
	DB	05H
	DB	09H
	DB	05H
	DB	09H
	DB	0e5H
	DB	08H
	DB	0e5H
	DB	08H
	DB	0e5H
	DB	08H
	DB	0e4H
	DB	08H
	DB	0e4H
	DB	08H
	DB	0e4H
	DB	08H
	DB	0e4H
	DB	08H
	DB	0c4H
	DB	08H
	DB	0c4H
	DB	08H
	DB	0c4H
	DB	08H
	DB	0c4H
	DB	08H
	DB	0c4H
	DB	08H
	DB	0c3H
	DB	08H
	DB	0c3H
	DB	08H
	DB	0a3H
	DB	08H
	DB	0a3H
	DB	08H
	DB	0a3H
	DB	08H
	DB	0a3H
	DB	08H
	DB	0a3H
	DB	08H
	DB	0a3H
	DB	08H
	DB	0a3H
	DB	08H
	DB	0a3H
	DB	08H
	DB	0a3H
	DB	08H
	DB	0a3H
	DB	08H
	DB	055H
	DB	014H
	DB	055H
	DB	014H
	DB	0fH
	DB	013H
	DB	0c9H
	DB	011H
	DB	0a9H
	DB	011H
	DB	0a9H
	DB	011H
	DB	0a9H
	DB	011H
	DB	0a8H
	DB	011H
	DB	0a8H
	DB	011H
	DB	0a8H
	DB	011H
	DB	088H
	DB	011H
	DB	088H
	DB	011H
	DB	088H
	DB	011H
	DB	088H
	DB	011H
	DB	088H
	DB	011H
	DB	088H
	DB	011H
	DB	087H
	DB	011H
	DB	087H
	DB	011H
	DB	067H
	DB	011H
	DB	067H
	DB	011H
	DB	067H
	DB	011H
	DB	067H
	DB	011H
	DB	067H
	DB	011H
	DB	067H
	DB	09H
	DB	047H
	DB	09H
	DB	047H
	DB	09H
	DB	047H
	DB	09H
	DB	046H
	DB	09H
	DB	046H
	DB	09H
	DB	046H
	DB	09H
	DB	026H
	DB	09H
	DB	026H
	DB	09H
	DB	026H
	DB	09H
	DB	026H
	DB	09H
	DB	026H
	DB	09H
	DB	025H
	DB	09H
	DB	025H
	DB	09H
	DB	05H
	DB	09H
	DB	05H
	DB	09H
	DB	05H
	DB	09H
	DB	05H
	DB	09H
	DB	05H
	DB	09H
	DB	05H
	DB	09H
	DB	0e5H
	DB	08H
	DB	0e5H
	DB	08H
	DB	0e5H
	DB	08H
	DB	0e4H
	DB	08H
	DB	0e4H
	DB	08H
	DB	0e4H
	DB	08H
	DB	0e4H
	DB	08H
	DB	0c4H
	DB	08H
	DB	0c4H
	DB	08H
	DB	0c4H
	DB	08H
	DB	0c4H
	DB	08H
	DB	0c4H
	DB	08H
	DB	0c4H
	DB	08H
	DB	0c3H
	DB	08H
	DB	0a3H
	DB	08H
	DB	0a3H
	DB	08H
	DB	0a3H
	DB	08H
	DB	0a3H
	DB	08H
	DB	0a3H
	DB	08H
	DB	0a3H
	DB	08H
	DB	0a3H
	DB	08H
	DB	0a3H
	DB	08H
	DB	0a3H
	DB	08H
	DB	0a3H
	DB	08H
	DB	055H
	DB	014H
	DB	055H
	DB	014H
	DB	0fH
	DB	013H
	DB	0a9H
	DB	011H
	DB	0a9H
	DB	011H
	DB	0a9H
	DB	011H
	DB	0a9H
	DB	011H
	DB	0a8H
	DB	011H
	DB	0a8H
	DB	011H
	DB	0a8H
	DB	011H
	DB	088H
	DB	011H
	DB	088H
	DB	011H
	DB	088H
	DB	011H
	DB	088H
	DB	011H
	DB	088H
	DB	011H
	DB	088H
	DB	011H
	DB	088H
	DB	011H
	DB	067H
	DB	011H
	DB	067H
	DB	011H
	DB	067H
	DB	011H
	DB	067H
	DB	011H
	DB	067H
	DB	011H
	DB	067H
	DB	011H
	DB	047H
	DB	011H
	DB	047H
	DB	011H
	DB	047H
	DB	09H
	DB	047H
	DB	09H
	DB	046H
	DB	09H
	DB	046H
	DB	011H
	DB	046H
	DB	09H
	DB	046H
	DB	09H
	DB	026H
	DB	09H
	DB	026H
	DB	09H
	DB	026H
	DB	09H
	DB	026H
	DB	09H
	DB	026H
	DB	09H
	DB	025H
	DB	09H
	DB	05H
	DB	09H
	DB	05H
	DB	09H
	DB	05H
	DB	09H
	DB	05H
	DB	09H
	DB	05H
	DB	09H
	DB	05H
	DB	09H
	DB	05H
	DB	09H
	DB	0e5H
	DB	08H
	DB	0e5H
	DB	08H
	DB	0e4H
	DB	08H
	DB	0e4H
	DB	08H
	DB	0e4H
	DB	08H
	DB	0c4H
	DB	08H
	DB	0c4H
	DB	08H
	DB	0c4H
	DB	08H
	DB	0c4H
	DB	08H
	DB	0c4H
	DB	08H
	DB	0c4H
	DB	08H
	DB	0c3H
	DB	08H
	DB	0c3H
	DB	08H
	DB	0a3H
	DB	08H
	DB	0a3H
	DB	08H
	DB	0a3H
	DB	08H
	DB	0a3H
	DB	08H
	DB	0a3H
	DB	08H
	DB	0a3H
	DB	08H
	DB	0a3H
	DB	08H
	DB	0a3H
	DB	08H
	DB	0a3H
	DB	08H
	DB	0a3H
	DB	08H
	DB	055H
	DB	014H
	DB	055H
	DB	014H
	DB	0fH
	DB	013H
	DB	0c9H
	DB	011H
	DB	0a9H
	DB	011H
	DB	0a9H
	DB	011H
	DB	0a9H
	DB	011H
	DB	0a8H
	DB	011H
	DB	0a8H
	DB	011H
	DB	0a8H
	DB	011H
	DB	088H
	DB	011H
	DB	088H
	DB	011H
	DB	088H
	DB	011H
	DB	088H
	DB	011H
	DB	088H
	DB	011H
	DB	088H
	DB	011H
	DB	087H
	DB	011H
	DB	067H
	DB	011H
	DB	067H
	DB	011H
	DB	067H
	DB	011H
	DB	067H
	DB	011H
	DB	067H
	DB	011H
	DB	067H
	DB	011H
	DB	047H
	DB	011H
	DB	047H
	DB	011H
	DB	047H
	DB	011H
	DB	046H
	DB	011H
	DB	046H
	DB	011H
	DB	046H
	DB	09H
	DB	046H
	DB	09H
	DB	026H
	DB	09H
	DB	026H
	DB	09H
	DB	026H
	DB	09H
	DB	026H
	DB	09H
	DB	026H
	DB	09H
	DB	026H
	DB	09H
	DB	025H
	DB	09H
	DB	05H
	DB	09H
	DB	05H
	DB	09H
	DB	05H
	DB	09H
	DB	05H
	DB	09H
	DB	05H
	DB	09H
	DB	0e5H
	DB	08H
	DB	0e5H
	DB	08H
	DB	0e5H
	DB	08H
	DB	0e5H
	DB	08H
	DB	0e4H
	DB	08H
	DB	0e4H
	DB	08H
	DB	0e4H
	DB	08H
	DB	0e4H
	DB	08H
	DB	0c4H
	DB	08H
	DB	0c4H
	DB	08H
	DB	0c4H
	DB	08H
	DB	0c4H
	DB	08H
	DB	0c4H
	DB	08H
	DB	0a4H
	DB	08H
	DB	0c3H
	DB	08H
	DB	0a3H
	DB	08H
	DB	0a3H
	DB	08H
	DB	0a3H
	DB	08H
	DB	0a3H
	DB	08H
	DB	0a3H
	DB	08H
	DB	0a3H
	DB	08H
	DB	0a3H
	DB	08H
	DB	0a3H
	DB	08H
	DB	0a3H
	DB	08H
	DB	0a3H
	DB	08H
	DB	055H
	DB	014H
	DB	055H
	DB	014H
	DB	0fH
	DB	013H
	DB	0c9H
	DB	011H
	DB	0a9H
	DB	011H
	DB	0a9H
	DB	011H
	DB	0a8H
	DB	011H
	DB	0a9H
	DB	011H
	DB	0a8H
	DB	011H
	DB	0a8H
	DB	011H
	DB	088H
	DB	011H
	DB	088H
	DB	011H
	DB	088H
	DB	011H
	DB	088H
	DB	011H
	DB	088H
	DB	011H
	DB	088H
	DB	011H
	DB	088H
	DB	011H
	DB	087H
	DB	011H
	DB	067H
	DB	011H
	DB	067H
	DB	011H
	DB	067H
	DB	011H
	DB	067H
	DB	011H
	DB	067H
	DB	011H
	DB	067H
	DB	011H
	DB	047H
	DB	011H
	DB	047H
	DB	011H
	DB	047H
	DB	09H
	DB	046H
	DB	011H
	DB	046H
	DB	011H
	DB	046H
	DB	011H
	DB	026H
	DB	09H
	DB	026H
	DB	09H
	DB	026H
	DB	09H
	DB	026H
	DB	09H
	DB	026H
	DB	09H
	DB	026H
	DB	09H
	DB	05H
	DB	09H
	DB	05H
	DB	09H
	DB	05H
	DB	09H
	DB	05H
	DB	09H
	DB	05H
	DB	09H
	DB	05H
	DB	09H
	DB	05H
	DB	09H
	DB	05H
	DB	09H
	DB	0e5H
	DB	08H
	DB	0e5H
	DB	08H
	DB	0e4H
	DB	08H
	DB	0e4H
	DB	08H
	DB	0e4H
	DB	08H
	DB	0e4H
	DB	08H
	DB	0c4H
	DB	08H
	DB	0c4H
	DB	08H
	DB	0c4H
	DB	08H
	DB	0c4H
	DB	08H
	DB	0c4H
	DB	08H
	DB	0c4H
	DB	08H
	DB	0a3H
	DB	08H
	DB	0c3H
	DB	08H
	DB	0a3H
	DB	08H
	DB	0a3H
	DB	08H
	DB	0a3H
	DB	08H
	DB	0a3H
	DB	08H
	DB	0a3H
	DB	08H
	DB	0a3H
	DB	08H
	DB	0a3H
	DB	08H
	DB	0a3H
	DB	08H
	DB	0a3H
	DB	08H
	DB	055H
	DB	014H
	DB	055H
	DB	014H
	DB	0fH
	DB	013H
	DB	0c9H
	DB	011H
	DB	0c9H
	DB	011H
	DB	0a9H
	DB	011H
	DB	0a8H
	DB	011H
	DB	0a9H
	DB	011H
	DB	0a8H
	DB	011H
	DB	0a8H
	DB	011H
	DB	088H
	DB	011H
	DB	0a8H
	DB	011H
	DB	088H
	DB	011H
	DB	088H
	DB	011H
	DB	088H
	DB	011H
	DB	088H
	DB	011H
	DB	088H
	DB	011H
	DB	067H
	DB	011H
	DB	067H
	DB	011H
	DB	067H
	DB	011H
	DB	067H
	DB	011H
	DB	067H
	DB	011H
	DB	067H
	DB	011H
	DB	047H
	DB	011H
	DB	047H
	DB	011H
	DB	047H
	DB	011H
	DB	046H
	DB	09H
	DB	046H
	DB	011H
	DB	046H
	DB	09H
	DB	046H
	DB	09H
	DB	026H
	DB	09H
	DB	026H
	DB	09H
	DB	026H
	DB	09H
	DB	026H
	DB	09H
	DB	026H
	DB	09H
	DB	026H
	DB	09H
	DB	025H
	DB	09H
	DB	05H
	DB	09H
	DB	05H
	DB	09H
	DB	05H
	DB	09H
	DB	05H
	DB	09H
	DB	05H
	DB	09H
	DB	05H
	DB	09H
	DB	0e5H
	DB	08H
	DB	0e5H
	DB	08H
	DB	0e5H
	DB	08H
	DB	0e4H
	DB	08H
	DB	0e4H
	DB	08H
	DB	0e4H
	DB	08H
	DB	0e4H
	DB	08H
	DB	0c4H
	DB	08H
	DB	0c4H
	DB	08H
	DB	0c4H
	DB	08H
	DB	0c4H
	DB	08H
	DB	0c4H
	DB	08H
	DB	0c4H
	DB	08H
	DB	0c3H
	DB	08H
	DB	0c3H
	DB	08H
	DB	0a3H
	DB	08H
	DB	0a3H
	DB	08H
	DB	0a3H
	DB	08H
	DB	0a3H
	DB	08H
	DB	0a3H
	DB	08H
	DB	0a3H
	DB	08H
	DB	0a3H
	DB	08H
	DB	0a3H
	DB	08H
	DB	0a3H
	DB	08H
	DB	055H
	DB	014H
	DB	055H
	DB	014H
	DB	0fH
	DB	013H
	DB	0c9H
	DB	011H
	DB	0c9H
	DB	011H
	DB	0a9H
	DB	011H
	DB	0a9H
	DB	011H
	DB	0a9H
	DB	011H
	DB	0a8H
	DB	011H
	DB	0a8H
	DB	011H
	DB	0a8H
	DB	011H
	DB	088H
	DB	011H
	DB	088H
	DB	011H
	DB	088H
	DB	011H
	DB	088H
	DB	011H
	DB	088H
	DB	011H
	DB	087H
	DB	011H
	DB	087H
	DB	011H
	DB	067H
	DB	011H
	DB	067H
	DB	011H
	DB	067H
	DB	011H
	DB	067H
	DB	011H
	DB	067H
	DB	011H
	DB	067H
	DB	011H
	DB	047H
	DB	011H
	DB	047H
	DB	011H
	DB	046H
	DB	09H
	DB	046H
	DB	011H
	DB	046H
	DB	09H
	DB	046H
	DB	09H
	DB	046H
	DB	09H
	DB	026H
	DB	09H
	DB	026H
	DB	09H
	DB	026H
	DB	09H
	DB	026H
	DB	09H
	DB	025H
	DB	09H
	DB	025H
	DB	09H
	DB	025H
	DB	09H
	DB	05H
	DB	09H
	DB	05H
	DB	09H
	DB	05H
	DB	09H
	DB	05H
	DB	09H
	DB	05H
	DB	09H
	DB	05H
	DB	09H
	DB	0e5H
	DB	08H
	DB	0e5H
	DB	08H
	DB	0e4H
	DB	08H
	DB	0e4H
	DB	08H
	DB	0e4H
	DB	08H
	DB	0e4H
	DB	08H
	DB	0c4H
	DB	08H
	DB	0c4H
	DB	08H
	DB	0c4H
	DB	08H
	DB	0c4H
	DB	08H
	DB	0c4H
	DB	08H
	DB	0c3H
	DB	08H
	DB	0c3H
	DB	08H
	DB	0a3H
	DB	08H
	DB	0a3H
	DB	08H
	DB	0a3H
	DB	08H
	DB	0a3H
	DB	08H
	DB	0a3H
	DB	08H
	DB	0a3H
	DB	08H
	DB	0a3H
	DB	08H
	DB	0a3H
	DB	08H
	DB	0a3H
	DB	08H
	DB	0a3H
	DB	08H
	DB	055H
	DB	014H
	DB	055H
	DB	014H
	DB	0fH
	DB	013H
	DB	0c9H
	DB	011H
	DB	0a9H
	DB	011H
	DB	0a9H
	DB	011H
	DB	0a9H
	DB	011H
	DB	0a8H
	DB	011H
	DB	0a8H
	DB	011H
	DB	0a8H
	DB	011H
	DB	088H
	DB	011H
	DB	088H
	DB	011H
	DB	088H
	DB	011H
	DB	088H
	DB	011H
	DB	088H
	DB	011H
	DB	088H
	DB	011H
	DB	087H
	DB	011H
	DB	067H
	DB	011H
	DB	067H
	DB	011H
	DB	067H
	DB	011H
	DB	067H
	DB	011H
	DB	067H
	DB	011H
	DB	067H
	DB	011H
	DB	067H
	DB	011H
	DB	047H
	DB	011H
	DB	047H
	DB	011H
	DB	047H
	DB	09H
	DB	046H
	DB	011H
	DB	046H
	DB	011H
	DB	046H
	DB	09H
	DB	046H
	DB	09H
	DB	026H
	DB	09H
	DB	026H
	DB	09H
	DB	026H
	DB	09H
	DB	026H
	DB	09H
	DB	026H
	DB	09H
	DB	025H
	DB	09H
	DB	05H
	DB	09H
	DB	05H
	DB	09H
	DB	05H
	DB	09H
	DB	05H
	DB	09H
	DB	05H
	DB	09H
	DB	05H
	DB	09H
	DB	0e5H
	DB	08H
	DB	0e5H
	DB	08H
	DB	0e5H
	DB	08H
	DB	0e4H
	DB	08H
	DB	0e4H
	DB	08H
	DB	0e4H
	DB	08H
	DB	0e4H
	DB	08H
	DB	0c4H
	DB	08H
	DB	0c4H
	DB	08H
	DB	0c4H
	DB	08H
	DB	0c4H
	DB	08H
	DB	0c4H
	DB	08H
	DB	0c3H
	DB	08H
	DB	0c3H
	DB	08H
	DB	0a3H
	DB	08H
	DB	0a3H
	DB	08H
	DB	0a3H
	DB	08H
	DB	0a3H
	DB	08H
	DB	0a3H
	DB	08H
	DB	0a3H
	DB	08H
	DB	0a3H
	DB	08H
	DB	0a3H
	DB	08H
	DB	0a3H
	DB	08H
	DB	0a3H
	DB	08H
	DB	055H
	DB	014H
	DB	055H
	DB	014H
	DB	0fH
	DB	013H
	DB	0c9H
	DB	011H
	DB	0a9H
	DB	011H
	DB	0a9H
	DB	011H
	DB	0a9H
	DB	011H
	DB	0a8H
	DB	011H
	DB	0a8H
	DB	011H
	DB	0a8H
	DB	011H
	DB	088H
	DB	011H
	DB	0a8H
	DB	011H
	DB	088H
	DB	011H
	DB	088H
	DB	011H
	DB	088H
	DB	011H
	DB	088H
	DB	011H
	DB	088H
	DB	011H
	DB	067H
	DB	011H
	DB	067H
	DB	011H
	DB	067H
	DB	011H
	DB	067H
	DB	011H
	DB	067H
	DB	011H
	DB	067H
	DB	011H
	DB	067H
	DB	011H
	DB	067H
	DB	011H
	DB	047H
	DB	09H
	DB	047H
	DB	09H
	DB	047H
	DB	09H
	DB	046H
	DB	011H
	DB	046H
	DB	09H
	DB	026H
	DB	09H
	DB	026H
	DB	09H
	DB	026H
	DB	09H
	DB	026H
	DB	09H
	DB	026H
	DB	09H
	DB	026H
	DB	09H
	DB	025H
	DB	09H
	DB	025H
	DB	09H
	DB	05H
	DB	09H
	DB	05H
	DB	09H
	DB	05H
	DB	09H
	DB	05H
	DB	09H
	DB	05H
	DB	09H
	DB	05H
	DB	09H
	DB	0e5H
	DB	08H
	DB	0e5H
	DB	08H
	DB	0e4H
	DB	08H
	DB	0e4H
	DB	08H
	DB	0e4H
	DB	08H
	DB	0e4H
	DB	08H
	DB	0c4H
	DB	08H
	DB	0c4H
	DB	08H
	DB	0c4H
	DB	08H
	DB	0c4H
	DB	08H
	DB	0c4H
	DB	08H
	DB	0c4H
	DB	08H
	DB	0c3H
	DB	08H
	DB	0a3H
	DB	08H
	DB	0a3H
	DB	08H
	DB	0a3H
	DB	08H
	DB	0a3H
	DB	08H
	DB	0a3H
	DB	08H
	DB	0a3H
	DB	08H
	DB	0a3H
	DB	08H
	DB	0a3H
	DB	08H
	DB	0a3H
	DB	08H
	DB	0a3H
	DB	08H
	DB	055H
	DB	014H
	DB	055H
	DB	014H
	DB	0fH
	DB	013H
	DB	0c9H
	DB	011H
	DB	0a9H
	DB	011H
	DB	0a9H
	DB	011H
	DB	0a9H
	DB	011H
	DB	0a8H
	DB	011H
	DB	0a8H
	DB	011H
	DB	0a8H
	DB	011H
	DB	088H
	DB	011H
	DB	0a8H
	DB	011H
	DB	088H
	DB	011H
	DB	088H
	DB	011H
	DB	088H
	DB	011H
	DB	088H
	DB	011H
	DB	087H
	DB	011H
	DB	067H
	DB	011H
	DB	067H
	DB	011H
	DB	067H
	DB	011H
	DB	067H
	DB	011H
	DB	067H
	DB	011H
	DB	067H
	DB	011H
	DB	067H
	DB	011H
	DB	047H
	DB	011H
	DB	047H
	DB	011H
	DB	047H
	DB	011H
	DB	046H
	DB	09H
	DB	046H
	DB	09H
	DB	046H
	DB	09H
	DB	046H
	DB	09H
	DB	026H
	DB	09H
	DB	026H
	DB	09H
	DB	026H
	DB	09H
	DB	026H
	DB	09H
	DB	026H
	DB	09H
	DB	025H
	DB	09H
	DB	05H
	DB	09H
	DB	05H
	DB	09H
	DB	05H
	DB	09H
	DB	05H
	DB	09H
	DB	05H
	DB	09H
	DB	05H
	DB	09H
	DB	05H
	DB	09H
	DB	05H
	DB	09H
	DB	0e5H
	DB	08H
	DB	0e4H
	DB	08H
	DB	0e4H
	DB	08H
	DB	0e4H
	DB	08H
	DB	0c4H
	DB	08H
	DB	0c4H
	DB	08H
	DB	0c4H
	DB	08H
	DB	0c4H
	DB	08H
	DB	0c4H
	DB	08H
	DB	0c4H
	DB	08H
	DB	0c3H
	DB	08H
	DB	0c3H
	DB	08H
	DB	0a3H
	DB	08H
	DB	0a3H
	DB	08H
	DB	0a3H
	DB	08H
	DB	0a3H
	DB	08H
	DB	0a3H
	DB	08H
	DB	0a3H
	DB	08H
	DB	0a3H
	DB	08H
	DB	0a3H
	DB	08H
	DB	0a3H
	DB	08H
	DB	0a3H
	DB	08H
	DB	055H
	DB	014H
	DB	055H
	DB	014H
	DB	0fH
	DB	013H
	DB	0c9H
	DB	011H
	DB	0c9H
	DB	011H
	DB	0a9H
	DB	011H
	DB	0a9H
	DB	011H
	DB	0a8H
	DB	011H
	DB	0a8H
	DB	011H
	DB	0a8H
	DB	011H
	DB	0a8H
	DB	011H
	DB	088H
	DB	011H
	DB	088H
	DB	011H
	DB	088H
	DB	011H
	DB	088H
	DB	011H
	DB	088H
	DB	011H
	DB	088H
	DB	011H
	DB	068H
	DB	011H
	DB	067H
	DB	011H
	DB	067H
	DB	011H
	DB	067H
	DB	011H
	DB	067H
	DB	011H
	DB	067H
	DB	011H
	DB	067H
	DB	011H
	DB	067H
	DB	011H
	DB	047H
	DB	011H
	DB	046H
	DB	09H
	DB	046H
	DB	011H
	DB	046H
	DB	09H
	DB	046H
	DB	09H
	DB	026H
	DB	011H
	DB	026H
	DB	09H
	DB	026H
	DB	09H
	DB	026H
	DB	09H
	DB	026H
	DB	09H
	DB	026H
	DB	09H
	DB	025H
	DB	09H
	DB	025H
	DB	09H
	DB	05H
	DB	09H
	DB	05H
	DB	09H
	DB	05H
	DB	09H
	DB	05H
	DB	09H
	DB	05H
	DB	09H
	DB	0e5H
	DB	08H
	DB	0e5H
	DB	08H
	DB	0e5H
	DB	08H
	DB	0e4H
	DB	08H
	DB	0e4H
	DB	08H
	DB	0e4H
	DB	08H
	DB	0e4H
	DB	08H
	DB	0c4H
	DB	08H
	DB	0c4H
	DB	08H
	DB	0c4H
	DB	08H
	DB	0c4H
	DB	08H
	DB	0c4H
	DB	08H
	DB	0c4H
	DB	08H
	DB	0c3H
	DB	08H
	DB	0a3H
	DB	08H
	DB	0a3H
	DB	08H
	DB	0a3H
	DB	08H
	DB	0a3H
	DB	08H
	DB	0a3H
	DB	08H
	DB	0a3H
	DB	08H
	DB	0a3H
	DB	08H
	DB	0a3H
	DB	08H
	DB	0a3H
	DB	08H
	DB	0a3H
	DB	08H
	DB	055H
	DB	014H
	DB	055H
	DB	014H
	DB	0fH
	DB	013H
	DB	0c9H
	DB	011H
	DB	0c9H
	DB	011H
	DB	0a9H
	DB	011H
	DB	0a9H
	DB	011H
	DB	0a8H
	DB	011H
	DB	0a8H
	DB	011H
	DB	0a8H
	DB	011H
	DB	088H
	DB	011H
	DB	0a8H
	DB	011H
	DB	088H
	DB	011H
	DB	088H
	DB	011H
	DB	088H
	DB	011H
	DB	088H
	DB	011H
	DB	087H
	DB	011H
	DB	067H
	DB	011H
	DB	067H
	DB	011H
	DB	067H
	DB	011H
	DB	067H
	DB	011H
	DB	067H
	DB	011H
	DB	067H
	DB	011H
	DB	067H
	DB	011H
	DB	067H
	DB	011H
	DB	047H
	DB	011H
	DB	047H
	DB	011H
	DB	046H
	DB	09H
	DB	046H
	DB	09H
	DB	046H
	DB	09H
	DB	026H
	DB	09H
	DB	026H
	DB	09H
	DB	026H
	DB	09H
	DB	026H
	DB	09H
	DB	026H
	DB	09H
	DB	026H
	DB	09H
	DB	026H
	DB	09H
	DB	05H
	DB	09H
	DB	05H
	DB	09H
	DB	05H
	DB	09H
	DB	05H
	DB	09H
	DB	05H
	DB	09H
	DB	05H
	DB	09H
	DB	05H
	DB	09H
	DB	0e5H
	DB	08H
	DB	0e5H
	DB	08H
	DB	0e4H
	DB	08H
	DB	0e4H
	DB	08H
	DB	0e4H
	DB	08H
	DB	0e4H
	DB	08H
	DB	0e4H
	DB	08H
	DB	0c4H
	DB	08H
	DB	0c4H
	DB	08H
	DB	0c4H
	DB	08H
	DB	0c4H
	DB	08H
	DB	0c3H
	DB	08H
	DB	0c3H
	DB	08H
	DB	0a3H
	DB	08H
	DB	0a3H
	DB	08H
	DB	0a3H
	DB	08H
	DB	0a3H
	DB	08H
	DB	0a3H
	DB	08H
	DB	0a3H
	DB	08H
	DB	0a3H
	DB	08H
	DB	0a3H
	DB	08H
	DB	0a3H
	DB	08H
	DB	0a3H
	DB	08H
	DB	055H
	DB	014H
	DB	055H
	DB	014H
	DB	0fH
	DB	013H
	DB	0c9H
	DB	011H
	DB	0c9H
	DB	011H
	DB	0a9H
	DB	011H
	DB	0a9H
	DB	011H
	DB	0a9H
	DB	011H
	DB	0a8H
	DB	011H
	DB	0a8H
	DB	011H
	DB	0a8H
	DB	011H
	DB	088H
	DB	011H
	DB	088H
	DB	011H
	DB	088H
	DB	011H
	DB	088H
	DB	011H
	DB	088H
	DB	011H
	DB	088H
	DB	011H
	DB	087H
	DB	011H
	DB	067H
	DB	011H
	DB	067H
	DB	011H
	DB	067H
	DB	011H
	DB	067H
	DB	011H
	DB	067H
	DB	011H
	DB	067H
	DB	011H
	DB	067H
	DB	011H
	DB	047H
	DB	011H
	DB	046H
	DB	011H
	DB	046H
	DB	09H
	DB	046H
	DB	09H
	DB	046H
	DB	09H
	DB	046H
	DB	09H
	DB	026H
	DB	09H
	DB	026H
	DB	09H
	DB	026H
	DB	09H
	DB	026H
	DB	09H
	DB	026H
	DB	09H
	DB	026H
	DB	09H
	DB	025H
	DB	09H
	DB	05H
	DB	09H
	DB	05H
	DB	09H
	DB	05H
	DB	09H
	DB	05H
	DB	09H
	DB	05H
	DB	09H
	DB	05H
	DB	09H
	DB	0e5H
	DB	08H
	DB	0e5H
	DB	08H
	DB	0e5H
	DB	08H
	DB	0e4H
	DB	08H
	DB	0e4H
	DB	08H
	DB	0e4H
	DB	08H
	DB	0e4H
	DB	08H
	DB	0c4H
	DB	08H
	DB	0c4H
	DB	08H
	DB	0c4H
	DB	08H
	DB	0c4H
	DB	08H
	DB	0c4H
	DB	08H
	DB	0c3H
	DB	08H
	DB	0c3H
	DB	08H
	DB	0a3H
	DB	08H
	DB	0a3H
	DB	08H
	DB	0a3H
	DB	08H
	DB	0a3H
	DB	08H
	DB	0a3H
	DB	08H
	DB	0a3H
	DB	08H
	DB	0a3H
	DB	08H
	DB	0a3H
	DB	08H
	DB	0a3H
	DB	08H
	DB	055H
	DB	014H
	DB	055H
	DB	014H
	DB	0fH
	DB	013H
	DB	0c9H
	DB	011H
	DB	0a9H
	DB	011H
	DB	0a9H
	DB	011H
	DB	0a9H
	DB	011H
	DB	0a9H
	DB	011H
	DB	0a8H
	DB	011H
	DB	0a8H
	DB	011H
	DB	0a8H
	DB	011H
	DB	088H
	DB	011H
	DB	088H
	DB	011H
	DB	088H
	DB	011H
	DB	088H
	DB	011H
	DB	088H
	DB	011H
	DB	088H
	DB	011H
	DB	067H
	DB	011H
	DB	067H
	DB	011H
	DB	067H
	DB	011H
	DB	067H
	DB	011H
	DB	067H
	DB	011H
	DB	067H
	DB	011H
	DB	067H
	DB	011H
	DB	047H
	DB	011H
	DB	047H
	DB	011H
	DB	047H
	DB	09H
	DB	046H
	DB	09H
	DB	046H
	DB	09H
	DB	026H
	DB	011H
	DB	046H
	DB	09H
	DB	026H
	DB	09H
	DB	026H
	DB	09H
	DB	026H
	DB	09H
	DB	026H
	DB	09H
	DB	026H
	DB	09H
	DB	025H
	DB	09H
	DB	05H
	DB	09H
	DB	05H
	DB	09H
	DB	05H
	DB	09H
	DB	05H
	DB	09H
	DB	05H
	DB	09H
	DB	05H
	DB	09H
	DB	05H
	DB	09H
	DB	0e5H
	DB	08H
	DB	0e5H
	DB	08H
	DB	0e4H
	DB	08H
	DB	0e4H
	DB	08H
	DB	0e4H
	DB	08H
	DB	0e4H
	DB	08H
	DB	0c4H
	DB	08H
	DB	0c4H
	DB	08H
	DB	0c4H
	DB	08H
	DB	0c4H
	DB	08H
	DB	0c4H
	DB	08H
	DB	0c4H
	DB	08H
	DB	0c3H
	DB	08H
	DB	0a3H
	DB	08H
	DB	0a3H
	DB	08H
	DB	0a3H
	DB	08H
	DB	0a3H
	DB	08H
	DB	0a3H
	DB	08H
	DB	0a3H
	DB	08H
	DB	0a3H
	DB	08H
	DB	0a3H
	DB	08H
	DB	0a3H
	DB	08H
	DB	0a3H
	DB	08H
	DB	055H
	DB	014H
	DB	055H
	DB	014H
	DB	0fH
	DB	013H
	DB	0c9H
	DB	011H
	DB	0a9H
	DB	011H
	DB	0a9H
	DB	011H
	DB	0a9H
	DB	011H
	DB	0a8H
	DB	011H
	DB	0a8H
	DB	011H
	DB	0a8H
	DB	011H
	DB	0a8H
	DB	011H
	DB	0a8H
	DB	011H
	DB	088H
	DB	011H
	DB	088H
	DB	011H
	DB	088H
	DB	011H
	DB	088H
	DB	011H
	DB	088H
	DB	011H
	DB	067H
	DB	011H
	DB	067H
	DB	011H
	DB	067H
	DB	011H
	DB	067H
	DB	011H
	DB	067H
	DB	011H
	DB	067H
	DB	011H
	DB	067H
	DB	011H
	DB	047H
	DB	011H
	DB	047H
	DB	011H
	DB	047H
	DB	011H
	DB	047H
	DB	011H
	DB	046H
	DB	09H
	DB	046H
	DB	09H
	DB	026H
	DB	09H
	DB	026H
	DB	09H
	DB	026H
	DB	09H
	DB	026H
	DB	09H
	DB	026H
	DB	09H
	DB	026H
	DB	09H
	DB	026H
	DB	09H
	DB	05H
	DB	09H
	DB	05H
	DB	09H
	DB	05H
	DB	09H
	DB	05H
	DB	09H
	DB	05H
	DB	09H
	DB	05H
	DB	09H
	DB	05H
	DB	09H
	DB	0e5H
	DB	08H
	DB	0e5H
	DB	08H
	DB	0e5H
	DB	08H
	DB	0e4H
	DB	08H
	DB	0e4H
	DB	08H
	DB	0e4H
	DB	08H
	DB	0e4H
	DB	08H
	DB	0c4H
	DB	08H
	DB	0c4H
	DB	08H
	DB	0c4H
	DB	08H
	DB	0c4H
	DB	08H
	DB	0c3H
	DB	08H
	DB	0c3H
	DB	08H
	DB	0c3H
	DB	08H
	DB	0a3H
	DB	08H
	DB	0a3H
	DB	08H
	DB	0a3H
	DB	08H
	DB	0a3H
	DB	08H
	DB	0a3H
	DB	08H
	DB	0a3H
	DB	08H
	DB	0a3H
	DB	08H
	DB	0a3H
	DB	08H
	DB	0a3H
	DB	08H
	DB	055H
	DB	014H
	DB	055H
	DB	014H
	DB	0fH
	DB	013H
	DB	0c9H
	DB	011H
	DB	0a9H
	DB	011H
	DB	0a9H
	DB	011H
	DB	0a9H
	DB	011H
	DB	0a8H
	DB	011H
	DB	0a8H
	DB	011H
	DB	0a8H
	DB	011H
	DB	088H
	DB	011H
	DB	088H
	DB	011H
	DB	088H
	DB	011H
	DB	088H
	DB	011H
	DB	088H
	DB	011H
	DB	088H
	DB	011H
	DB	088H
	DB	011H
	DB	067H
	DB	011H
	DB	067H
	DB	011H
	DB	067H
	DB	011H
	DB	067H
	DB	011H
	DB	067H
	DB	011H
	DB	067H
	DB	011H
	DB	067H
	DB	011H
	DB	067H
	DB	011H
	DB	047H
	DB	011H
	DB	046H
	DB	011H
	DB	046H
	DB	09H
	DB	046H
	DB	09H
	DB	046H
	DB	09H
	DB	026H
	DB	09H
	DB	026H
	DB	09H
	DB	026H
	DB	09H
	DB	026H
	DB	09H
	DB	026H
	DB	09H
	DB	026H
	DB	09H
	DB	025H
	DB	09H
	DB	05H
	DB	09H
	DB	05H
	DB	09H
	DB	05H
	DB	09H
	DB	05H
	DB	09H
	DB	05H
	DB	09H
	DB	05H
	DB	09H
	DB	05H
	DB	09H
	DB	05H
	DB	09H
	DB	0e5H
	DB	08H
	DB	0e4H
	DB	08H
	DB	0e4H
	DB	08H
	DB	0e4H
	DB	08H
	DB	0e4H
	DB	08H
	DB	0e4H
	DB	08H
	DB	0e4H
	DB	08H
	DB	0c4H
	DB	08H
	DB	0c4H
	DB	08H
	DB	0c4H
	DB	08H
	DB	0c4H
	DB	08H
	DB	0c4H
	DB	08H
	DB	0a3H
	DB	08H
	DB	0a3H
	DB	08H
	DB	0a3H
	DB	08H
	DB	0a3H
	DB	08H
	DB	0a3H
	DB	08H
	DB	0a3H
	DB	08H
	DB	0a3H
	DB	08H
	DB	0a3H
	DB	08H
	DB	0a3H
	DB	08H
	DB	0a3H
	DB	08H
	DB	055H
	DB	014H
	DB	055H
	DB	014H
	DB	0fH
	DB	013H
	DB	0a9H
	DB	011H
	DB	0a9H
	DB	011H
	DB	0a9H
	DB	011H
	DB	0a9H
	DB	011H
	DB	0a8H
	DB	011H
	DB	0a8H
	DB	011H
	DB	0a8H
	DB	011H
	DB	0a8H
	DB	011H
	DB	088H
	DB	011H
	DB	088H
	DB	011H
	DB	088H
	DB	011H
	DB	088H
	DB	011H
	DB	088H
	DB	011H
	DB	088H
	DB	011H
	DB	088H
	DB	011H
	DB	067H
	DB	011H
	DB	067H
	DB	011H
	DB	067H
	DB	011H
	DB	067H
	DB	011H
	DB	067H
	DB	011H
	DB	067H
	DB	011H
	DB	047H
	DB	011H
	DB	047H
	DB	09H
	DB	046H
	DB	011H
	DB	046H
	DB	09H
	DB	046H
	DB	09H
	DB	046H
	DB	09H
	DB	046H
	DB	09H
	DB	026H
	DB	09H
	DB	026H
	DB	09H
	DB	026H
	DB	09H
	DB	026H
	DB	09H
	DB	026H
	DB	09H
	DB	026H
	DB	09H
	DB	05H
	DB	09H
	DB	05H
	DB	09H
	DB	05H
	DB	09H
	DB	05H
	DB	09H
	DB	05H
	DB	09H
	DB	05H
	DB	09H
	DB	0e5H
	DB	08H
	DB	0e5H
	DB	08H
	DB	0e5H
	DB	08H
	DB	0e5H
	DB	08H
	DB	0e4H
	DB	08H
	DB	0e4H
	DB	08H
	DB	0c4H
	DB	08H
	DB	0e4H
	DB	08H
	DB	0c4H
	DB	08H
	DB	0c4H
	DB	08H
	DB	0c4H
	DB	08H
	DB	0c4H
	DB	08H
	DB	0c4H
	DB	08H
	DB	0c3H
	DB	08H
	DB	0c3H
	DB	08H
	DB	0a3H
	DB	08H
	DB	0a3H
	DB	08H
	DB	0a3H
	DB	08H
	DB	0a3H
	DB	08H
	DB	0a3H
	DB	08H
	DB	0a3H
	DB	08H
	DB	0a3H
	DB	08H
	DB	0a3H
	DB	08H
	DB	0a3H
	DB	08H
	DB	055H
	DB	014H
	DB	055H
	DB	014H
	DB	0fH
	DB	013H
	DB	0c9H
	DB	011H
	DB	0a9H
	DB	011H
	DB	0a9H
	DB	011H
	DB	0a9H
	DB	011H
	DB	0a9H
	DB	011H
	DB	0a8H
	DB	011H
	DB	0a8H
	DB	011H
	DB	0a8H
	DB	011H
	DB	0a8H
	DB	011H
	DB	088H
	DB	011H
	DB	088H
	DB	011H
	DB	088H
	DB	011H
	DB	088H
	DB	011H
	DB	088H
	DB	011H
	DB	087H
	DB	011H
	DB	067H
	DB	011H
	DB	067H
	DB	011H
	DB	067H
	DB	011H
	DB	067H
	DB	011H
	DB	067H
	DB	011H
	DB	067H
	DB	011H
	DB	067H
	DB	011H
	DB	047H
	DB	011H
	DB	047H
	DB	011H
	DB	046H
	DB	09H
	DB	046H
	DB	09H
	DB	046H
	DB	09H
	DB	046H
	DB	09H
	DB	046H
	DB	09H
	DB	026H
	DB	09H
	DB	026H
	DB	09H
	DB	026H
	DB	09H
	DB	026H
	DB	09H
	DB	026H
	DB	09H
	DB	025H
	DB	09H
	DB	05H
	DB	09H
	DB	05H
	DB	09H
	DB	05H
	DB	09H
	DB	05H
	DB	09H
	DB	05H
	DB	09H
	DB	0e5H
	DB	08H
	DB	0e5H
	DB	08H
	DB	0e5H
	DB	08H
	DB	0e5H
	DB	08H
	DB	0e4H
	DB	08H
	DB	0e4H
	DB	08H
	DB	0e4H
	DB	08H
	DB	0c4H
	DB	08H
	DB	0c4H
	DB	08H
	DB	0c4H
	DB	08H
	DB	0c4H
	DB	08H
	DB	0c4H
	DB	08H
	DB	0c4H
	DB	08H
	DB	0c3H
	DB	08H
	DB	0c3H
	DB	08H
	DB	0a3H
	DB	08H
	DB	0a3H
	DB	08H
	DB	0a3H
	DB	08H
	DB	0a3H
	DB	08H
	DB	0a3H
	DB	08H
	DB	0a3H
	DB	08H
	DB	0a3H
	DB	08H
	DB	0a3H
	DB	08H
	DB	0a3H
	DB	08H
	DB	055H
	DB	014H
	DB	055H
	DB	014H
	DB	0fH
	DB	013H
	DB	0c9H
	DB	011H
	DB	0a9H
	DB	011H
	DB	0a9H
	DB	011H
	DB	0a9H
	DB	011H
	DB	0a8H
	DB	011H
	DB	0a8H
	DB	011H
	DB	0a8H
	DB	011H
	DB	0a8H
	DB	011H
	DB	088H
	DB	011H
	DB	088H
	DB	011H
	DB	088H
	DB	011H
	DB	088H
	DB	011H
	DB	088H
	DB	011H
	DB	088H
	DB	011H
	DB	087H
	DB	011H
	DB	067H
	DB	011H
	DB	067H
	DB	011H
	DB	067H
	DB	011H
	DB	067H
	DB	011H
	DB	067H
	DB	011H
	DB	067H
	DB	011H
	DB	047H
	DB	011H
	DB	047H
	DB	011H
	DB	047H
	DB	011H
	DB	046H
	DB	011H
	DB	046H
	DB	09H
	DB	046H
	DB	09H
	DB	046H
	DB	09H
	DB	026H
	DB	09H
	DB	026H
	DB	09H
	DB	026H
	DB	09H
	DB	026H
	DB	09H
	DB	026H
	DB	09H
	DB	025H
	DB	09H
	DB	025H
	DB	09H
	DB	05H
	DB	09H
	DB	05H
	DB	09H
	DB	05H
	DB	09H
	DB	05H
	DB	09H
	DB	05H
	DB	09H
	DB	05H
	DB	09H
	DB	0e5H
	DB	08H
	DB	0e5H
	DB	08H
	DB	0e4H
	DB	08H
	DB	0e4H
	DB	08H
	DB	0e4H
	DB	08H
	DB	0e4H
	DB	08H
	DB	0c4H
	DB	08H
	DB	0c4H
	DB	08H
	DB	0c4H
	DB	08H
	DB	0c4H
	DB	08H
	DB	0c4H
	DB	08H
	DB	0c4H
	DB	08H
	DB	0c3H
	DB	08H
	DB	0c3H
	DB	08H
	DB	0a3H
	DB	08H
	DB	0a3H
	DB	08H
	DB	0a3H
	DB	08H
	DB	0a3H
	DB	00H
	DB	0a3H
	DB	08H
	DB	0a3H
	DB	08H
	DB	0a3H
	DB	08H
	DB	0a3H
	DB	08H
	DB	0a3H
	DB	08H
	DB	055H
	DB	014H
	DB	055H
	DB	014H
	DB	0fH
	DB	013H
	DB	0c9H
	DB	011H
	DB	0a9H
	DB	011H
	DB	0c9H
	DB	011H
	DB	0a9H
	DB	011H
	DB	0a8H
	DB	011H
	DB	0a8H
	DB	011H
	DB	0a8H
	DB	011H
	DB	0a8H
	DB	011H
	DB	0a8H
	DB	011H
	DB	088H
	DB	011H
	DB	088H
	DB	011H
	DB	088H
	DB	011H
	DB	088H
	DB	011H
	DB	088H
	DB	011H
	DB	087H
	DB	011H
	DB	067H
	DB	011H
	DB	067H
	DB	011H
	DB	067H
	DB	011H
	DB	067H
	DB	011H
	DB	067H
	DB	011H
	DB	067H
	DB	011H
	DB	067H
	DB	011H
	DB	047H
	DB	09H
	DB	047H
	DB	011H
	DB	046H
	DB	09H
	DB	046H
	DB	09H
	DB	046H
	DB	09H
	DB	046H
	DB	011H
	DB	026H
	DB	09H
	DB	026H
	DB	09H
	DB	026H
	DB	09H
	DB	026H
	DB	09H
	DB	026H
	DB	09H
	DB	025H
	DB	09H
	DB	05H
	DB	09H
	DB	05H
	DB	09H
	DB	05H
	DB	09H
	DB	05H
	DB	09H
	DB	05H
	DB	09H
	DB	05H
	DB	09H
	DB	05H
	DB	09H
	DB	0e5H
	DB	08H
	DB	0e5H
	DB	08H
	DB	0e5H
	DB	08H
	DB	0e4H
	DB	08H
	DB	0e4H
	DB	08H
	DB	0e4H
	DB	08H
	DB	0e4H
	DB	08H
	DB	0c4H
	DB	08H
	DB	0c4H
	DB	08H
	DB	0c4H
	DB	08H
	DB	0c4H
	DB	08H
	DB	0c4H
	DB	08H
	DB	0c3H
	DB	08H
	DB	0a3H
	DB	08H
	DB	0a3H
	DB	08H
	DB	0a3H
	DB	08H
	DB	0a3H
	DB	08H
	DB	0a3H
	DB	08H
	DB	0a3H
	DB	08H
	DB	0a3H
	DB	08H
	DB	0a3H
	DB	08H
	DB	0a3H
	DB	08H
	DB	0a3H
	DB	08H
	DB	055H
	DB	014H
	DB	055H
	DB	014H
	DB	0fH
	DB	013H
	DB	0c9H
	DB	011H
	DB	0a9H
	DB	011H
	DB	0a9H
	DB	011H
	DB	0a9H
	DB	011H
	DB	0a8H
	DB	011H
	DB	0a8H
	DB	011H
	DB	0a8H
	DB	011H
	DB	0a8H
	DB	011H
	DB	088H
	DB	011H
	DB	088H
	DB	011H
	DB	088H
	DB	011H
	DB	088H
	DB	011H
	DB	088H
	DB	011H
	DB	088H
	DB	011H
	DB	087H
	DB	011H
	DB	067H
	DB	011H
	DB	067H
	DB	011H
	DB	067H
	DB	011H
	DB	067H
	DB	011H
	DB	067H
	DB	011H
	DB	047H
	DB	011H
	DB	067H
	DB	011H
	DB	047H
	DB	011H
	DB	046H
	DB	09H
	DB	046H
	DB	09H
	DB	046H
	DB	09H
	DB	046H
	DB	09H
	DB	046H
	DB	09H
	DB	026H
	DB	09H
	DB	026H
	DB	09H
	DB	026H
	DB	09H
	DB	026H
	DB	09H
	DB	026H
	DB	09H
	DB	026H
	DB	09H
	DB	05H
	DB	09H
	DB	05H
	DB	09H
	DB	05H
	DB	09H
	DB	05H
	DB	09H
	DB	05H
	DB	09H
	DB	05H
	DB	09H
	DB	05H
	DB	09H
	DB	05H
	DB	09H
	DB	0e5H
	DB	08H
	DB	0e5H
	DB	08H
	DB	0e4H
	DB	08H
	DB	0e4H
	DB	08H
	DB	0e4H
	DB	08H
	DB	0e4H
	DB	08H
	DB	0c4H
	DB	08H
	DB	0c4H
	DB	08H
	DB	0c4H
	DB	08H
	DB	0c4H
	DB	08H
	DB	0c4H
	DB	08H
	DB	0c3H
	DB	08H
	DB	0a3H
	DB	08H
	DB	0a3H
	DB	08H
	DB	0a3H
	DB	08H
	DB	0a3H
	DB	08H
	DB	0a3H
	DB	08H
	DB	0a3H
	DB	08H
	DB	0a3H
	DB	08H
	DB	0a3H
	DB	08H
	DB	0a3H
	DB	08H
	DB	0a3H
	DB	08H
	DB	055H
	DB	014H
	DB	055H
	DB	014H
	DB	0fH
	DB	013H
	DB	0c9H
	DB	011H
	DB	0a9H
	DB	011H
	DB	0a9H
	DB	011H
	DB	0a9H
	DB	011H
	DB	0a9H
	DB	011H
	DB	0a8H
	DB	011H
	DB	0a8H
	DB	011H
	DB	0a8H
	DB	011H
	DB	088H
	DB	011H
	DB	088H
	DB	011H
	DB	088H
	DB	011H
	DB	088H
	DB	011H
	DB	088H
	DB	011H
	DB	088H
	DB	011H
	DB	088H
	DB	011H
	DB	087H
	DB	011H
	DB	067H
	DB	011H
	DB	067H
	DB	011H
	DB	067H
	DB	011H
	DB	067H
	DB	011H
	DB	047H
	DB	011H
	DB	067H
	DB	011H
	DB	047H
	DB	011H
	DB	046H
	DB	011H
	DB	046H
	DB	09H
	DB	046H
	DB	011H
	DB	046H
	DB	09H
	DB	046H
	DB	09H
	DB	046H
	DB	09H
	DB	026H
	DB	09H
	DB	026H
	DB	09H
	DB	026H
	DB	09H
	DB	026H
	DB	09H
	DB	026H
	DB	09H
	DB	05H
	DB	09H
	DB	05H
	DB	09H
	DB	05H
	DB	09H
	DB	05H
	DB	09H
	DB	05H
	DB	09H
	DB	05H
	DB	09H
	DB	05H
	DB	09H
	DB	0e5H
	DB	08H
	DB	0e5H
	DB	08H
	DB	0e4H
	DB	08H
	DB	0e4H
	DB	08H
	DB	0e4H
	DB	08H
	DB	0e4H
	DB	08H
	DB	0e4H
	DB	08H
	DB	0c4H
	DB	08H
	DB	0c4H
	DB	08H
	DB	0c4H
	DB	08H
	DB	0c4H
	DB	08H
	DB	0c4H
	DB	08H
	DB	0c3H
	DB	08H
	DB	0a3H
	DB	08H
	DB	0a3H
	DB	08H
	DB	0a3H
	DB	08H
	DB	0a3H
	DB	08H
	DB	0a3H
	DB	08H
	DB	0a3H
	DB	08H
	DB	0a3H
	DB	08H
	DB	0a3H
	DB	08H
	DB	0a3H
	DB	08H
	DB	0a3H
	DB	08H
	DB	055H
	DB	014H
	DB	055H
	DB	014H
	DB	0fH
	DB	013H
	DB	0c9H
	DB	011H
	DB	0a9H
	DB	011H
	DB	0a9H
	DB	011H
	DB	0a9H
	DB	011H
	DB	0a8H
	DB	011H
	DB	0a8H
	DB	011H
	DB	0a8H
	DB	011H
	DB	0a8H
	DB	011H
	DB	0a8H
	DB	011H
	DB	088H
	DB	011H
	DB	088H
	DB	011H
	DB	088H
	DB	011H
	DB	088H
	DB	011H
	DB	087H
	DB	011H
	DB	088H
	DB	011H
	DB	067H
	DB	011H
	DB	067H
	DB	011H
	DB	067H
	DB	011H
	DB	067H
	DB	011H
	DB	067H
	DB	011H
	DB	067H
	DB	011H
	DB	047H
	DB	011H
	DB	047H
	DB	011H
	DB	047H
	DB	09H
	DB	046H
	DB	09H
	DB	046H
	DB	09H
	DB	046H
	DB	09H
	DB	026H
	DB	09H
	DB	026H
	DB	09H
	DB	026H
	DB	09H
	DB	026H
	DB	09H
	DB	026H
	DB	09H
	DB	026H
	DB	09H
	DB	025H
	DB	09H
	DB	025H
	DB	09H
	DB	05H
	DB	09H
	DB	05H
	DB	09H
	DB	05H
	DB	09H
	DB	05H
	DB	09H
	DB	05H
	DB	09H
	DB	05H
	DB	09H
	DB	05H
	DB	09H
	DB	0e5H
	DB	08H
	DB	0e5H
	DB	08H
	DB	0e4H
	DB	08H
	DB	0e4H
	DB	08H
	DB	0e4H
	DB	08H
	DB	0e4H
	DB	08H
	DB	0c4H
	DB	08H
	DB	0c4H
	DB	08H
	DB	0c4H
	DB	08H
	DB	0c4H
	DB	08H
	DB	0c4H
	DB	08H
	DB	0c3H
	DB	08H
	DB	0a3H
	DB	08H
	DB	0a3H
	DB	08H
	DB	0a3H
	DB	08H
	DB	0a3H
	DB	08H
	DB	0a3H
	DB	08H
	DB	0a3H
	DB	08H
	DB	0a3H
	DB	08H
	DB	0a3H
	DB	08H
	DB	0a3H
	DB	08H
	DB	0a3H
	DB	08H
	DB	055H
	DB	014H
	DB	055H
	DB	014H
	DB	0fH
	DB	013H
	DB	0c9H
	DB	011H
	DB	0c9H
	DB	011H
	DB	0a9H
	DB	011H
	DB	0a9H
	DB	011H
	DB	0a9H
	DB	011H
	DB	0a8H
	DB	011H
	DB	0a8H
	DB	011H
	DB	0a8H
	DB	011H
	DB	088H
	DB	011H
	DB	088H
	DB	011H
	DB	088H
	DB	011H
	DB	088H
	DB	011H
	DB	088H
	DB	011H
	DB	088H
	DB	011H
	DB	087H
	DB	011H
	DB	067H
	DB	011H
	DB	067H
	DB	011H
	DB	067H
	DB	011H
	DB	067H
	DB	011H
	DB	067H
	DB	011H
	DB	067H
	DB	011H
	DB	047H
	DB	011H
	DB	067H
	DB	09H
	DB	047H
	DB	011H
	DB	046H
	DB	09H
	DB	046H
	DB	09H
	DB	046H
	DB	09H
	DB	046H
	DB	09H
	DB	046H
	DB	09H
	DB	026H
	DB	09H
	DB	026H
	DB	09H
	DB	026H
	DB	09H
	DB	026H
	DB	09H
	DB	026H
	DB	09H
	DB	025H
	DB	09H
	DB	05H
	DB	09H
	DB	05H
	DB	09H
	DB	05H
	DB	09H
	DB	05H
	DB	09H
	DB	05H
	DB	09H
	DB	0e5H
	DB	08H
	DB	0e5H
	DB	08H
	DB	0e5H
	DB	08H
	DB	0e4H
	DB	08H
	DB	0e4H
	DB	08H
	DB	0e4H
	DB	08H
	DB	0e4H
	DB	08H
	DB	0e4H
	DB	08H
	DB	0c4H
	DB	08H
	DB	0c4H
	DB	08H
	DB	0c4H
	DB	08H
	DB	0c4H
	DB	08H
	DB	0c4H
	DB	08H
	DB	0c4H
	DB	08H
	DB	0a3H
	DB	08H
	DB	0a3H
	DB	08H
	DB	0a3H
	DB	08H
	DB	0a3H
	DB	00H
	DB	0a3H
	DB	08H
	DB	0a3H
	DB	08H
	DB	0a3H
	DB	08H
	DB	0a3H
	DB	08H
	DB	0a3H
	DB	08H
	DB	0a3H
	DB	08H
	DB	055H
	DB	014H
	DB	055H
	DB	014H
	DB	0fH
	DB	013H
	DB	0c9H
	DB	011H
	DB	0c9H
	DB	011H
	DB	0a9H
	DB	011H
	DB	0a9H
	DB	011H
	DB	0a9H
	DB	011H
	DB	0a8H
	DB	011H
	DB	0a8H
	DB	011H
	DB	0a8H
	DB	011H
	DB	088H
	DB	011H
	DB	088H
	DB	011H
	DB	088H
	DB	011H
	DB	088H
	DB	011H
	DB	088H
	DB	011H
	DB	088H
	DB	011H
	DB	088H
	DB	011H
	DB	067H
	DB	011H
	DB	067H
	DB	011H
	DB	067H
	DB	011H
	DB	067H
	DB	011H
	DB	067H
	DB	011H
	DB	067H
	DB	011H
	DB	047H
	DB	011H
	DB	047H
	DB	011H
	DB	047H
	DB	011H
	DB	046H
	DB	011H
	DB	046H
	DB	09H
	DB	046H
	DB	09H
	DB	046H
	DB	09H
	DB	026H
	DB	09H
	DB	046H
	DB	09H
	DB	026H
	DB	09H
	DB	026H
	DB	09H
	DB	026H
	DB	09H
	DB	026H
	DB	09H
	DB	05H
	DB	09H
	DB	025H
	DB	09H
	DB	05H
	DB	09H
	DB	05H
	DB	09H
	DB	05H
	DB	09H
	DB	05H
	DB	09H
	DB	05H
	DB	09H
	DB	05H
	DB	09H
	DB	0e5H
	DB	08H
	DB	0e4H
	DB	08H
	DB	0e4H
	DB	08H
	DB	0e4H
	DB	08H
	DB	0e4H
	DB	08H
	DB	0e4H
	DB	08H
	DB	0e4H
	DB	08H
	DB	0c4H
	DB	08H
	DB	0c4H
	DB	08H
	DB	0c4H
	DB	08H
	DB	0c4H
	DB	08H
	DB	0c4H
	DB	08H
	DB	0c3H
	DB	08H
	DB	0a3H
	DB	08H
	DB	0a3H
	DB	08H
	DB	0a3H
	DB	08H
	DB	0a3H
	DB	08H
	DB	0a3H
	DB	08H
	DB	0a3H
	DB	08H
	DB	0a3H
	DB	08H
	DB	0a3H
	DB	08H
	DB	0a3H
	DB	08H
	DB	055H
	DB	014H
	DB	055H
	DB	014H
	DB	0fH
	DB	013H
	DB	0c9H
	DB	011H
	DB	0c9H
	DB	011H
	DB	0a9H
	DB	011H
	DB	0a9H
	DB	011H
	DB	0a8H
	DB	011H
	DB	0a8H
	DB	011H
	DB	0a8H
	DB	011H
	DB	0a8H
	DB	011H
	DB	0a8H
	DB	011H
	DB	088H
	DB	011H
	DB	088H
	DB	011H
	DB	088H
	DB	011H
	DB	088H
	DB	011H
	DB	088H
	DB	011H
	DB	088H
	DB	011H
	DB	067H
	DB	011H
	DB	067H
	DB	011H
	DB	067H
	DB	011H
	DB	067H
	DB	011H
	DB	067H
	DB	011H
	DB	067H
	DB	011H
	DB	067H
	DB	011H
	DB	047H
	DB	011H
	DB	047H
	DB	011H
	DB	046H
	DB	011H
	DB	046H
	DB	09H
	DB	046H
	DB	09H
	DB	026H
	DB	09H
	DB	026H
	DB	09H
	DB	026H
	DB	09H
	DB	026H
	DB	09H
	DB	026H
	DB	09H
	DB	026H
	DB	09H
	DB	026H
	DB	09H
	DB	05H
	DB	09H
	DB	05H
	DB	09H
	DB	05H
	DB	09H
	DB	05H
	DB	09H
	DB	05H
	DB	09H
	DB	05H
	DB	09H
	DB	05H
	DB	09H
	DB	0e5H
	DB	08H
	DB	0e5H
	DB	08H
	DB	0e4H
	DB	08H
	DB	0e4H
	DB	08H
	DB	0e4H
	DB	08H
	DB	0e4H
	DB	08H
	DB	0e4H
	DB	08H
	DB	0c4H
	DB	08H
	DB	0c4H
	DB	08H
	DB	0c4H
	DB	08H
	DB	0c4H
	DB	08H
	DB	0c4H
	DB	08H
	DB	0c3H
	DB	08H
	DB	0a3H
	DB	08H
	DB	0c3H
	DB	08H
	DB	0a3H
	DB	08H
	DB	0a3H
	DB	00H
	DB	0a3H
	DB	08H
	DB	0a3H
	DB	08H
	DB	0a3H
	DB	08H
	DB	0a3H
	DB	08H
	DB	0a3H
	DB	08H
	DB	0a3H
	DB	08H
	DB	055H
	DB	014H
	DB	055H
	DB	014H
	DB	0fH
	DB	013H
	DB	0c9H
	DB	011H
	DB	0a9H
	DB	011H
	DB	0a9H
	DB	011H
	DB	0a9H
	DB	011H
	DB	0a8H
	DB	011H
	DB	0a8H
	DB	011H
	DB	0a8H
	DB	011H
	DB	0a8H
	DB	011H
	DB	088H
	DB	011H
	DB	088H
	DB	011H
	DB	088H
	DB	011H
	DB	088H
	DB	011H
	DB	088H
	DB	011H
	DB	088H
	DB	011H
	DB	088H
	DB	011H
	DB	067H
	DB	011H
	DB	067H
	DB	011H
	DB	067H
	DB	011H
	DB	067H
	DB	011H
	DB	067H
	DB	011H
	DB	067H
	DB	011H
	DB	047H
	DB	011H
	DB	047H
	DB	011H
	DB	047H
	DB	09H
	DB	046H
	DB	09H
	DB	046H
	DB	09H
	DB	046H
	DB	09H
	DB	046H
	DB	011H
	DB	046H
	DB	09H
	DB	026H
	DB	09H
	DB	026H
	DB	09H
	DB	026H
	DB	09H
	DB	026H
	DB	09H
	DB	026H
	DB	09H
	DB	05H
	DB	09H
	DB	05H
	DB	09H
	DB	05H
	DB	09H
	DB	05H
	DB	09H
	DB	05H
	DB	09H
	DB	05H
	DB	09H
	DB	05H
	DB	09H
	DB	0e5H
	DB	08H
	DB	0e5H
	DB	08H
	DB	0e4H
	DB	08H
	DB	0e4H
	DB	08H
	DB	0e4H
	DB	08H
	DB	0e4H
	DB	08H
	DB	0e4H
	DB	08H
	DB	0c4H
	DB	08H
	DB	0c4H
	DB	08H
	DB	0c4H
	DB	08H
	DB	0c4H
	DB	08H
	DB	0c4H
	DB	08H
	DB	0c4H
	DB	08H
	DB	0c3H
	DB	08H
	DB	0a3H
	DB	08H
	DB	0a3H
	DB	08H
	DB	0a3H
	DB	08H
	DB	0a3H
	DB	08H
	DB	0a3H
	DB	08H
	DB	0a3H
	DB	08H
	DB	0a3H
	DB	08H
	DB	0a3H
	DB	08H
	DB	0a3H
	DB	08H
	DB	055H
	DB	014H
	DB	055H
	DB	014H
	DB	0fH
	DB	013H
	DB	0c9H
	DB	011H
	DB	0c9H
	DB	011H
	DB	0a9H
	DB	011H
	DB	0a9H
	DB	011H
	DB	0a8H
	DB	011H
	DB	0a8H
	DB	011H
	DB	0a8H
	DB	011H
	DB	0a8H
	DB	011H
	DB	088H
	DB	011H
	DB	088H
	DB	011H
	DB	088H
	DB	011H
	DB	088H
	DB	011H
	DB	088H
	DB	011H
	DB	088H
	DB	011H
	DB	067H
	DB	011H
	DB	067H
	DB	011H
	DB	067H
	DB	011H
	DB	067H
	DB	011H
	DB	067H
	DB	011H
	DB	067H
	DB	011H
	DB	067H
	DB	09H
	DB	047H
	DB	011H
	DB	047H
	DB	011H
	DB	047H
	DB	011H
	DB	046H
	DB	011H
	DB	046H
	DB	09H
	DB	046H
	DB	09H
	DB	026H
	DB	09H
	DB	026H
	DB	09H
	DB	026H
	DB	09H
	DB	026H
	DB	09H
	DB	026H
	DB	09H
	DB	026H
	DB	09H
	DB	026H
	DB	09H
	DB	06H
	DB	09H
	DB	05H
	DB	09H
	DB	05H
	DB	09H
	DB	05H
	DB	09H
	DB	05H
	DB	09H
	DB	05H
	DB	09H
	DB	05H
	DB	09H
	DB	0e5H
	DB	08H
	DB	0e5H
	DB	08H
	DB	0e5H
	DB	08H
	DB	0e4H
	DB	08H
	DB	0e4H
	DB	08H
	DB	0e4H
	DB	08H
	DB	0e4H
	DB	08H
	DB	0e4H
	DB	08H
	DB	0c4H
	DB	08H
	DB	0c4H
	DB	08H
	DB	0c4H
	DB	08H
	DB	0c4H
	DB	08H
	DB	0c3H
	DB	08H
	DB	0a3H
	DB	08H
	DB	0a3H
	DB	08H
	DB	0a3H
	DB	08H
	DB	0a3H
	DB	08H
	DB	0a3H
	DB	08H
	DB	0a3H
	DB	08H
	DB	0a3H
	DB	08H
	DB	0a3H
	DB	08H
	DB	0a3H
	DB	08H
	DB	0a3H
	DB	08H
	DB	055H
	DB	014H
	DB	055H
	DB	014H
	DB	0fH
	DB	013H
	DB	0c9H
	DB	011H
	DB	0a9H
	DB	011H
	DB	0a9H
	DB	011H
	DB	0a9H
	DB	011H
	DB	0a8H
	DB	011H
	DB	0a8H
	DB	011H
	DB	0a8H
	DB	011H
	DB	0a8H
	DB	011H
	DB	088H
	DB	011H
	DB	088H
	DB	011H
	DB	088H
	DB	011H
	DB	088H
	DB	011H
	DB	088H
	DB	011H
	DB	088H
	DB	011H
	DB	088H
	DB	011H
	DB	067H
	DB	011H
	DB	067H
	DB	011H
	DB	067H
	DB	011H
	DB	067H
	DB	011H
	DB	067H
	DB	011H
	DB	067H
	DB	011H
	DB	067H
	DB	011H
	DB	047H
	DB	09H
	DB	047H
	DB	011H
	DB	046H
	DB	011H
	DB	046H
	DB	09H
	DB	046H
	DB	011H
	DB	026H
	DB	011H
	DB	046H
	DB	09H
	DB	026H
	DB	09H
	DB	026H
	DB	09H
	DB	026H
	DB	09H
	DB	026H
	DB	09H
	DB	026H
	DB	09H
	DB	05H
	DB	09H
	DB	05H
	DB	09H
	DB	05H
	DB	09H
	DB	05H
	DB	09H
	DB	05H
	DB	09H
	DB	05H
	DB	09H
	DB	05H
	DB	09H
	DB	05H
	DB	09H
	DB	0e5H
	DB	08H
	DB	0e5H
	DB	08H
	DB	0e4H
	DB	08H
	DB	0e4H
	DB	08H
	DB	0e4H
	DB	08H
	DB	0e4H
	DB	08H
	DB	0c4H
	DB	08H
	DB	0c4H
	DB	08H
	DB	0c4H
	DB	08H
	DB	0c4H
	DB	08H
	DB	0c4H
	DB	08H
	DB	0c3H
	DB	08H
	DB	0c3H
	DB	08H
	DB	0a3H
	DB	08H
	DB	0a3H
	DB	08H
	DB	0a3H
	DB	08H
	DB	0a3H
	DB	08H
	DB	0a3H
	DB	08H
	DB	0a3H
	DB	08H
	DB	0a3H
	DB	08H
	DB	0a3H
	DB	08H
	DB	0a3H
	DB	08H
	DB	055H
	DB	014H
	DB	055H
	DB	014H
	DB	0fH
	DB	013H
	DB	0c9H
	DB	011H
	DB	0c9H
	DB	011H
	DB	0a9H
	DB	011H
	DB	0a9H
	DB	011H
	DB	0a9H
	DB	011H
	DB	0a9H
	DB	011H
	DB	0a8H
	DB	011H
	DB	0a8H
	DB	011H
	DB	0a8H
	DB	011H
	DB	088H
	DB	011H
	DB	088H
	DB	011H
	DB	088H
	DB	011H
	DB	088H
	DB	011H
	DB	088H
	DB	011H
	DB	088H
	DB	011H
	DB	087H
	DB	011H
	DB	087H
	DB	011H
	DB	067H
	DB	011H
	DB	067H
	DB	011H
	DB	067H
	DB	011H
	DB	067H
	DB	011H
	DB	067H
	DB	011H
	DB	047H
	DB	011H
	DB	047H
	DB	011H
	DB	046H
	DB	011H
	DB	046H
	DB	011H
	DB	046H
	DB	011H
	DB	046H
	DB	09H
	DB	046H
	DB	09H
	DB	026H
	DB	09H
	DB	026H
	DB	09H
	DB	026H
	DB	09H
	DB	026H
	DB	09H
	DB	026H
	DB	09H
	DB	025H
	DB	09H
	DB	05H
	DB	09H
	DB	05H
	DB	09H
	DB	05H
	DB	09H
	DB	05H
	DB	09H
	DB	05H
	DB	09H
	DB	0e5H
	DB	08H
	DB	05H
	DB	09H
	DB	0e5H
	DB	08H
	DB	0e4H
	DB	08H
	DB	0e4H
	DB	08H
	DB	0e4H
	DB	08H
	DB	0e4H
	DB	08H
	DB	0e4H
	DB	08H
	DB	0e4H
	DB	08H
	DB	0c4H
	DB	08H
	DB	0c4H
	DB	08H
	DB	0c4H
	DB	08H
	DB	0c4H
	DB	08H
	DB	0c3H
	DB	08H
	DB	0c3H
	DB	08H
	DB	0a3H
	DB	08H
	DB	0a3H
	DB	08H
	DB	0a3H
	DB	08H
	DB	0a3H
	DB	08H
	DB	0a3H
	DB	08H
	DB	0a3H
	DB	08H
	DB	0a3H
	DB	08H
	DB	0a3H
	DB	08H
	DB	0a3H
	DB	08H
	DB	055H
	DB	014H
	DB	055H
	DB	014H
	DB	0fH
	DB	013H
	DB	0c9H
	DB	011H
	DB	0a9H
	DB	011H
	DB	0a9H
	DB	011H
	DB	0a9H
	DB	011H
	DB	0a9H
	DB	011H
	DB	0a8H
	DB	011H
	DB	0a8H
	DB	011H
	DB	0a8H
	DB	011H
	DB	088H
	DB	011H
	DB	088H
	DB	011H
	DB	088H
	DB	011H
	DB	088H
	DB	011H
	DB	088H
	DB	011H
	DB	088H
	DB	011H
	DB	087H
	DB	011H
	DB	067H
	DB	011H
	DB	067H
	DB	011H
	DB	067H
	DB	011H
	DB	067H
	DB	011H
	DB	067H
	DB	011H
	DB	067H
	DB	011H
	DB	067H
	DB	011H
	DB	047H
	DB	011H
	DB	047H
	DB	011H
	DB	046H
	DB	09H
	DB	046H
	DB	09H
	DB	046H
	DB	09H
	DB	046H
	DB	09H
	DB	026H
	DB	09H
	DB	026H
	DB	09H
	DB	026H
	DB	09H
	DB	026H
	DB	09H
	DB	026H
	DB	09H
	DB	026H
	DB	09H
	DB	025H
	DB	09H
	DB	05H
	DB	09H
	DB	05H
	DB	09H
	DB	05H
	DB	09H
	DB	05H
	DB	09H
	DB	05H
	DB	09H
	DB	05H
	DB	09H
	DB	05H
	DB	09H
	DB	0e5H
	DB	08H
	DB	0e4H
	DB	08H
	DB	0e4H
	DB	08H
	DB	0e4H
	DB	08H
	DB	0e4H
	DB	08H
	DB	0e4H
	DB	08H
	DB	0e4H
	DB	08H
	DB	0c4H
	DB	08H
	DB	0c4H
	DB	08H
	DB	0c4H
	DB	08H
	DB	0c4H
	DB	08H
	DB	0c4H
	DB	08H
	DB	0a3H
	DB	08H
	DB	0a3H
	DB	08H
	DB	0a3H
	DB	08H
	DB	0a3H
	DB	08H
	DB	0a3H
	DB	08H
	DB	0a3H
	DB	08H
	DB	0a3H
	DB	08H
	DB	0a3H
	DB	08H
	DB	0a3H
	DB	08H
	DB	0a3H
	DB	08H
	DB	055H
	DB	014H
	DB	055H
	DB	014H
	DB	0fH
	DB	013H
	DB	0a9H
	DB	011H
	DB	0c9H
	DB	011H
	DB	0a9H
	DB	011H
	DB	0a9H
	DB	011H
	DB	0a9H
	DB	011H
	DB	0a8H
	DB	011H
	DB	0a8H
	DB	011H
	DB	0a8H
	DB	011H
	DB	088H
	DB	011H
	DB	088H
	DB	011H
	DB	088H
	DB	011H
	DB	088H
	DB	011H
	DB	088H
	DB	011H
	DB	088H
	DB	011H
	DB	088H
	DB	011H
	DB	067H
	DB	011H
	DB	067H
	DB	011H
	DB	067H
	DB	011H
	DB	067H
	DB	011H
	DB	067H
	DB	011H
	DB	067H
	DB	011H
	DB	067H
	DB	011H
	DB	047H
	DB	011H
	DB	047H
	DB	09H
	DB	046H
	DB	011H
	DB	046H
	DB	09H
	DB	046H
	DB	09H
	DB	046H
	DB	09H
	DB	046H
	DB	09H
	DB	026H
	DB	09H
	DB	026H
	DB	09H
	DB	026H
	DB	09H
	DB	026H
	DB	09H
	DB	026H
	DB	09H
	DB	05H
	DB	09H
	DB	025H
	DB	09H
	DB	05H
	DB	09H
	DB	05H
	DB	09H
	DB	05H
	DB	09H
	DB	05H
	DB	09H
	DB	05H
	DB	09H
	DB	05H
	DB	09H
	DB	0e5H
	DB	08H
	DB	0e5H
	DB	08H
	DB	0e4H
	DB	08H
	DB	0e4H
	DB	08H
	DB	0e4H
	DB	08H
	DB	0e4H
	DB	08H
	DB	0c4H
	DB	08H
	DB	0c4H
	DB	08H
	DB	0c4H
	DB	08H
	DB	0c4H
	DB	08H
	DB	0c4H
	DB	08H
	DB	0c4H
	DB	08H
	DB	0c3H
	DB	08H
	DB	0a3H
	DB	08H
	DB	0a3H
	DB	08H
	DB	0a3H
	DB	08H
	DB	0a3H
	DB	08H
	DB	0a3H
	DB	08H
	DB	0a3H
	DB	08H
	DB	0a3H
	DB	08H
	DB	0a3H
	DB	08H
	DB	0a3H
	DB	08H
	DB	055H
	DB	014H
	DB	055H
	DB	014H
	DB	0fH
	DB	013H
	DB	0c9H
	DB	011H
	DB	0c9H
	DB	011H
	DB	0a9H
	DB	011H
	DB	0a9H
	DB	011H
	DB	0a9H
	DB	011H
	DB	0a8H
	DB	011H
	DB	0a8H
	DB	011H
	DB	0a8H
	DB	011H
	DB	0a8H
	DB	011H
	DB	088H
	DB	011H
	DB	088H
	DB	011H
	DB	088H
	DB	011H
	DB	088H
	DB	011H
	DB	088H
	DB	011H
	DB	088H
	DB	011H
	DB	067H
	DB	011H
	DB	067H
	DB	011H
	DB	067H
	DB	011H
	DB	067H
	DB	011H
	DB	067H
	DB	011H
	DB	067H
	DB	011H
	DB	067H
	DB	011H
	DB	047H
	DB	011H
	DB	047H
	DB	011H
	DB	047H
	DB	09H
	DB	046H
	DB	09H
	DB	046H
	DB	09H
	DB	046H
	DB	09H
	DB	046H
	DB	09H
	DB	026H
	DB	09H
	DB	026H
	DB	09H
	DB	026H
	DB	09H
	DB	026H
	DB	09H
	DB	026H
	DB	09H
	DB	025H
	DB	09H
	DB	025H
	DB	09H
	DB	05H
	DB	09H
	DB	05H
	DB	09H
	DB	05H
	DB	09H
	DB	05H
	DB	09H
	DB	05H
	DB	09H
	DB	0e5H
	DB	08H
	DB	05H
	DB	09H
	DB	0e4H
	DB	08H
	DB	0e4H
	DB	08H
	DB	0e4H
	DB	08H
	DB	0e4H
	DB	08H
	DB	0e4H
	DB	08H
	DB	0c4H
	DB	08H
	DB	0c4H
	DB	08H
	DB	0c4H
	DB	08H
	DB	0c4H
	DB	08H
	DB	0c4H
	DB	08H
	DB	0c4H
	DB	08H
	DB	0a3H
	DB	08H
	DB	0a3H
	DB	08H
	DB	0a3H
	DB	08H
	DB	0a3H
	DB	08H
	DB	0a3H
	DB	08H
	DB	0a3H
	DB	08H
	DB	0a3H
	DB	08H
	DB	0a3H
	DB	08H
	DB	0a3H
	DB	08H
	DB	0a3H
	DB	08H
	DB	055H
	DB	014H
	DB	055H
	DB	014H
	DB	0fH
	DB	013H
	DB	0c9H
	DB	011H
	DB	0c9H
	DB	011H
	DB	0c9H
	DB	011H
	DB	0a9H
	DB	011H
	DB	0a9H
	DB	011H
	DB	0a9H
	DB	011H
	DB	0a8H
	DB	011H
	DB	0a8H
	DB	011H
	DB	0a8H
	DB	011H
	DB	088H
	DB	011H
	DB	088H
	DB	011H
	DB	088H
	DB	011H
	DB	088H
	DB	011H
	DB	088H
	DB	011H
	DB	067H
	DB	011H
	DB	067H
	DB	011H
	DB	067H
	DB	011H
	DB	067H
	DB	011H
	DB	067H
	DB	011H
	DB	067H
	DB	011H
	DB	067H
	DB	011H
	DB	067H
	DB	011H
	DB	047H
	DB	011H
	DB	047H
	DB	011H
	DB	046H
	DB	09H
	DB	046H
	DB	09H
	DB	046H
	DB	09H
	DB	046H
	DB	09H
	DB	026H
	DB	09H
	DB	026H
	DB	09H
	DB	026H
	DB	09H
	DB	026H
	DB	09H
	DB	026H
	DB	09H
	DB	026H
	DB	09H
	DB	026H
	DB	09H
	DB	05H
	DB	09H
	DB	05H
	DB	09H
	DB	05H
	DB	09H
	DB	05H
	DB	09H
	DB	05H
	DB	09H
	DB	05H
	DB	09H
	DB	05H
	DB	09H
	DB	0e5H
	DB	08H
	DB	0e5H
	DB	08H
	DB	0e4H
	DB	08H
	DB	0e4H
	DB	08H
	DB	0e4H
	DB	08H
	DB	0c4H
	DB	08H
	DB	0c4H
	DB	08H
	DB	0c4H
	DB	08H
	DB	0c4H
	DB	08H
	DB	0c4H
	DB	08H
	DB	0c4H
	DB	08H
	DB	0c3H
	DB	08H
	DB	0a3H
	DB	08H
	DB	0a3H
	DB	08H
	DB	0a3H
	DB	08H
	DB	0a3H
	DB	08H
	DB	0a3H
	DB	08H
	DB	0a3H
	DB	08H
	DB	0a3H
	DB	08H
	DB	0a3H
	DB	08H
	DB	0a3H
	DB	08H
	DB	0a3H
	DB	08H
	DB	055H
	DB	014H
	DB	055H
	DB	014H
	DB	0fH
	DB	013H
	DB	0c9H
	DB	011H
	DB	0a9H
	DB	011H
	DB	0c9H
	DB	011H
	DB	0a9H
	DB	011H
	DB	0a9H
	DB	011H
	DB	0a8H
	DB	011H
	DB	0a8H
	DB	011H
	DB	0a8H
	DB	011H
	DB	0a8H
	DB	011H
	DB	088H
	DB	011H
	DB	088H
	DB	011H
	DB	088H
	DB	011H
	DB	088H
	DB	011H
	DB	088H
	DB	011H
	DB	087H
	DB	011H
	DB	087H
	DB	011H
	DB	067H
	DB	011H
	DB	067H
	DB	011H
	DB	067H
	DB	011H
	DB	067H
	DB	011H
	DB	067H
	DB	011H
	DB	067H
	DB	011H
	DB	067H
	DB	011H
	DB	047H
	DB	011H
	DB	047H
	DB	011H
	DB	046H
	DB	09H
	DB	046H
	DB	09H
	DB	046H
	DB	09H
	DB	026H
	DB	09H
	DB	026H
	DB	09H
	DB	026H
	DB	09H
	DB	026H
	DB	09H
	DB	026H
	DB	09H
	DB	026H
	DB	09H
	DB	025H
	DB	09H
	DB	025H
	DB	09H
	DB	05H
	DB	09H
	DB	05H
	DB	09H
	DB	05H
	DB	09H
	DB	05H
	DB	09H
	DB	05H
	DB	09H
	DB	05H
	DB	09H
	DB	0e5H
	DB	08H
	DB	0e5H
	DB	08H
	DB	0e4H
	DB	08H
	DB	0e4H
	DB	08H
	DB	0e4H
	DB	08H
	DB	0e4H
	DB	08H
	DB	0c4H
	DB	08H
	DB	0c4H
	DB	08H
	DB	0c4H
	DB	08H
	DB	0c4H
	DB	08H
	DB	0c4H
	DB	08H
	DB	0c4H
	DB	08H
	DB	0c3H
	DB	08H
	DB	0a3H
	DB	08H
	DB	0a3H
	DB	08H
	DB	0a3H
	DB	08H
	DB	0a3H
	DB	08H
	DB	0a3H
	DB	08H
	DB	0a3H
	DB	08H
	DB	0a3H
	DB	08H
	DB	0a3H
	DB	08H
	DB	0a3H
	DB	08H
	DB	055H
	DB	014H
	DB	055H
	DB	014H
	DB	0fH
	DB	013H
	DB	0c9H
	DB	011H
	DB	0c9H
	DB	011H
	DB	0a9H
	DB	011H
	DB	0a9H
	DB	011H
	DB	0a9H
	DB	011H
	DB	0a9H
	DB	011H
	DB	0a8H
	DB	011H
	DB	0a8H
	DB	011H
	DB	0a8H
	DB	011H
	DB	088H
	DB	011H
	DB	088H
	DB	011H
	DB	088H
	DB	011H
	DB	088H
	DB	011H
	DB	088H
	DB	011H
	DB	087H
	DB	011H
	DB	087H
	DB	011H
	DB	087H
	DB	011H
	DB	067H
	DB	011H
	DB	067H
	DB	011H
	DB	067H
	DB	011H
	DB	067H
	DB	011H
	DB	067H
	DB	011H
	DB	067H
	DB	011H
	DB	047H
	DB	011H
	DB	047H
	DB	011H
	DB	046H
	DB	011H
	DB	046H
	DB	09H
	DB	046H
	DB	09H
	DB	026H
	DB	09H
	DB	026H
	DB	09H
	DB	026H
	DB	09H
	DB	026H
	DB	09H
	DB	026H
	DB	09H
	DB	026H
	DB	09H
	DB	025H
	DB	09H
	DB	025H
	DB	09H
	DB	05H
	DB	09H
	DB	05H
	DB	09H
	DB	05H
	DB	09H
	DB	05H
	DB	09H
	DB	05H
	DB	09H
	DB	05H
	DB	09H
	DB	0e5H
	DB	08H
	DB	0e5H
	DB	08H
	DB	0e4H
	DB	08H
	DB	0e4H
	DB	08H
	DB	0e4H
	DB	08H
	DB	0e4H
	DB	08H
	DB	0e4H
	DB	08H
	DB	0c4H
	DB	08H
	DB	0c4H
	DB	08H
	DB	0c4H
	DB	08H
	DB	0c4H
	DB	08H
	DB	0c3H
	DB	08H
	DB	0c3H
	DB	08H
	DB	0a3H
	DB	08H
	DB	0a3H
	DB	08H
	DB	0a3H
	DB	08H
	DB	0a3H
	DB	08H
	DB	0a3H
	DB	08H
	DB	0a3H
	DB	08H
	DB	0a3H
	DB	08H
	DB	0a3H
	DB	08H
	DB	0a3H
	DB	08H
	DB	055H
	DB	014H
	DB	055H
	DB	014H
	DB	0fH
	DB	013H
	DB	0c9H
	DB	011H
	DB	0c9H
	DB	011H
	DB	0a9H
	DB	011H
	DB	0a9H
	DB	011H
	DB	0a9H
	DB	011H
	DB	0a9H
	DB	011H
	DB	0a8H
	DB	011H
	DB	0a8H
	DB	011H
	DB	088H
	DB	011H
	DB	088H
	DB	011H
	DB	088H
	DB	011H
	DB	088H
	DB	011H
	DB	088H
	DB	011H
	DB	088H
	DB	011H
	DB	068H
	DB	011H
	DB	067H
	DB	011H
	DB	067H
	DB	011H
	DB	067H
	DB	011H
	DB	067H
	DB	011H
	DB	067H
	DB	011H
	DB	067H
	DB	011H
	DB	067H
	DB	011H
	DB	047H
	DB	011H
	DB	047H
	DB	011H
	DB	046H
	DB	09H
	DB	046H
	DB	09H
	DB	046H
	DB	09H
	DB	046H
	DB	09H
	DB	046H
	DB	09H
	DB	046H
	DB	09H
	DB	026H
	DB	09H
	DB	026H
	DB	09H
	DB	026H
	DB	09H
	DB	026H
	DB	09H
	DB	026H
	DB	09H
	DB	025H
	DB	09H
	DB	05H
	DB	09H
	DB	05H
	DB	09H
	DB	05H
	DB	09H
	DB	05H
	DB	09H
	DB	05H
	DB	09H
	DB	05H
	DB	09H
	DB	0e5H
	DB	08H
	DB	0e4H
	DB	08H
	DB	0e4H
	DB	08H
	DB	0e4H
	DB	08H
	DB	0e4H
	DB	08H
	DB	0e4H
	DB	08H
	DB	0e4H
	DB	08H
	DB	0c4H
	DB	08H
	DB	0c4H
	DB	08H
	DB	0c4H
	DB	08H
	DB	0c4H
	DB	08H
	DB	0c4H
	DB	08H
	DB	0c3H
	DB	08H
	DB	0a3H
	DB	08H
	DB	0a3H
	DB	08H
	DB	0a3H
	DB	08H
	DB	0a3H
	DB	08H
	DB	0a3H
	DB	08H
	DB	0a3H
	DB	08H
	DB	0a3H
	DB	08H
	DB	0a3H
	DB	08H
	DB	0a3H
	DB	08H
	DB	055H
	DB	014H
	DB	055H
	DB	014H
	DB	0fH
	DB	013H
	DB	0c9H
	DB	011H
	DB	0c9H
	DB	011H
	DB	0c9H
	DB	011H
	DB	0a9H
	DB	011H
	DB	0a9H
	DB	011H
	DB	0a9H
	DB	011H
	DB	0a8H
	DB	011H
	DB	0a8H
	DB	011H
	DB	0a8H
	DB	011H
	DB	0a8H
	DB	011H
	DB	088H
	DB	011H
	DB	088H
	DB	011H
	DB	088H
	DB	011H
	DB	088H
	DB	011H
	DB	088H
	DB	011H
	DB	087H
	DB	011H
	DB	087H
	DB	011H
	DB	067H
	DB	011H
	DB	067H
	DB	011H
	DB	067H
	DB	011H
	DB	067H
	DB	011H
	DB	067H
	DB	011H
	DB	047H
	DB	011H
	DB	047H
	DB	011H
	DB	046H
	DB	011H
	DB	046H
	DB	09H
	DB	046H
	DB	09H
	DB	046H
	DB	09H
	DB	046H
	DB	09H
	DB	026H
	DB	09H
	DB	026H
	DB	09H
	DB	026H
	DB	09H
	DB	026H
	DB	09H
	DB	026H
	DB	09H
	DB	06H
	DB	09H
	DB	05H
	DB	09H
	DB	025H
	DB	09H
	DB	05H
	DB	09H
	DB	05H
	DB	09H
	DB	05H
	DB	09H
	DB	05H
	DB	09H
	DB	05H
	DB	09H
	DB	0e5H
	DB	08H
	DB	0e5H
	DB	08H
	DB	0e4H
	DB	08H
	DB	0e4H
	DB	08H
	DB	0e4H
	DB	08H
	DB	0e4H
	DB	08H
	DB	0e4H
	DB	08H
	DB	0e4H
	DB	08H
	DB	0c4H
	DB	08H
	DB	0c4H
	DB	08H
	DB	0c4H
	DB	08H
	DB	0c4H
	DB	08H
	DB	0c3H
	DB	08H
	DB	0a3H
	DB	08H
	DB	0a3H
	DB	08H
	DB	0a3H
	DB	08H
	DB	0a3H
	DB	08H
	DB	0a3H
	DB	08H
	DB	0a3H
	DB	08H
	DB	0a3H
	DB	08H
	DB	0a3H
	DB	08H
	DB	0a3H
	DB	08H
	DB	055H
	DB	014H
	DB	055H
	DB	014H
	DB	0fH
	DB	013H
	DB	0c9H
	DB	011H
	DB	0c9H
	DB	011H
	DB	0a9H
	DB	011H
	DB	0a9H
	DB	011H
	DB	0a9H
	DB	011H
	DB	0a8H
	DB	011H
	DB	0a8H
	DB	011H
	DB	0a8H
	DB	011H
	DB	088H
	DB	011H
	DB	088H
	DB	011H
	DB	088H
	DB	011H
	DB	088H
	DB	011H
	DB	088H
	DB	011H
	DB	088H
	DB	011H
	DB	087H
	DB	011H
	DB	067H
	DB	011H
	DB	067H
	DB	011H
	DB	067H
	DB	011H
	DB	067H
	DB	011H
	DB	067H
	DB	011H
	DB	067H
	DB	011H
	DB	067H
	DB	011H
	DB	047H
	DB	011H
	DB	047H
	DB	09H
	DB	047H
	DB	011H
	DB	046H
	DB	011H
	DB	046H
	DB	09H
	DB	046H
	DB	09H
	DB	046H
	DB	09H
	DB	026H
	DB	09H
	DB	026H
	DB	09H
	DB	026H
	DB	09H
	DB	026H
	DB	09H
	DB	026H
	DB	09H
	DB	026H
	DB	09H
	DB	05H
	DB	09H
	DB	05H
	DB	09H
	DB	05H
	DB	09H
	DB	05H
	DB	09H
	DB	05H
	DB	09H
	DB	05H
	DB	09H
	DB	05H
	DB	09H
	DB	05H
	DB	09H
	DB	0e5H
	DB	08H
	DB	0e4H
	DB	08H
	DB	0e4H
	DB	08H
	DB	0e4H
	DB	08H
	DB	0e4H
	DB	08H
	DB	0c4H
	DB	08H
	DB	0c4H
	DB	08H
	DB	0c4H
	DB	08H
	DB	0c4H
	DB	08H
	DB	0c4H
	DB	08H
	DB	0c4H
	DB	08H
	DB	0a3H
	DB	08H
	DB	0a3H
	DB	08H
	DB	0a3H
	DB	08H
	DB	0a3H
	DB	08H
	DB	0a3H
	DB	08H
	DB	0a3H
	DB	08H
	DB	0a3H
	DB	08H
	DB	0a3H
	DB	08H
	DB	0a3H
	DB	08H
	DB	0a3H
	DB	08H
	DB	055H
	DB	014H
	DB	055H
	DB	014H
	DB	0fH
	DB	013H
	DB	0c9H
	DB	011H
	DB	0c9H
	DB	011H
	DB	0a9H
	DB	011H
	DB	0c9H
	DB	011H
	DB	0a9H
	DB	011H
	DB	0a8H
	DB	011H
	DB	0a8H
	DB	011H
	DB	0a8H
	DB	011H
	DB	0a8H
	DB	011H
	DB	088H
	DB	011H
	DB	088H
	DB	011H
	DB	088H
	DB	011H
	DB	088H
	DB	011H
	DB	088H
	DB	011H
	DB	087H
	DB	011H
	DB	087H
	DB	011H
	DB	067H
	DB	011H
	DB	067H
	DB	011H
	DB	067H
	DB	011H
	DB	067H
	DB	011H
	DB	067H
	DB	011H
	DB	047H
	DB	011H
	DB	047H
	DB	011H
	DB	047H
	DB	011H
	DB	047H
	DB	011H
	DB	046H
	DB	09H
	DB	046H
	DB	09H
	DB	046H
	DB	09H
	DB	046H
	DB	011H
	DB	026H
	DB	09H
	DB	026H
	DB	09H
	DB	026H
	DB	09H
	DB	026H
	DB	09H
	DB	026H
	DB	09H
	DB	025H
	DB	09H
	DB	025H
	DB	09H
	DB	05H
	DB	09H
	DB	05H
	DB	09H
	DB	05H
	DB	09H
	DB	05H
	DB	09H
	DB	05H
	DB	09H
	DB	05H
	DB	09H
	DB	0e5H
	DB	08H
	DB	0e5H
	DB	08H
	DB	0e4H
	DB	08H
	DB	0e4H
	DB	08H
	DB	0e4H
	DB	08H
	DB	0e4H
	DB	08H
	DB	0e4H
	DB	08H
	DB	0c4H
	DB	08H
	DB	0c4H
	DB	08H
	DB	0c4H
	DB	08H
	DB	0c4H
	DB	08H
	DB	0c3H
	DB	08H
	DB	0c3H
	DB	08H
	DB	0a3H
	DB	08H
	DB	0a3H
	DB	08H
	DB	0a3H
	DB	08H
	DB	0a3H
	DB	08H
	DB	0a3H
	DB	08H
	DB	0a3H
	DB	08H
	DB	0a3H
	DB	08H
	DB	0a3H
	DB	08H
	DB	0a3H
	DB	08H
	DB	055H
	DB	014H
	DB	055H
	DB	014H
	DB	0fH
	DB	013H
	DB	0c9H
	DB	011H
	DB	0c9H
	DB	011H
	DB	0c9H
	DB	011H
	DB	0a9H
	DB	011H
	DB	0a9H
	DB	011H
	DB	0a8H
	DB	011H
	DB	0a8H
	DB	011H
	DB	0a8H
	DB	011H
	DB	0a8H
	DB	011H
	DB	088H
	DB	011H
	DB	088H
	DB	011H
	DB	088H
	DB	011H
	DB	088H
	DB	011H
	DB	088H
	DB	011H
	DB	088H
	DB	011H
	DB	068H
	DB	011H
	DB	067H
	DB	011H
	DB	067H
	DB	011H
	DB	067H
	DB	011H
	DB	067H
	DB	011H
	DB	067H
	DB	011H
	DB	067H
	DB	09H
	DB	047H
	DB	011H
	DB	047H
	DB	011H
	DB	046H
	DB	09H
	DB	046H
	DB	09H
	DB	046H
	DB	09H
	DB	046H
	DB	09H
	DB	026H
	DB	09H
	DB	026H
	DB	09H
	DB	026H
	DB	09H
	DB	026H
	DB	09H
	DB	026H
	DB	09H
	DB	026H
	DB	09H
	DB	025H
	DB	09H
	DB	025H
	DB	09H
	DB	05H
	DB	09H
	DB	05H
	DB	09H
	DB	05H
	DB	09H
	DB	05H
	DB	09H
	DB	05H
	DB	09H
	DB	05H
	DB	09H
	DB	0e5H
	DB	08H
	DB	0e5H
	DB	08H
	DB	0e4H
	DB	08H
	DB	0e4H
	DB	08H
	DB	0e4H
	DB	08H
	DB	0e4H
	DB	08H
	DB	0c4H
	DB	08H
	DB	0c4H
	DB	08H
	DB	0c4H
	DB	08H
	DB	0c4H
	DB	08H
	DB	0c4H
	DB	08H
	DB	0c4H
	DB	08H
	DB	0c3H
	DB	08H
	DB	0c3H
	DB	08H
	DB	0a3H
	DB	08H
	DB	0a3H
	DB	08H
	DB	0a3H
	DB	08H
	DB	0a3H
	DB	08H
	DB	0a3H
	DB	08H
	DB	0a3H
	DB	08H
	DB	0a3H
	DB	08H
	DB	0a3H
	DB	08H
	DB	055H
	DB	014H
	DB	055H
	DB	014H
	DB	0fH
	DB	013H
	DB	0c9H
	DB	011H
	DB	0c9H
	DB	011H
	DB	0c9H
	DB	011H
	DB	0c9H
	DB	011H
	DB	0a9H
	DB	011H
	DB	0a8H
	DB	011H
	DB	0a8H
	DB	011H
	DB	0a8H
	DB	011H
	DB	0a8H
	DB	011H
	DB	088H
	DB	011H
	DB	088H
	DB	011H
	DB	088H
	DB	011H
	DB	088H
	DB	011H
	DB	088H
	DB	011H
	DB	088H
	DB	011H
	DB	087H
	DB	011H
	DB	067H
	DB	011H
	DB	067H
	DB	011H
	DB	067H
	DB	011H
	DB	067H
	DB	011H
	DB	067H
	DB	011H
	DB	067H
	DB	011H
	DB	047H
	DB	011H
	DB	047H
	DB	09H
	DB	047H
	DB	011H
	DB	046H
	DB	09H
	DB	046H
	DB	011H
	DB	046H
	DB	09H
	DB	046H
	DB	09H
	DB	026H
	DB	09H
	DB	026H
	DB	09H
	DB	026H
	DB	09H
	DB	026H
	DB	09H
	DB	026H
	DB	09H
	DB	025H
	DB	09H
	DB	05H
	DB	09H
	DB	05H
	DB	09H
	DB	05H
	DB	09H
	DB	05H
	DB	09H
	DB	05H
	DB	09H
	DB	05H
	DB	09H
	DB	05H
	DB	09H
	DB	0e5H
	DB	08H
	DB	0e5H
	DB	08H
	DB	0e4H
	DB	08H
	DB	0e4H
	DB	08H
	DB	0e4H
	DB	08H
	DB	0e4H
	DB	08H
	DB	0c4H
	DB	08H
	DB	0c4H
	DB	08H
	DB	0c4H
	DB	08H
	DB	0c4H
	DB	08H
	DB	0c4H
	DB	08H
	DB	0c4H
	DB	08H
	DB	0c3H
	DB	08H
	DB	0a3H
	DB	08H
	DB	0a3H
	DB	08H
	DB	0a3H
	DB	08H
	DB	0a3H
	DB	08H
	DB	0a3H
	DB	08H
	DB	0a3H
	DB	08H
	DB	0a3H
	DB	08H
	DB	0a3H
	DB	08H
	DB	0a3H
	DB	08H
	DB	055H
	DB	014H
	DB	055H
	DB	014H
	DB	0fH
	DB	013H
	DB	0c9H
	DB	011H
	DB	0c9H
	DB	011H
	DB	0c9H
	DB	011H
	DB	0a9H
	DB	011H
	DB	0a9H
	DB	011H
	DB	0a8H
	DB	011H
	DB	0a8H
	DB	011H
	DB	0a8H
	DB	011H
	DB	088H
	DB	011H
	DB	088H
	DB	011H
	DB	088H
	DB	011H
	DB	088H
	DB	011H
	DB	088H
	DB	011H
	DB	088H
	DB	011H
	DB	088H
	DB	011H
	DB	087H
	DB	011H
	DB	067H
	DB	011H
	DB	067H
	DB	011H
	DB	067H
	DB	011H
	DB	067H
	DB	011H
	DB	067H
	DB	011H
	DB	067H
	DB	011H
	DB	067H
	DB	011H
	DB	047H
	DB	011H
	DB	047H
	DB	09H
	DB	046H
	DB	09H
	DB	046H
	DB	09H
	DB	046H
	DB	09H
	DB	026H
	DB	09H
	DB	026H
	DB	09H
	DB	026H
	DB	09H
	DB	026H
	DB	09H
	DB	026H
	DB	09H
	DB	026H
	DB	09H
	DB	025H
	DB	09H
	DB	025H
	DB	09H
	DB	05H
	DB	09H
	DB	05H
	DB	09H
	DB	05H
	DB	09H
	DB	05H
	DB	09H
	DB	05H
	DB	09H
	DB	05H
	DB	09H
	DB	0e5H
	DB	08H
	DB	0e5H
	DB	08H
	DB	0e4H
	DB	08H
	DB	0e4H
	DB	08H
	DB	0e4H
	DB	08H
	DB	0e4H
	DB	08H
	DB	0c4H
	DB	08H
	DB	0c4H
	DB	08H
	DB	0c4H
	DB	08H
	DB	0c4H
	DB	08H
	DB	0c4H
	DB	08H
	DB	0c4H
	DB	08H
	DB	0c3H
	DB	08H
	DB	0c3H
	DB	08H
	DB	0a3H
	DB	08H
	DB	0a3H
	DB	08H
	DB	0a3H
	DB	08H
	DB	0a3H
	DB	08H
	DB	0a3H
	DB	08H
	DB	0a3H
	DB	08H
	DB	0a3H
	DB	08H
	DB	0a3H
	DB	08H
	DB	055H
	DB	014H
	DB	055H
	DB	014H
	DB	0fH
	DB	013H
	DB	0c9H
	DB	011H
	DB	0c9H
	DB	011H
	DB	0a9H
	DB	011H
	DB	0a9H
	DB	011H
	DB	0a9H
	DB	011H
	DB	0a9H
	DB	011H
	DB	0a8H
	DB	011H
	DB	0a8H
	DB	011H
	DB	0a8H
	DB	011H
	DB	0a8H
	DB	011H
	DB	088H
	DB	011H
	DB	088H
	DB	011H
	DB	088H
	DB	011H
	DB	088H
	DB	011H
	DB	088H
	DB	011H
	DB	087H
	DB	011H
	DB	067H
	DB	011H
	DB	067H
	DB	011H
	DB	067H
	DB	011H
	DB	067H
	DB	011H
	DB	067H
	DB	011H
	DB	067H
	DB	011H
	DB	047H
	DB	09H
	DB	047H
	DB	011H
	DB	047H
	DB	011H
	DB	046H
	DB	09H
	DB	046H
	DB	011H
	DB	046H
	DB	09H
	DB	046H
	DB	09H
	DB	026H
	DB	09H
	DB	026H
	DB	09H
	DB	026H
	DB	09H
	DB	026H
	DB	09H
	DB	026H
	DB	09H
	DB	026H
	DB	09H
	DB	025H
	DB	09H
	DB	05H
	DB	09H
	DB	05H
	DB	09H
	DB	05H
	DB	09H
	DB	05H
	DB	09H
	DB	05H
	DB	09H
	DB	05H
	DB	09H
	DB	05H
	DB	09H
	DB	0e5H
	DB	08H
	DB	0e4H
	DB	08H
	DB	0e4H
	DB	08H
	DB	0e4H
	DB	08H
	DB	0e4H
	DB	08H
	DB	0e4H
	DB	08H
	DB	0c4H
	DB	08H
	DB	0c4H
	DB	08H
	DB	0c4H
	DB	08H
	DB	0c4H
	DB	08H
	DB	0c4H
	DB	08H
	DB	0c4H
	DB	08H
	DB	0c3H
	DB	08H
	DB	0a3H
	DB	08H
	DB	0a3H
	DB	08H
	DB	0a3H
	DB	08H
	DB	0a3H
	DB	08H
	DB	0a3H
	DB	08H
	DB	0a3H
	DB	08H
	DB	0a3H
	DB	08H
	DB	0a3H
	DB	08H
	DB	055H
	DB	014H
	DB	055H
	DB	014H
	DB	0fH
	DB	013H
	DB	0c9H
	DB	011H
	DB	0c9H
	DB	011H
	DB	0a9H
	DB	011H
	DB	0a9H
	DB	011H
	DB	0a9H
	DB	011H
	DB	0a8H
	DB	011H
	DB	0a8H
	DB	011H
	DB	0a8H
	DB	011H
	DB	0a8H
	DB	011H
	DB	088H
	DB	011H
	DB	088H
	DB	011H
	DB	088H
	DB	011H
	DB	088H
	DB	011H
	DB	088H
	DB	011H
	DB	088H
	DB	011H
	DB	068H
	DB	011H
	DB	087H
	DB	011H
	DB	067H
	DB	011H
	DB	067H
	DB	011H
	DB	067H
	DB	011H
	DB	067H
	DB	011H
	DB	067H
	DB	011H
	DB	047H
	DB	011H
	DB	047H
	DB	011H
	DB	047H
	DB	011H
	DB	046H
	DB	011H
	DB	046H
	DB	09H
	DB	046H
	DB	09H
	DB	026H
	DB	09H
	DB	046H
	DB	09H
	DB	026H
	DB	09H
	DB	026H
	DB	09H
	DB	026H
	DB	09H
	DB	026H
	DB	09H
	DB	06H
	DB	09H
	DB	025H
	DB	09H
	DB	025H
	DB	09H
	DB	05H
	DB	09H
	DB	05H
	DB	09H
	DB	05H
	DB	09H
	DB	05H
	DB	09H
	DB	05H
	DB	09H
	DB	05H
	DB	09H
	DB	0e5H
	DB	08H
	DB	0e5H
	DB	08H
	DB	0e4H
	DB	08H
	DB	0e4H
	DB	08H
	DB	0e4H
	DB	08H
	DB	0c4H
	DB	08H
	DB	0c4H
	DB	08H
	DB	0c4H
	DB	08H
	DB	0c4H
	DB	08H
	DB	0c4H
	DB	08H
	DB	0c4H
	DB	08H
	DB	0c3H
	DB	08H
	DB	0c3H
	DB	08H
	DB	0a3H
	DB	08H
	DB	0a3H
	DB	08H
	DB	0a3H
	DB	08H
	DB	0a3H
	DB	08H
	DB	0a3H
	DB	08H
	DB	0a3H
	DB	08H
	DB	0a3H
	DB	08H
	DB	0a3H
	DB	08H
	DB	055H
	DB	014H
	DB	055H
	DB	014H
	DB	0fH
	DB	013H
	DB	0c9H
	DB	011H
	DB	0c9H
	DB	011H
	DB	0a9H
	DB	011H
	DB	0a9H
	DB	011H
	DB	0a9H
	DB	011H
	DB	0a9H
	DB	011H
	DB	0a8H
	DB	011H
	DB	0a8H
	DB	011H
	DB	0a8H
	DB	011H
	DB	0a8H
	DB	011H
	DB	088H
	DB	011H
	DB	088H
	DB	011H
	DB	088H
	DB	011H
	DB	088H
	DB	011H
	DB	088H
	DB	011H
	DB	067H
	DB	011H
	DB	067H
	DB	011H
	DB	067H
	DB	011H
	DB	067H
	DB	011H
	DB	067H
	DB	011H
	DB	067H
	DB	011H
	DB	067H
	DB	011H
	DB	047H
	DB	011H
	DB	047H
	DB	011H
	DB	047H
	DB	011H
	DB	046H
	DB	09H
	DB	046H
	DB	09H
	DB	046H
	DB	011H
	DB	046H
	DB	09H
	DB	046H
	DB	09H
	DB	026H
	DB	09H
	DB	026H
	DB	09H
	DB	026H
	DB	09H
	DB	026H
	DB	09H
	DB	025H
	DB	09H
	DB	05H
	DB	09H
	DB	05H
	DB	09H
	DB	05H
	DB	09H
	DB	05H
	DB	09H
	DB	05H
	DB	09H
	DB	05H
	DB	09H
	DB	05H
	DB	09H
	DB	0e5H
	DB	08H
	DB	0e5H
	DB	08H
	DB	0e5H
	DB	08H
	DB	0e4H
	DB	08H
	DB	0e4H
	DB	08H
	DB	0e4H
	DB	08H
	DB	0e4H
	DB	08H
	DB	0c4H
	DB	08H
	DB	0c4H
	DB	08H
	DB	0c4H
	DB	08H
	DB	0c4H
	DB	08H
	DB	0c4H
	DB	08H
	DB	0c3H
	DB	08H
	DB	0c3H
	DB	08H
	DB	0a3H
	DB	08H
	DB	0a3H
	DB	08H
	DB	0a3H
	DB	08H
	DB	0a3H
	DB	00H
	DB	0a3H
	DB	08H
	DB	0a3H
	DB	08H
	DB	0a3H
	DB	08H
	DB	0a3H
	DB	08H
	DB	055H
	DB	014H
	DB	055H
	DB	014H
	DB	0fH
	DB	013H
	DB	0c9H
	DB	011H
	DB	0c9H
	DB	011H
	DB	0a9H
	DB	011H
	DB	0a9H
	DB	011H
	DB	0a9H
	DB	011H
	DB	0a9H
	DB	011H
	DB	0a8H
	DB	011H
	DB	0a8H
	DB	011H
	DB	0a8H
	DB	011H
	DB	088H
	DB	011H
	DB	088H
	DB	011H
	DB	088H
	DB	011H
	DB	088H
	DB	011H
	DB	088H
	DB	011H
	DB	088H
	DB	011H
	DB	087H
	DB	011H
	DB	067H
	DB	011H
	DB	067H
	DB	011H
	DB	067H
	DB	011H
	DB	067H
	DB	011H
	DB	067H
	DB	011H
	DB	067H
	DB	011H
	DB	067H
	DB	011H
	DB	047H
	DB	09H
	DB	047H
	DB	011H
	DB	046H
	DB	09H
	DB	046H
	DB	09H
	DB	046H
	DB	011H
	DB	046H
	DB	09H
	DB	046H
	DB	09H
	DB	026H
	DB	09H
	DB	026H
	DB	09H
	DB	026H
	DB	09H
	DB	026H
	DB	09H
	DB	026H
	DB	09H
	DB	05H
	DB	09H
	DB	025H
	DB	09H
	DB	05H
	DB	09H
	DB	05H
	DB	09H
	DB	05H
	DB	09H
	DB	05H
	DB	09H
	DB	05H
	DB	09H
	DB	05H
	DB	09H
	DB	0e5H
	DB	08H
	DB	0e4H
	DB	08H
	DB	0e4H
	DB	08H
	DB	0e4H
	DB	08H
	DB	0e4H
	DB	08H
	DB	0e4H
	DB	08H
	DB	0c4H
	DB	08H
	DB	0c4H
	DB	08H
	DB	0c4H
	DB	08H
	DB	0c4H
	DB	08H
	DB	0c3H
	DB	08H
	DB	0c3H
	DB	08H
	DB	0a3H
	DB	08H
	DB	0a3H
	DB	08H
	DB	0a3H
	DB	08H
	DB	0a3H
	DB	08H
	DB	0a3H
	DB	08H
	DB	0a3H
	DB	08H
	DB	0a3H
	DB	08H
	DB	0a3H
	DB	08H
	DB	0a3H
	DB	08H
	DB	055H
	DB	014H
	DB	055H
	DB	014H
	DB	0fH
	DB	013H
	DB	0c9H
	DB	011H
	DB	0c9H
	DB	011H
	DB	0a9H
	DB	011H
	DB	0a9H
	DB	011H
	DB	0a9H
	DB	011H
	DB	0a8H
	DB	011H
	DB	0a8H
	DB	011H
	DB	0a8H
	DB	011H
	DB	0a8H
	DB	011H
	DB	0a8H
	DB	011H
	DB	088H
	DB	011H
	DB	088H
	DB	011H
	DB	088H
	DB	011H
	DB	088H
	DB	011H
	DB	087H
	DB	011H
	DB	087H
	DB	011H
	DB	067H
	DB	011H
	DB	067H
	DB	011H
	DB	067H
	DB	011H
	DB	067H
	DB	011H
	DB	067H
	DB	011H
	DB	067H
	DB	011H
	DB	067H
	DB	011H
	DB	047H
	DB	011H
	DB	047H
	DB	011H
	DB	047H
	DB	011H
	DB	046H
	DB	011H
	DB	046H
	DB	09H
	DB	046H
	DB	09H
	DB	026H
	DB	09H
	DB	026H
	DB	09H
	DB	026H
	DB	09H
	DB	026H
	DB	09H
	DB	026H
	DB	09H
	DB	026H
	DB	09H
	DB	05H
	DB	09H
	DB	05H
	DB	09H
	DB	05H
	DB	09H
	DB	05H
	DB	09H
	DB	05H
	DB	09H
	DB	05H
	DB	09H
	DB	05H
	DB	09H
	DB	05H
	DB	09H
	DB	0e5H
	DB	08H
	DB	0e5H
	DB	08H
	DB	0e4H
	DB	08H
	DB	0e4H
	DB	08H
	DB	0e4H
	DB	08H
	DB	0e4H
	DB	08H
	DB	0e4H
	DB	08H
	DB	0c4H
	DB	08H
	DB	0c4H
	DB	08H
	DB	0c4H
	DB	08H
	DB	0c4H
	DB	08H
	DB	0c3H
	DB	08H
	DB	0a3H
	DB	08H
	DB	0a3H
	DB	08H
	DB	0a3H
	DB	08H
	DB	0a3H
	DB	08H
	DB	0a3H
	DB	08H
	DB	0a3H
	DB	08H
	DB	0a3H
	DB	08H
	DB	0a3H
	DB	08H
	DB	0a3H
	DB	08H
	DB	055H
	DB	014H
	DB	055H
	DB	014H
	DB	0fH
	DB	013H
	DB	0c9H
	DB	011H
	DB	0c9H
	DB	011H
	DB	0c9H
	DB	011H
	DB	0a9H
	DB	011H
	DB	0a9H
	DB	011H
	DB	0a9H
	DB	011H
	DB	0a8H
	DB	011H
	DB	0a8H
	DB	011H
	DB	0a8H
	DB	011H
	DB	088H
	DB	011H
	DB	088H
	DB	011H
	DB	088H
	DB	011H
	DB	088H
	DB	011H
	DB	088H
	DB	011H
	DB	088H
	DB	011H
	DB	068H
	DB	011H
	DB	087H
	DB	011H
	DB	067H
	DB	011H
	DB	067H
	DB	011H
	DB	067H
	DB	011H
	DB	067H
	DB	011H
	DB	067H
	DB	011H
	DB	067H
	DB	011H
	DB	047H
	DB	011H
	DB	047H
	DB	011H
	DB	046H
	DB	011H
	DB	046H
	DB	09H
	DB	046H
	DB	09H
	DB	026H
	DB	09H
	DB	026H
	DB	09H
	DB	026H
	DB	09H
	DB	026H
	DB	09H
	DB	026H
	DB	09H
	DB	026H
	DB	09H
	DB	025H
	DB	09H
	DB	025H
	DB	09H
	DB	05H
	DB	09H
	DB	05H
	DB	09H
	DB	05H
	DB	09H
	DB	05H
	DB	09H
	DB	05H
	DB	09H
	DB	05H
	DB	09H
	DB	05H
	DB	09H
	DB	0e5H
	DB	08H
	DB	0e5H
	DB	08H
	DB	0e4H
	DB	08H
	DB	0e4H
	DB	08H
	DB	0e4H
	DB	08H
	DB	0e4H
	DB	08H
	DB	0c4H
	DB	08H
	DB	0c4H
	DB	08H
	DB	0c4H
	DB	08H
	DB	0c4H
	DB	08H
	DB	0c4H
	DB	08H
	DB	0c3H
	DB	08H
	DB	0c3H
	DB	08H
	DB	0a3H
	DB	08H
	DB	0a3H
	DB	08H
	DB	0a3H
	DB	08H
	DB	0a3H
	DB	08H
	DB	0a3H
	DB	08H
	DB	0a3H
	DB	08H
	DB	0a3H
	DB	08H
	DB	0a3H
	DB	08H
	DB	055H
	DB	014H
	DB	055H
	DB	014H
	DB	0fH
	DB	013H
	DB	0c9H
	DB	011H
	DB	0c9H
	DB	011H
	DB	0c9H
	DB	011H
	DB	0a9H
	DB	011H
	DB	0a9H
	DB	011H
	DB	0a9H
	DB	011H
	DB	0a8H
	DB	011H
	DB	0a8H
	DB	011H
	DB	0a8H
	DB	011H
	DB	0a8H
	DB	011H
	DB	088H
	DB	011H
	DB	088H
	DB	011H
	DB	088H
	DB	011H
	DB	088H
	DB	011H
	DB	088H
	DB	011H
	DB	068H
	DB	011H
	DB	067H
	DB	011H
	DB	067H
	DB	011H
	DB	067H
	DB	011H
	DB	067H
	DB	011H
	DB	067H
	DB	011H
	DB	067H
	DB	011H
	DB	047H
	DB	011H
	DB	047H
	DB	011H
	DB	047H
	DB	011H
	DB	046H
	DB	09H
	DB	046H
	DB	011H
	DB	046H
	DB	09H
	DB	026H
	DB	011H
	DB	046H
	DB	09H
	DB	026H
	DB	09H
	DB	026H
	DB	09H
	DB	026H
	DB	09H
	DB	026H
	DB	09H
	DB	026H
	DB	09H
	DB	025H
	DB	09H
	DB	05H
	DB	09H
	DB	05H
	DB	09H
	DB	05H
	DB	09H
	DB	05H
	DB	09H
	DB	05H
	DB	09H
	DB	05H
	DB	09H
	DB	05H
	DB	09H
	DB	0e5H
	DB	08H
	DB	0e4H
	DB	08H
	DB	0e4H
	DB	08H
	DB	0e4H
	DB	08H
	DB	0e4H
	DB	08H
	DB	0c4H
	DB	08H
	DB	0c4H
	DB	08H
	DB	0c4H
	DB	08H
	DB	0c4H
	DB	08H
	DB	0c4H
	DB	08H
	DB	0c4H
	DB	08H
	DB	0c3H
	DB	08H
	DB	0a3H
	DB	08H
	DB	0a3H
	DB	08H
	DB	0a3H
	DB	08H
	DB	0a3H
	DB	08H
	DB	0a3H
	DB	08H
	DB	0a3H
	DB	08H
	DB	0a3H
	DB	08H
	DB	0a3H
	DB	08H
	DB	0a3H
	DB	08H
	DB	055H
	DB	014H
	DB	055H
	DB	014H
	DB	0fH
	DB	013H
	DB	0c9H
	DB	011H
	DB	0c9H
	DB	011H
	DB	0a9H
	DB	011H
	DB	0a9H
	DB	011H
	DB	0a9H
	DB	011H
	DB	0a9H
	DB	011H
	DB	0a8H
	DB	011H
	DB	0a8H
	DB	011H
	DB	0a8H
	DB	011H
	DB	0a8H
	DB	011H
	DB	088H
	DB	011H
	DB	088H
	DB	011H
	DB	088H
	DB	011H
	DB	088H
	DB	011H
	DB	088H
	DB	011H
	DB	087H
	DB	011H
	DB	067H
	DB	011H
	DB	067H
	DB	011H
	DB	067H
	DB	011H
	DB	067H
	DB	011H
	DB	067H
	DB	011H
	DB	067H
	DB	011H
	DB	047H
	DB	011H
	DB	047H
	DB	011H
	DB	047H
	DB	09H
	DB	046H
	DB	09H
	DB	046H
	DB	09H
	DB	046H
	DB	09H
	DB	046H
	DB	09H
	DB	026H
	DB	09H
	DB	026H
	DB	09H
	DB	026H
	DB	09H
	DB	026H
	DB	09H
	DB	026H
	DB	09H
	DB	026H
	DB	09H
	DB	025H
	DB	09H
	DB	025H
	DB	09H
	DB	05H
	DB	09H
	DB	05H
	DB	09H
	DB	05H
	DB	09H
	DB	05H
	DB	09H
	DB	05H
	DB	09H
	DB	05H
	DB	09H
	DB	0e5H
	DB	08H
	DB	0e5H
	DB	08H
	DB	0e4H
	DB	08H
	DB	0e4H
	DB	08H
	DB	0e4H
	DB	08H
	DB	0c4H
	DB	08H
	DB	0c4H
	DB	08H
	DB	0c4H
	DB	08H
	DB	0c4H
	DB	08H
	DB	0c4H
	DB	08H
	DB	0c4H
	DB	08H
	DB	0c4H
	DB	08H
	DB	0a3H
	DB	08H
	DB	0a3H
	DB	08H
	DB	0a3H
	DB	08H
	DB	0a3H
	DB	08H
	DB	0a3H
	DB	08H
	DB	0a3H
	DB	08H
	DB	0a3H
	DB	08H
	DB	0a3H
	DB	08H
	DB	0a3H
	DB	08H
	DB	055H
	DB	014H
	DB	055H
	DB	014H
	DB	0fH
	DB	013H
	DB	0c9H
	DB	011H
	DB	0c9H
	DB	011H
	DB	0a9H
	DB	011H
	DB	0c9H
	DB	011H
	DB	0a9H
	DB	011H
	DB	0a9H
	DB	011H
	DB	0a8H
	DB	011H
	DB	0a8H
	DB	011H
	DB	0a8H
	DB	011H
	DB	0a8H
	DB	011H
	DB	088H
	DB	011H
	DB	088H
	DB	011H
	DB	088H
	DB	011H
	DB	088H
	DB	011H
	DB	088H
	DB	011H
	DB	087H
	DB	011H
	DB	087H
	DB	011H
	DB	067H
	DB	011H
	DB	067H
	DB	011H
	DB	067H
	DB	011H
	DB	067H
	DB	011H
	DB	067H
	DB	011H
	DB	047H
	DB	011H
	DB	067H
	DB	09H
	DB	047H
	DB	011H
	DB	046H
	DB	011H
	DB	046H
	DB	09H
	DB	046H
	DB	09H
	DB	026H
	DB	09H
	DB	046H
	DB	09H
	DB	026H
	DB	09H
	DB	026H
	DB	09H
	DB	026H
	DB	09H
	DB	026H
	DB	09H
	DB	026H
	DB	09H
	DB	025H
	DB	09H
	DB	05H
	DB	09H
	DB	05H
	DB	09H
	DB	05H
	DB	09H
	DB	05H
	DB	09H
	DB	05H
	DB	09H
	DB	05H
	DB	09H
	DB	0e5H
	DB	08H
	DB	0e5H
	DB	08H
	DB	0e4H
	DB	08H
	DB	0e4H
	DB	08H
	DB	0e4H
	DB	08H
	DB	0e4H
	DB	08H
	DB	0e4H
	DB	08H
	DB	0e4H
	DB	08H
	DB	0c4H
	DB	08H
	DB	0c4H
	DB	08H
	DB	0c4H
	DB	08H
	DB	0c4H
	DB	08H
	DB	0c4H
	DB	08H
	DB	0c3H
	DB	08H
	DB	0a3H
	DB	08H
	DB	0a3H
	DB	08H
	DB	0a3H
	DB	08H
	DB	0a3H
	DB	08H
	DB	0a3H
	DB	08H
	DB	0a3H
	DB	08H
	DB	0a3H
	DB	08H
	DB	0a3H
	DB	08H
	DB	055H
	DB	014H
	DB	055H
	DB	014H
	DB	0fH
	DB	013H
	DB	0c9H
	DB	011H
	DB	0c9H
	DB	011H
	DB	0c9H
	DB	011H
	DB	0a9H
	DB	011H
	DB	0a9H
	DB	011H
	DB	0a8H
	DB	011H
	DB	0a8H
	DB	011H
	DB	0a8H
	DB	011H
	DB	0a8H
	DB	011H
	DB	0a8H
	DB	011H
	DB	088H
	DB	011H
	DB	088H
	DB	011H
	DB	088H
	DB	011H
	DB	088H
	DB	011H
	DB	088H
	DB	011H
	DB	088H
	DB	011H
	DB	067H
	DB	011H
	DB	067H
	DB	011H
	DB	067H
	DB	011H
	DB	067H
	DB	011H
	DB	067H
	DB	011H
	DB	067H
	DB	011H
	DB	047H
	DB	011H
	DB	067H
	DB	011H
	DB	047H
	DB	011H
	DB	046H
	DB	09H
	DB	046H
	DB	09H
	DB	046H
	DB	09H
	DB	046H
	DB	09H
	DB	026H
	DB	09H
	DB	026H
	DB	09H
	DB	026H
	DB	09H
	DB	026H
	DB	09H
	DB	026H
	DB	09H
	DB	026H
	DB	09H
	DB	025H
	DB	09H
	DB	05H
	DB	09H
	DB	05H
	DB	09H
	DB	05H
	DB	09H
	DB	05H
	DB	09H
	DB	05H
	DB	09H
	DB	05H
	DB	09H
	DB	0e5H
	DB	08H
	DB	0e5H
	DB	08H
	DB	0e4H
	DB	08H
	DB	0e4H
	DB	08H
	DB	0e4H
	DB	08H
	DB	0e4H
	DB	08H
	DB	0e4H
	DB	08H
	DB	0c4H
	DB	08H
	DB	0c4H
	DB	08H
	DB	0c4H
	DB	08H
	DB	0c4H
	DB	08H
	DB	0c4H
	DB	08H
	DB	0c3H
	DB	08H
	DB	0c3H
	DB	08H
	DB	0a3H
	DB	08H
	DB	0a3H
	DB	08H
	DB	0a3H
	DB	08H
	DB	0a3H
	DB	08H
	DB	0a3H
	DB	08H
	DB	0a3H
	DB	08H
	DB	0a3H
	DB	08H
	DB	0a3H
	DB	08H
	DB	055H
	DB	014H
	DB	055H
	DB	014H
	DB	0fH
	DB	013H
	DB	0c9H
	DB	011H
	DB	0c9H
	DB	011H
	DB	0c9H
	DB	011H
	DB	0a9H
	DB	011H
	DB	0a9H
	DB	011H
	DB	0a8H
	DB	011H
	DB	0a8H
	DB	011H
	DB	0a8H
	DB	011H
	DB	088H
	DB	011H
	DB	088H
	DB	011H
	DB	088H
	DB	011H
	DB	088H
	DB	011H
	DB	088H
	DB	011H
	DB	088H
	DB	011H
	DB	088H
	DB	011H
	DB	088H
	DB	011H
	DB	067H
	DB	011H
	DB	067H
	DB	011H
	DB	067H
	DB	011H
	DB	067H
	DB	011H
	DB	067H
	DB	011H
	DB	067H
	DB	011H
	DB	067H
	DB	09H
	DB	047H
	DB	011H
	DB	047H
	DB	011H
	DB	047H
	DB	09H
	DB	046H
	DB	011H
	DB	046H
	DB	011H
	DB	026H
	DB	09H
	DB	026H
	DB	09H
	DB	026H
	DB	09H
	DB	026H
	DB	09H
	DB	026H
	DB	09H
	DB	026H
	DB	09H
	DB	026H
	DB	09H
	DB	025H
	DB	09H
	DB	05H
	DB	09H
	DB	05H
	DB	09H
	DB	05H
	DB	09H
	DB	05H
	DB	09H
	DB	05H
	DB	09H
	DB	05H
	DB	09H
	DB	0e5H
	DB	08H
	DB	0e5H
	DB	08H
	DB	0e4H
	DB	08H
	DB	0e4H
	DB	08H
	DB	0e4H
	DB	08H
	DB	0e4H
	DB	08H
	DB	0e4H
	DB	08H
	DB	0e4H
	DB	08H
	DB	0c4H
	DB	08H
	DB	0c4H
	DB	08H
	DB	0c4H
	DB	08H
	DB	0c4H
	DB	08H
	DB	0c4H
	DB	08H
	DB	0a3H
	DB	08H
	DB	0c3H
	DB	08H
	DB	0a3H
	DB	08H
	DB	0a3H
	DB	08H
	DB	0a3H
	DB	08H
	DB	0a3H
	DB	08H
	DB	0a3H
	DB	08H
	DB	0a3H
	DB	08H
	DB	0a3H
	DB	08H
	DB	055H
	DB	014H
	DB	055H
	DB	014H
	DB	0fH
	DB	013H
	DB	0c9H
	DB	011H
	DB	0c9H
	DB	011H
	DB	0c9H
	DB	011H
	DB	0a9H
	DB	011H
	DB	0a9H
	DB	011H
	DB	0a9H
	DB	011H
	DB	0a8H
	DB	011H
	DB	0a8H
	DB	011H
	DB	0a8H
	DB	011H
	DB	088H
	DB	011H
	DB	088H
	DB	011H
	DB	088H
	DB	011H
	DB	088H
	DB	011H
	DB	088H
	DB	011H
	DB	088H
	DB	011H
	DB	088H
	DB	011H
	DB	087H
	DB	011H
	DB	067H
	DB	011H
	DB	067H
	DB	011H
	DB	067H
	DB	011H
	DB	067H
	DB	011H
	DB	067H
	DB	011H
	DB	047H
	DB	011H
	DB	047H
	DB	09H
	DB	047H
	DB	011H
	DB	046H
	DB	09H
	DB	046H
	DB	09H
	DB	046H
	DB	09H
	DB	046H
	DB	09H
	DB	046H
	DB	09H
	DB	026H
	DB	09H
	DB	026H
	DB	09H
	DB	026H
	DB	09H
	DB	026H
	DB	09H
	DB	026H
	DB	09H
	DB	025H
	DB	09H
	DB	025H
	DB	09H
	DB	05H
	DB	09H
	DB	05H
	DB	09H
	DB	05H
	DB	09H
	DB	05H
	DB	09H
	DB	05H
	DB	09H
	DB	05H
	DB	09H
	DB	0e5H
	DB	08H
	DB	0e5H
	DB	08H
	DB	0e4H
	DB	08H
	DB	0e4H
	DB	08H
	DB	0e4H
	DB	08H
	DB	0e4H
	DB	08H
	DB	0c4H
	DB	08H
	DB	0c4H
	DB	08H
	DB	0c4H
	DB	08H
	DB	0c4H
	DB	08H
	DB	0c4H
	DB	08H
	DB	0c4H
	DB	08H
	DB	0a3H
	DB	08H
	DB	0a3H
	DB	08H
	DB	0a3H
	DB	08H
	DB	0a3H
	DB	08H
	DB	0a3H
	DB	08H
	DB	0a3H
	DB	08H
	DB	0a3H
	DB	08H
	DB	0a3H
	DB	08H
	DB	0a3H
	DB	08H
	DB	055H
	DB	014H
	DB	055H
	DB	014H
	DB	0fH
	DB	013H
	DB	0c9H
	DB	011H
	DB	0c9H
	DB	011H
	DB	0c9H
	DB	011H
	DB	0c9H
	DB	011H
	DB	0a9H
	DB	011H
	DB	0a8H
	DB	011H
	DB	0a9H
	DB	011H
	DB	0a8H
	DB	011H
	DB	0a8H
	DB	011H
	DB	0a8H
	DB	011H
	DB	088H
	DB	011H
	DB	088H
	DB	011H
	DB	088H
	DB	011H
	DB	088H
	DB	011H
	DB	088H
	DB	011H
	DB	087H
	DB	011H
	DB	067H
	DB	011H
	DB	067H
	DB	011H
	DB	067H
	DB	011H
	DB	067H
	DB	011H
	DB	067H
	DB	011H
	DB	067H
	DB	011H
	DB	067H
	DB	011H
	DB	067H
	DB	011H
	DB	047H
	DB	09H
	DB	046H
	DB	011H
	DB	046H
	DB	09H
	DB	046H
	DB	09H
	DB	046H
	DB	09H
	DB	046H
	DB	09H
	DB	026H
	DB	09H
	DB	026H
	DB	09H
	DB	026H
	DB	09H
	DB	026H
	DB	09H
	DB	026H
	DB	09H
	DB	025H
	DB	09H
	DB	05H
	DB	09H
	DB	05H
	DB	09H
	DB	05H
	DB	09H
	DB	05H
	DB	09H
	DB	05H
	DB	09H
	DB	05H
	DB	09H
	DB	0e5H
	DB	08H
	DB	0e5H
	DB	08H
	DB	0e5H
	DB	08H
	DB	0e4H
	DB	08H
	DB	0e4H
	DB	08H
	DB	0e4H
	DB	08H
	DB	0e4H
	DB	08H
	DB	0c4H
	DB	08H
	DB	0c4H
	DB	08H
	DB	0c4H
	DB	08H
	DB	0c4H
	DB	08H
	DB	0c4H
	DB	08H
	DB	0a4H
	DB	08H
	DB	0c3H
	DB	08H
	DB	0a3H
	DB	08H
	DB	0a3H
	DB	08H
	DB	0a3H
	DB	08H
	DB	0a3H
	DB	08H
	DB	0a3H
	DB	08H
	DB	0a3H
	DB	08H
	DB	0a3H
	DB	08H
	DB	0a3H
	DB	08H
	DB	055H
	DB	014H
	DB	055H
	DB	014H
	DB	0fH
	DB	013H
	DB	0c9H
	DB	011H
	DB	0c9H
	DB	011H
	DB	0c9H
	DB	011H
	DB	0a9H
	DB	011H
	DB	0a9H
	DB	011H
	DB	0a8H
	DB	011H
	DB	0a8H
	DB	011H
	DB	0a8H
	DB	011H
	DB	0a8H
	DB	011H
	DB	0a8H
	DB	011H
	DB	088H
	DB	011H
	DB	088H
	DB	011H
	DB	088H
	DB	011H
	DB	088H
	DB	011H
	DB	088H
	DB	011H
	DB	087H
	DB	011H
	DB	087H
	DB	011H
	DB	067H
	DB	011H
	DB	067H
	DB	011H
	DB	067H
	DB	011H
	DB	067H
	DB	011H
	DB	067H
	DB	011H
	DB	067H
	DB	011H
	DB	047H
	DB	011H
	DB	047H
	DB	011H
	DB	047H
	DB	011H
	DB	046H
	DB	011H
	DB	046H
	DB	011H
	DB	046H
	DB	09H
	DB	046H
	DB	09H
	DB	026H
	DB	09H
	DB	026H
	DB	09H
	DB	026H
	DB	09H
	DB	026H
	DB	09H
	DB	026H
	DB	09H
	DB	025H
	DB	09H
	DB	05H
	DB	09H
	DB	05H
	DB	09H
	DB	05H
	DB	09H
	DB	05H
	DB	09H
	DB	05H
	DB	09H
	DB	05H
	DB	09H
	DB	05H
	DB	09H
	DB	0e5H
	DB	08H
	DB	0e5H
	DB	08H
	DB	0e4H
	DB	08H
	DB	0e4H
	DB	08H
	DB	0e4H
	DB	08H
	DB	0e4H
	DB	08H
	DB	0e4H
	DB	08H
	DB	0c4H
	DB	08H
	DB	0c4H
	DB	08H
	DB	0c4H
	DB	08H
	DB	0c4H
	DB	08H
	DB	0c3H
	DB	08H
	DB	0c3H
	DB	08H
	DB	0a3H
	DB	08H
	DB	0a3H
	DB	08H
	DB	0a3H
	DB	08H
	DB	0a3H
	DB	08H
	DB	0a3H
	DB	08H
	DB	0a3H
	DB	08H
	DB	0a3H
	DB	08H
	DB	0a3H
	DB	08H
	DB	055H
	DB	014H
	DB	055H
	DB	014H
	DB	0fH
	DB	013H
	DB	0c9H
	DB	011H
	DB	0c9H
	DB	011H
	DB	0c9H
	DB	011H
	DB	0c9H
	DB	011H
	DB	0a9H
	DB	011H
	DB	0a9H
	DB	011H
	DB	0a8H
	DB	011H
	DB	0a8H
	DB	011H
	DB	0a8H
	DB	011H
	DB	0a8H
	DB	011H
	DB	088H
	DB	011H
	DB	088H
	DB	011H
	DB	088H
	DB	011H
	DB	088H
	DB	011H
	DB	088H
	DB	011H
	DB	068H
	DB	011H
	DB	067H
	DB	011H
	DB	067H
	DB	011H
	DB	067H
	DB	011H
	DB	067H
	DB	011H
	DB	067H
	DB	011H
	DB	067H
	DB	011H
	DB	067H
	DB	011H
	DB	047H
	DB	011H
	DB	047H
	DB	011H
	DB	047H
	DB	011H
	DB	046H
	DB	011H
	DB	046H
	DB	09H
	DB	046H
	DB	09H
	DB	026H
	DB	09H
	DB	026H
	DB	09H
	DB	026H
	DB	09H
	DB	026H
	DB	09H
	DB	026H
	DB	09H
	DB	026H
	DB	09H
	DB	026H
	DB	09H
	DB	05H
	DB	09H
	DB	05H
	DB	09H
	DB	05H
	DB	09H
	DB	05H
	DB	09H
	DB	05H
	DB	09H
	DB	05H
	DB	09H
	DB	05H
	DB	09H
	DB	0e5H
	DB	08H
	DB	0e4H
	DB	08H
	DB	0e4H
	DB	08H
	DB	0e4H
	DB	08H
	DB	0e4H
	DB	08H
	DB	0c4H
	DB	08H
	DB	0c4H
	DB	08H
	DB	0c4H
	DB	08H
	DB	0c4H
	DB	08H
	DB	0c4H
	DB	08H
	DB	0c4H
	DB	08H
	DB	0c4H
	DB	08H
	DB	0c3H
	DB	08H
	DB	0a3H
	DB	08H
	DB	0a3H
	DB	08H
	DB	0a3H
	DB	08H
	DB	0a3H
	DB	08H
	DB	0a3H
	DB	08H
	DB	0a3H
	DB	08H
	DB	0a3H
	DB	08H
	DB	0a3H
	DB	08H
	DB	055H
	DB	014H
	DB	055H
	DB	014H
	DB	0fH
	DB	013H
	DB	0c9H
	DB	011H
	DB	0c9H
	DB	011H
	DB	0c9H
	DB	011H
	DB	0a9H
	DB	011H
	DB	0a9H
	DB	011H
	DB	0a9H
	DB	011H
	DB	0a8H
	DB	011H
	DB	0a8H
	DB	011H
	DB	0a8H
	DB	011H
	DB	088H
	DB	011H
	DB	088H
	DB	011H
	DB	088H
	DB	011H
	DB	088H
	DB	011H
	DB	088H
	DB	011H
	DB	088H
	DB	011H
	DB	068H
	DB	011H
	DB	067H
	DB	011H
	DB	067H
	DB	011H
	DB	067H
	DB	011H
	DB	067H
	DB	011H
	DB	067H
	DB	011H
	DB	067H
	DB	011H
	DB	067H
	DB	011H
	DB	067H
	DB	011H
	DB	047H
	DB	011H
	DB	046H
	DB	011H
	DB	046H
	DB	09H
	DB	046H
	DB	09H
	DB	046H
	DB	09H
	DB	046H
	DB	09H
	DB	026H
	DB	09H
	DB	026H
	DB	09H
	DB	026H
	DB	09H
	DB	026H
	DB	09H
	DB	025H
	DB	09H
	DB	026H
	DB	09H
	DB	025H
	DB	09H
	DB	05H
	DB	09H
	DB	05H
	DB	09H
	DB	05H
	DB	09H
	DB	05H
	DB	09H
	DB	05H
	DB	09H
	DB	05H
	DB	09H
	DB	0e5H
	DB	08H
	DB	0e5H
	DB	08H
	DB	0e4H
	DB	08H
	DB	0e4H
	DB	08H
	DB	0e4H
	DB	08H
	DB	0e4H
	DB	08H
	DB	0c4H
	DB	08H
	DB	0c4H
	DB	08H
	DB	0c4H
	DB	08H
	DB	0c4H
	DB	08H
	DB	0c4H
	DB	08H
	DB	0c3H
	DB	08H
	DB	0a3H
	DB	08H
	DB	0a3H
	DB	08H
	DB	0a3H
	DB	08H
	DB	0a3H
	DB	08H
	DB	0a3H
	DB	00H
	DB	0a3H
	DB	08H
	DB	0a3H
	DB	08H
	DB	0a3H
	DB	08H
	DB	0a3H
	DB	08H
	DB	055H
	DB	014H
	DB	055H
	DB	014H
	DB	0fH
	DB	013H
	DB	0c9H
	DB	011H
	DB	0c9H
	DB	011H
	DB	0c9H
	DB	011H
	DB	0a9H
	DB	011H
	DB	0a9H
	DB	011H
	DB	0a9H
	DB	011H
	DB	0a8H
	DB	011H
	DB	0a8H
	DB	011H
	DB	0a8H
	DB	011H
	DB	0a8H
	DB	011H
	DB	088H
	DB	011H
	DB	088H
	DB	011H
	DB	088H
	DB	011H
	DB	088H
	DB	011H
	DB	088H
	DB	011H
	DB	068H
	DB	011H
	DB	067H
	DB	011H
	DB	087H
	DB	011H
	DB	067H
	DB	011H
	DB	067H
	DB	011H
	DB	067H
	DB	011H
	DB	067H
	DB	011H
	DB	047H
	DB	011H
	DB	067H
	DB	011H
	DB	047H
	DB	011H
	DB	047H
	DB	011H
	DB	046H
	DB	09H
	DB	046H
	DB	09H
	DB	046H
	DB	09H
	DB	046H
	DB	09H
	DB	026H
	DB	09H
	DB	026H
	DB	09H
	DB	026H
	DB	09H
	DB	026H
	DB	09H
	DB	026H
	DB	09H
	DB	025H
	DB	09H
	DB	05H
	DB	09H
	DB	05H
	DB	09H
	DB	05H
	DB	09H
	DB	05H
	DB	09H
	DB	05H
	DB	09H
	DB	05H
	DB	09H
	DB	05H
	DB	09H
	DB	05H
	DB	09H
	DB	0e5H
	DB	08H
	DB	0e4H
	DB	08H
	DB	0e4H
	DB	08H
	DB	0e4H
	DB	08H
	DB	0e4H
	DB	08H
	DB	0e4H
	DB	08H
	DB	0c4H
	DB	08H
	DB	0c4H
	DB	08H
	DB	0c4H
	DB	08H
	DB	0c4H
	DB	08H
	DB	0c4H
	DB	08H
	DB	0c3H
	DB	08H
	DB	0a3H
	DB	08H
	DB	0a3H
	DB	08H
	DB	0a3H
	DB	08H
	DB	0a3H
	DB	08H
	DB	0a3H
	DB	08H
	DB	0a3H
	DB	08H
	DB	0a3H
	DB	08H
	DB	0a3H
	DB	08H
	DB	055H
	DB	014H
	DB	055H
	DB	014H
	DB	0fH
	DB	013H
	DB	0c9H
	DB	011H
	DB	0c9H
	DB	011H
	DB	0c9H
	DB	011H
	DB	0a9H
	DB	011H
	DB	0a9H
	DB	011H
	DB	0a9H
	DB	011H
	DB	0a9H
	DB	011H
	DB	0a8H
	DB	011H
	DB	0a8H
	DB	011H
	DB	088H
	DB	011H
	DB	088H
	DB	011H
	DB	088H
	DB	011H
	DB	088H
	DB	011H
	DB	088H
	DB	011H
	DB	088H
	DB	011H
	DB	088H
	DB	011H
	DB	068H
	DB	011H
	DB	067H
	DB	011H
	DB	067H
	DB	011H
	DB	067H
	DB	011H
	DB	067H
	DB	011H
	DB	067H
	DB	011H
	DB	067H
	DB	011H
	DB	047H
	DB	011H
	DB	047H
	DB	09H
	DB	046H
	DB	011H
	DB	046H
	DB	011H
	DB	046H
	DB	09H
	DB	046H
	DB	011H
	DB	026H
	DB	09H
	DB	026H
	DB	09H
	DB	026H
	DB	09H
	DB	026H
	DB	09H
	DB	026H
	DB	09H
	DB	026H
	DB	09H
	DB	025H
	DB	09H
	DB	05H
	DB	09H
	DB	05H
	DB	09H
	DB	05H
	DB	09H
	DB	05H
	DB	09H
	DB	05H
	DB	09H
	DB	05H
	DB	09H
	DB	05H
	DB	09H
	DB	0e5H
	DB	08H
	DB	0e5H
	DB	08H
	DB	0e4H
	DB	08H
	DB	0e4H
	DB	08H
	DB	0e4H
	DB	08H
	DB	0e4H
	DB	08H
	DB	0c4H
	DB	08H
	DB	0c4H
	DB	08H
	DB	0c4H
	DB	08H
	DB	0c4H
	DB	08H
	DB	0c4H
	DB	08H
	DB	0c4H
	DB	08H
	DB	0c3H
	DB	08H
	DB	0a3H
	DB	08H
	DB	0a3H
	DB	08H
	DB	0a3H
	DB	08H
	DB	0a3H
	DB	08H
	DB	0a3H
	DB	08H
	DB	0a3H
	DB	08H
	DB	0a3H
	DB	08H
	DB	0a3H
	DB	08H
	DB	055H
	DB	014H
	DB	055H
	DB	014H
	DB	0fH
	DB	013H
	DB	0c9H
	DB	011H
	DB	0c9H
	DB	011H
	DB	0c9H
	DB	011H
	DB	0a9H
	DB	011H
	DB	0a9H
	DB	011H
	DB	0a9H
	DB	011H
	DB	0a8H
	DB	011H
	DB	0a8H
	DB	011H
	DB	0a8H
	DB	011H
	DB	088H
	DB	011H
	DB	0a8H
	DB	011H
	DB	088H
	DB	011H
	DB	088H
	DB	011H
	DB	088H
	DB	011H
	DB	088H
	DB	011H
	DB	088H
	DB	011H
	DB	067H
	DB	011H
	DB	067H
	DB	011H
	DB	067H
	DB	011H
	DB	067H
	DB	011H
	DB	067H
	DB	011H
	DB	067H
	DB	011H
	DB	067H
	DB	011H
	DB	047H
	DB	011H
	DB	047H
	DB	011H
	DB	047H
	DB	011H
	DB	046H
	DB	011H
	DB	046H
	DB	011H
	DB	046H
	DB	011H
	DB	026H
	DB	09H
	DB	026H
	DB	09H
	DB	026H
	DB	09H
	DB	026H
	DB	09H
	DB	026H
	DB	09H
	DB	026H
	DB	09H
	DB	025H
	DB	09H
	DB	05H
	DB	09H
	DB	05H
	DB	09H
	DB	05H
	DB	09H
	DB	05H
	DB	09H
	DB	05H
	DB	09H
	DB	05H
	DB	09H
	DB	0e5H
	DB	08H
	DB	0e5H
	DB	08H
	DB	0e5H
	DB	08H
	DB	0e4H
	DB	08H
	DB	0e4H
	DB	08H
	DB	0e4H
	DB	08H
	DB	0e4H
	DB	08H
	DB	0c4H
	DB	08H
	DB	0c4H
	DB	08H
	DB	0c4H
	DB	08H
	DB	0c4H
	DB	08H
	DB	0c4H
	DB	08H
	DB	0c4H
	DB	08H
	DB	0a4H
	DB	08H
	DB	0a3H
	DB	08H
	DB	0a3H
	DB	08H
	DB	0a3H
	DB	08H
	DB	0a3H
	DB	08H
	DB	0a3H
	DB	08H
	DB	0a3H
	DB	08H
	DB	0a3H
	DB	08H
	DB	0a3H
	DB	08H
	DB	055H
	DB	014H
	DB	055H
	DB	014H
	DB	0fH
	DB	013H
	DB	0c9H
	DB	011H
	DB	0c9H
	DB	011H
	DB	0c9H
	DB	011H
	DB	0a9H
	DB	011H
	DB	0a9H
	DB	011H
	DB	0a9H
	DB	011H
	DB	0a9H
	DB	011H
	DB	0a8H
	DB	011H
	DB	0a8H
	DB	011H
	DB	0a8H
	DB	011H
	DB	088H
	DB	011H
	DB	088H
	DB	011H
	DB	088H
	DB	011H
	DB	088H
	DB	011H
	DB	088H
	DB	011H
	DB	088H
	DB	011H
	DB	087H
	DB	011H
	DB	067H
	DB	011H
	DB	067H
	DB	011H
	DB	067H
	DB	011H
	DB	067H
	DB	011H
	DB	067H
	DB	011H
	DB	067H
	DB	011H
	DB	047H
	DB	011H
	DB	047H
	DB	011H
	DB	047H
	DB	011H
	DB	046H
	DB	09H
	DB	046H
	DB	011H
	DB	046H
	DB	09H
	DB	026H
	DB	09H
	DB	026H
	DB	09H
	DB	026H
	DB	09H
	DB	026H
	DB	09H
	DB	026H
	DB	09H
	DB	026H
	DB	09H
	DB	025H
	DB	09H
	DB	05H
	DB	09H
	DB	05H
	DB	09H
	DB	05H
	DB	09H
	DB	05H
	DB	09H
	DB	05H
	DB	09H
	DB	05H
	DB	09H
	DB	05H
	DB	09H
	DB	0e5H
	DB	08H
	DB	0e5H
	DB	08H
	DB	0e4H
	DB	08H
	DB	0e4H
	DB	08H
	DB	0e4H
	DB	08H
	DB	0e4H
	DB	08H
	DB	0c4H
	DB	08H
	DB	0e4H
	DB	08H
	DB	0c4H
	DB	08H
	DB	0c4H
	DB	08H
	DB	0c4H
	DB	08H
	DB	0c4H
	DB	08H
	DB	0c3H
	DB	08H
	DB	0a3H
	DB	08H
	DB	0a3H
	DB	08H
	DB	0a3H
	DB	08H
	DB	0a3H
	DB	08H
	DB	0a3H
	DB	08H
	DB	0a3H
	DB	08H
	DB	0a3H
	DB	08H
	DB	0a3H
	DB	08H
	DB	055H
	DB	014H
	DB	055H
	DB	014H
	DB	0fH
	DB	013H
	DB	0c9H
	DB	011H
	DB	0c9H
	DB	011H
	DB	0c9H
	DB	011H
	DB	0a9H
	DB	011H
	DB	0a9H
	DB	011H
	DB	0a9H
	DB	011H
	DB	0a8H
	DB	011H
	DB	0a8H
	DB	011H
	DB	0a8H
	DB	011H
	DB	088H
	DB	011H
	DB	088H
	DB	011H
	DB	088H
	DB	011H
	DB	088H
	DB	011H
	DB	088H
	DB	011H
	DB	088H
	DB	011H
	DB	088H
	DB	011H
	DB	087H
	DB	011H
	DB	067H
	DB	011H
	DB	067H
	DB	011H
	DB	067H
	DB	011H
	DB	067H
	DB	011H
	DB	067H
	DB	011H
	DB	067H
	DB	011H
	DB	047H
	DB	011H
	DB	047H
	DB	011H
	DB	047H
	DB	011H
	DB	046H
	DB	09H
	DB	046H
	DB	09H
	DB	046H
	DB	09H
	DB	026H
	DB	09H
	DB	026H
	DB	09H
	DB	026H
	DB	09H
	DB	026H
	DB	09H
	DB	026H
	DB	09H
	DB	026H
	DB	09H
	DB	025H
	DB	09H
	DB	025H
	DB	09H
	DB	05H
	DB	09H
	DB	05H
	DB	09H
	DB	05H
	DB	09H
	DB	05H
	DB	09H
	DB	05H
	DB	09H
	DB	0e5H
	DB	08H
	DB	0e5H
	DB	08H
	DB	0e5H
	DB	08H
	DB	0e4H
	DB	08H
	DB	0e4H
	DB	08H
	DB	0e4H
	DB	08H
	DB	0e4H
	DB	08H
	DB	0e4H
	DB	08H
	DB	0c4H
	DB	08H
	DB	0c4H
	DB	08H
	DB	0c4H
	DB	08H
	DB	0c4H
	DB	08H
	DB	0c4H
	DB	08H
	DB	0a3H
	DB	08H
	DB	0c3H
	DB	08H
	DB	0a3H
	DB	08H
	DB	0a3H
	DB	08H
	DB	0a3H
	DB	08H
	DB	0a3H
	DB	08H
	DB	0a3H
	DB	08H
	DB	0a3H
	DB	08H
	DB	0a3H
	DB	08H
	DB	055H
	DB	014H
	DB	055H
	DB	014H
	DB	0fH
	DB	013H
	DB	0c9H
	DB	011H
	DB	0c9H
	DB	011H
	DB	0c9H
	DB	011H
	DB	0a9H
	DB	011H
	DB	0a9H
	DB	011H
	DB	0a9H
	DB	011H
	DB	0a8H
	DB	011H
	DB	0a8H
	DB	011H
	DB	0a8H
	DB	011H
	DB	0a8H
	DB	011H
	DB	088H
	DB	011H
	DB	088H
	DB	011H
	DB	088H
	DB	011H
	DB	088H
	DB	011H
	DB	088H
	DB	011H
	DB	088H
	DB	011H
	DB	068H
	DB	011H
	DB	067H
	DB	011H
	DB	067H
	DB	011H
	DB	067H
	DB	011H
	DB	067H
	DB	011H
	DB	067H
	DB	011H
	DB	067H
	DB	09H
	DB	047H
	DB	011H
	DB	047H
	DB	09H
	DB	047H
	DB	09H
	DB	046H
	DB	09H
	DB	046H
	DB	09H
	DB	046H
	DB	09H
	DB	026H
	DB	09H
	DB	026H
	DB	09H
	DB	026H
	DB	09H
	DB	026H
	DB	09H
	DB	026H
	DB	09H
	DB	026H
	DB	09H
	DB	026H
	DB	09H
	DB	05H
	DB	09H
	DB	05H
	DB	09H
	DB	05H
	DB	09H
	DB	05H
	DB	09H
	DB	05H
	DB	09H
	DB	05H
	DB	09H
	DB	05H
	DB	09H
	DB	0e5H
	DB	08H
	DB	0e5H
	DB	08H
	DB	0e5H
	DB	08H
	DB	0e4H
	DB	08H
	DB	0e4H
	DB	08H
	DB	0c4H
	DB	08H
	DB	0c4H
	DB	08H
	DB	0c4H
	DB	08H
	DB	0c4H
	DB	08H
	DB	0c4H
	DB	08H
	DB	0c4H
	DB	08H
	DB	0c4H
	DB	08H
	DB	0c3H
	DB	08H
	DB	0a3H
	DB	08H
	DB	0a3H
	DB	08H
	DB	0a3H
	DB	08H
	DB	0a3H
	DB	08H
	DB	0a3H
	DB	08H
	DB	0a3H
	DB	08H
	DB	0a3H
	DB	08H
	DB	0a3H
	DB	08H
	DB	055H
	DB	014H
	DB	055H
	DB	014H
	DB	0fH
	DB	013H
	DB	0c9H
	DB	011H
	DB	0c9H
	DB	011H
	DB	0a9H
	DB	011H
	DB	0a9H
	DB	011H
	DB	0a9H
	DB	011H
	DB	0a9H
	DB	011H
	DB	0a9H
	DB	011H
	DB	0a8H
	DB	011H
	DB	0a8H
	DB	011H
	DB	0a8H
	DB	011H
	DB	088H
	DB	011H
	DB	088H
	DB	011H
	DB	088H
	DB	011H
	DB	088H
	DB	011H
	DB	088H
	DB	011H
	DB	088H
	DB	011H
	DB	087H
	DB	011H
	DB	087H
	DB	011H
	DB	067H
	DB	011H
	DB	067H
	DB	011H
	DB	067H
	DB	011H
	DB	067H
	DB	011H
	DB	047H
	DB	011H
	DB	067H
	DB	011H
	DB	047H
	DB	011H
	DB	047H
	DB	011H
	DB	046H
	DB	09H
	DB	046H
	DB	011H
	DB	046H
	DB	09H
	DB	046H
	DB	09H
	DB	026H
	DB	09H
	DB	026H
	DB	09H
	DB	026H
	DB	09H
	DB	026H
	DB	09H
	DB	026H
	DB	09H
	DB	026H
	DB	09H
	DB	05H
	DB	09H
	DB	05H
	DB	09H
	DB	05H
	DB	09H
	DB	05H
	DB	09H
	DB	05H
	DB	09H
	DB	05H
	DB	09H
	DB	05H
	DB	09H
	DB	0e5H
	DB	08H
	DB	0e5H
	DB	08H
	DB	0e4H
	DB	08H
	DB	0e4H
	DB	08H
	DB	0e4H
	DB	08H
	DB	0e4H
	DB	08H
	DB	0e4H
	DB	08H
	DB	0c4H
	DB	08H
	DB	0c4H
	DB	08H
	DB	0c4H
	DB	08H
	DB	0c4H
	DB	08H
	DB	0c4H
	DB	08H
	DB	0c3H
	DB	08H
	DB	0a3H
	DB	08H
	DB	0a3H
	DB	08H
	DB	0a3H
	DB	08H
	DB	0a3H
	DB	08H
	DB	0a3H
	DB	08H
	DB	0a3H
	DB	08H
	DB	0a3H
	DB	08H
	DB	0a3H
	DB	08H
	DB	055H
	DB	014H
	DB	055H
	DB	014H
	DB	0fH
	DB	013H
	DB	0c9H
	DB	011H
	DB	0c9H
	DB	011H
	DB	0c9H
	DB	011H
	DB	0c9H
	DB	011H
	DB	0a9H
	DB	011H
	DB	0a9H
	DB	011H
	DB	0a8H
	DB	011H
	DB	0a8H
	DB	011H
	DB	0a8H
	DB	011H
	DB	0a8H
	DB	011H
	DB	088H
	DB	011H
	DB	088H
	DB	011H
	DB	088H
	DB	011H
	DB	088H
	DB	011H
	DB	088H
	DB	011H
	DB	088H
	DB	011H
	DB	067H
	DB	011H
	DB	067H
	DB	011H
	DB	067H
	DB	011H
	DB	067H
	DB	011H
	DB	067H
	DB	011H
	DB	067H
	DB	011H
	DB	067H
	DB	011H
	DB	067H
	DB	011H
	DB	047H
	DB	011H
	DB	047H
	DB	09H
	DB	046H
	DB	09H
	DB	046H
	DB	09H
	DB	046H
	DB	011H
	DB	046H
	DB	09H
	DB	026H
	DB	09H
	DB	026H
	DB	09H
	DB	026H
	DB	09H
	DB	026H
	DB	09H
	DB	026H
	DB	09H
	DB	025H
	DB	09H
	DB	05H
	DB	09H
	DB	05H
	DB	09H
	DB	05H
	DB	09H
	DB	05H
	DB	09H
	DB	05H
	DB	09H
	DB	05H
	DB	09H
	DB	0e5H
	DB	08H
	DB	0e5H
	DB	08H
	DB	0e5H
	DB	08H
	DB	0e4H
	DB	08H
	DB	0e4H
	DB	08H
	DB	0e4H
	DB	08H
	DB	0e4H
	DB	08H
	DB	0c4H
	DB	08H
	DB	0c4H
	DB	08H
	DB	0c4H
	DB	08H
	DB	0c4H
	DB	08H
	DB	0c4H
	DB	08H
	DB	0c4H
	DB	08H
	DB	0c3H
	DB	08H
	DB	0c3H
	DB	08H
	DB	0a3H
	DB	08H
	DB	0a3H
	DB	08H
	DB	0a3H
	DB	08H
	DB	0a3H
	DB	08H
	DB	0a3H
	DB	08H
	DB	0a3H
	DB	08H
	DB	0a3H
	DB	08H
	DB	055H
	DB	014H
	DB	055H
	DB	014H
	DB	0fH
	DB	013H
	DB	0c9H
	DB	011H
	DB	0c9H
	DB	011H
	DB	0c9H
	DB	011H
	DB	0a9H
	DB	011H
	DB	0a9H
	DB	011H
	DB	0a9H
	DB	011H
	DB	0a8H
	DB	011H
	DB	0a8H
	DB	011H
	DB	0a8H
	DB	011H
	DB	0a8H
	DB	011H
	DB	0a8H
	DB	011H
	DB	088H
	DB	011H
	DB	088H
	DB	011H
	DB	088H
	DB	011H
	DB	088H
	DB	011H
	DB	087H
	DB	011H
	DB	087H
	DB	011H
	DB	067H
	DB	011H
	DB	067H
	DB	011H
	DB	067H
	DB	011H
	DB	067H
	DB	011H
	DB	067H
	DB	011H
	DB	067H
	DB	011H
	DB	067H
	DB	09H
	DB	047H
	DB	011H
	DB	046H
	DB	09H
	DB	046H
	DB	09H
	DB	046H
	DB	09H
	DB	046H
	DB	09H
	DB	046H
	DB	09H
	DB	026H
	DB	09H
	DB	026H
	DB	09H
	DB	026H
	DB	09H
	DB	026H
	DB	09H
	DB	026H
	DB	09H
	DB	025H
	DB	09H
	DB	05H
	DB	09H
	DB	05H
	DB	09H
	DB	05H
	DB	09H
	DB	05H
	DB	09H
	DB	05H
	DB	09H
	DB	05H
	DB	09H
	DB	05H
	DB	09H
	DB	05H
	DB	09H
	DB	0e5H
	DB	08H
	DB	0e4H
	DB	08H
	DB	0e4H
	DB	08H
	DB	0e4H
	DB	08H
	DB	0e4H
	DB	08H
	DB	0e4H
	DB	08H
	DB	0c4H
	DB	08H
	DB	0c4H
	DB	08H
	DB	0c4H
	DB	08H
	DB	0c4H
	DB	08H
	DB	0c3H
	DB	08H
	DB	0c3H
	DB	08H
	DB	0a3H
	DB	08H
	DB	0c3H
	DB	08H
	DB	0a3H
	DB	08H
	DB	0a3H
	DB	08H
	DB	0a3H
	DB	08H
	DB	0a3H
	DB	08H
	DB	0a3H
	DB	08H
	DB	0a3H
	DB	08H
	DB	055H
	DB	014H
	DB	055H
	DB	014H
	DB	0fH
	DB	013H
	DB	0c9H
	DB	011H
	DB	0c9H
	DB	011H
	DB	0c9H
	DB	011H
	DB	0a9H
	DB	011H
	DB	0a9H
	DB	011H
	DB	0a9H
	DB	011H
	DB	0a8H
	DB	011H
	DB	0a8H
	DB	011H
	DB	0a8H
	DB	011H
	DB	0a8H
	DB	011H
	DB	0a8H
	DB	011H
	DB	088H
	DB	011H
	DB	088H
	DB	011H
	DB	088H
	DB	011H
	DB	088H
	DB	011H
	DB	088H
	DB	011H
	DB	087H
	DB	011H
	DB	067H
	DB	011H
	DB	067H
	DB	011H
	DB	067H
	DB	011H
	DB	067H
	DB	011H
	DB	067H
	DB	011H
	DB	067H
	DB	011H
	DB	047H
	DB	011H
	DB	047H
	DB	011H
	DB	047H
	DB	011H
	DB	046H
	DB	09H
	DB	046H
	DB	09H
	DB	046H
	DB	09H
	DB	026H
	DB	09H
	DB	026H
	DB	09H
	DB	026H
	DB	09H
	DB	026H
	DB	09H
	DB	026H
	DB	09H
	DB	026H
	DB	09H
	DB	026H
	DB	09H
	DB	025H
	DB	09H
	DB	05H
	DB	09H
	DB	05H
	DB	09H
	DB	05H
	DB	09H
	DB	05H
	DB	09H
	DB	05H
	DB	09H
	DB	0e5H
	DB	08H
	DB	0e5H
	DB	08H
	DB	0e5H
	DB	08H
	DB	0e4H
	DB	08H
	DB	0e4H
	DB	08H
	DB	0e4H
	DB	08H
	DB	0e4H
	DB	08H
	DB	0e4H
	DB	08H
	DB	0e4H
	DB	08H
	DB	0c4H
	DB	08H
	DB	0c4H
	DB	08H
	DB	0c4H
	DB	08H
	DB	0c3H
	DB	08H
	DB	0c3H
	DB	08H
	DB	0a3H
	DB	08H
	DB	0a3H
	DB	08H
	DB	0a3H
	DB	08H
	DB	0a3H
	DB	08H
	DB	0a3H
	DB	08H
	DB	0a3H
	DB	08H
	DB	0a3H
	DB	08H
	DB	0a3H
	DB	08H
	DB	055H
	DB	014H
	DB	055H
	DB	014H
	DB	0fH
	DB	013H
	DB	0c9H
	DB	011H
	DB	0c9H
	DB	011H
	DB	0c9H
	DB	011H
	DB	0c9H
	DB	011H
	DB	0a9H
	DB	011H
	DB	0a9H
	DB	011H
	DB	0a9H
	DB	011H
	DB	0a8H
	DB	011H
	DB	0a8H
	DB	011H
	DB	0a8H
	DB	011H
	DB	088H
	DB	011H
	DB	088H
	DB	011H
	DB	088H
	DB	011H
	DB	088H
	DB	011H
	DB	088H
	DB	011H
	DB	088H
	DB	011H
	DB	087H
	DB	011H
	DB	067H
	DB	011H
	DB	067H
	DB	011H
	DB	067H
	DB	011H
	DB	067H
	DB	011H
	DB	067H
	DB	011H
	DB	067H
	DB	011H
	DB	067H
	DB	011H
	DB	047H
	DB	011H
	DB	047H
	DB	011H
	DB	046H
	DB	011H
	DB	046H
	DB	09H
	DB	046H
	DB	09H
	DB	046H
	DB	09H
	DB	026H
	DB	09H
	DB	026H
	DB	09H
	DB	026H
	DB	09H
	DB	026H
	DB	09H
	DB	026H
	DB	09H
	DB	025H
	DB	09H
	DB	05H
	DB	09H
	DB	05H
	DB	09H
	DB	05H
	DB	09H
	DB	05H
	DB	09H
	DB	05H
	DB	09H
	DB	05H
	DB	09H
	DB	05H
	DB	09H
	DB	0e5H
	DB	08H
	DB	0e5H
	DB	08H
	DB	0e4H
	DB	08H
	DB	0e4H
	DB	08H
	DB	0e4H
	DB	08H
	DB	0e4H
	DB	08H
	DB	0e4H
	DB	08H
	DB	0c4H
	DB	08H
	DB	0c4H
	DB	08H
	DB	0c4H
	DB	08H
	DB	0c4H
	DB	08H
	DB	0c4H
	DB	08H
	DB	0c3H
	DB	08H
	DB	0a3H
	DB	08H
	DB	0a3H
	DB	08H
	DB	0a3H
	DB	08H
	DB	0a3H
	DB	08H
	DB	0a3H
	DB	08H
	DB	0a3H
	DB	08H
	DB	0a3H
	DB	08H
	DB	0a3H
	DB	08H
	DB	055H
	DB	014H
	DB	055H
	DB	014H
	DB	0fH
	DB	013H
	DB	0c9H
	DB	011H
	DB	0c9H
	DB	011H
	DB	0c9H
	DB	011H
	DB	0c9H
	DB	011H
	DB	0a9H
	DB	011H
	DB	0a9H
	DB	011H
	DB	0a9H
	DB	011H
	DB	0a8H
	DB	011H
	DB	0a8H
	DB	011H
	DB	0a8H
	DB	011H
	DB	088H
	DB	011H
	DB	088H
	DB	011H
	DB	088H
	DB	011H
	DB	088H
	DB	011H
	DB	088H
	DB	011H
	DB	088H
	DB	011H
	DB	068H
	DB	011H
	DB	067H
	DB	011H
	DB	067H
	DB	011H
	DB	067H
	DB	011H
	DB	067H
	DB	011H
	DB	067H
	DB	011H
	DB	067H
	DB	011H
	DB	047H
	DB	011H
	DB	047H
	DB	011H
	DB	047H
	DB	011H
	DB	046H
	DB	011H
	DB	046H
	DB	011H
	DB	046H
	DB	09H
	DB	046H
	DB	09H
	DB	046H
	DB	09H
	DB	026H
	DB	09H
	DB	026H
	DB	09H
	DB	026H
	DB	09H
	DB	026H
	DB	09H
	DB	025H
	DB	09H
	DB	05H
	DB	09H
	DB	05H
	DB	09H
	DB	05H
	DB	09H
	DB	05H
	DB	09H
	DB	05H
	DB	09H
	DB	05H
	DB	09H
	DB	05H
	DB	09H
	DB	0e5H
	DB	08H
	DB	0e4H
	DB	08H
	DB	0e5H
	DB	08H
	DB	0e4H
	DB	08H
	DB	0e4H
	DB	08H
	DB	0e4H
	DB	08H
	DB	0e4H
	DB	08H
	DB	0e4H
	DB	08H
	DB	0c4H
	DB	08H
	DB	0c4H
	DB	08H
	DB	0c4H
	DB	08H
	DB	0c4H
	DB	08H
	DB	0c3H
	DB	08H
	DB	0a3H
	DB	08H
	DB	0a3H
	DB	08H
	DB	0a3H
	DB	08H
	DB	0a3H
	DB	08H
	DB	0a3H
	DB	08H
	DB	0a3H
	DB	08H
	DB	0a3H
	DB	08H
	DB	0a3H
	DB	08H
	DB	055H
	DB	014H
	DB	055H
	DB	014H
	DB	0fH
	DB	013H
	DB	0c9H
	DB	011H
	DB	0c9H
	DB	011H
	DB	0c9H
	DB	011H
	DB	0c9H
	DB	011H
	DB	0a9H
	DB	011H
	DB	0a9H
	DB	011H
	DB	0a8H
	DB	011H
	DB	0a8H
	DB	011H
	DB	0a8H
	DB	011H
	DB	088H
	DB	011H
	DB	088H
	DB	011H
	DB	088H
	DB	011H
	DB	088H
	DB	011H
	DB	088H
	DB	011H
	DB	088H
	DB	011H
	DB	088H
	DB	011H
	DB	088H
	DB	011H
	DB	067H
	DB	011H
	DB	067H
	DB	011H
	DB	067H
	DB	011H
	DB	067H
	DB	011H
	DB	067H
	DB	011H
	DB	067H
	DB	011H
	DB	047H
	DB	011H
	DB	047H
	DB	011H
	DB	047H
	DB	09H
	DB	047H
	DB	09H
	DB	046H
	DB	011H
	DB	046H
	DB	09H
	DB	046H
	DB	09H
	DB	026H
	DB	09H
	DB	026H
	DB	09H
	DB	026H
	DB	09H
	DB	026H
	DB	09H
	DB	026H
	DB	09H
	DB	026H
	DB	09H
	DB	05H
	DB	09H
	DB	025H
	DB	09H
	DB	05H
	DB	09H
	DB	05H
	DB	09H
	DB	05H
	DB	09H
	DB	05H
	DB	09H
	DB	05H
	DB	09H
	DB	05H
	DB	09H
	DB	0e5H
	DB	08H
	DB	0e4H
	DB	08H
	DB	0e4H
	DB	08H
	DB	0e4H
	DB	08H
	DB	0e4H
	DB	08H
	DB	0e4H
	DB	08H
	DB	0c4H
	DB	08H
	DB	0c4H
	DB	08H
	DB	0c4H
	DB	08H
	DB	0c4H
	DB	08H
	DB	0c4H
	DB	08H
	DB	0c3H
	DB	08H
	DB	0a3H
	DB	08H
	DB	0a3H
	DB	08H
	DB	0a3H
	DB	08H
	DB	0a3H
	DB	08H
	DB	0a3H
	DB	08H
	DB	0a3H
	DB	08H
	DB	0a3H
	DB	08H
	DB	0a3H
	DB	08H
	DB	055H
	DB	014H
	DB	055H
	DB	014H
	DB	0fH
	DB	013H
	DB	0c9H
	DB	011H
	DB	0c9H
	DB	011H
	DB	0c9H
	DB	011H
	DB	0c9H
	DB	011H
	DB	0a9H
	DB	011H
	DB	0a9H
	DB	011H
	DB	0a8H
	DB	011H
	DB	0a8H
	DB	011H
	DB	0a8H
	DB	011H
	DB	088H
	DB	011H
	DB	0a8H
	DB	011H
	DB	088H
	DB	011H
	DB	088H
	DB	011H
	DB	088H
	DB	011H
	DB	088H
	DB	011H
	DB	088H
	DB	011H
	DB	087H
	DB	011H
	DB	067H
	DB	011H
	DB	067H
	DB	011H
	DB	067H
	DB	011H
	DB	067H
	DB	011H
	DB	067H
	DB	011H
	DB	067H
	DB	011H
	DB	067H
	DB	011H
	DB	047H
	DB	011H
	DB	046H
	DB	09H
	DB	046H
	DB	011H
	DB	046H
	DB	09H
	DB	046H
	DB	09H
	DB	026H
	DB	09H
	DB	026H
	DB	09H
	DB	026H
	DB	09H
	DB	026H
	DB	09H
	DB	026H
	DB	09H
	DB	026H
	DB	09H
	DB	026H
	DB	09H
	DB	025H
	DB	09H
	DB	05H
	DB	09H
	DB	05H
	DB	09H
	DB	05H
	DB	09H
	DB	05H
	DB	09H
	DB	05H
	DB	09H
	DB	0e5H
	DB	08H
	DB	0e5H
	DB	08H
	DB	0e4H
	DB	08H
	DB	0e4H
	DB	08H
	DB	0e4H
	DB	08H
	DB	0e4H
	DB	08H
	DB	0e4H
	DB	08H
	DB	0e4H
	DB	08H
	DB	0c4H
	DB	08H
	DB	0c4H
	DB	08H
	DB	0c4H
	DB	08H
	DB	0c4H
	DB	08H
	DB	0c4H
	DB	08H
	DB	0c4H
	DB	08H
	DB	0c3H
	DB	08H
	DB	0a3H
	DB	08H
	DB	0a3H
	DB	08H
	DB	0a3H
	DB	08H
	DB	0a3H
	DB	08H
	DB	0a3H
	DB	08H
	DB	0a3H
	DB	08H
	DB	0a3H
	DB	08H
	DB	055H
	DB	014H
	DB	055H
	DB	014H
	DB	0fH
	DB	013H
	DB	0c9H
	DB	011H
	DB	0c9H
	DB	011H
	DB	0c9H
	DB	011H
	DB	0a9H
	DB	011H
	DB	0a9H
	DB	011H
	DB	0a9H
	DB	011H
	DB	0a9H
	DB	011H
	DB	0a8H
	DB	011H
	DB	0a8H
	DB	011H
	DB	0a8H
	DB	011H
	DB	088H
	DB	011H
	DB	088H
	DB	011H
	DB	088H
	DB	011H
	DB	088H
	DB	011H
	DB	088H
	DB	011H
	DB	088H
	DB	011H
	DB	068H
	DB	011H
	DB	067H
	DB	011H
	DB	067H
	DB	011H
	DB	067H
	DB	011H
	DB	067H
	DB	011H
	DB	067H
	DB	011H
	DB	067H
	DB	011H
	DB	047H
	DB	011H
	DB	047H
	DB	011H
	DB	047H
	DB	09H
	DB	046H
	DB	09H
	DB	046H
	DB	09H
	DB	046H
	DB	09H
	DB	046H
	DB	09H
	DB	026H
	DB	09H
	DB	026H
	DB	09H
	DB	026H
	DB	09H
	DB	026H
	DB	09H
	DB	026H
	DB	09H
	DB	026H
	DB	09H
	DB	025H
	DB	09H
	DB	025H
	DB	09H
	DB	05H
	DB	09H
	DB	05H
	DB	09H
	DB	05H
	DB	09H
	DB	05H
	DB	09H
	DB	05H
	DB	09H
	DB	0e5H
	DB	08H
	DB	0e5H
	DB	08H
	DB	0e4H
	DB	08H
	DB	0e4H
	DB	08H
	DB	0e4H
	DB	08H
	DB	0e4H
	DB	08H
	DB	0e4H
	DB	08H
	DB	0e4H
	DB	08H
	DB	0c4H
	DB	08H
	DB	0c4H
	DB	08H
	DB	0c4H
	DB	08H
	DB	0c4H
	DB	08H
	DB	0c3H
	DB	08H
	DB	0a3H
	DB	08H
	DB	0a3H
	DB	08H
	DB	0a3H
	DB	08H
	DB	0a3H
	DB	08H
	DB	0a3H
	DB	00H
	DB	0a3H
	DB	08H
	DB	0a3H
	DB	08H
	DB	0a3H
	DB	08H
	DB	055H
	DB	014H
	DB	055H
	DB	014H
	DB	0fH
	DB	013H
	DB	0c9H
	DB	011H
	DB	0c9H
	DB	011H
	DB	0c9H
	DB	011H
	DB	0c9H
	DB	011H
	DB	0c9H
	DB	011H
	DB	0a9H
	DB	011H
	DB	0a9H
	DB	011H
	DB	0a8H
	DB	011H
	DB	0a8H
	DB	011H
	DB	0a8H
	DB	011H
	DB	0a8H
	DB	011H
	DB	088H
	DB	011H
	DB	088H
	DB	011H
	DB	088H
	DB	011H
	DB	088H
	DB	011H
	DB	088H
	DB	011H
	DB	068H
	DB	011H
	DB	067H
	DB	011H
	DB	067H
	DB	011H
	DB	067H
	DB	011H
	DB	067H
	DB	011H
	DB	067H
	DB	011H
	DB	067H
	DB	011H
	DB	047H
	DB	011H
	DB	047H
	DB	011H
	DB	047H
	DB	011H
	DB	046H
	DB	011H
	DB	046H
	DB	09H
	DB	046H
	DB	09H
	DB	046H
	DB	09H
	DB	046H
	DB	09H
	DB	026H
	DB	09H
	DB	026H
	DB	09H
	DB	026H
	DB	09H
	DB	026H
	DB	09H
	DB	026H
	DB	09H
	DB	05H
	DB	09H
	DB	05H
	DB	09H
	DB	05H
	DB	09H
	DB	05H
	DB	09H
	DB	05H
	DB	09H
	DB	05H
	DB	09H
	DB	0e5H
	DB	08H
	DB	0e5H
	DB	08H
	DB	0e5H
	DB	08H
	DB	0e4H
	DB	08H
	DB	0e4H
	DB	08H
	DB	0e4H
	DB	08H
	DB	0e4H
	DB	08H
	DB	0c4H
	DB	08H
	DB	0c4H
	DB	08H
	DB	0c4H
	DB	08H
	DB	0c4H
	DB	08H
	DB	0c4H
	DB	08H
	DB	0c3H
	DB	08H
	DB	0a3H
	DB	08H
	DB	0c3H
	DB	08H
	DB	0a3H
	DB	08H
	DB	0a3H
	DB	08H
	DB	0a3H
	DB	08H
	DB	0a3H
	DB	08H
	DB	0a3H
	DB	08H
	DB	0a3H
	DB	08H
	DB	0a3H
	DB	08H
	DB	055H
	DB	014H
	DB	055H
	DB	014H
	DB	0fH
	DB	013H
	DB	0c9H
	DB	011H
	DB	0c9H
	DB	011H
	DB	0c9H
	DB	011H
	DB	0c9H
	DB	011H
	DB	0a9H
	DB	011H
	DB	0a9H
	DB	011H
	DB	0a9H
	DB	011H
	DB	0a8H
	DB	011H
	DB	0a8H
	DB	011H
	DB	0a8H
	DB	011H
	DB	0a8H
	DB	011H
	DB	088H
	DB	011H
	DB	088H
	DB	011H
	DB	088H
	DB	011H
	DB	088H
	DB	011H
	DB	088H
	DB	011H
	DB	087H
	DB	011H
	DB	067H
	DB	011H
	DB	067H
	DB	011H
	DB	067H
	DB	011H
	DB	067H
	DB	011H
	DB	067H
	DB	011H
	DB	067H
	DB	011H
	DB	067H
	DB	011H
	DB	047H
	DB	011H
	DB	047H
	DB	011H
	DB	046H
	DB	011H
	DB	046H
	DB	011H
	DB	046H
	DB	09H
	DB	026H
	DB	09H
	DB	026H
	DB	09H
	DB	026H
	DB	09H
	DB	026H
	DB	09H
	DB	026H
	DB	09H
	DB	026H
	DB	09H
	DB	026H
	DB	09H
	DB	025H
	DB	09H
	DB	05H
	DB	09H
	DB	05H
	DB	09H
	DB	05H
	DB	09H
	DB	05H
	DB	09H
	DB	05H
	DB	09H
	DB	05H
	DB	09H
	DB	0e5H
	DB	08H
	DB	0e5H
	DB	08H
	DB	0e5H
	DB	08H
	DB	0e4H
	DB	08H
	DB	0e4H
	DB	08H
	DB	0e4H
	DB	08H
	DB	0e4H
	DB	08H
	DB	0c4H
	DB	08H
	DB	0c4H
	DB	08H
	DB	0c4H
	DB	08H
	DB	0c4H
	DB	08H
	DB	0c4H
	DB	08H
	DB	0c3H
	DB	08H
	DB	0a3H
	DB	08H
	DB	0a3H
	DB	08H
	DB	0a3H
	DB	08H
	DB	0a3H
	DB	08H
	DB	0a3H
	DB	08H
	DB	0a3H
	DB	08H
	DB	0a3H
	DB	08H
	DB	0a3H
	DB	08H
	DB	055H
	DB	014H
	DB	055H
	DB	014H
	DB	0fH
	DB	013H
	DB	0c9H
	DB	011H
	DB	0c9H
	DB	011H
	DB	0c9H
	DB	011H
	DB	0c9H
	DB	011H
	DB	0a9H
	DB	011H
	DB	0a9H
	DB	011H
	DB	0a8H
	DB	011H
	DB	0a8H
	DB	011H
	DB	0a8H
	DB	011H
	DB	0a8H
	DB	011H
	DB	088H
	DB	011H
	DB	088H
	DB	011H
	DB	088H
	DB	011H
	DB	088H
	DB	011H
	DB	088H
	DB	011H
	DB	088H
	DB	011H
	DB	088H
	DB	011H
	DB	087H
	DB	011H
	DB	067H
	DB	011H
	DB	067H
	DB	011H
	DB	067H
	DB	011H
	DB	067H
	DB	011H
	DB	067H
	DB	011H
	DB	067H
	DB	011H
	DB	047H
	DB	011H
	DB	047H
	DB	011H
	DB	046H
	DB	011H
	DB	046H
	DB	011H
	DB	046H
	DB	09H
	DB	026H
	DB	09H
	DB	046H
	DB	09H
	DB	026H
	DB	09H
	DB	026H
	DB	09H
	DB	026H
	DB	09H
	DB	026H
	DB	09H
	DB	026H
	DB	09H
	DB	05H
	DB	09H
	DB	05H
	DB	09H
	DB	05H
	DB	09H
	DB	05H
	DB	09H
	DB	05H
	DB	09H
	DB	05H
	DB	09H
	DB	05H
	DB	09H
	DB	05H
	DB	09H
	DB	0e5H
	DB	08H
	DB	0e4H
	DB	08H
	DB	0e4H
	DB	08H
	DB	0e4H
	DB	08H
	DB	0e4H
	DB	08H
	DB	0e4H
	DB	08H
	DB	0e4H
	DB	08H
	DB	0c4H
	DB	08H
	DB	0c4H
	DB	08H
	DB	0c4H
	DB	08H
	DB	0c4H
	DB	08H
	DB	0c3H
	DB	08H
	DB	0c3H
	DB	08H
	DB	0c3H
	DB	08H
	DB	0a3H
	DB	08H
	DB	0a3H
	DB	08H
	DB	0a3H
	DB	08H
	DB	0a3H
	DB	08H
	DB	0a3H
	DB	08H
	DB	0a3H
	DB	08H
	DB	055H
	DB	014H
	DB	055H
	DB	014H
	DB	0fH
	DB	013H
	DB	0c9H
	DB	011H
	DB	0c9H
	DB	011H
	DB	0c9H
	DB	011H
	DB	0c9H
	DB	011H
	DB	0a9H
	DB	011H
	DB	0a9H
	DB	011H
	DB	0a9H
	DB	011H
	DB	0a8H
	DB	011H
	DB	0a8H
	DB	011H
	DB	0a8H
	DB	011H
	DB	0a8H
	DB	011H
	DB	088H
	DB	011H
	DB	088H
	DB	011H
	DB	088H
	DB	011H
	DB	088H
	DB	011H
	DB	088H
	DB	011H
	DB	088H
	DB	011H
	DB	067H
	DB	011H
	DB	067H
	DB	011H
	DB	067H
	DB	011H
	DB	067H
	DB	011H
	DB	067H
	DB	011H
	DB	067H
	DB	011H
	DB	047H
	DB	011H
	DB	047H
	DB	011H
	DB	047H
	DB	011H
	DB	046H
	DB	09H
	DB	046H
	DB	011H
	DB	046H
	DB	09H
	DB	046H
	DB	09H
	DB	046H
	DB	09H
	DB	026H
	DB	09H
	DB	026H
	DB	09H
	DB	026H
	DB	09H
	DB	026H
	DB	09H
	DB	06H
	DB	09H
	DB	05H
	DB	09H
	DB	05H
	DB	09H
	DB	05H
	DB	09H
	DB	05H
	DB	09H
	DB	05H
	DB	09H
	DB	05H
	DB	09H
	DB	05H
	DB	09H
	DB	05H
	DB	09H
	DB	0e5H
	DB	08H
	DB	0e5H
	DB	08H
	DB	0e4H
	DB	08H
	DB	0e4H
	DB	08H
	DB	0e4H
	DB	08H
	DB	0e4H
	DB	08H
	DB	0c4H
	DB	08H
	DB	0c4H
	DB	08H
	DB	0c4H
	DB	08H
	DB	0c4H
	DB	08H
	DB	0c4H
	DB	08H
	DB	0c3H
	DB	08H
	DB	0c3H
	DB	08H
	DB	0a3H
	DB	08H
	DB	0a3H
	DB	08H
	DB	0a3H
	DB	08H
	DB	0a3H
	DB	08H
	DB	0a3H
	DB	08H
	DB	0a3H
	DB	08H
	DB	0a3H
	DB	08H
	DB	055H
	DB	014H
	DB	055H
	DB	014H
	DB	0fH
	DB	013H
	DB	0c9H
	DB	011H
	DB	0c9H
	DB	011H
	DB	0c9H
	DB	011H
	DB	0c9H
	DB	011H
	DB	0a9H
	DB	011H
	DB	0a9H
	DB	011H
	DB	0a9H
	DB	011H
	DB	0a8H
	DB	011H
	DB	0a8H
	DB	011H
	DB	0a8H
	DB	011H
	DB	088H
	DB	011H
	DB	088H
	DB	011H
	DB	088H
	DB	011H
	DB	088H
	DB	011H
	DB	088H
	DB	011H
	DB	088H
	DB	011H
	DB	087H
	DB	011H
	DB	087H
	DB	011H
	DB	067H
	DB	011H
	DB	067H
	DB	011H
	DB	067H
	DB	011H
	DB	067H
	DB	011H
	DB	067H
	DB	011H
	DB	067H
	DB	011H
	DB	047H
	DB	011H
	DB	047H
	DB	09H
	DB	046H
	DB	011H
	DB	046H
	DB	09H
	DB	046H
	DB	09H
	DB	046H
	DB	09H
	DB	026H
	DB	09H
	DB	026H
	DB	09H
	DB	026H
	DB	09H
	DB	026H
	DB	09H
	DB	026H
	DB	09H
	DB	026H
	DB	09H
	DB	06H
	DB	09H
	DB	05H
	DB	09H
	DB	05H
	DB	09H
	DB	05H
	DB	09H
	DB	05H
	DB	09H
	DB	05H
	DB	09H
	DB	0e5H
	DB	08H
	DB	0e5H
	DB	08H
	DB	0e5H
	DB	08H
	DB	0e4H
	DB	08H
	DB	0e4H
	DB	08H
	DB	0e4H
	DB	08H
	DB	0e4H
	DB	08H
	DB	0e4H
	DB	08H
	DB	0c4H
	DB	08H
	DB	0c4H
	DB	08H
	DB	0c4H
	DB	08H
	DB	0c4H
	DB	08H
	DB	0c4H
	DB	08H
	DB	0c4H
	DB	08H
	DB	0a3H
	DB	08H
	DB	0a3H
	DB	08H
	DB	0a3H
	DB	08H
	DB	0a3H
	DB	08H
	DB	0a3H
	DB	08H
	DB	0a3H
	DB	08H
	DB	0a3H
	DB	08H
	DB	0a3H
	DB	08H
	DB	055H
	DB	014H
	DB	055H
	DB	014H
	DB	0fH
	DB	013H
	DB	0c9H
	DB	011H
	DB	0c9H
	DB	011H
	DB	0c9H
	DB	011H
	DB	0c9H
	DB	011H
	DB	0a9H
	DB	011H
	DB	0a9H
	DB	011H
	DB	0a8H
	DB	011H
	DB	0a8H
	DB	011H
	DB	0a8H
	DB	011H
	DB	0a8H
	DB	011H
	DB	088H
	DB	011H
	DB	088H
	DB	011H
	DB	088H
	DB	011H
	DB	088H
	DB	011H
	DB	088H
	DB	011H
	DB	088H
	DB	011H
	DB	087H
	DB	011H
	DB	067H
	DB	011H
	DB	067H
	DB	011H
	DB	067H
	DB	011H
	DB	067H
	DB	011H
	DB	067H
	DB	011H
	DB	067H
	DB	011H
	DB	047H
	DB	011H
	DB	047H
	DB	011H
	DB	047H
	DB	011H
	DB	047H
	DB	09H
	DB	046H
	DB	09H
	DB	046H
	DB	011H
	DB	046H
	DB	09H
	DB	046H
	DB	09H
	DB	026H
	DB	09H
	DB	026H
	DB	09H
	DB	026H
	DB	09H
	DB	026H
	DB	09H
	DB	026H
	DB	09H
	DB	05H
	DB	09H
	DB	05H
	DB	09H
	DB	05H
	DB	09H
	DB	05H
	DB	09H
	DB	05H
	DB	09H
	DB	05H
	DB	09H
	DB	0e5H
	DB	08H
	DB	05H
	DB	09H
	DB	0e5H
	DB	08H
	DB	0e5H
	DB	08H
	DB	0e4H
	DB	08H
	DB	0e4H
	DB	08H
	DB	0e4H
	DB	08H
	DB	0e4H
	DB	08H
	DB	0c4H
	DB	08H
	DB	0c4H
	DB	08H
	DB	0c4H
	DB	08H
	DB	0c4H
	DB	08H
	DB	0c4H
	DB	08H
	DB	0c3H
	DB	08H
	DB	0a3H
	DB	08H
	DB	0a3H
	DB	08H
	DB	0a3H
	DB	08H
	DB	0a3H
	DB	08H
	DB	0a3H
	DB	08H
	DB	0a3H
	DB	08H
	DB	0a3H
	DB	08H
	DB	0a3H
	DB	08H
	DB	055H
	DB	014H
	DB	055H
	DB	014H
	DB	0fH
	DB	013H
	DB	0c9H
	DB	011H
	DB	0c9H
	DB	011H
	DB	0c9H
	DB	011H
	DB	0a9H
	DB	011H
	DB	0a9H
	DB	011H
	DB	0a9H
	DB	011H
	DB	0a8H
	DB	011H
	DB	0a8H
	DB	011H
	DB	0a8H
	DB	011H
	DB	0a8H
	DB	011H
	DB	088H
	DB	011H
	DB	0a8H
	DB	011H
	DB	088H
	DB	011H
	DB	088H
	DB	011H
	DB	088H
	DB	011H
	DB	088H
	DB	011H
	DB	067H
	DB	011H
	DB	067H
	DB	011H
	DB	067H
	DB	011H
	DB	067H
	DB	011H
	DB	067H
	DB	011H
	DB	067H
	DB	011H
	DB	067H
	DB	011H
	DB	067H
	DB	011H
	DB	047H
	DB	011H
	DB	047H
	DB	011H
	DB	047H
	DB	09H
	DB	046H
	DB	09H
	DB	046H
	DB	09H
	DB	046H
	DB	09H
	DB	046H
	DB	09H
	DB	026H
	DB	09H
	DB	026H
	DB	09H
	DB	026H
	DB	09H
	DB	026H
	DB	09H
	DB	026H
	DB	09H
	DB	025H
	DB	09H
	DB	025H
	DB	09H
	DB	05H
	DB	09H
	DB	05H
	DB	09H
	DB	05H
	DB	09H
	DB	05H
	DB	09H
	DB	05H
	DB	09H
	DB	0e5H
	DB	08H
	DB	0e5H
	DB	08H
	DB	0e4H
	DB	08H
	DB	0e4H
	DB	08H
	DB	0e4H
	DB	08H
	DB	0e4H
	DB	08H
	DB	0e4H
	DB	08H
	DB	0c4H
	DB	08H
	DB	0c4H
	DB	08H
	DB	0c4H
	DB	08H
	DB	0c4H
	DB	08H
	DB	0c4H
	DB	08H
	DB	0c4H
	DB	08H
	DB	0c3H
	DB	08H
	DB	0a3H
	DB	08H
	DB	0a3H
	DB	08H
	DB	0a3H
	DB	08H
	DB	0a3H
	DB	08H
	DB	0a3H
	DB	08H
	DB	0a3H
	DB	08H
	DB	0a3H
	DB	08H
	DB	055H
	DB	014H
	DB	055H
	DB	014H
	DB	0fH
	DB	013H
	DB	0c9H
	DB	011H
	DB	0c9H
	DB	011H
	DB	0c9H
	DB	011H
	DB	0a9H
	DB	011H
	DB	0c9H
	DB	011H
	DB	0a9H
	DB	011H
	DB	0a8H
	DB	011H
	DB	0a8H
	DB	011H
	DB	0a8H
	DB	011H
	DB	0a8H
	DB	011H
	DB	0a8H
	DB	011H
	DB	088H
	DB	011H
	DB	088H
	DB	011H
	DB	088H
	DB	011H
	DB	088H
	DB	011H
	DB	088H
	DB	011H
	DB	068H
	DB	011H
	DB	067H
	DB	011H
	DB	067H
	DB	011H
	DB	067H
	DB	011H
	DB	067H
	DB	011H
	DB	067H
	DB	011H
	DB	067H
	DB	011H
	DB	047H
	DB	011H
	DB	047H
	DB	011H
	DB	047H
	DB	09H
	DB	046H
	DB	011H
	DB	046H
	DB	09H
	DB	046H
	DB	09H
	DB	046H
	DB	09H
	DB	026H
	DB	09H
	DB	026H
	DB	09H
	DB	026H
	DB	09H
	DB	026H
	DB	09H
	DB	026H
	DB	09H
	DB	026H
	DB	09H
	DB	05H
	DB	09H
	DB	05H
	DB	09H
	DB	05H
	DB	09H
	DB	05H
	DB	09H
	DB	05H
	DB	09H
	DB	05H
	DB	09H
	DB	05H
	DB	09H
	DB	05H
	DB	09H
	DB	0e5H
	DB	08H
	DB	0e5H
	DB	08H
	DB	0e4H
	DB	08H
	DB	0e4H
	DB	08H
	DB	0e4H
	DB	08H
	DB	0e4H
	DB	08H
	DB	0c4H
	DB	08H
	DB	0c4H
	DB	08H
	DB	0c4H
	DB	08H
	DB	0c4H
	DB	08H
	DB	0c4H
	DB	08H
	DB	0c4H
	DB	08H
	DB	0a3H
	DB	08H
	DB	0a3H
	DB	08H
	DB	0a3H
	DB	08H
	DB	0a3H
	DB	08H
	DB	0a3H
	DB	08H
	DB	0a3H
	DB	08H
	DB	0a3H
	DB	08H
	DB	0a3H
	DB	08H
	DB	055H
	DB	014H
	DB	055H
	DB	014H
	DB	0fH
	DB	013H
	DB	0c9H
	DB	011H
	DB	0c9H
	DB	011H
	DB	0c9H
	DB	011H
	DB	0c9H
	DB	011H
	DB	0c9H
	DB	011H
	DB	0a9H
	DB	011H
	DB	0a9H
	DB	011H
	DB	0a9H
	DB	011H
	DB	0a8H
	DB	011H
	DB	0a8H
	DB	011H
	DB	0a8H
	DB	011H
	DB	088H
	DB	011H
	DB	088H
	DB	011H
	DB	088H
	DB	011H
	DB	088H
	DB	011H
	DB	088H
	DB	011H
	DB	068H
	DB	011H
	DB	087H
	DB	011H
	DB	067H
	DB	011H
	DB	067H
	DB	011H
	DB	067H
	DB	011H
	DB	067H
	DB	011H
	DB	067H
	DB	011H
	DB	047H
	DB	011H
	DB	047H
	DB	011H
	DB	047H
	DB	011H
	DB	047H
	DB	011H
	DB	046H
	DB	09H
	DB	046H
	DB	09H
	DB	046H
	DB	09H
	DB	046H
	DB	09H
	DB	026H
	DB	09H
	DB	026H
	DB	09H
	DB	026H
	DB	09H
	DB	026H
	DB	09H
	DB	026H
	DB	09H
	DB	06H
	DB	09H
	DB	05H
	DB	09H
	DB	05H
	DB	09H
	DB	05H
	DB	09H
	DB	05H
	DB	09H
	DB	05H
	DB	09H
	DB	05H
	DB	09H
	DB	0e5H
	DB	08H
	DB	0e5H
	DB	08H
	DB	0e5H
	DB	08H
	DB	0e4H
	DB	08H
	DB	0e4H
	DB	08H
	DB	0e4H
	DB	08H
	DB	0c4H
	DB	08H
	DB	0c4H
	DB	08H
	DB	0c4H
	DB	08H
	DB	0c4H
	DB	08H
	DB	0c4H
	DB	08H
	DB	0c4H
	DB	08H
	DB	0c4H
	DB	08H
	DB	0c3H
	DB	08H
	DB	0a3H
	DB	08H
	DB	0a3H
	DB	08H
	DB	0a3H
	DB	08H
	DB	0a3H
	DB	08H
	DB	0a3H
	DB	08H
	DB	0a3H
	DB	08H
	DB	0a3H
	DB	08H
	DB	055H
	DB	014H
	DB	055H
	DB	014H
	DB	0fH
	DB	013H
	DB	0c9H
	DB	011H
	DB	0c9H
	DB	011H
	DB	0c9H
	DB	011H
	DB	0a9H
	DB	011H
	DB	0a9H
	DB	011H
	DB	0a9H
	DB	011H
	DB	0a8H
	DB	011H
	DB	0a8H
	DB	011H
	DB	0a8H
	DB	011H
	DB	0a8H
	DB	011H
	DB	088H
	DB	011H
	DB	088H
	DB	011H
	DB	088H
	DB	011H
	DB	088H
	DB	011H
	DB	088H
	DB	011H
	DB	088H
	DB	011H
	DB	088H
	DB	011H
	DB	087H
	DB	011H
	DB	067H
	DB	011H
	DB	067H
	DB	011H
	DB	067H
	DB	011H
	DB	067H
	DB	011H
	DB	067H
	DB	011H
	DB	047H
	DB	011H
	DB	047H
	DB	011H
	DB	047H
	DB	09H
	DB	046H
	DB	09H
	DB	046H
	DB	09H
	DB	046H
	DB	09H
	DB	026H
	DB	09H
	DB	046H
	DB	09H
	DB	026H
	DB	09H
	DB	026H
	DB	09H
	DB	026H
	DB	09H
	DB	026H
	DB	09H
	DB	026H
	DB	09H
	DB	025H
	DB	09H
	DB	025H
	DB	09H
	DB	05H
	DB	09H
	DB	05H
	DB	09H
	DB	05H
	DB	09H
	DB	05H
	DB	09H
	DB	05H
	DB	09H
	DB	05H
	DB	09H
	DB	0e5H
	DB	08H
	DB	0e4H
	DB	08H
	DB	0e4H
	DB	08H
	DB	0e4H
	DB	08H
	DB	0e4H
	DB	08H
	DB	0c4H
	DB	08H
	DB	0c4H
	DB	08H
	DB	0c4H
	DB	08H
	DB	0c4H
	DB	08H
	DB	0c4H
	DB	08H
	DB	0c4H
	DB	08H
	DB	0c3H
	DB	08H
	DB	0c3H
	DB	08H
	DB	0a3H
	DB	08H
	DB	0a3H
	DB	08H
	DB	0a3H
	DB	08H
	DB	0a3H
	DB	08H
	DB	0a3H
	DB	08H
	DB	0a3H
	DB	08H
	DB	0a3H
	DB	08H
	DB	055H
	DB	014H
	DB	055H
	DB	014H
	DB	0fH
	DB	013H
	DB	0c9H
	DB	011H
	DB	0c9H
	DB	011H
	DB	0c9H
	DB	011H
	DB	0c9H
	DB	011H
	DB	0c9H
	DB	011H
	DB	0a9H
	DB	011H
	DB	0a9H
	DB	011H
	DB	0a9H
	DB	011H
	DB	0a8H
	DB	011H
	DB	0a8H
	DB	011H
	DB	0a8H
	DB	011H
	DB	0a8H
	DB	011H
	DB	088H
	DB	011H
	DB	088H
	DB	011H
	DB	088H
	DB	011H
	DB	088H
	DB	011H
	DB	087H
	DB	011H
	DB	087H
	DB	011H
	DB	067H
	DB	011H
	DB	067H
	DB	011H
	DB	067H
	DB	011H
	DB	067H
	DB	011H
	DB	067H
	DB	011H
	DB	047H
	DB	011H
	DB	047H
	DB	09H
	DB	047H
	DB	09H
	DB	047H
	DB	09H
	DB	046H
	DB	09H
	DB	046H
	DB	09H
	DB	046H
	DB	09H
	DB	026H
	DB	09H
	DB	026H
	DB	09H
	DB	026H
	DB	09H
	DB	026H
	DB	09H
	DB	026H
	DB	09H
	DB	026H
	DB	09H
	DB	025H
	DB	09H
	DB	05H
	DB	09H
	DB	05H
	DB	09H
	DB	05H
	DB	09H
	DB	05H
	DB	09H
	DB	05H
	DB	09H
	DB	05H
	DB	09H
	DB	0e5H
	DB	08H
	DB	0e5H
	DB	08H
	DB	0e5H
	DB	08H
	DB	0e4H
	DB	08H
	DB	0e4H
	DB	08H
	DB	0e4H
	DB	08H
	DB	0e4H
	DB	08H
	DB	0c4H
	DB	08H
	DB	0c4H
	DB	08H
	DB	0c4H
	DB	08H
	DB	0c4H
	DB	08H
	DB	0c4H
	DB	08H
	DB	0c4H
	DB	08H
	DB	0c3H
	DB	08H
	DB	0a3H
	DB	08H
	DB	0a3H
	DB	08H
	DB	0a3H
	DB	08H
	DB	0a3H
	DB	08H
	DB	0a3H
	DB	08H
	DB	0a3H
	DB	08H
	DB	0a3H
	DB	08H
	DB	055H
	DB	014H
	DB	055H
	DB	014H
	DB	0fH
	DB	013H
	DB	0c9H
	DB	011H
	DB	0c9H
	DB	011H
	DB	0c9H
	DB	011H
	DB	0c9H
	DB	011H
	DB	0a9H
	DB	011H
	DB	0a9H
	DB	011H
	DB	0a9H
	DB	011H
	DB	0a8H
	DB	011H
	DB	0a8H
	DB	011H
	DB	0a8H
	DB	011H
	DB	088H
	DB	011H
	DB	088H
	DB	011H
	DB	088H
	DB	011H
	DB	088H
	DB	011H
	DB	088H
	DB	011H
	DB	088H
	DB	011H
	DB	087H
	DB	011H
	DB	087H
	DB	011H
	DB	067H
	DB	011H
	DB	067H
	DB	011H
	DB	067H
	DB	011H
	DB	067H
	DB	011H
	DB	067H
	DB	011H
	DB	047H
	DB	011H
	DB	047H
	DB	011H
	DB	047H
	DB	011H
	DB	046H
	DB	011H
	DB	046H
	DB	09H
	DB	046H
	DB	09H
	DB	046H
	DB	09H
	DB	046H
	DB	09H
	DB	026H
	DB	09H
	DB	026H
	DB	09H
	DB	026H
	DB	09H
	DB	026H
	DB	09H
	DB	026H
	DB	09H
	DB	025H
	DB	09H
	DB	05H
	DB	09H
	DB	05H
	DB	09H
	DB	05H
	DB	09H
	DB	05H
	DB	09H
	DB	05H
	DB	09H
	DB	05H
	DB	09H
	DB	0e5H
	DB	08H
	DB	0e5H
	DB	08H
	DB	0e5H
	DB	08H
	DB	0e4H
	DB	08H
	DB	0e4H
	DB	08H
	DB	0e4H
	DB	08H
	DB	0e4H
	DB	08H
	DB	0c4H
	DB	08H
	DB	0c4H
	DB	08H
	DB	0c4H
	DB	08H
	DB	0c4H
	DB	08H
	DB	0c4H
	DB	08H
	DB	0c3H
	DB	08H
	DB	0c3H
	DB	08H
	DB	0a3H
	DB	08H
	DB	0a3H
	DB	08H
	DB	0a3H
	DB	08H
	DB	0a3H
	DB	08H
	DB	0a3H
	DB	08H
	DB	0a3H
	DB	08H
	DB	0a3H
	DB	08H
	DB	055H
	DB	014H
	DB	055H
	DB	014H
	DB	0fH
	DB	013H
	DB	0c9H
	DB	011H
	DB	0c9H
	DB	011H
	DB	0c9H
	DB	011H
	DB	0a9H
	DB	011H
	DB	0c9H
	DB	011H
	DB	0a9H
	DB	011H
	DB	0a9H
	DB	011H
	DB	0a8H
	DB	011H
	DB	0a8H
	DB	011H
	DB	0a8H
	DB	011H
	DB	088H
	DB	011H
	DB	088H
	DB	011H
	DB	088H
	DB	011H
	DB	088H
	DB	011H
	DB	088H
	DB	011H
	DB	088H
	DB	011H
	DB	088H
	DB	011H
	DB	067H
	DB	011H
	DB	067H
	DB	011H
	DB	067H
	DB	011H
	DB	067H
	DB	011H
	DB	067H
	DB	011H
	DB	067H
	DB	011H
	DB	067H
	DB	011H
	DB	047H
	DB	09H
	DB	047H
	DB	011H
	DB	046H
	DB	09H
	DB	046H
	DB	09H
	DB	046H
	DB	09H
	DB	046H
	DB	09H
	DB	026H
	DB	09H
	DB	046H
	DB	09H
	DB	026H
	DB	09H
	DB	026H
	DB	09H
	DB	026H
	DB	09H
	DB	026H
	DB	09H
	DB	025H
	DB	09H
	DB	025H
	DB	09H
	DB	05H
	DB	09H
	DB	05H
	DB	09H
	DB	05H
	DB	09H
	DB	05H
	DB	09H
	DB	05H
	DB	09H
	DB	0e5H
	DB	08H
	DB	0e5H
	DB	08H
	DB	0e4H
	DB	08H
	DB	0e4H
	DB	08H
	DB	0e4H
	DB	08H
	DB	0e4H
	DB	08H
	DB	0e4H
	DB	08H
	DB	0c4H
	DB	08H
	DB	0c4H
	DB	08H
	DB	0c4H
	DB	08H
	DB	0c4H
	DB	08H
	DB	0c4H
	DB	08H
	DB	0c4H
	DB	08H
	DB	0c3H
	DB	08H
	DB	0a3H
	DB	08H
	DB	0a3H
	DB	08H
	DB	0a3H
	DB	08H
	DB	0a3H
	DB	08H
	DB	0a3H
	DB	08H
	DB	0a3H
	DB	08H
	DB	0a3H
	DB	08H
	DB	055H
	DB	014H
	DB	055H
	DB	014H
	DB	0fH
	DB	013H
	DB	0c9H
	DB	011H
	DB	0c9H
	DB	011H
	DB	0c9H
	DB	011H
	DB	0c9H
	DB	011H
	DB	0a9H
	DB	011H
	DB	0a9H
	DB	011H
	DB	0a9H
	DB	011H
	DB	0a9H
	DB	011H
	DB	0a8H
	DB	011H
	DB	0a8H
	DB	011H
	DB	0a8H
	DB	011H
	DB	088H
	DB	011H
	DB	088H
	DB	011H
	DB	088H
	DB	011H
	DB	088H
	DB	011H
	DB	088H
	DB	011H
	DB	088H
	DB	011H
	DB	067H
	DB	011H
	DB	067H
	DB	011H
	DB	067H
	DB	011H
	DB	067H
	DB	011H
	DB	067H
	DB	011H
	DB	067H
	DB	011H
	DB	067H
	DB	011H
	DB	047H
	DB	011H
	DB	047H
	DB	011H
	DB	047H
	DB	09H
	DB	046H
	DB	011H
	DB	046H
	DB	09H
	DB	046H
	DB	09H
	DB	026H
	DB	09H
	DB	026H
	DB	09H
	DB	026H
	DB	09H
	DB	026H
	DB	09H
	DB	026H
	DB	09H
	DB	026H
	DB	09H
	DB	025H
	DB	09H
	DB	05H
	DB	09H
	DB	05H
	DB	09H
	DB	05H
	DB	09H
	DB	05H
	DB	09H
	DB	05H
	DB	09H
	DB	05H
	DB	09H
	DB	0e5H
	DB	08H
	DB	0e5H
	DB	08H
	DB	0e4H
	DB	08H
	DB	0e4H
	DB	08H
	DB	0e4H
	DB	08H
	DB	0e4H
	DB	08H
	DB	0e4H
	DB	08H
	DB	0c4H
	DB	08H
	DB	0c4H
	DB	08H
	DB	0c4H
	DB	08H
	DB	0c4H
	DB	08H
	DB	0c4H
	DB	08H
	DB	0c3H
	DB	08H
	DB	0a3H
	DB	08H
	DB	0a3H
	DB	08H
	DB	0a3H
	DB	08H
	DB	0a3H
	DB	08H
	DB	0a3H
	DB	08H
	DB	0a3H
	DB	08H
	DB	0a3H
	DB	08H
	DB	0a3H
	DB	08H
	DB	055H
	DB	014H
	DB	055H
	DB	014H
	DB	0fH
	DB	013H
	DB	0c9H
	DB	011H
	DB	0c9H
	DB	011H
	DB	0c9H
	DB	011H
	DB	0c9H
	DB	011H
	DB	0a9H
	DB	011H
	DB	0a9H
	DB	011H
	DB	0a9H
	DB	011H
	DB	0a8H
	DB	011H
	DB	0a8H
	DB	011H
	DB	0a8H
	DB	011H
	DB	0a8H
	DB	011H
	DB	088H
	DB	011H
	DB	088H
	DB	011H
	DB	088H
	DB	011H
	DB	088H
	DB	011H
	DB	088H
	DB	011H
	DB	088H
	DB	011H
	DB	087H
	DB	011H
	DB	067H
	DB	011H
	DB	067H
	DB	011H
	DB	067H
	DB	011H
	DB	067H
	DB	011H
	DB	067H
	DB	011H
	DB	067H
	DB	011H
	DB	047H
	DB	011H
	DB	047H
	DB	011H
	DB	047H
	DB	09H
	DB	046H
	DB	011H
	DB	046H
	DB	09H
	DB	026H
	DB	011H
	DB	046H
	DB	09H
	DB	026H
	DB	09H
	DB	026H
	DB	09H
	DB	026H
	DB	09H
	DB	026H
	DB	09H
	DB	026H
	DB	09H
	DB	025H
	DB	09H
	DB	025H
	DB	09H
	DB	05H
	DB	09H
	DB	05H
	DB	09H
	DB	05H
	DB	09H
	DB	05H
	DB	09H
	DB	05H
	DB	09H
	DB	0e5H
	DB	08H
	DB	05H
	DB	09H
	DB	0e4H
	DB	08H
	DB	0e4H
	DB	08H
	DB	0e4H
	DB	08H
	DB	0e4H
	DB	08H
	DB	0e4H
	DB	08H
	DB	0c4H
	DB	08H
	DB	0c4H
	DB	08H
	DB	0c4H
	DB	08H
	DB	0c4H
	DB	08H
	DB	0c4H
	DB	08H
	DB	0c3H
	DB	08H
	DB	0c3H
	DB	08H
	DB	0c3H
	DB	08H
	DB	0a3H
	DB	08H
	DB	0a3H
	DB	08H
	DB	0a3H
	DB	08H
	DB	0a3H
	DB	08H
	DB	0a3H
	DB	08H
	DB	0a3H
	DB	08H
	DB	055H
	DB	014H
	DB	055H
	DB	014H
	DB	0fH
	DB	013H
	DB	0c9H
	DB	011H
	DB	0c9H
	DB	011H
	DB	0c9H
	DB	011H
	DB	0c9H
	DB	011H
	DB	0a9H
	DB	011H
	DB	0a9H
	DB	011H
	DB	0a9H
	DB	011H
	DB	0a8H
	DB	011H
	DB	0a8H
	DB	011H
	DB	0a8H
	DB	011H
	DB	088H
	DB	011H
	DB	088H
	DB	011H
	DB	088H
	DB	011H
	DB	088H
	DB	011H
	DB	088H
	DB	011H
	DB	088H
	DB	011H
	DB	088H
	DB	011H
	DB	067H
	DB	011H
	DB	067H
	DB	011H
	DB	067H
	DB	011H
	DB	067H
	DB	011H
	DB	067H
	DB	011H
	DB	067H
	DB	011H
	DB	047H
	DB	011H
	DB	047H
	DB	011H
	DB	047H
	DB	011H
	DB	047H
	DB	011H
	DB	046H
	DB	09H
	DB	046H
	DB	09H
	DB	046H
	DB	09H
	DB	046H
	DB	09H
	DB	026H
	DB	09H
	DB	026H
	DB	09H
	DB	026H
	DB	09H
	DB	026H
	DB	09H
	DB	026H
	DB	09H
	DB	026H
	DB	09H
	DB	05H
	DB	09H
	DB	05H
	DB	09H
	DB	05H
	DB	09H
	DB	05H
	DB	09H
	DB	05H
	DB	09H
	DB	05H
	DB	09H
	DB	0e5H
	DB	08H
	DB	05H
	DB	09H
	DB	0e5H
	DB	08H
	DB	0e4H
	DB	08H
	DB	0e4H
	DB	08H
	DB	0e4H
	DB	08H
	DB	0e4H
	DB	08H
	DB	0c4H
	DB	08H
	DB	0c4H
	DB	08H
	DB	0c4H
	DB	08H
	DB	0c4H
	DB	08H
	DB	0c4H
	DB	08H
	DB	0c4H
	DB	08H
	DB	0c3H
	DB	08H
	DB	0a3H
	DB	08H
	DB	0a3H
	DB	08H
	DB	0a3H
	DB	08H
	DB	0a3H
	DB	08H
	DB	0a3H
	DB	08H
	DB	0a3H
	DB	08H
	DB	0a3H
	DB	08H
	DB	055H
	DB	014H
	DB	055H
	DB	014H
	DB	0fH
	DB	013H
	DB	0c9H
	DB	011H
	DB	0c9H
	DB	011H
	DB	0c9H
	DB	011H
	DB	0c9H
	DB	011H
	DB	0a9H
	DB	011H
	DB	0a9H
	DB	011H
	DB	0a9H
	DB	011H
	DB	0a8H
	DB	011H
	DB	0a8H
	DB	011H
	DB	0a8H
	DB	011H
	DB	088H
	DB	011H
	DB	088H
	DB	011H
	DB	088H
	DB	011H
	DB	088H
	DB	011H
	DB	088H
	DB	011H
	DB	088H
	DB	011H
	DB	088H
	DB	011H
	DB	067H
	DB	011H
	DB	067H
	DB	011H
	DB	067H
	DB	011H
	DB	067H
	DB	011H
	DB	067H
	DB	011H
	DB	067H
	DB	011H
	DB	047H
	DB	011H
	DB	067H
	DB	09H
	DB	047H
	DB	011H
	DB	047H
	DB	011H
	DB	046H
	DB	09H
	DB	046H
	DB	09H
	DB	046H
	DB	09H
	DB	026H
	DB	09H
	DB	026H
	DB	09H
	DB	026H
	DB	09H
	DB	026H
	DB	09H
	DB	026H
	DB	09H
	DB	026H
	DB	09H
	DB	026H
	DB	09H
	DB	025H
	DB	09H
	DB	05H
	DB	09H
	DB	05H
	DB	09H
	DB	05H
	DB	09H
	DB	05H
	DB	09H
	DB	05H
	DB	09H
	DB	05H
	DB	09H
	DB	0e5H
	DB	08H
	DB	0e5H
	DB	08H
	DB	0e5H
	DB	08H
	DB	0e4H
	DB	08H
	DB	0e4H
	DB	08H
	DB	0e4H
	DB	08H
	DB	0c4H
	DB	08H
	DB	0c4H
	DB	08H
	DB	0c4H
	DB	08H
	DB	0c4H
	DB	08H
	DB	0c4H
	DB	08H
	DB	0c3H
	DB	08H
	DB	0c3H
	DB	08H
	DB	0a3H
	DB	08H
	DB	0a3H
	DB	08H
	DB	0a3H
	DB	08H
	DB	0a3H
	DB	08H
	DB	0a3H
	DB	08H
	DB	0a3H
	DB	08H
	DB	0a3H
	DB	08H
	DB	055H
	DB	014H
	DB	055H
	DB	014H
	DB	0fH
	DB	013H
	DB	0c9H
	DB	011H
	DB	0c9H
	DB	011H
	DB	0c9H
	DB	011H
	DB	0a9H
	DB	011H
	DB	0a9H
	DB	011H
	DB	0c9H
	DB	011H
	DB	0a9H
	DB	011H
	DB	0a8H
	DB	011H
	DB	0a8H
	DB	011H
	DB	0a8H
	DB	011H
	DB	0a8H
	DB	011H
	DB	088H
	DB	011H
	DB	088H
	DB	011H
	DB	088H
	DB	011H
	DB	088H
	DB	011H
	DB	088H
	DB	011H
	DB	088H
	DB	011H
	DB	067H
	DB	011H
	DB	067H
	DB	011H
	DB	067H
	DB	011H
	DB	067H
	DB	011H
	DB	067H
	DB	011H
	DB	067H
	DB	011H
	DB	047H
	DB	011H
	DB	067H
	DB	011H
	DB	047H
	DB	09H
	DB	046H
	DB	011H
	DB	046H
	DB	09H
	DB	046H
	DB	09H
	DB	046H
	DB	09H
	DB	046H
	DB	09H
	DB	026H
	DB	09H
	DB	026H
	DB	09H
	DB	026H
	DB	09H
	DB	026H
	DB	09H
	DB	025H
	DB	09H
	DB	025H
	DB	09H
	DB	05H
	DB	09H
	DB	05H
	DB	09H
	DB	05H
	DB	09H
	DB	05H
	DB	09H
	DB	05H
	DB	09H
	DB	05H
	DB	09H
	DB	05H
	DB	09H
	DB	0e5H
	DB	08H
	DB	0e5H
	DB	08H
	DB	0e4H
	DB	08H
	DB	0e4H
	DB	08H
	DB	0e4H
	DB	08H
	DB	0e4H
	DB	08H
	DB	0c4H
	DB	08H
	DB	0c4H
	DB	08H
	DB	0c4H
	DB	08H
	DB	0c4H
	DB	08H
	DB	0c4H
	DB	08H
	DB	0c4H
	DB	08H
	DB	0c3H
	DB	08H
	DB	0a3H
	DB	08H
	DB	0a3H
	DB	08H
	DB	0a3H
	DB	08H
	DB	0a3H
	DB	08H
	DB	0a3H
	DB	08H
	DB	0a3H
	DB	08H
	DB	0a3H
	DB	08H
	DB	055H
	DB	014H
	DB	055H
	DB	014H
	DB	0fH
	DB	013H
	DB	0c9H
	DB	011H
	DB	0c9H
	DB	011H
	DB	0c9H
	DB	011H
	DB	0c9H
	DB	011H
	DB	0a9H
	DB	011H
	DB	0a9H
	DB	011H
	DB	0a9H
	DB	011H
	DB	0a8H
	DB	011H
	DB	0a8H
	DB	011H
	DB	0a8H
	DB	011H
	DB	0a8H
	DB	011H
	DB	088H
	DB	011H
	DB	088H
	DB	011H
	DB	088H
	DB	011H
	DB	088H
	DB	011H
	DB	088H
	DB	011H
	DB	087H
	DB	011H
	DB	087H
	DB	011H
	DB	087H
	DB	011H
	DB	067H
	DB	011H
	DB	067H
	DB	011H
	DB	067H
	DB	011H
	DB	067H
	DB	011H
	DB	047H
	DB	011H
	DB	047H
	DB	011H
	DB	047H
	DB	011H
	DB	046H
	DB	011H
	DB	046H
	DB	09H
	DB	046H
	DB	09H
	DB	046H
	DB	09H
	DB	046H
	DB	09H
	DB	026H
	DB	09H
	DB	026H
	DB	09H
	DB	026H
	DB	09H
	DB	026H
	DB	09H
	DB	026H
	DB	09H
	DB	05H
	DB	09H
	DB	025H
	DB	09H
	DB	05H
	DB	09H
	DB	05H
	DB	09H
	DB	05H
	DB	09H
	DB	05H
	DB	09H
	DB	05H
	DB	09H
	DB	05H
	DB	09H
	DB	0e5H
	DB	08H
	DB	0e5H
	DB	08H
	DB	0e4H
	DB	08H
	DB	0e4H
	DB	08H
	DB	0e4H
	DB	08H
	DB	0e4H
	DB	08H
	DB	0c4H
	DB	08H
	DB	0c4H
	DB	08H
	DB	0c4H
	DB	08H
	DB	0c4H
	DB	08H
	DB	0c4H
	DB	08H
	DB	0c4H
	DB	08H
	DB	0a3H
	DB	08H
	DB	0a3H
	DB	08H
	DB	0a3H
	DB	08H
	DB	0a3H
	DB	08H
	DB	0a3H
	DB	08H
	DB	0a3H
	DB	08H
	DB	0a3H
	DB	08H
	DB	0a3H
	DB	08H
	DB	055H
	DB	014H
	DB	055H
	DB	014H
	DB	0fH
	DB	013H
	DB	0c9H
	DB	011H
	DB	0c9H
	DB	011H
	DB	0c9H
	DB	011H
	DB	0c9H
	DB	011H
	DB	0a9H
	DB	011H
	DB	0a9H
	DB	011H
	DB	0a9H
	DB	011H
	DB	0a8H
	DB	011H
	DB	0a8H
	DB	011H
	DB	0a8H
	DB	011H
	DB	088H
	DB	011H
	DB	088H
	DB	011H
	DB	088H
	DB	011H
	DB	088H
	DB	011H
	DB	088H
	DB	011H
	DB	088H
	DB	011H
	DB	088H
	DB	011H
	DB	087H
	DB	011H
	DB	067H
	DB	011H
	DB	067H
	DB	011H
	DB	067H
	DB	011H
	DB	067H
	DB	011H
	DB	067H
	DB	011H
	DB	047H
	DB	011H
	DB	067H
	DB	011H
	DB	047H
	DB	011H
	DB	047H
	DB	011H
	DB	046H
	DB	09H
	DB	046H
	DB	09H
	DB	046H
	DB	09H
	DB	046H
	DB	09H
	DB	026H
	DB	09H
	DB	026H
	DB	09H
	DB	026H
	DB	09H
	DB	026H
	DB	09H
	DB	026H
	DB	09H
	DB	026H
	DB	09H
	DB	05H
	DB	09H
	DB	05H
	DB	09H
	DB	05H
	DB	09H
	DB	05H
	DB	09H
	DB	05H
	DB	09H
	DB	05H
	DB	09H
	DB	0e5H
	DB	08H
	DB	05H
	DB	09H
	DB	0e5H
	DB	08H
	DB	0e4H
	DB	08H
	DB	0e4H
	DB	08H
	DB	0e4H
	DB	08H
	DB	0e4H
	DB	08H
	DB	0e4H
	DB	08H
	DB	0e4H
	DB	08H
	DB	0c4H
	DB	08H
	DB	0c4H
	DB	08H
	DB	0c4H
	DB	08H
	DB	0c4H
	DB	08H
	DB	0a3H
	DB	08H
	DB	0c3H
	DB	08H
	DB	0a3H
	DB	08H
	DB	0a3H
	DB	08H
	DB	0a3H
	DB	08H
	DB	0a3H
	DB	08H
	DB	0a3H
	DB	08H
	DB	0a3H
	DB	08H
	DB	055H
	DB	014H
	DB	055H
	DB	014H
	DB	0fH
	DB	013H
	DB	0c9H
	DB	011H
	DB	0c9H
	DB	011H
	DB	0c9H
	DB	011H
	DB	0a9H
	DB	011H
	DB	0a9H
	DB	011H
	DB	0a9H
	DB	011H
	DB	0a9H
	DB	011H
	DB	0a8H
	DB	011H
	DB	0a8H
	DB	011H
	DB	0a8H
	DB	011H
	DB	0a8H
	DB	011H
	DB	088H
	DB	011H
	DB	088H
	DB	011H
	DB	088H
	DB	011H
	DB	088H
	DB	011H
	DB	088H
	DB	011H
	DB	088H
	DB	011H
	DB	087H
	DB	011H
	DB	067H
	DB	011H
	DB	067H
	DB	011H
	DB	067H
	DB	011H
	DB	067H
	DB	011H
	DB	067H
	DB	011H
	DB	067H
	DB	011H
	DB	047H
	DB	011H
	DB	047H
	DB	09H
	DB	047H
	DB	011H
	DB	046H
	DB	09H
	DB	046H
	DB	011H
	DB	046H
	DB	09H
	DB	026H
	DB	09H
	DB	026H
	DB	09H
	DB	026H
	DB	09H
	DB	026H
	DB	09H
	DB	026H
	DB	09H
	DB	026H
	DB	09H
	DB	025H
	DB	09H
	DB	05H
	DB	09H
	DB	05H
	DB	09H
	DB	05H
	DB	09H
	DB	05H
	DB	09H
	DB	05H
	DB	09H
	DB	05H
	DB	09H
	DB	05H
	DB	09H
	DB	0e5H
	DB	08H
	DB	0e5H
	DB	08H
	DB	0e4H
	DB	08H
	DB	0e4H
	DB	08H
	DB	0e4H
	DB	08H
	DB	0e4H
	DB	08H
	DB	0c4H
	DB	08H
	DB	0c4H
	DB	08H
	DB	0c4H
	DB	08H
	DB	0c4H
	DB	08H
	DB	0c4H
	DB	08H
	DB	0c3H
	DB	08H
	DB	0c3H
	DB	08H
	DB	0a3H
	DB	08H
	DB	0a3H
	DB	08H
	DB	0a3H
	DB	08H
	DB	0a3H
	DB	08H
	DB	0a3H
	DB	08H
	DB	0a3H
	DB	08H
	DB	0a3H
	DB	08H
	DB	055H
	DB	014H
	DB	055H
	DB	014H
	DB	0fH
	DB	013H
	DB	0c9H
	DB	011H
	DB	0c9H
	DB	011H
	DB	0c9H
	DB	011H
	DB	0c9H
	DB	011H
	DB	0c9H
	DB	011H
	DB	0a9H
	DB	011H
	DB	0a9H
	DB	011H
	DB	0a8H
	DB	011H
	DB	0a8H
	DB	011H
	DB	0a8H
	DB	011H
	DB	0a8H
	DB	011H
	DB	088H
	DB	011H
	DB	088H
	DB	011H
	DB	088H
	DB	011H
	DB	088H
	DB	011H
	DB	088H
	DB	011H
	DB	088H
	DB	011H
	DB	067H
	DB	011H
	DB	067H
	DB	011H
	DB	067H
	DB	011H
	DB	067H
	DB	011H
	DB	067H
	DB	011H
	DB	067H
	DB	011H
	DB	067H
	DB	011H
	DB	047H
	DB	011H
	DB	047H
	DB	011H
	DB	046H
	DB	011H
	DB	046H
	DB	011H
	DB	046H
	DB	09H
	DB	046H
	DB	09H
	DB	026H
	DB	09H
	DB	026H
	DB	09H
	DB	026H
	DB	09H
	DB	026H
	DB	09H
	DB	026H
	DB	09H
	DB	026H
	DB	09H
	DB	025H
	DB	09H
	DB	025H
	DB	09H
	DB	05H
	DB	09H
	DB	05H
	DB	09H
	DB	05H
	DB	09H
	DB	05H
	DB	09H
	DB	05H
	DB	09H
	DB	05H
	DB	09H
	DB	0e5H
	DB	08H
	DB	0e5H
	DB	08H
	DB	0e4H
	DB	08H
	DB	0e4H
	DB	08H
	DB	0e4H
	DB	08H
	DB	0e4H
	DB	08H
	DB	0e4H
	DB	08H
	DB	0c4H
	DB	08H
	DB	0c4H
	DB	08H
	DB	0c4H
	DB	08H
	DB	0c4H
	DB	08H
	DB	0c4H
	DB	08H
	DB	0c3H
	DB	08H
	DB	0c3H
	DB	08H
	DB	0a3H
	DB	08H
	DB	0a3H
	DB	08H
	DB	0a3H
	DB	08H
	DB	0a3H
	DB	08H
	DB	0a3H
	DB	08H
	DB	0a3H
	DB	08H
	DB	055H
	DB	014H
	DB	055H
	DB	014H
	DB	0fH
	DB	013H
	DB	0c9H
	DB	011H
	DB	0c9H
	DB	011H
	DB	0c9H
	DB	011H
	DB	0a9H
	DB	011H
	DB	0c9H
	DB	011H
	DB	0a9H
	DB	011H
	DB	0a8H
	DB	011H
	DB	0a8H
	DB	011H
	DB	0a8H
	DB	011H
	DB	0a8H
	DB	011H
	DB	0a8H
	DB	011H
	DB	088H
	DB	011H
	DB	088H
	DB	011H
	DB	088H
	DB	011H
	DB	088H
	DB	011H
	DB	088H
	DB	011H
	DB	087H
	DB	011H
	DB	067H
	DB	011H
	DB	067H
	DB	011H
	DB	067H
	DB	011H
	DB	067H
	DB	011H
	DB	067H
	DB	011H
	DB	067H
	DB	011H
	DB	067H
	DB	011H
	DB	047H
	DB	011H
	DB	047H
	DB	011H
	DB	046H
	DB	09H
	DB	046H
	DB	09H
	DB	046H
	DB	09H
	DB	046H
	DB	09H
	DB	046H
	DB	09H
	DB	026H
	DB	09H
	DB	026H
	DB	09H
	DB	026H
	DB	09H
	DB	026H
	DB	09H
	DB	026H
	DB	09H
	DB	025H
	DB	09H
	DB	05H
	DB	09H
	DB	05H
	DB	09H
	DB	05H
	DB	09H
	DB	05H
	DB	09H
	DB	05H
	DB	09H
	DB	05H
	DB	09H
	DB	05H
	DB	09H
	DB	05H
	DB	09H
	DB	0e5H
	DB	08H
	DB	0e4H
	DB	08H
	DB	0e4H
	DB	08H
	DB	0e4H
	DB	08H
	DB	0e4H
	DB	08H
	DB	0c4H
	DB	08H
	DB	0c4H
	DB	08H
	DB	0c4H
	DB	08H
	DB	0c4H
	DB	08H
	DB	0c4H
	DB	08H
	DB	0c3H
	DB	08H
	DB	0c3H
	DB	08H
	DB	0c3H
	DB	08H
	DB	0a3H
	DB	08H
	DB	0a3H
	DB	08H
	DB	0a3H
	DB	08H
	DB	0a3H
	DB	08H
	DB	0a3H
	DB	08H
	DB	0a3H
	DB	08H
	DB	055H
	DB	014H
	DB	055H
	DB	014H
	DB	0fH
	DB	013H
	DB	0c9H
	DB	011H
	DB	0c9H
	DB	011H
	DB	0c9H
	DB	011H
	DB	0c9H
	DB	011H
	DB	0a9H
	DB	011H
	DB	0a9H
	DB	011H
	DB	0a9H
	DB	011H
	DB	0a9H
	DB	011H
	DB	0a8H
	DB	011H
	DB	0a8H
	DB	011H
	DB	0a8H
	DB	011H
	DB	088H
	DB	011H
	DB	088H
	DB	011H
	DB	088H
	DB	011H
	DB	088H
	DB	011H
	DB	088H
	DB	011H
	DB	088H
	DB	011H
	DB	087H
	DB	011H
	DB	067H
	DB	011H
	DB	067H
	DB	011H
	DB	067H
	DB	011H
	DB	067H
	DB	011H
	DB	067H
	DB	011H
	DB	067H
	DB	011H
	DB	047H
	DB	011H
	DB	047H
	DB	011H
	DB	047H
	DB	011H
	DB	046H
	DB	011H
	DB	046H
	DB	09H
	DB	046H
	DB	09H
	DB	046H
	DB	09H
	DB	026H
	DB	09H
	DB	026H
	DB	09H
	DB	026H
	DB	09H
	DB	026H
	DB	09H
	DB	026H
	DB	09H
	DB	026H
	DB	09H
	DB	05H
	DB	09H
	DB	05H
	DB	09H
	DB	05H
	DB	09H
	DB	05H
	DB	09H
	DB	05H
	DB	09H
	DB	05H
	DB	09H
	DB	05H
	DB	09H
	DB	0e5H
	DB	08H
	DB	05H
	DB	09H
	DB	0e4H
	DB	08H
	DB	0e4H
	DB	08H
	DB	0e4H
	DB	08H
	DB	0e4H
	DB	08H
	DB	0c4H
	DB	08H
	DB	0c4H
	DB	08H
	DB	0c4H
	DB	08H
	DB	0c4H
	DB	08H
	DB	0c4H
	DB	08H
	DB	0c4H
	DB	08H
	DB	0c3H
	DB	08H
	DB	0a3H
	DB	08H
	DB	0a3H
	DB	08H
	DB	0a3H
	DB	08H
	DB	0a3H
	DB	08H
	DB	0a3H
	DB	08H
	DB	0a3H
	DB	08H
	DB	0a3H
	DB	08H
	DB	055H
	DB	014H
	DB	055H
	DB	014H
	DB	0fH
	DB	013H
	DB	0c9H
	DB	011H
	DB	0c9H
	DB	011H
	DB	0c9H
	DB	011H
	DB	0c9H
	DB	011H
	DB	0a9H
	DB	011H
	DB	0a9H
	DB	011H
	DB	0a9H
	DB	011H
	DB	0a8H
	DB	011H
	DB	0a8H
	DB	011H
	DB	0a8H
	DB	011H
	DB	088H
	DB	011H
	DB	0a8H
	DB	011H
	DB	088H
	DB	011H
	DB	088H
	DB	011H
	DB	088H
	DB	011H
	DB	088H
	DB	011H
	DB	088H
	DB	011H
	DB	087H
	DB	011H
	DB	087H
	DB	011H
	DB	067H
	DB	011H
	DB	067H
	DB	011H
	DB	067H
	DB	011H
	DB	067H
	DB	011H
	DB	067H
	DB	011H
	DB	047H
	DB	011H
	DB	047H
	DB	011H
	DB	047H
	DB	09H
	DB	047H
	DB	09H
	DB	046H
	DB	011H
	DB	046H
	DB	011H
	DB	046H
	DB	09H
	DB	026H
	DB	09H
	DB	026H
	DB	09H
	DB	026H
	DB	09H
	DB	026H
	DB	09H
	DB	026H
	DB	09H
	DB	026H
	DB	09H
	DB	05H
	DB	09H
	DB	05H
	DB	09H
	DB	05H
	DB	09H
	DB	05H
	DB	09H
	DB	05H
	DB	09H
	DB	05H
	DB	09H
	DB	05H
	DB	09H
	DB	05H
	DB	09H
	DB	0e5H
	DB	08H
	DB	0e4H
	DB	08H
	DB	0e4H
	DB	08H
	DB	0e4H
	DB	08H
	DB	0e4H
	DB	08H
	DB	0e4H
	DB	08H
	DB	0c4H
	DB	08H
	DB	0c4H
	DB	08H
	DB	0c4H
	DB	08H
	DB	0c4H
	DB	08H
	DB	0c4H
	DB	08H
	DB	0c3H
	DB	08H
	DB	0a3H
	DB	08H
	DB	0a3H
	DB	08H
	DB	0a3H
	DB	08H
	DB	0a3H
	DB	08H
	DB	0a3H
	DB	08H
	DB	0a3H
	DB	08H
	DB	0a3H
	DB	08H
	DB	055H
	DB	014H
	DB	055H
	DB	014H
	DB	0fH
	DB	013H
	DB	0c9H
	DB	011H
	DB	0c9H
	DB	011H
	DB	0c9H
	DB	011H
	DB	0c9H
	DB	011H
	DB	0a9H
	DB	011H
	DB	0a9H
	DB	011H
	DB	0a9H
	DB	011H
	DB	0a8H
	DB	011H
	DB	0a8H
	DB	011H
	DB	0a8H
	DB	011H
	DB	0a8H
	DB	011H
	DB	088H
	DB	011H
	DB	088H
	DB	011H
	DB	088H
	DB	011H
	DB	088H
	DB	011H
	DB	088H
	DB	011H
	DB	088H
	DB	011H
	DB	067H
	DB	011H
	DB	067H
	DB	011H
	DB	067H
	DB	011H
	DB	067H
	DB	011H
	DB	067H
	DB	011H
	DB	067H
	DB	011H
	DB	047H
	DB	011H
	DB	047H
	DB	011H
	DB	047H
	DB	011H
	DB	047H
	DB	011H
	DB	047H
	DB	011H
	DB	046H
	DB	09H
	DB	046H
	DB	09H
	DB	046H
	DB	09H
	DB	026H
	DB	09H
	DB	026H
	DB	09H
	DB	026H
	DB	09H
	DB	026H
	DB	09H
	DB	026H
	DB	09H
	DB	026H
	DB	09H
	DB	025H
	DB	09H
	DB	05H
	DB	09H
	DB	05H
	DB	09H
	DB	05H
	DB	09H
	DB	05H
	DB	09H
	DB	05H
	DB	09H
	DB	05H
	DB	09H
	DB	0e5H
	DB	08H
	DB	0e5H
	DB	08H
	DB	0e5H
	DB	08H
	DB	0e4H
	DB	08H
	DB	0e4H
	DB	08H
	DB	0e4H
	DB	08H
	DB	0c4H
	DB	08H
	DB	0e4H
	DB	08H
	DB	0c4H
	DB	08H
	DB	0c4H
	DB	08H
	DB	0c4H
	DB	08H
	DB	0c4H
	DB	08H
	DB	0c3H
	DB	08H
	DB	0a3H
	DB	08H
	DB	0a3H
	DB	08H
	DB	0a3H
	DB	08H
	DB	0a3H
	DB	08H
	DB	0a3H
	DB	08H
	DB	0a3H
	DB	08H
	DB	0a3H
	DB	08H
	DB	055H
	DB	014H
	DB	055H
	DB	014H
	DB	0fH
	DB	013H
	DB	0c9H
	DB	011H
	DB	0c9H
	DB	011H
	DB	0c9H
	DB	011H
	DB	0c9H
	DB	011H
	DB	0a9H
	DB	011H
	DB	0a9H
	DB	011H
	DB	0a9H
	DB	011H
	DB	0a9H
	DB	011H
	DB	0a8H
	DB	011H
	DB	0a8H
	DB	011H
	DB	0a8H
	DB	011H
	DB	0a8H
	DB	011H
	DB	088H
	DB	011H
	DB	088H
	DB	011H
	DB	088H
	DB	011H
	DB	088H
	DB	011H
	DB	088H
	DB	011H
	DB	087H
	DB	011H
	DB	067H
	DB	011H
	DB	067H
	DB	011H
	DB	067H
	DB	011H
	DB	067H
	DB	011H
	DB	067H
	DB	011H
	DB	067H
	DB	011H
	DB	067H
	DB	011H
	DB	047H
	DB	011H
	DB	046H
	DB	011H
	DB	046H
	DB	011H
	DB	046H
	DB	09H
	DB	046H
	DB	09H
	DB	046H
	DB	09H
	DB	046H
	DB	09H
	DB	026H
	DB	09H
	DB	026H
	DB	09H
	DB	026H
	DB	09H
	DB	026H
	DB	09H
	DB	025H
	DB	09H
	DB	025H
	DB	09H
	DB	05H
	DB	09H
	DB	05H
	DB	09H
	DB	05H
	DB	09H
	DB	05H
	DB	09H
	DB	05H
	DB	09H
	DB	05H
	DB	09H
	DB	0e5H
	DB	08H
	DB	0e5H
	DB	08H
	DB	0e5H
	DB	08H
	DB	0e4H
	DB	08H
	DB	0e4H
	DB	08H
	DB	0e4H
	DB	08H
	DB	0c4H
	DB	08H
	DB	0c4H
	DB	08H
	DB	0c4H
	DB	08H
	DB	0c4H
	DB	08H
	DB	0c4H
	DB	08H
	DB	0c4H
	DB	08H
	DB	0c3H
	DB	08H
	DB	0c3H
	DB	08H
	DB	0a3H
	DB	08H
	DB	0a3H
	DB	08H
	DB	0a3H
	DB	08H
	DB	0a3H
	DB	08H
	DB	0a3H
	DB	08H
	DB	0a3H
	DB	08H
	DB	055H
	DB	014H
	DB	055H
	DB	014H
	DB	0fH
	DB	013H
	DB	0c9H
	DB	011H
	DB	0c9H
	DB	011H
	DB	0c9H
	DB	011H
	DB	0c9H
	DB	011H
	DB	0a9H
	DB	011H
	DB	0a9H
	DB	011H
	DB	0a9H
	DB	011H
	DB	0a9H
	DB	011H
	DB	0a8H
	DB	011H
	DB	0a8H
	DB	011H
	DB	0a8H
	DB	011H
	DB	088H
	DB	011H
	DB	088H
	DB	011H
	DB	088H
	DB	011H
	DB	088H
	DB	011H
	DB	088H
	DB	011H
	DB	088H
	DB	011H
	DB	088H
	DB	011H
	DB	067H
	DB	011H
	DB	067H
	DB	011H
	DB	067H
	DB	011H
	DB	067H
	DB	011H
	DB	067H
	DB	011H
	DB	067H
	DB	011H
	DB	047H
	DB	011H
	DB	047H
	DB	011H
	DB	047H
	DB	09H
	DB	046H
	DB	011H
	DB	046H
	DB	011H
	DB	046H
	DB	011H
	DB	046H
	DB	09H
	DB	026H
	DB	09H
	DB	026H
	DB	09H
	DB	026H
	DB	09H
	DB	026H
	DB	09H
	DB	026H
	DB	09H
	DB	025H
	DB	09H
	DB	025H
	DB	09H
	DB	05H
	DB	09H
	DB	05H
	DB	09H
	DB	05H
	DB	09H
	DB	05H
	DB	09H
	DB	05H
	DB	09H
	DB	0e5H
	DB	08H
	DB	05H
	DB	09H
	DB	0e5H
	DB	08H
	DB	0e4H
	DB	08H
	DB	0e4H
	DB	08H
	DB	0e4H
	DB	08H
	DB	0e4H
	DB	08H
	DB	0e4H
	DB	08H
	DB	0c4H
	DB	08H
	DB	0c4H
	DB	08H
	DB	0c4H
	DB	08H
	DB	0c4H
	DB	08H
	DB	0c4H
	DB	08H
	DB	0a4H
	DB	08H
	DB	0c3H
	DB	08H
	DB	0a3H
	DB	08H
	DB	0a3H
	DB	08H
	DB	0a3H
	DB	08H
	DB	0a3H
	DB	00H
	DB	0a3H
	DB	08H
	DB	0a3H
	DB	08H
	DB	055H
	DB	014H
	DB	055H
	DB	014H
	DB	0fH
	DB	013H
	DB	0c9H
	DB	011H
	DB	0c9H
	DB	011H
	DB	0c9H
	DB	011H
	DB	0c9H
	DB	011H
	DB	0c9H
	DB	011H
	DB	0a9H
	DB	011H
	DB	0a9H
	DB	011H
	DB	0a8H
	DB	011H
	DB	0a8H
	DB	011H
	DB	0a8H
	DB	011H
	DB	0a8H
	DB	011H
	DB	0a8H
	DB	011H
	DB	088H
	DB	011H
	DB	088H
	DB	011H
	DB	088H
	DB	011H
	DB	088H
	DB	011H
	DB	088H
	DB	011H
	DB	088H
	DB	011H
	DB	067H
	DB	011H
	DB	067H
	DB	011H
	DB	067H
	DB	011H
	DB	067H
	DB	011H
	DB	067H
	DB	011H
	DB	067H
	DB	011H
	DB	047H
	DB	011H
	DB	047H
	DB	011H
	DB	047H
	DB	09H
	DB	047H
	DB	011H
	DB	046H
	DB	011H
	DB	046H
	DB	09H
	DB	046H
	DB	09H
	DB	026H
	DB	09H
	DB	026H
	DB	09H
	DB	026H
	DB	09H
	DB	026H
	DB	09H
	DB	026H
	DB	09H
	DB	026H
	DB	09H
	DB	05H
	DB	09H
	DB	05H
	DB	09H
	DB	05H
	DB	09H
	DB	05H
	DB	09H
	DB	05H
	DB	09H
	DB	05H
	DB	09H
	DB	0e5H
	DB	08H
	DB	0e5H
	DB	08H
	DB	0e5H
	DB	08H
	DB	0e5H
	DB	08H
	DB	0e4H
	DB	08H
	DB	0e4H
	DB	08H
	DB	0e4H
	DB	08H
	DB	0e4H
	DB	08H
	DB	0c4H
	DB	08H
	DB	0c4H
	DB	08H
	DB	0c4H
	DB	08H
	DB	0c4H
	DB	08H
	DB	0c4H
	DB	08H
	DB	0c3H
	DB	08H
	DB	0a3H
	DB	08H
	DB	0a3H
	DB	08H
	DB	0a3H
	DB	08H
	DB	0a3H
	DB	08H
	DB	0a3H
	DB	08H
	DB	0a3H
	DB	08H
	DB	0a3H
	DB	08H
	DB	055H
	DB	014H
	DB	055H
	DB	014H
	DB	0fH
	DB	013H
	DB	0c9H
	DB	011H
	DB	0c9H
	DB	011H
	DB	0c9H
	DB	011H
	DB	0c9H
	DB	011H
	DB	0c9H
	DB	011H
	DB	0a9H
	DB	011H
	DB	0a9H
	DB	011H
	DB	0a9H
	DB	011H
	DB	0a8H
	DB	011H
	DB	0a8H
	DB	011H
	DB	0a8H
	DB	011H
	DB	0a8H
	DB	011H
	DB	088H
	DB	011H
	DB	088H
	DB	011H
	DB	088H
	DB	011H
	DB	088H
	DB	011H
	DB	088H
	DB	011H
	DB	067H
	DB	011H
	DB	067H
	DB	011H
	DB	067H
	DB	011H
	DB	067H
	DB	011H
	DB	067H
	DB	011H
	DB	067H
	DB	011H
	DB	067H
	DB	011H
	DB	047H
	DB	011H
	DB	047H
	DB	09H
	DB	047H
	DB	011H
	DB	047H
	DB	09H
	DB	046H
	DB	011H
	DB	046H
	DB	011H
	DB	046H
	DB	09H
	DB	046H
	DB	09H
	DB	026H
	DB	09H
	DB	026H
	DB	09H
	DB	026H
	DB	09H
	DB	026H
	DB	09H
	DB	025H
	DB	09H
	DB	025H
	DB	09H
	DB	05H
	DB	09H
	DB	05H
	DB	09H
	DB	05H
	DB	09H
	DB	05H
	DB	09H
	DB	05H
	DB	09H
	DB	0e5H
	DB	08H
	DB	0e5H
	DB	08H
	DB	0e5H
	DB	08H
	DB	0e4H
	DB	08H
	DB	0e4H
	DB	08H
	DB	0e4H
	DB	08H
	DB	0e4H
	DB	08H
	DB	0e4H
	DB	08H
	DB	0c4H
	DB	08H
	DB	0c4H
	DB	08H
	DB	0c4H
	DB	08H
	DB	0c4H
	DB	08H
	DB	0c4H
	DB	08H
	DB	0c4H
	DB	08H
	DB	0c3H
	DB	08H
	DB	0a3H
	DB	08H
	DB	0a3H
	DB	08H
	DB	0a3H
	DB	08H
	DB	0a3H
	DB	08H
	DB	0a3H
	DB	08H
	DB	0a3H
	DB	08H
	DB	055H
	DB	014H
	DB	055H
	DB	014H
	DB	0fH
	DB	013H
	DB	0c9H
	DB	011H
	DB	0c9H
	DB	011H
	DB	0c9H
	DB	011H
	DB	0c9H
	DB	011H
	DB	0c9H
	DB	011H
	DB	0a9H
	DB	011H
	DB	0a9H
	DB	011H
	DB	0a9H
	DB	011H
	DB	0a8H
	DB	011H
	DB	0a8H
	DB	011H
	DB	0a8H
	DB	011H
	DB	088H
	DB	011H
	DB	088H
	DB	011H
	DB	088H
	DB	011H
	DB	088H
	DB	011H
	DB	088H
	DB	011H
	DB	088H
	DB	011H
	DB	087H
	DB	011H
	DB	067H
	DB	011H
	DB	067H
	DB	011H
	DB	067H
	DB	011H
	DB	067H
	DB	011H
	DB	067H
	DB	011H
	DB	067H
	DB	011H
	DB	047H
	DB	011H
	DB	047H
	DB	011H
	DB	046H
	DB	011H
	DB	047H
	DB	011H
	DB	046H
	DB	09H
	DB	046H
	DB	09H
	DB	046H
	DB	09H
	DB	026H
	DB	09H
	DB	026H
	DB	09H
	DB	026H
	DB	09H
	DB	026H
	DB	09H
	DB	026H
	DB	09H
	DB	025H
	DB	09H
	DB	025H
	DB	09H
	DB	05H
	DB	09H
	DB	05H
	DB	09H
	DB	05H
	DB	09H
	DB	05H
	DB	09H
	DB	05H
	DB	09H
	DB	05H
	DB	09H
	DB	0e5H
	DB	08H
	DB	0e5H
	DB	08H
	DB	0e5H
	DB	08H
	DB	0e4H
	DB	08H
	DB	0e4H
	DB	08H
	DB	0e4H
	DB	08H
	DB	0e4H
	DB	08H
	DB	0c4H
	DB	08H
	DB	0c4H
	DB	08H
	DB	0c4H
	DB	08H
	DB	0c4H
	DB	08H
	DB	0c4H
	DB	08H
	DB	0c4H
	DB	08H
	DB	0a3H
	DB	08H
	DB	0a3H
	DB	08H
	DB	0a3H
	DB	08H
	DB	0a3H
	DB	08H
	DB	0a3H
	DB	08H
	DB	0a3H
	DB	08H
	DB	0a3H
	DB	08H
	DB	055H
	DB	014H
	DB	055H
	DB	014H
	DB	0fH
	DB	013H
	DB	0c9H
	DB	011H
	DB	0c9H
	DB	011H
	DB	0c9H
	DB	011H
	DB	0c9H
	DB	011H
	DB	0c9H
	DB	011H
	DB	0c9H
	DB	011H
	DB	0a9H
	DB	011H
	DB	0a9H
	DB	011H
	DB	0a8H
	DB	011H
	DB	0a8H
	DB	011H
	DB	0a8H
	DB	011H
	DB	0a8H
	DB	011H
	DB	088H
	DB	011H
	DB	088H
	DB	011H
	DB	088H
	DB	011H
	DB	088H
	DB	011H
	DB	088H
	DB	011H
	DB	087H
	DB	011H
	DB	087H
	DB	011H
	DB	067H
	DB	011H
	DB	067H
	DB	011H
	DB	067H
	DB	011H
	DB	067H
	DB	011H
	DB	047H
	DB	011H
	DB	047H
	DB	011H
	DB	047H
	DB	011H
	DB	046H
	DB	011H
	DB	047H
	DB	011H
	DB	046H
	DB	09H
	DB	046H
	DB	09H
	DB	026H
	DB	09H
	DB	026H
	DB	09H
	DB	026H
	DB	09H
	DB	026H
	DB	09H
	DB	026H
	DB	09H
	DB	026H
	DB	09H
	DB	026H
	DB	09H
	DB	025H
	DB	09H
	DB	05H
	DB	09H
	DB	05H
	DB	09H
	DB	05H
	DB	09H
	DB	05H
	DB	09H
	DB	05H
	DB	09H
	DB	05H
	DB	09H
	DB	0e5H
	DB	08H
	DB	0e5H
	DB	08H
	DB	0e4H
	DB	08H
	DB	0e4H
	DB	08H
	DB	0e4H
	DB	08H
	DB	0e4H
	DB	08H
	DB	0e4H
	DB	08H
	DB	0c4H
	DB	08H
	DB	0c4H
	DB	08H
	DB	0c4H
	DB	08H
	DB	0c4H
	DB	08H
	DB	0c4H
	DB	08H
	DB	0c4H
	DB	08H
	DB	0c3H
	DB	08H
	DB	0a3H
	DB	08H
	DB	0a3H
	DB	08H
	DB	0a3H
	DB	08H
	DB	0a3H
	DB	00H
	DB	0a3H
	DB	08H
	DB	0a3H
	DB	08H
	DB	055H
	DB	014H
	DB	055H
	DB	014H
	DB	0fH
	DB	013H
	DB	0c9H
	DB	011H
	DB	0c9H
	DB	011H
	DB	0c9H
	DB	011H
	DB	0c9H
	DB	011H
	DB	0c9H
	DB	011H
	DB	0a9H
	DB	011H
	DB	0a9H
	DB	011H
	DB	0a9H
	DB	011H
	DB	0a9H
	DB	011H
	DB	0a8H
	DB	011H
	DB	0a8H
	DB	011H
	DB	088H
	DB	011H
	DB	088H
	DB	011H
	DB	088H
	DB	011H
	DB	088H
	DB	011H
	DB	088H
	DB	011H
	DB	088H
	DB	011H
	DB	087H
	DB	011H
	DB	087H
	DB	011H
	DB	067H
	DB	011H
	DB	067H
	DB	011H
	DB	067H
	DB	011H
	DB	067H
	DB	011H
	DB	067H
	DB	011H
	DB	067H
	DB	011H
	DB	047H
	DB	011H
	DB	047H
	DB	011H
	DB	047H
