; Listing generated by Microsoft (R) Optimizing Compiler Version 19.30.30705.0 

	TITLE	D:\学习\毕业设计\方案1_GFX+底板\官方例程\DISPLAY\TouchGFX\build\Debug\obj\image_france-flag-small.obj
	.686P
	.XMM
	include listing.inc
	.model	flat

INCLUDELIB MSVCRTD
INCLUDELIB OLDNAMES

PUBLIC	?image_france_flag_small@@3QBEB			; image_france_flag_small
msvcjmc	SEGMENT
__BA83647B_Config@hpp DB 01H
__413F46EC_image_france-flag-small@cpp DB 01H
msvcjmc	ENDS
CONST	SEGMENT
?image_france_flag_small@@3QBEB DB 047H			; image_france_flag_small
	DB	0e9H
	DB	047H
	DB	0e9H
	DB	047H
	DB	0e9H
	DB	047H
	DB	0e9H
	DB	047H
	DB	0e9H
	DB	047H
	DB	0e9H
	DB	047H
	DB	0e9H
	DB	047H
	DB	0e9H
	DB	047H
	DB	0e9H
	DB	047H
	DB	0e9H
	DB	047H
	DB	0e9H
	DB	047H
	DB	0e9H
	DB	047H
	DB	0e9H
	DB	047H
	DB	0e9H
	DB	047H
	DB	0e9H
	DB	047H
	DB	0e9H
	DB	047H
	DB	0e9H
	DB	047H
	DB	0e9H
	DB	047H
	DB	0e9H
	DB	047H
	DB	0e9H
	DB	047H
	DB	0e9H
	DB	047H
	DB	0e9H
	DB	047H
	DB	0e9H
	DB	047H
	DB	0e9H
	DB	047H
	DB	0e9H
	DB	047H
	DB	0e9H
	DB	047H
	DB	0e9H
	DB	047H
	DB	0e9H
	DB	047H
	DB	0e9H
	DB	047H
	DB	0e9H
	DB	047H
	DB	0e9H
	DB	047H
	DB	0e9H
	DB	047H
	DB	0e9H
	DB	047H
	DB	0e9H
	DB	047H
	DB	0e9H
	DB	047H
	DB	0e9H
	DB	047H
	DB	0e9H
	DB	047H
	DB	0e9H
	DB	047H
	DB	0e9H
	DB	047H
	DB	0e9H
	DB	047H
	DB	0e9H
	DB	047H
	DB	0e9H
	DB	047H
	DB	0e9H
	DB	047H
	DB	0e9H
	DB	047H
	DB	0e9H
	DB	047H
	DB	0e9H
	DB	047H
	DB	0e9H
	DB	047H
	DB	0e9H
	DB	047H
	DB	0e9H
	DB	047H
	DB	0e9H
	DB	047H
	DB	0e9H
	DB	047H
	DB	0e9H
	DB	047H
	DB	0e9H
	DB	047H
	DB	0e9H
	DB	047H
	DB	0e9H
	DB	047H
	DB	0e9H
	DB	047H
	DB	0e9H
	DB	047H
	DB	0e9H
	DB	047H
	DB	0e9H
	DB	047H
	DB	0e9H
	DB	047H
	DB	0e9H
	DB	047H
	DB	0e9H
	DB	047H
	DB	0e9H
	DB	047H
	DB	0e9H
	DB	047H
	DB	0e9H
	DB	047H
	DB	0e9H
	DB	047H
	DB	0e9H
	DB	047H
	DB	0e9H
	DB	047H
	DB	0e9H
	DB	047H
	DB	0e9H
	DB	047H
	DB	0e9H
	DB	047H
	DB	0e9H
	DB	047H
	DB	0e9H
	DB	047H
	DB	0e9H
	DB	047H
	DB	0e9H
	DB	047H
	DB	0e9H
	DB	047H
	DB	0e9H
	DB	047H
	DB	0e9H
	DB	047H
	DB	0e9H
	DB	047H
	DB	0e9H
	DB	047H
	DB	0e9H
	DB	047H
	DB	0e9H
	DB	047H
	DB	0e9H
	DB	047H
	DB	0e9H
	DB	047H
	DB	0e9H
	DB	047H
	DB	0e9H
	DB	047H
	DB	0e9H
	DB	047H
	DB	0e9H
	DB	047H
	DB	0e9H
	DB	047H
	DB	0e9H
	DB	047H
	DB	0e9H
	DB	047H
	DB	0e9H
	DB	047H
	DB	0e9H
	DB	047H
	DB	0e9H
	DB	047H
	DB	0e9H
	DB	047H
	DB	0e9H
	DB	047H
	DB	0e9H
	DB	047H
	DB	0e9H
	DB	047H
	DB	0e9H
	DB	047H
	DB	0e9H
	DB	047H
	DB	0e9H
	DB	047H
	DB	0e9H
	DB	047H
	DB	0e9H
	DB	047H
	DB	0e9H
	DB	047H
	DB	0e9H
	DB	047H
	DB	0e9H
	DB	047H
	DB	0e9H
	DB	047H
	DB	0e9H
	DB	047H
	DB	0e9H
	DB	047H
	DB	0e9H
	DB	047H
	DB	0e9H
	DB	047H
	DB	0e9H
	DB	047H
	DB	0e9H
	DB	047H
	DB	0e9H
	DB	047H
	DB	0e9H
	DB	047H
	DB	0e9H
	DB	047H
	DB	0e9H
	DB	047H
	DB	0e9H
	DB	047H
	DB	0e9H
	DB	047H
	DB	0e9H
	DB	047H
	DB	0e9H
	DB	047H
	DB	0e9H
	DB	047H
	DB	0e9H
	DB	047H
	DB	0e9H
	DB	047H
	DB	0e9H
	DB	047H
	DB	0e9H
	DB	047H
	DB	0e9H
	DB	047H
	DB	0e9H
	DB	047H
	DB	0e9H
	DB	047H
	DB	0e9H
	DB	047H
	DB	0e9H
	DB	047H
	DB	0e9H
	DB	047H
	DB	0e9H
	DB	047H
	DB	0e9H
	DB	047H
	DB	0e9H
	DB	047H
	DB	0e9H
	DB	047H
	DB	0e9H
	DB	047H
	DB	0e9H
	DB	047H
	DB	0e9H
	DB	047H
	DB	0e9H
	DB	047H
	DB	0e9H
	DB	047H
	DB	0e9H
	DB	047H
	DB	0e9H
	DB	047H
	DB	0e9H
	DB	047H
	DB	0e9H
	DB	047H
	DB	0e9H
	DB	047H
	DB	0e9H
	DB	047H
	DB	0e9H
	DB	047H
	DB	0e9H
	DB	047H
	DB	0e9H
	DB	047H
	DB	0e9H
	DB	047H
	DB	0e9H
	DB	047H
	DB	0e9H
	DB	047H
	DB	0e9H
	DB	047H
	DB	0e9H
	DB	047H
	DB	0e9H
	DB	047H
	DB	0e9H
	DB	047H
	DB	0e9H
	DB	047H
	DB	0e9H
	DB	047H
	DB	0e9H
	DB	047H
	DB	0e9H
	DB	047H
	DB	0e9H
	DB	047H
	DB	0e9H
	DB	047H
	DB	0e9H
	DB	047H
	DB	0e9H
	DB	047H
	DB	0e9H
	DB	047H
	DB	0e9H
	DB	047H
	DB	0e9H
	DB	047H
	DB	0e9H
	DB	047H
	DB	0e9H
	DB	047H
	DB	0e9H
	DB	047H
	DB	0e9H
	DB	047H
	DB	0e9H
	DB	047H
	DB	0e9H
	DB	047H
	DB	0e9H
	DB	047H
	DB	0e9H
	DB	047H
	DB	0e9H
	DB	047H
	DB	0e9H
	DB	047H
	DB	0e9H
	DB	047H
	DB	0e9H
	DB	047H
	DB	0e9H
	DB	047H
	DB	0e9H
	DB	047H
	DB	0e9H
	DB	047H
	DB	0e9H
	DB	047H
	DB	0e9H
	DB	047H
	DB	0e9H
	DB	047H
	DB	0e9H
	DB	047H
	DB	0e9H
	DB	047H
	DB	0e9H
	DB	047H
	DB	0e9H
	DB	047H
	DB	0e9H
	DB	047H
	DB	0e9H
	DB	047H
	DB	0e9H
	DB	047H
	DB	0e9H
	DB	047H
	DB	0e9H
	DB	047H
	DB	0e9H
	DB	047H
	DB	0e9H
	DB	047H
	DB	0e9H
	DB	047H
	DB	0e9H
	DB	047H
	DB	0e9H
	DB	047H
	DB	0e9H
	DB	047H
	DB	0e9H
	DB	047H
	DB	0e9H
	DB	047H
	DB	0e9H
	DB	047H
	DB	0e9H
	DB	047H
	DB	0e9H
	DB	047H
	DB	0e9H
	DB	047H
	DB	0e9H
	DB	047H
	DB	0e9H
	DB	047H
	DB	0e9H
	DB	047H
	DB	0e9H
	DB	047H
	DB	0e9H
	DB	047H
	DB	0e9H
	DB	047H
	DB	0e9H
	DB	047H
	DB	0e9H
	DB	047H
	DB	0e9H
	DB	047H
	DB	0e9H
	DB	047H
	DB	0e9H
	DB	047H
	DB	0e9H
	DB	047H
	DB	0e9H
	DB	047H
	DB	0e9H
	DB	047H
	DB	0e9H
	DB	047H
	DB	0e9H
	DB	047H
	DB	0e9H
	DB	047H
	DB	0e9H
	DB	047H
	DB	0e9H
	DB	047H
	DB	0e9H
	DB	047H
	DB	0e9H
	DB	047H
	DB	0e9H
	DB	047H
	DB	0e9H
	DB	047H
	DB	0e9H
	DB	047H
	DB	0e9H
	DB	047H
	DB	0e9H
	DB	047H
	DB	0e9H
	DB	047H
	DB	0e9H
	DB	047H
	DB	0e9H
	DB	047H
	DB	0e9H
	DB	047H
	DB	0e9H
	DB	047H
	DB	0e9H
	DB	047H
	DB	0e9H
	DB	08fH
	DB	0f3H
	DB	08fH
	DB	0f3H
	DB	08fH
	DB	0f3H
	DB	08fH
	DB	0f3H
	DB	08fH
	DB	0f3H
	DB	08fH
	DB	0f3H
	DB	08fH
	DB	0f3H
	DB	08fH
	DB	0f3H
	DB	08fH
	DB	0f3H
	DB	08fH
	DB	0f3H
	DB	08fH
	DB	0f3H
	DB	08fH
	DB	0f3H
	DB	08fH
	DB	0f3H
	DB	08fH
	DB	0f3H
	DB	08fH
	DB	0f3H
	DB	08fH
	DB	0f3H
	DB	08fH
	DB	0f3H
	DB	08fH
	DB	0f3H
	DB	08fH
	DB	0f3H
	DB	08fH
	DB	0f3H
	DB	08fH
	DB	0f3H
	DB	08fH
	DB	0f3H
	DB	08fH
	DB	0f3H
	DB	08fH
	DB	0f3H
	DB	0ffH
	DB	0ffH
	DB	0ffH
	DB	0ffH
	DB	0ffH
	DB	0ffH
	DB	0ffH
	DB	0ffH
	DB	0ffH
	DB	0ffH
	DB	0ffH
	DB	0ffH
	DB	0ffH
	DB	0ffH
	DB	0ffH
	DB	0ffH
	DB	0ffH
	DB	0ffH
	DB	0ffH
	DB	0ffH
	DB	0ffH
	DB	0ffH
	DB	0ffH
	DB	0ffH
	DB	0ffH
	DB	0ffH
	DB	0ffH
	DB	0ffH
	DB	0ffH
	DB	0ffH
	DB	0ffH
	DB	0ffH
	DB	0ffH
	DB	0ffH
	DB	0ffH
	DB	0ffH
	DB	0ffH
	DB	0ffH
	DB	0ffH
	DB	0ffH
	DB	0ffH
	DB	0ffH
	DB	0ffH
	DB	0ffH
	DB	0ffH
	DB	0ffH
	DB	0ffH
	DB	0ffH
	DB	0ffH
	DB	0ffH
	DB	0ffH
	DB	0ffH
	DB	0ffH
	DB	0ffH
	DB	0ffH
	DB	0ffH
	DB	0ffH
	DB	0ffH
	DB	0ffH
	DB	0ffH
	DB	0ffH
	DB	0ffH
	DB	0ffH
	DB	0ffH
	DB	0ffH
	DB	0ffH
	DB	0ffH
	DB	0ffH
	DB	0ffH
	DB	0ffH
	DB	0ffH
	DB	0ffH
	DB	0ffH
	DB	0ffH
	DB	0ffH
	DB	0ffH
	DB	0ffH
	DB	0ffH
	DB	0ffH
	DB	0ffH
	DB	0ffH
	DB	0ffH
	DB	0ffH
	DB	0ffH
	DB	0ffH
	DB	0ffH
	DB	0ffH
	DB	0ffH
	DB	0ffH
	DB	0ffH
	DB	0ffH
	DB	0ffH
	DB	0ffH
	DB	0ffH
	DB	0ffH
	DB	0ffH
	DB	0ffH
	DB	0ffH
	DB	0ffH
	DB	0ffH
	DB	0ffH
	DB	0ffH
	DB	0ffH
	DB	0ffH
	DB	0ffH
	DB	0ffH
	DB	0ffH
	DB	0ffH
	DB	0ffH
	DB	0ffH
	DB	0ffH
	DB	0ffH
	DB	0ffH
	DB	0ffH
	DB	0ffH
	DB	0ffH
	DB	0ffH
	DB	0ffH
	DB	0ffH
	DB	0ffH
	DB	0ffH
	DB	0ffH
	DB	0ffH
	DB	0ffH
	DB	0ffH
	DB	0ffH
	DB	0ffH
	DB	0ffH
	DB	0ffH
	DB	0ffH
	DB	0ffH
	DB	0ffH
	DB	0ffH
	DB	0ffH
	DB	0ffH
	DB	0ffH
	DB	0ffH
	DB	0ffH
	DB	0ffH
	DB	0ffH
	DB	0ffH
	DB	0ffH
	DB	0ffH
	DB	0ffH
	DB	0ffH
	DB	0ffH
	DB	0ffH
	DB	0ffH
	DB	0ffH
	DB	0ffH
	DB	0ffH
	DB	0ffH
	DB	0ffH
	DB	0ffH
	DB	0ffH
	DB	0ffH
	DB	0ffH
	DB	0ffH
	DB	0ffH
	DB	0ffH
	DB	0ffH
	DB	0ffH
	DB	0ffH
	DB	0ffH
	DB	0ffH
	DB	0ffH
	DB	0ffH
	DB	0ffH
	DB	0ffH
	DB	0ffH
	DB	0ffH
	DB	0ffH
	DB	0ffH
	DB	0ffH
	DB	0ffH
	DB	0ffH
	DB	0ffH
	DB	0ffH
	DB	0ffH
	DB	0ffH
	DB	0ffH
	DB	0ffH
	DB	0ffH
	DB	0ffH
	DB	0ffH
	DB	0ffH
	DB	0ffH
	DB	0ffH
	DB	0ffH
	DB	0ffH
	DB	0ffH
	DB	0ffH
	DB	0ffH
	DB	0ffH
	DB	0ffH
	DB	0ffH
	DB	0ffH
	DB	0ffH
	DB	0ffH
	DB	0ffH
	DB	0ffH
	DB	0ffH
	DB	0ffH
	DB	0ffH
	DB	0ffH
	DB	0ffH
	DB	0ffH
	DB	0ffH
	DB	0ffH
	DB	0ffH
	DB	0ffH
	DB	0ffH
	DB	0ffH
	DB	0ffH
	DB	0ffH
	DB	0ffH
	DB	0ffH
	DB	0ffH
	DB	0ffH
	DB	0ffH
	DB	0ffH
	DB	0ffH
	DB	0ffH
	DB	0ffH
	DB	0ffH
	DB	0ffH
	DB	0ffH
	DB	0ffH
	DB	0ffH
	DB	0ffH
	DB	0ffH
	DB	0ffH
	DB	0ffH
	DB	0ffH
	DB	0ffH
	DB	0ffH
	DB	0ffH
	DB	0ffH
	DB	0ffH
	DB	0ffH
	DB	0ffH
	DB	0ffH
	DB	0ffH
	DB	0ffH
	DB	0ffH
	DB	0ffH
	DB	0ffH
	DB	0ffH
	DB	0ffH
	DB	0ffH
	DB	0ffH
	DB	0ffH
	DB	0ffH
	DB	0ffH
	DB	0ffH
	DB	0ffH
	DB	0ffH
	DB	0ffH
	DB	0ffH
	DB	0ffH
	DB	0ffH
	DB	0ffH
	DB	0ffH
	DB	0ffH
	DB	0ffH
	DB	0ffH
	DB	0ffH
	DB	0ffH
	DB	0ffH
	DB	0ffH
	DB	0ffH
	DB	0ffH
	DB	0ffH
	DB	0ffH
	DB	0ffH
	DB	0ffH
	DB	0ffH
	DB	0ffH
	DB	0ffH
	DB	0ffH
	DB	0ffH
	DB	0ffH
	DB	0ffH
	DB	0ffH
	DB	0ffH
	DB	0ffH
	DB	0ffH
	DB	0ffH
	DB	0ffH
	DB	0ffH
	DB	0ffH
	DB	0ffH
	DB	0ffH
	DB	0ffH
	DB	0ffH
	DB	0ffH
	DB	0ffH
	DB	0ffH
	DB	0ffH
	DB	0ffH
	DB	0ffH
	DB	0ffH
	DB	0ffH
	DB	0ffH
	DB	0ffH
	DB	0ffH
	DB	0ffH
	DB	0ffH
	DB	0ffH
	DB	0ffH
	DB	0ffH
	DB	0ffH
	DB	0ffH
	DB	0ffH
	DB	0ffH
	DB	0ffH
	DB	0ffH
	DB	0ffH
	DB	0ffH
	DB	0ffH
	DB	0ffH
	DB	0ffH
	DB	0ffH
	DB	0ffH
	DB	0ffH
	DB	0ffH
	DB	0ffH
	DB	0ffH
	DB	0ffH
	DB	0ffH
	DB	0ffH
	DB	0ffH
	DB	0ffH
	DB	0ffH
	DB	0ffH
	DB	0ffH
	DB	0ffH
	DB	0ffH
	DB	0ffH
	DB	0ffH
	DB	0ffH
	DB	0ffH
	DB	0ffH
	DB	0ffH
	DB	0ffH
	DB	0ffH
	DB	0ffH
	DB	0ffH
	DB	0ffH
	DB	0ffH
	DB	0ffH
	DB	0ffH
	DB	0ffH
	DB	0ffH
	DB	0ffH
	DB	0ffH
	DB	0ffH
	DB	0ffH
	DB	0ffH
	DB	0ffH
	DB	0ffH
	DB	0ffH
	DB	0ffH
	DB	0ffH
	DB	0ffH
	DB	0ffH
	DB	0ffH
	DB	0ffH
	DB	0ffH
	DB	0ffH
	DB	0ffH
	DB	0ffH
	DB	0ffH
	DB	0ffH
	DB	0ffH
	DB	0ffH
	DB	0ffH
	DB	0ffH
	DB	0ffH
	DB	0ffH
	DB	0ffH
	DB	0ffH
	DB	0ffH
	DB	0ffH
	DB	0ffH
	DB	0ffH
	DB	0ffH
	DB	0ffH
	DB	0ffH
	DB	0ffH
	DB	0ffH
	DB	0ffH
	DB	0ffH
	DB	0ffH
	DB	0ffH
	DB	0ffH
	DB	0ffH
	DB	0ffH
	DB	0ffH
	DB	0ffH
	DB	0ffH
	DB	0ffH
	DB	0ffH
	DB	0ffH
	DB	0ffH
	DB	0ffH
	DB	0ffH
	DB	0ffH
	DB	0ffH
	DB	0ffH
	DB	0ffH
	DB	0ffH
	DB	0ffH
	DB	0ffH
	DB	0ffH
	DB	0ffH
	DB	0ffH
	DB	0ffH
	DB	0ffH
	DB	0ffH
	DB	0ffH
	DB	0ffH
	DB	0ffH
	DB	0ffH
	DB	0ffH
	DB	0ffH
	DB	0ffH
	DB	0ffH
	DB	0ffH
	DB	0ffH
	DB	0ffH
	DB	0ffH
	DB	0ffH
	DB	0ffH
	DB	0ffH
	DB	0ffH
	DB	0ffH
	DB	0ffH
	DB	0ffH
	DB	0ffH
	DB	0ffH
	DB	0ffH
	DB	0ffH
	DB	0ffH
	DB	0ffH
	DB	0ffH
	DB	0ffH
	DB	0ffH
	DB	0ffH
	DB	0ffH
	DB	0ffH
	DB	0ffH
	DB	0ffH
	DB	0ffH
	DB	0ffH
	DB	0ffH
	DB	0ffH
	DB	0ffH
	DB	0ffH
	DB	0ffH
	DB	0ffH
	DB	0ffH
	DB	0ffH
	DB	0ffH
	DB	0ffH
	DB	0ffH
	DB	0ffH
	DB	0ffH
	DB	0ffH
	DB	0ffH
	DB	0ffH
	DB	0ffH
	DB	0ffH
	DB	0ffH
	DB	0ffH
	DB	0ffH
	DB	0ffH
	DB	0ffH
	DB	0ffH
	DB	0ffH
	DB	056H
	DB	053H
	DB	056H
	DB	053H
	DB	056H
	DB	053H
	DB	056H
	DB	053H
	DB	056H
	DB	053H
	DB	056H
	DB	053H
	DB	056H
	DB	053H
	DB	056H
	DB	053H
	DB	056H
	DB	053H
	DB	056H
	DB	053H
	DB	056H
	DB	053H
	DB	056H
	DB	053H
	DB	056H
	DB	053H
	DB	056H
	DB	053H
	DB	056H
	DB	053H
	DB	056H
	DB	053H
	DB	056H
	DB	053H
	DB	056H
	DB	053H
	DB	056H
	DB	053H
	DB	056H
	DB	053H
	DB	056H
	DB	053H
	DB	056H
	DB	053H
	DB	056H
	DB	053H
	DB	056H
	DB	053H
	DB	012H
	DB	01H
	DB	012H
	DB	01H
	DB	012H
	DB	01H
	DB	012H
	DB	01H
	DB	012H
	DB	01H
	DB	012H
	DB	01H
	DB	012H
	DB	01H
	DB	012H
	DB	01H
	DB	012H
	DB	01H
	DB	012H
	DB	01H
	DB	012H
	DB	01H
	DB	012H
	DB	01H
	DB	012H
	DB	01H
	DB	012H
	DB	01H
	DB	012H
	DB	01H
	DB	012H
	DB	01H
	DB	012H
	DB	01H
	DB	012H
	DB	01H
	DB	012H
	DB	01H
	DB	012H
	DB	01H
	DB	012H
	DB	01H
	DB	012H
	DB	01H
	DB	012H
	DB	01H
	DB	012H
	DB	01H
	DB	012H
	DB	01H
	DB	012H
	DB	01H
	DB	012H
	DB	01H
	DB	012H
	DB	01H
	DB	012H
	DB	01H
	DB	012H
	DB	01H
	DB	012H
	DB	01H
	DB	012H
	DB	01H
	DB	012H
	DB	01H
	DB	012H
	DB	01H
	DB	012H
	DB	01H
	DB	012H
	DB	01H
	DB	012H
	DB	01H
	DB	012H
	DB	01H
	DB	012H
	DB	01H
	DB	012H
	DB	01H
	DB	012H
	DB	01H
	DB	012H
	DB	01H
	DB	012H
	DB	01H
	DB	012H
	DB	01H
	DB	012H
	DB	01H
	DB	012H
	DB	01H
	DB	012H
	DB	01H
	DB	012H
	DB	01H
	DB	012H
	DB	01H
	DB	012H
	DB	01H
	DB	012H
	DB	01H
	DB	012H
	DB	01H
	DB	012H
	DB	01H
	DB	012H
	DB	01H
	DB	012H
	DB	01H
	DB	012H
	DB	01H
	DB	012H
	DB	01H
	DB	012H
	DB	01H
	DB	012H
	DB	01H
	DB	012H
	DB	01H
	DB	012H
	DB	01H
	DB	012H
	DB	01H
	DB	012H
	DB	01H
	DB	012H
	DB	01H
	DB	012H
	DB	01H
	DB	012H
	DB	01H
	DB	012H
	DB	01H
	DB	012H
	DB	01H
	DB	012H
	DB	01H
	DB	012H
	DB	01H
	DB	012H
	DB	01H
	DB	012H
	DB	01H
	DB	012H
	DB	01H
	DB	012H
	DB	01H
	DB	012H
	DB	01H
	DB	012H
	DB	01H
	DB	012H
	DB	01H
	DB	012H
	DB	01H
	DB	012H
	DB	01H
	DB	012H
	DB	01H
	DB	012H
	DB	01H
	DB	012H
	DB	01H
	DB	012H
	DB	01H
	DB	012H
	DB	01H
	DB	012H
	DB	01H
	DB	012H
	DB	01H
	DB	012H
	DB	01H
	DB	012H
	DB	01H
	DB	012H
	DB	01H
	DB	012H
	DB	01H
	DB	012H
	DB	01H
	DB	012H
	DB	01H
	DB	012H
	DB	01H
	DB	012H
	DB	01H
	DB	012H
	DB	01H
	DB	012H
	DB	01H
	DB	012H
	DB	01H
	DB	012H
	DB	01H
	DB	012H
	DB	01H
	DB	012H
	DB	01H
	DB	012H
	DB	01H
	DB	012H
	DB	01H
	DB	012H
	DB	01H
	DB	012H
	DB	01H
	DB	012H
	DB	01H
	DB	012H
	DB	01H
	DB	012H
	DB	01H
	DB	012H
	DB	01H
	DB	012H
	DB	01H
	DB	012H
	DB	01H
	DB	012H
	DB	01H
	DB	012H
	DB	01H
	DB	012H
	DB	01H
	DB	012H
	DB	01H
	DB	012H
	DB	01H
	DB	012H
	DB	01H
	DB	012H
	DB	01H
	DB	012H
	DB	01H
	DB	012H
	DB	01H
	DB	012H
	DB	01H
	DB	012H
	DB	01H
	DB	012H
	DB	01H
	DB	012H
	DB	01H
	DB	012H
	DB	01H
	DB	012H
	DB	01H
	DB	012H
	DB	01H
	DB	012H
	DB	01H
	DB	012H
	DB	01H
	DB	012H
	DB	01H
	DB	012H
	DB	01H
	DB	012H
	DB	01H
	DB	012H
	DB	01H
	DB	012H
	DB	01H
	DB	012H
	DB	01H
	DB	012H
	DB	01H
	DB	012H
	DB	01H
	DB	012H
	DB	01H
	DB	012H
	DB	01H
	DB	012H
	DB	01H
	DB	012H
	DB	01H
	DB	012H
	DB	01H
	DB	012H
	DB	01H
	DB	012H
	DB	01H
	DB	012H
	DB	01H
	DB	012H
	DB	01H
	DB	012H
	DB	01H
	DB	012H
	DB	01H
	DB	012H
	DB	01H
	DB	012H
	DB	01H
	DB	012H
	DB	01H
	DB	012H
	DB	01H
	DB	012H
	DB	01H
	DB	012H
	DB	01H
	DB	012H
	DB	01H
	DB	012H
	DB	01H
	DB	012H
	DB	01H
	DB	012H
	DB	01H
	DB	012H
	DB	01H
	DB	012H
	DB	01H
	DB	012H
	DB	01H
	DB	012H
	DB	01H
	DB	012H
	DB	01H
	DB	012H
	DB	01H
	DB	012H
	DB	01H
	DB	012H
	DB	01H
	DB	012H
	DB	01H
	DB	012H
	DB	01H
	DB	012H
	DB	01H
	DB	012H
	DB	01H
	DB	012H
	DB	01H
	DB	012H
	DB	01H
	DB	012H
	DB	01H
	DB	012H
	DB	01H
	DB	012H
	DB	01H
	DB	012H
	DB	01H
	DB	012H
	DB	01H
	DB	012H
	DB	01H
	DB	012H
	DB	01H
	DB	012H
	DB	01H
	DB	012H
	DB	01H
	DB	012H
	DB	01H
	DB	012H
	DB	01H
	DB	012H
	DB	01H
	DB	012H
	DB	01H
	DB	012H
	DB	01H
	DB	012H
	DB	01H
	DB	012H
	DB	01H
	DB	012H
	DB	01H
	DB	012H
	DB	01H
	DB	012H
	DB	01H
	DB	012H
	DB	01H
	DB	012H
	DB	01H
	DB	012H
	DB	01H
	DB	012H
	DB	01H
	DB	012H
	DB	01H
	DB	012H
	DB	01H
	DB	012H
	DB	01H
	DB	012H
	DB	01H
	DB	012H
	DB	01H
	DB	012H
	DB	01H
	DB	012H
	DB	01H
	DB	012H
	DB	01H
	DB	012H
	DB	01H
	DB	012H
	DB	01H
	DB	012H
	DB	01H
	DB	012H
	DB	01H
	DB	012H
	DB	01H
	DB	012H
	DB	01H
	DB	012H
	DB	01H
	DB	012H
	DB	01H
	DB	012H
	DB	01H
	DB	012H
	DB	01H
	DB	012H
	DB	01H
	DB	012H
	DB	01H
	DB	012H
	DB	01H
	DB	012H
	DB	01H
	DB	012H
	DB	01H
	DB	012H
	DB	01H
	DB	012H
	DB	01H
	DB	012H
	DB	01H
	DB	012H
	DB	01H
	DB	012H
	DB	01H
	DB	012H
	DB	01H
	DB	012H
	DB	01H
	DB	012H
	DB	01H
	DB	012H
	DB	01H
	DB	012H
	DB	01H
	DB	012H
	DB	01H
	DB	012H
	DB	01H
	DB	012H
	DB	01H
	DB	012H
	DB	01H
	DB	012H
	DB	01H
	DB	012H
	DB	01H
	DB	012H
	DB	01H
	DB	012H
	DB	01H
	DB	012H
	DB	01H
	DB	012H
	DB	01H
	DB	012H
	DB	01H
	DB	012H
	DB	01H
	DB	012H
	DB	01H
CONST	ENDS
END
