; Listing generated by Microsoft (R) Optimizing Compiler Version 19.30.30705.0 

	TITLE	D:\学习\毕业设计\方案1_GFX+底板\官方例程\DISPLAY\TouchGFX\build\Debug\obj\image_joystick_overlay.obj
	.686P
	.XMM
	include listing.inc
	.model	flat

INCLUDELIB MSVCRTD
INCLUDELIB OLDNAMES

PUBLIC	?image_joystick_overlay@@3QBEB			; image_joystick_overlay
msvcjmc	SEGMENT
__BA83647B_Config@hpp DB 01H
__97A7945F_image_joystick_overlay@cpp DB 01H
msvcjmc	ENDS
CONST	SEGMENT
?image_joystick_overlay@@3QBEB DB 0f8H			; image_joystick_overlay
	DB	0fcH
	DB	0f8H
	DB	00H
	DB	0f8H
	DB	0fcH
	DB	0f8H
	DB	00H
	DB	0f8H
	DB	0fcH
	DB	0f8H
	DB	00H
	DB	0f8H
	DB	0fcH
	DB	0f8H
	DB	00H
	DB	0f8H
	DB	0fcH
	DB	0f8H
	DB	00H
	DB	0f8H
	DB	0fcH
	DB	0f8H
	DB	00H
	DB	0f8H
	DB	0fcH
	DB	0f8H
	DB	00H
	DB	0f8H
	DB	0fcH
	DB	0f8H
	DB	00H
	DB	0f8H
	DB	0fcH
	DB	0f8H
	DB	00H
	DB	0f8H
	DB	0fcH
	DB	0f8H
	DB	00H
	DB	0f8H
	DB	0fcH
	DB	0f8H
	DB	00H
	DB	0f8H
	DB	0fcH
	DB	0f8H
	DB	00H
	DB	0f8H
	DB	0fcH
	DB	0f8H
	DB	00H
	DB	0f8H
	DB	0fcH
	DB	0f8H
	DB	00H
	DB	0a8H
	DB	08cH
	DB	010H
	DB	04H
	DB	0a8H
	DB	08cH
	DB	010H
	DB	040H
	DB	0a8H
	DB	08cH
	DB	010H
	DB	080H
	DB	0a8H
	DB	08cH
	DB	010H
	DB	0b3H
	DB	0a8H
	DB	08cH
	DB	010H
	DB	0d7H
	DB	0a8H
	DB	08cH
	DB	010H
	DB	0f3H
	DB	0a8H
	DB	08cH
	DB	010H
	DB	0ffH
	DB	0a8H
	DB	08cH
	DB	010H
	DB	0ffH
	DB	0a8H
	DB	08cH
	DB	010H
	DB	0ffH
	DB	0a8H
	DB	08cH
	DB	010H
	DB	0ffH
	DB	0a8H
	DB	08cH
	DB	010H
	DB	0ffH
	DB	0a8H
	DB	08cH
	DB	010H
	DB	0ffH
	DB	0a8H
	DB	08cH
	DB	010H
	DB	0ffH
	DB	0a8H
	DB	08cH
	DB	010H
	DB	0ffH
	DB	0a8H
	DB	08cH
	DB	010H
	DB	0ffH
	DB	0a8H
	DB	08cH
	DB	010H
	DB	0ffH
	DB	0a8H
	DB	08cH
	DB	010H
	DB	0ffH
	DB	0a8H
	DB	08cH
	DB	010H
	DB	0ffH
	DB	0a8H
	DB	08cH
	DB	010H
	DB	0ffH
	DB	0a8H
	DB	08cH
	DB	010H
	DB	0ffH
	DB	0a8H
	DB	08cH
	DB	010H
	DB	0ffH
	DB	0a8H
	DB	08cH
	DB	010H
	DB	0ffH
	DB	0a8H
	DB	08cH
	DB	010H
	DB	0ffH
	DB	0a8H
	DB	08cH
	DB	010H
	DB	0ffH
	DB	0a8H
	DB	08cH
	DB	010H
	DB	0ffH
	DB	0a8H
	DB	08cH
	DB	010H
	DB	0ffH
	DB	0a8H
	DB	08cH
	DB	010H
	DB	0ffH
	DB	0a8H
	DB	08cH
	DB	010H
	DB	0ffH
	DB	0a8H
	DB	08cH
	DB	010H
	DB	0ffH
	DB	0a8H
	DB	08cH
	DB	010H
	DB	0ffH
	DB	0a8H
	DB	08cH
	DB	010H
	DB	0ffH
	DB	0a8H
	DB	08cH
	DB	010H
	DB	0ffH
	DB	0a8H
	DB	08cH
	DB	010H
	DB	0ffH
	DB	0a8H
	DB	08cH
	DB	010H
	DB	0ffH
	DB	0a8H
	DB	08cH
	DB	010H
	DB	0ffH
	DB	0a8H
	DB	08cH
	DB	010H
	DB	0ffH
	DB	0a8H
	DB	08cH
	DB	010H
	DB	0ffH
	DB	0a8H
	DB	08cH
	DB	010H
	DB	0ffH
	DB	0a8H
	DB	08cH
	DB	010H
	DB	0ffH
	DB	0a8H
	DB	08cH
	DB	010H
	DB	0ffH
	DB	0a8H
	DB	08cH
	DB	010H
	DB	0ffH
	DB	0a8H
	DB	08cH
	DB	010H
	DB	0ffH
	DB	0a8H
	DB	08cH
	DB	010H
	DB	0ffH
	DB	0a8H
	DB	08cH
	DB	010H
	DB	0ffH
	DB	0a8H
	DB	08cH
	DB	010H
	DB	0ffH
	DB	0a8H
	DB	08cH
	DB	010H
	DB	0ffH
	DB	0a8H
	DB	08cH
	DB	010H
	DB	0ffH
	DB	0a8H
	DB	08cH
	DB	010H
	DB	0ffH
	DB	0a8H
	DB	08cH
	DB	010H
	DB	0ffH
	DB	0a8H
	DB	08cH
	DB	010H
	DB	0ffH
	DB	0a8H
	DB	08cH
	DB	010H
	DB	0ffH
	DB	0a8H
	DB	08cH
	DB	010H
	DB	0ffH
	DB	0a8H
	DB	08cH
	DB	010H
	DB	0ffH
	DB	0a8H
	DB	08cH
	DB	010H
	DB	0ffH
	DB	0a8H
	DB	08cH
	DB	010H
	DB	0ffH
	DB	0a8H
	DB	08cH
	DB	010H
	DB	0ffH
	DB	0a8H
	DB	08cH
	DB	010H
	DB	0ffH
	DB	0a8H
	DB	08cH
	DB	010H
	DB	0ffH
	DB	0a8H
	DB	08cH
	DB	010H
	DB	0ffH
	DB	0a8H
	DB	08cH
	DB	010H
	DB	0ffH
	DB	0a8H
	DB	08cH
	DB	010H
	DB	0ffH
	DB	0a8H
	DB	08cH
	DB	010H
	DB	0ffH
	DB	0a8H
	DB	08cH
	DB	010H
	DB	0ffH
	DB	0a8H
	DB	08cH
	DB	010H
	DB	0ffH
	DB	0a8H
	DB	08cH
	DB	010H
	DB	0ffH
	DB	0a8H
	DB	08cH
	DB	010H
	DB	0ffH
	DB	0a8H
	DB	08cH
	DB	010H
	DB	0ffH
	DB	0a8H
	DB	08cH
	DB	010H
	DB	0ffH
	DB	0a8H
	DB	08cH
	DB	010H
	DB	0ffH
	DB	0a8H
	DB	08cH
	DB	010H
	DB	0ffH
	DB	0a8H
	DB	08cH
	DB	010H
	DB	0ffH
	DB	0a8H
	DB	08cH
	DB	010H
	DB	0ffH
	DB	0a8H
	DB	08cH
	DB	010H
	DB	0ffH
	DB	0a8H
	DB	08cH
	DB	010H
	DB	0ffH
	DB	0a8H
	DB	08cH
	DB	010H
	DB	0ffH
	DB	0a8H
	DB	08cH
	DB	010H
	DB	0ffH
	DB	0a8H
	DB	08cH
	DB	010H
	DB	0ffH
	DB	0a8H
	DB	08cH
	DB	010H
	DB	0ffH
	DB	0a8H
	DB	08cH
	DB	010H
	DB	0ffH
	DB	0a8H
	DB	08cH
	DB	010H
	DB	0ffH
	DB	0a8H
	DB	08cH
	DB	010H
	DB	0ffH
	DB	0a8H
	DB	08cH
	DB	010H
	DB	0ffH
	DB	0a8H
	DB	08cH
	DB	010H
	DB	0ffH
	DB	0a8H
	DB	08cH
	DB	010H
	DB	0ffH
	DB	0a8H
	DB	08cH
	DB	010H
	DB	0ffH
	DB	0a8H
	DB	08cH
	DB	010H
	DB	0ffH
	DB	0a8H
	DB	08cH
	DB	010H
	DB	0ffH
	DB	0a8H
	DB	08cH
	DB	010H
	DB	0ffH
	DB	0a8H
	DB	08cH
	DB	010H
	DB	0ffH
	DB	0a8H
	DB	08cH
	DB	010H
	DB	0ffH
	DB	0a8H
	DB	08cH
	DB	010H
	DB	0ffH
	DB	0a8H
	DB	08cH
	DB	010H
	DB	0ffH
	DB	0a8H
	DB	08cH
	DB	010H
	DB	0f3H
	DB	0a8H
	DB	08cH
	DB	010H
	DB	0dbH
	DB	0a8H
	DB	08cH
	DB	010H
	DB	0b3H
	DB	0a8H
	DB	08cH
	DB	010H
	DB	083H
	DB	0a8H
	DB	08cH
	DB	010H
	DB	044H
	DB	0a8H
	DB	08cH
	DB	010H
	DB	08H
	DB	0f8H
	DB	0fcH
	DB	0f8H
	DB	00H
	DB	0f8H
	DB	0fcH
	DB	0f8H
	DB	00H
	DB	0f8H
	DB	0fcH
	DB	0f8H
	DB	00H
	DB	0f8H
	DB	0fcH
	DB	0f8H
	DB	00H
	DB	0f8H
	DB	0fcH
	DB	0f8H
	DB	00H
	DB	0f8H
	DB	0fcH
	DB	0f8H
	DB	00H
	DB	0f8H
	DB	0fcH
	DB	0f8H
	DB	00H
	DB	0f8H
	DB	0fcH
	DB	0f8H
	DB	00H
	DB	0f8H
	DB	0fcH
	DB	0f8H
	DB	00H
	DB	0f8H
	DB	0fcH
	DB	0f8H
	DB	00H
	DB	0f8H
	DB	0fcH
	DB	0f8H
	DB	00H
	DB	0f8H
	DB	0fcH
	DB	0f8H
	DB	00H
	DB	0f8H
	DB	0fcH
	DB	0f8H
	DB	00H
	DB	0f8H
	DB	0fcH
	DB	0f8H
	DB	00H
	DB	0f8H
	DB	0fcH
	DB	0f8H
	DB	00H
	DB	0f8H
	DB	0fcH
	DB	0f8H
	DB	00H
	DB	0f8H
	DB	0fcH
	DB	0f8H
	DB	00H
	DB	0f8H
	DB	0fcH
	DB	0f8H
	DB	00H
	DB	0f8H
	DB	0fcH
	DB	0f8H
	DB	00H
	DB	0f8H
	DB	0fcH
	DB	0f8H
	DB	00H
	DB	0f8H
	DB	0fcH
	DB	0f8H
	DB	00H
	DB	0f8H
	DB	0fcH
	DB	0f8H
	DB	00H
	DB	0f8H
	DB	0fcH
	DB	0f8H
	DB	00H
	DB	0f8H
	DB	0fcH
	DB	0f8H
	DB	00H
	DB	0f8H
	DB	0fcH
	DB	0f8H
	DB	00H
	DB	0f8H
	DB	0fcH
	DB	0f8H
	DB	00H
	DB	0a8H
	DB	08cH
	DB	010H
	DB	034H
	DB	0a8H
	DB	08cH
	DB	010H
	DB	09bH
	DB	0a8H
	DB	08cH
	DB	010H
	DB	0f3H
	DB	0a8H
	DB	08cH
	DB	010H
	DB	0ffH
	DB	0a8H
	DB	08cH
	DB	010H
	DB	0ffH
	DB	0a8H
	DB	08cH
	DB	010H
	DB	0ffH
	DB	0a8H
	DB	08cH
	DB	010H
	DB	0ffH
	DB	0a8H
	DB	08cH
	DB	010H
	DB	0ffH
	DB	0a8H
	DB	08cH
	DB	010H
	DB	0ffH
	DB	0a8H
	DB	08cH
	DB	010H
	DB	0ffH
	DB	0a8H
	DB	08cH
	DB	010H
	DB	0ffH
	DB	0a8H
	DB	08cH
	DB	010H
	DB	0ffH
	DB	0a8H
	DB	08cH
	DB	010H
	DB	0ffH
	DB	0a8H
	DB	08cH
	DB	010H
	DB	0ffH
	DB	0a8H
	DB	08cH
	DB	010H
	DB	0ffH
	DB	0a8H
	DB	08cH
	DB	010H
	DB	0ffH
	DB	0a8H
	DB	08cH
	DB	010H
	DB	0ffH
	DB	0a8H
	DB	08cH
	DB	010H
	DB	0ffH
	DB	0a8H
	DB	08cH
	DB	010H
	DB	0ffH
	DB	0a8H
	DB	08cH
	DB	010H
	DB	0ffH
	DB	0a8H
	DB	08cH
	DB	010H
	DB	0ffH
	DB	0a8H
	DB	08cH
	DB	010H
	DB	0ffH
	DB	0a8H
	DB	08cH
	DB	010H
	DB	0ffH
	DB	0a8H
	DB	08cH
	DB	010H
	DB	0ffH
	DB	0a8H
	DB	08cH
	DB	010H
	DB	0ffH
	DB	0a8H
	DB	08cH
	DB	010H
	DB	0ffH
	DB	0a8H
	DB	08cH
	DB	010H
	DB	0ffH
	DB	0a8H
	DB	08cH
	DB	010H
	DB	0ffH
	DB	0a8H
	DB	08cH
	DB	010H
	DB	0ffH
	DB	0a8H
	DB	08cH
	DB	010H
	DB	0ffH
	DB	0a8H
	DB	08cH
	DB	010H
	DB	0ffH
	DB	0a8H
	DB	08cH
	DB	010H
	DB	0ffH
	DB	0a8H
	DB	08cH
	DB	010H
	DB	0ffH
	DB	0a8H
	DB	08cH
	DB	010H
	DB	0ffH
	DB	0a8H
	DB	08cH
	DB	010H
	DB	0ffH
	DB	0a8H
	DB	08cH
	DB	010H
	DB	0ffH
	DB	0a8H
	DB	08cH
	DB	010H
	DB	0ffH
	DB	0a8H
	DB	08cH
	DB	010H
	DB	0ffH
	DB	0a8H
	DB	08cH
	DB	010H
	DB	0ffH
	DB	0a8H
	DB	08cH
	DB	010H
	DB	0ffH
	DB	0a8H
	DB	08cH
	DB	010H
	DB	0ffH
	DB	0a8H
	DB	08cH
	DB	010H
	DB	0ffH
	DB	0a8H
	DB	08cH
	DB	010H
	DB	0ffH
	DB	0a8H
	DB	08cH
	DB	010H
	DB	0ffH
	DB	0a8H
	DB	08cH
	DB	010H
	DB	0ffH
	DB	0a8H
	DB	08cH
	DB	010H
	DB	0ffH
	DB	0a8H
	DB	08cH
	DB	010H
	DB	0ffH
	DB	0a8H
	DB	08cH
	DB	010H
	DB	0ffH
	DB	0a8H
	DB	08cH
	DB	010H
	DB	0ffH
	DB	0a8H
	DB	08cH
	DB	010H
	DB	0ffH
	DB	0a8H
	DB	08cH
	DB	010H
	DB	0ffH
	DB	0a8H
	DB	08cH
	DB	010H
	DB	0ffH
	DB	0a8H
	DB	08cH
	DB	010H
	DB	0ffH
	DB	0a8H
	DB	08cH
	DB	010H
	DB	0ffH
	DB	0a8H
	DB	08cH
	DB	010H
	DB	0ffH
	DB	0a8H
	DB	08cH
	DB	010H
	DB	0ffH
	DB	0a8H
	DB	08cH
	DB	010H
	DB	0ffH
	DB	0a8H
	DB	08cH
	DB	010H
	DB	0ffH
	DB	0a8H
	DB	08cH
	DB	010H
	DB	0ffH
	DB	0a8H
	DB	08cH
	DB	010H
	DB	0ffH
	DB	0a8H
	DB	08cH
	DB	010H
	DB	0ffH
	DB	0a8H
	DB	08cH
	DB	010H
	DB	0ffH
	DB	0a8H
	DB	08cH
	DB	010H
	DB	0ffH
	DB	0a8H
	DB	08cH
	DB	010H
	DB	0ffH
	DB	0a8H
	DB	08cH
	DB	010H
	DB	0ffH
	DB	0a8H
	DB	08cH
	DB	010H
	DB	0ffH
	DB	0a8H
	DB	08cH
	DB	010H
	DB	0ffH
	DB	0a8H
	DB	08cH
	DB	010H
	DB	0ffH
	DB	0a8H
	DB	08cH
	DB	010H
	DB	0ffH
	DB	0a8H
	DB	08cH
	DB	010H
	DB	0ffH
	DB	0a8H
	DB	08cH
	DB	010H
	DB	0ffH
	DB	0a8H
	DB	08cH
	DB	010H
	DB	0ffH
	DB	0a8H
	DB	08cH
	DB	010H
	DB	0ffH
	DB	0a8H
	DB	08cH
	DB	010H
	DB	0ffH
	DB	0a8H
	DB	08cH
	DB	010H
	DB	0ffH
	DB	0a8H
	DB	08cH
	DB	010H
	DB	0ffH
	DB	0a8H
	DB	08cH
	DB	010H
	DB	0ffH
	DB	0a8H
	DB	08cH
	DB	010H
	DB	0ffH
	DB	0a8H
	DB	08cH
	DB	010H
	DB	0ffH
	DB	0a8H
	DB	08cH
	DB	010H
	DB	0ffH
	DB	0a8H
	DB	08cH
	DB	010H
	DB	0ffH
	DB	0a8H
	DB	08cH
	DB	010H
	DB	0ffH
	DB	0a8H
	DB	08cH
	DB	010H
	DB	0ffH
	DB	0a8H
	DB	08cH
	DB	010H
	DB	0ffH
	DB	0a8H
	DB	08cH
	DB	010H
	DB	0ffH
	DB	0a8H
	DB	08cH
	DB	010H
	DB	0ffH
	DB	0a8H
	DB	08cH
	DB	010H
	DB	0ffH
	DB	0a8H
	DB	08cH
	DB	010H
	DB	0ffH
	DB	0a8H
	DB	08cH
	DB	010H
	DB	0ffH
	DB	0a8H
	DB	08cH
	DB	010H
	DB	0ffH
	DB	0a8H
	DB	08cH
	DB	010H
	DB	0ffH
	DB	0a8H
	DB	08cH
	DB	010H
	DB	0ffH
	DB	0a8H
	DB	08cH
	DB	010H
	DB	0ffH
	DB	0a8H
	DB	08cH
	DB	010H
	DB	0ffH
	DB	0a8H
	DB	08cH
	DB	010H
	DB	0ffH
	DB	0a8H
	DB	08cH
	DB	010H
	DB	0ffH
	DB	0a8H
	DB	08cH
	DB	010H
	DB	0ffH
	DB	0a8H
	DB	08cH
	DB	010H
	DB	0ffH
	DB	0a8H
	DB	08cH
	DB	010H
	DB	0ffH
	DB	0a8H
	DB	08cH
	DB	010H
	DB	0f3H
	DB	0a8H
	DB	08cH
	DB	010H
	DB	0a3H
	DB	0a8H
	DB	08cH
	DB	010H
	DB	038H
	DB	0f8H
	DB	0fcH
	DB	0f8H
	DB	00H
	DB	0f8H
	DB	0fcH
	DB	0f8H
	DB	00H
	DB	0f8H
	DB	0fcH
	DB	0f8H
	DB	00H
	DB	0f8H
	DB	0fcH
	DB	0f8H
	DB	00H
	DB	0f8H
	DB	0fcH
	DB	0f8H
	DB	00H
	DB	0f8H
	DB	0fcH
	DB	0f8H
	DB	00H
	DB	0f8H
	DB	0fcH
	DB	0f8H
	DB	00H
	DB	0f8H
	DB	0fcH
	DB	0f8H
	DB	00H
	DB	0f8H
	DB	0fcH
	DB	0f8H
	DB	00H
	DB	0f8H
	DB	0fcH
	DB	0f8H
	DB	00H
	DB	0f8H
	DB	0fcH
	DB	0f8H
	DB	00H
	DB	0f8H
	DB	0fcH
	DB	0f8H
	DB	00H
	DB	0f8H
	DB	0fcH
	DB	0f8H
	DB	00H
	DB	0f8H
	DB	0fcH
	DB	0f8H
	DB	00H
	DB	0f8H
	DB	0fcH
	DB	0f8H
	DB	00H
	DB	0f8H
	DB	0fcH
	DB	0f8H
	DB	00H
	DB	0f8H
	DB	0fcH
	DB	0f8H
	DB	00H
	DB	0f8H
	DB	0fcH
	DB	0f8H
	DB	00H
	DB	0f8H
	DB	0fcH
	DB	0f8H
	DB	00H
	DB	0f8H
	DB	0fcH
	DB	0f8H
	DB	00H
	DB	0f8H
	DB	0fcH
	DB	0f8H
	DB	00H
	DB	0f8H
	DB	0fcH
	DB	0f8H
	DB	00H
	DB	0a8H
	DB	08cH
	DB	010H
	DB	02cH
	DB	0a8H
	DB	08cH
	DB	010H
	DB	0b3H
	DB	0a8H
	DB	08cH
	DB	010H
	DB	0ffH
	DB	0a8H
	DB	08cH
	DB	010H
	DB	0ffH
	DB	0a8H
	DB	08cH
	DB	010H
	DB	0ffH
	DB	0a0H
	DB	084H
	DB	018H
	DB	0f7H
	DB	088H
	DB	078H
	DB	030H
	DB	0eaH
	DB	078H
	DB	070H
	DB	040H
	DB	0e0H
	DB	068H
	DB	068H
	DB	048H
	DB	0d9H
	DB	060H
	DB	060H
	DB	058H
	DB	0d4H
	DB	060H
	DB	060H
	DB	060H
	DB	0d1H
	DB	060H
	DB	060H
	DB	060H
	DB	0d1H
	DB	060H
	DB	060H
	DB	060H
	DB	0d1H
	DB	060H
	DB	060H
	DB	060H
	DB	0d1H
	DB	060H
	DB	060H
	DB	060H
	DB	0d1H
	DB	060H
	DB	060H
	DB	060H
	DB	0d1H
	DB	060H
	DB	060H
	DB	060H
	DB	0d1H
	DB	060H
	DB	060H
	DB	060H
	DB	0d1H
	DB	060H
	DB	060H
	DB	060H
	DB	0d1H
	DB	060H
	DB	060H
	DB	060H
	DB	0d1H
	DB	060H
	DB	060H
	DB	060H
	DB	0d1H
	DB	060H
	DB	060H
	DB	060H
	DB	0d1H
	DB	060H
	DB	060H
	DB	060H
	DB	0d1H
	DB	060H
	DB	060H
	DB	060H
	DB	0d1H
	DB	060H
	DB	060H
	DB	060H
	DB	0d1H
	DB	060H
	DB	060H
	DB	060H
	DB	0d1H
	DB	060H
	DB	060H
	DB	060H
	DB	0d1H
	DB	060H
	DB	060H
	DB	060H
	DB	0d1H
	DB	060H
	DB	060H
	DB	060H
	DB	0d1H
	DB	060H
	DB	060H
	DB	060H
	DB	0d1H
	DB	060H
	DB	060H
	DB	060H
	DB	0d1H
	DB	060H
	DB	060H
	DB	060H
	DB	0d1H
	DB	060H
	DB	060H
	DB	060H
	DB	0d1H
	DB	060H
	DB	060H
	DB	060H
	DB	0d1H
	DB	060H
	DB	060H
	DB	060H
	DB	0d1H
	DB	060H
	DB	060H
	DB	060H
	DB	0d1H
	DB	060H
	DB	060H
	DB	060H
	DB	0d1H
	DB	060H
	DB	060H
	DB	060H
	DB	0d1H
	DB	060H
	DB	060H
	DB	060H
	DB	0d1H
	DB	060H
	DB	060H
	DB	060H
	DB	0d1H
	DB	060H
	DB	060H
	DB	060H
	DB	0d1H
	DB	060H
	DB	060H
	DB	060H
	DB	0d1H
	DB	060H
	DB	060H
	DB	060H
	DB	0d1H
	DB	060H
	DB	060H
	DB	060H
	DB	0d1H
	DB	060H
	DB	060H
	DB	060H
	DB	0d1H
	DB	060H
	DB	060H
	DB	060H
	DB	0d1H
	DB	060H
	DB	060H
	DB	060H
	DB	0d1H
	DB	060H
	DB	060H
	DB	060H
	DB	0d1H
	DB	060H
	DB	060H
	DB	060H
	DB	0d1H
	DB	060H
	DB	060H
	DB	060H
	DB	0d1H
	DB	060H
	DB	060H
	DB	060H
	DB	0d1H
	DB	060H
	DB	060H
	DB	060H
	DB	0d1H
	DB	060H
	DB	060H
	DB	060H
	DB	0d1H
	DB	060H
	DB	060H
	DB	060H
	DB	0d1H
	DB	060H
	DB	060H
	DB	060H
	DB	0d1H
	DB	060H
	DB	060H
	DB	060H
	DB	0d1H
	DB	060H
	DB	060H
	DB	060H
	DB	0d1H
	DB	060H
	DB	060H
	DB	060H
	DB	0d1H
	DB	060H
	DB	060H
	DB	060H
	DB	0d1H
	DB	060H
	DB	060H
	DB	060H
	DB	0d1H
	DB	060H
	DB	060H
	DB	060H
	DB	0d1H
	DB	060H
	DB	060H
	DB	060H
	DB	0d1H
	DB	060H
	DB	060H
	DB	060H
	DB	0d1H
	DB	060H
	DB	060H
	DB	060H
	DB	0d1H
	DB	060H
	DB	060H
	DB	060H
	DB	0d1H
	DB	060H
	DB	060H
	DB	060H
	DB	0d1H
	DB	060H
	DB	060H
	DB	060H
	DB	0d1H
	DB	060H
	DB	060H
	DB	060H
	DB	0d1H
	DB	060H
	DB	060H
	DB	060H
	DB	0d1H
	DB	060H
	DB	060H
	DB	060H
	DB	0d1H
	DB	060H
	DB	060H
	DB	060H
	DB	0d1H
	DB	060H
	DB	060H
	DB	060H
	DB	0d1H
	DB	060H
	DB	060H
	DB	060H
	DB	0d1H
	DB	060H
	DB	060H
	DB	060H
	DB	0d1H
	DB	060H
	DB	060H
	DB	060H
	DB	0d1H
	DB	060H
	DB	060H
	DB	060H
	DB	0d1H
	DB	060H
	DB	060H
	DB	060H
	DB	0d1H
	DB	060H
	DB	060H
	DB	060H
	DB	0d1H
	DB	060H
	DB	060H
	DB	060H
	DB	0d1H
	DB	060H
	DB	060H
	DB	060H
	DB	0d1H
	DB	060H
	DB	060H
	DB	060H
	DB	0d1H
	DB	060H
	DB	060H
	DB	060H
	DB	0d1H
	DB	060H
	DB	060H
	DB	060H
	DB	0d1H
	DB	060H
	DB	060H
	DB	060H
	DB	0d1H
	DB	060H
	DB	060H
	DB	060H
	DB	0d1H
	DB	060H
	DB	060H
	DB	060H
	DB	0d1H
	DB	060H
	DB	060H
	DB	060H
	DB	0d1H
	DB	060H
	DB	060H
	DB	060H
	DB	0d1H
	DB	060H
	DB	060H
	DB	060H
	DB	0d1H
	DB	060H
	DB	060H
	DB	060H
	DB	0d1H
	DB	060H
	DB	060H
	DB	060H
	DB	0d1H
	DB	060H
	DB	060H
	DB	060H
	DB	0d1H
	DB	060H
	DB	060H
	DB	060H
	DB	0d1H
	DB	060H
	DB	060H
	DB	060H
	DB	0d1H
	DB	060H
	DB	060H
	DB	060H
	DB	0d1H
	DB	060H
	DB	060H
	DB	060H
	DB	0d1H
	DB	060H
	DB	060H
	DB	058H
	DB	0d3H
	DB	068H
	DB	068H
	DB	050H
	DB	0d8H
	DB	078H
	DB	070H
	DB	040H
	DB	0dfH
	DB	088H
	DB	078H
	DB	030H
	DB	0e9H
	DB	098H
	DB	084H
	DB	018H
	DB	0f6H
	DB	0a8H
	DB	08cH
	DB	010H
	DB	0ffH
	DB	0a8H
	DB	08cH
	DB	010H
	DB	0ffH
	DB	0a8H
	DB	08cH
	DB	010H
	DB	0ffH
	DB	0a8H
	DB	08cH
	DB	010H
	DB	0bfH
	DB	0a8H
	DB	08cH
	DB	010H
	DB	034H
	DB	0f8H
	DB	0fcH
	DB	0f8H
	DB	00H
	DB	0f8H
	DB	0fcH
	DB	0f8H
	DB	00H
	DB	0f8H
	DB	0fcH
	DB	0f8H
	DB	00H
	DB	0f8H
	DB	0fcH
	DB	0f8H
	DB	00H
	DB	0f8H
	DB	0fcH
	DB	0f8H
	DB	00H
	DB	0f8H
	DB	0fcH
	DB	0f8H
	DB	00H
	DB	0f8H
	DB	0fcH
	DB	0f8H
	DB	00H
	DB	0f8H
	DB	0fcH
	DB	0f8H
	DB	00H
	DB	0f8H
	DB	0fcH
	DB	0f8H
	DB	00H
	DB	0f8H
	DB	0fcH
	DB	0f8H
	DB	00H
	DB	0f8H
	DB	0fcH
	DB	0f8H
	DB	00H
	DB	0f8H
	DB	0fcH
	DB	0f8H
	DB	00H
	DB	0f8H
	DB	0fcH
	DB	0f8H
	DB	00H
	DB	0f8H
	DB	0fcH
	DB	0f8H
	DB	00H
	DB	0f8H
	DB	0fcH
	DB	0f8H
	DB	00H
	DB	0f8H
	DB	0fcH
	DB	0f8H
	DB	00H
	DB	0f8H
	DB	0fcH
	DB	0f8H
	DB	00H
	DB	0f8H
	DB	0fcH
	DB	0f8H
	DB	00H
	DB	0a8H
	DB	08cH
	DB	010H
	DB	0cH
	DB	0a8H
	DB	08cH
	DB	010H
	DB	08fH
	DB	0a8H
	DB	08cH
	DB	010H
	DB	0fbH
	DB	0a8H
	DB	08cH
	DB	010H
	DB	0ffH
	DB	0a0H
	DB	088H
	DB	010H
	DB	0fcH
	DB	088H
	DB	078H
	DB	030H
	DB	0eaH
	DB	068H
	DB	068H
	DB	050H
	DB	0d8H
	DB	060H
	DB	060H
	DB	060H
	DB	0d1H
	DB	060H
	DB	060H
	DB	060H
	DB	0d1H
	DB	060H
	DB	060H
	DB	060H
	DB	0d1H
	DB	060H
	DB	060H
	DB	060H
	DB	0d1H
	DB	060H
	DB	060H
	DB	060H
	DB	0d1H
	DB	060H
	DB	060H
	DB	060H
	DB	0d1H
	DB	060H
	DB	060H
	DB	060H
	DB	0d1H
	DB	060H
	DB	060H
	DB	060H
	DB	0d1H
	DB	060H
	DB	060H
	DB	060H
	DB	0d1H
	DB	060H
	DB	060H
	DB	060H
	DB	0d1H
	DB	060H
	DB	060H
	DB	060H
	DB	0d1H
	DB	060H
	DB	060H
	DB	060H
	DB	0d1H
	DB	060H
	DB	060H
	DB	060H
	DB	0d1H
	DB	060H
	DB	060H
	DB	060H
	DB	0d1H
	DB	060H
	DB	060H
	DB	060H
	DB	0d1H
	DB	060H
	DB	060H
	DB	060H
	DB	0d1H
	DB	060H
	DB	060H
	DB	060H
	DB	0d1H
	DB	060H
	DB	060H
	DB	060H
	DB	0d1H
	DB	060H
	DB	060H
	DB	060H
	DB	0d1H
	DB	060H
	DB	060H
	DB	060H
	DB	0d1H
	DB	060H
	DB	060H
	DB	060H
	DB	0d1H
	DB	060H
	DB	060H
	DB	060H
	DB	0d1H
	DB	060H
	DB	060H
	DB	060H
	DB	0d1H
	DB	060H
	DB	060H
	DB	060H
	DB	0d1H
	DB	060H
	DB	060H
	DB	060H
	DB	0d1H
	DB	060H
	DB	060H
	DB	060H
	DB	0d1H
	DB	060H
	DB	060H
	DB	060H
	DB	0d1H
	DB	060H
	DB	060H
	DB	060H
	DB	0d1H
	DB	060H
	DB	060H
	DB	060H
	DB	0d1H
	DB	060H
	DB	060H
	DB	060H
	DB	0d1H
	DB	060H
	DB	060H
	DB	060H
	DB	0d1H
	DB	060H
	DB	060H
	DB	060H
	DB	0d1H
	DB	060H
	DB	060H
	DB	060H
	DB	0d1H
	DB	060H
	DB	060H
	DB	060H
	DB	0d1H
	DB	060H
	DB	060H
	DB	060H
	DB	0d1H
	DB	060H
	DB	060H
	DB	060H
	DB	0d1H
	DB	060H
	DB	060H
	DB	060H
	DB	0d1H
	DB	060H
	DB	060H
	DB	060H
	DB	0d1H
	DB	060H
	DB	060H
	DB	060H
	DB	0d1H
	DB	060H
	DB	060H
	DB	060H
	DB	0d1H
	DB	060H
	DB	060H
	DB	060H
	DB	0d1H
	DB	060H
	DB	060H
	DB	060H
	DB	0d1H
	DB	060H
	DB	060H
	DB	060H
	DB	0d1H
	DB	060H
	DB	060H
	DB	060H
	DB	0d1H
	DB	060H
	DB	060H
	DB	060H
	DB	0d1H
	DB	060H
	DB	060H
	DB	060H
	DB	0d1H
	DB	060H
	DB	060H
	DB	060H
	DB	0d1H
	DB	060H
	DB	060H
	DB	060H
	DB	0d1H
	DB	060H
	DB	060H
	DB	060H
	DB	0d1H
	DB	060H
	DB	060H
	DB	060H
	DB	0d1H
	DB	060H
	DB	060H
	DB	060H
	DB	0d1H
	DB	060H
	DB	060H
	DB	060H
	DB	0d1H
	DB	060H
	DB	060H
	DB	060H
	DB	0d1H
	DB	060H
	DB	060H
	DB	060H
	DB	0d1H
	DB	060H
	DB	060H
	DB	060H
	DB	0d1H
	DB	060H
	DB	060H
	DB	060H
	DB	0d1H
	DB	060H
	DB	060H
	DB	060H
	DB	0d1H
	DB	060H
	DB	060H
	DB	060H
	DB	0d1H
	DB	060H
	DB	060H
	DB	060H
	DB	0d1H
	DB	060H
	DB	060H
	DB	060H
	DB	0d1H
	DB	060H
	DB	060H
	DB	060H
	DB	0d1H
	DB	060H
	DB	060H
	DB	060H
	DB	0d1H
	DB	060H
	DB	060H
	DB	060H
	DB	0d1H
	DB	060H
	DB	060H
	DB	060H
	DB	0d1H
	DB	060H
	DB	060H
	DB	060H
	DB	0d1H
	DB	060H
	DB	060H
	DB	060H
	DB	0d1H
	DB	060H
	DB	060H
	DB	060H
	DB	0d1H
	DB	060H
	DB	060H
	DB	060H
	DB	0d1H
	DB	060H
	DB	060H
	DB	060H
	DB	0d1H
	DB	060H
	DB	060H
	DB	060H
	DB	0d1H
	DB	060H
	DB	060H
	DB	060H
	DB	0d1H
	DB	060H
	DB	060H
	DB	060H
	DB	0d1H
	DB	060H
	DB	060H
	DB	060H
	DB	0d1H
	DB	060H
	DB	060H
	DB	060H
	DB	0d1H
	DB	060H
	DB	060H
	DB	060H
	DB	0d1H
	DB	060H
	DB	060H
	DB	060H
	DB	0d1H
	DB	060H
	DB	060H
	DB	060H
	DB	0d1H
	DB	060H
	DB	060H
	DB	060H
	DB	0d1H
	DB	060H
	DB	060H
	DB	060H
	DB	0d1H
	DB	060H
	DB	060H
	DB	060H
	DB	0d1H
	DB	060H
	DB	060H
	DB	060H
	DB	0d1H
	DB	060H
	DB	060H
	DB	060H
	DB	0d1H
	DB	060H
	DB	060H
	DB	060H
	DB	0d1H
	DB	060H
	DB	060H
	DB	060H
	DB	0d1H
	DB	060H
	DB	060H
	DB	060H
	DB	0d1H
	DB	060H
	DB	060H
	DB	060H
	DB	0d1H
	DB	060H
	DB	060H
	DB	060H
	DB	0d1H
	DB	060H
	DB	060H
	DB	060H
	DB	0d1H
	DB	060H
	DB	060H
	DB	060H
	DB	0d1H
	DB	060H
	DB	060H
	DB	060H
	DB	0d1H
	DB	060H
	DB	060H
	DB	060H
	DB	0d1H
	DB	060H
	DB	060H
	DB	060H
	DB	0d1H
	DB	060H
	DB	060H
	DB	060H
	DB	0d1H
	DB	060H
	DB	060H
	DB	060H
	DB	0d1H
	DB	060H
	DB	060H
	DB	060H
	DB	0d1H
	DB	060H
	DB	060H
	DB	060H
	DB	0d1H
	DB	068H
	DB	064H
	DB	050H
	DB	0d7H
	DB	088H
	DB	078H
	DB	030H
	DB	0e9H
	DB	0a0H
	DB	088H
	DB	010H
	DB	0fcH
	DB	0a8H
	DB	08cH
	DB	010H
	DB	0ffH
	DB	0a8H
	DB	08cH
	DB	010H
	DB	0ffH
	DB	0a8H
	DB	08cH
	DB	010H
	DB	09bH
	DB	0a8H
	DB	08cH
	DB	010H
	DB	0cH
	DB	0f8H
	DB	0fcH
	DB	0f8H
	DB	00H
	DB	0f8H
	DB	0fcH
	DB	0f8H
	DB	00H
	DB	0f8H
	DB	0fcH
	DB	0f8H
	DB	00H
	DB	0f8H
	DB	0fcH
	DB	0f8H
	DB	00H
	DB	0f8H
	DB	0fcH
	DB	0f8H
	DB	00H
	DB	0f8H
	DB	0fcH
	DB	0f8H
	DB	00H
	DB	0f8H
	DB	0fcH
	DB	0f8H
	DB	00H
	DB	0f8H
	DB	0fcH
	DB	0f8H
	DB	00H
	DB	0f8H
	DB	0fcH
	DB	0f8H
	DB	00H
	DB	0f8H
	DB	0fcH
	DB	0f8H
	DB	00H
	DB	0f8H
	DB	0fcH
	DB	0f8H
	DB	00H
	DB	0f8H
	DB	0fcH
	DB	0f8H
	DB	00H
	DB	0f8H
	DB	0fcH
	DB	0f8H
	DB	00H
	DB	0f8H
	DB	0fcH
	DB	0f8H
	DB	00H
	DB	0f8H
	DB	0fcH
	DB	0f8H
	DB	00H
	DB	0a8H
	DB	08cH
	DB	010H
	DB	028H
	DB	0a8H
	DB	08cH
	DB	010H
	DB	0d3H
	DB	0a8H
	DB	08cH
	DB	010H
	DB	0ffH
	DB	0a8H
	DB	08cH
	DB	010H
	DB	0feH
	DB	088H
	DB	078H
	DB	028H
	DB	0ebH
	DB	060H
	DB	060H
	DB	058H
	DB	0d4H
	DB	060H
	DB	060H
	DB	060H
	DB	0d1H
	DB	060H
	DB	060H
	DB	060H
	DB	0d1H
	DB	060H
	DB	060H
	DB	060H
	DB	0d1H
	DB	060H
	DB	060H
	DB	060H
	DB	0d1H
	DB	060H
	DB	060H
	DB	060H
	DB	0d1H
	DB	060H
	DB	060H
	DB	060H
	DB	0d1H
	DB	060H
	DB	060H
	DB	060H
	DB	0d1H
	DB	060H
	DB	060H
	DB	060H
	DB	0d1H
	DB	060H
	DB	060H
	DB	060H
	DB	0d1H
	DB	060H
	DB	060H
	DB	060H
	DB	0d1H
	DB	060H
	DB	060H
	DB	060H
	DB	0d1H
	DB	060H
	DB	060H
	DB	060H
	DB	0d1H
	DB	060H
	DB	060H
	DB	060H
	DB	0d1H
	DB	060H
	DB	060H
	DB	060H
	DB	0d1H
	DB	060H
	DB	060H
	DB	060H
	DB	0d1H
	DB	060H
	DB	060H
	DB	060H
	DB	0d1H
	DB	060H
	DB	060H
	DB	060H
	DB	0d1H
	DB	060H
	DB	060H
	DB	060H
	DB	0d1H
	DB	060H
	DB	060H
	DB	060H
	DB	0d1H
	DB	060H
	DB	060H
	DB	060H
	DB	0d1H
	DB	060H
	DB	060H
	DB	060H
	DB	0d1H
	DB	060H
	DB	060H
	DB	060H
	DB	0d1H
	DB	060H
	DB	060H
	DB	060H
	DB	0d1H
	DB	060H
	DB	060H
	DB	060H
	DB	0d1H
	DB	060H
	DB	060H
	DB	060H
	DB	0d1H
	DB	060H
	DB	060H
	DB	060H
	DB	0d1H
	DB	060H
	DB	060H
	DB	060H
	DB	0d1H
	DB	060H
	DB	060H
	DB	060H
	DB	0d1H
	DB	060H
	DB	060H
	DB	060H
	DB	0d1H
	DB	060H
	DB	060H
	DB	060H
	DB	0d1H
	DB	060H
	DB	060H
	DB	060H
	DB	0d1H
	DB	060H
	DB	060H
	DB	060H
	DB	0d1H
	DB	060H
	DB	060H
	DB	060H
	DB	0d1H
	DB	060H
	DB	060H
	DB	060H
	DB	0d1H
	DB	060H
	DB	060H
	DB	060H
	DB	0d1H
	DB	060H
	DB	060H
	DB	060H
	DB	0d1H
	DB	060H
	DB	060H
	DB	060H
	DB	0d1H
	DB	060H
	DB	060H
	DB	060H
	DB	0d1H
	DB	060H
	DB	060H
	DB	060H
	DB	0d1H
	DB	060H
	DB	060H
	DB	060H
	DB	0d1H
	DB	060H
	DB	060H
	DB	060H
	DB	0d1H
	DB	060H
	DB	060H
	DB	060H
	DB	0d1H
	DB	060H
	DB	060H
	DB	060H
	DB	0d1H
	DB	060H
	DB	060H
	DB	060H
	DB	0d1H
	DB	060H
	DB	060H
	DB	060H
	DB	0d1H
	DB	060H
	DB	060H
	DB	060H
	DB	0d1H
	DB	060H
	DB	060H
	DB	060H
	DB	0d1H
	DB	060H
	DB	060H
	DB	060H
	DB	0d1H
	DB	060H
	DB	060H
	DB	060H
	DB	0d1H
	DB	060H
	DB	060H
	DB	060H
	DB	0d1H
	DB	060H
	DB	060H
	DB	060H
	DB	0d1H
	DB	060H
	DB	060H
	DB	060H
	DB	0d1H
	DB	060H
	DB	060H
	DB	060H
	DB	0d1H
	DB	060H
	DB	060H
	DB	060H
	DB	0d1H
	DB	060H
	DB	060H
	DB	060H
	DB	0d1H
	DB	060H
	DB	060H
	DB	060H
	DB	0d1H
	DB	060H
	DB	060H
	DB	060H
	DB	0d1H
	DB	060H
	DB	060H
	DB	060H
	DB	0d1H
	DB	060H
	DB	060H
	DB	060H
	DB	0d1H
	DB	060H
	DB	060H
	DB	060H
	DB	0d1H
	DB	060H
	DB	060H
	DB	060H
	DB	0d1H
	DB	060H
	DB	060H
	DB	060H
	DB	0d1H
	DB	060H
	DB	060H
	DB	060H
	DB	0d1H
	DB	060H
	DB	060H
	DB	060H
	DB	0d1H
	DB	060H
	DB	060H
	DB	060H
	DB	0d1H
	DB	060H
	DB	060H
	DB	060H
	DB	0d1H
	DB	060H
	DB	060H
	DB	060H
	DB	0d1H
	DB	060H
	DB	060H
	DB	060H
	DB	0d1H
	DB	060H
	DB	060H
	DB	060H
	DB	0d1H
	DB	060H
	DB	060H
	DB	060H
	DB	0d1H
	DB	060H
	DB	060H
	DB	060H
	DB	0d1H
	DB	060H
	DB	060H
	DB	060H
	DB	0d1H
	DB	060H
	DB	060H
	DB	060H
	DB	0d1H
	DB	060H
	DB	060H
	DB	060H
	DB	0d1H
	DB	060H
	DB	060H
	DB	060H
	DB	0d1H
	DB	060H
	DB	060H
	DB	060H
	DB	0d1H
	DB	060H
	DB	060H
	DB	060H
	DB	0d1H
	DB	060H
	DB	060H
	DB	060H
	DB	0d1H
	DB	060H
	DB	060H
	DB	060H
	DB	0d1H
	DB	060H
	DB	060H
	DB	060H
	DB	0d1H
	DB	060H
	DB	060H
	DB	060H
	DB	0d1H
	DB	060H
	DB	060H
	DB	060H
	DB	0d1H
	DB	060H
	DB	060H
	DB	060H
	DB	0d1H
	DB	060H
	DB	060H
	DB	060H
	DB	0d1H
	DB	060H
	DB	060H
	DB	060H
	DB	0d1H
	DB	060H
	DB	060H
	DB	060H
	DB	0d1H
	DB	060H
	DB	060H
	DB	060H
	DB	0d1H
	DB	060H
	DB	060H
	DB	060H
	DB	0d1H
	DB	060H
	DB	060H
	DB	060H
	DB	0d1H
	DB	060H
	DB	060H
	DB	060H
	DB	0d1H
	DB	060H
	DB	060H
	DB	060H
	DB	0d1H
	DB	060H
	DB	060H
	DB	060H
	DB	0d1H
	DB	060H
	DB	060H
	DB	060H
	DB	0d1H
	DB	060H
	DB	060H
	DB	060H
	DB	0d1H
	DB	060H
	DB	060H
	DB	060H
	DB	0d1H
	DB	060H
	DB	060H
	DB	060H
	DB	0d1H
	DB	060H
	DB	060H
	DB	060H
	DB	0d1H
	DB	060H
	DB	060H
	DB	060H
	DB	0d1H
	DB	060H
	DB	060H
	DB	060H
	DB	0d1H
	DB	060H
	DB	060H
	DB	060H
	DB	0d1H
	DB	060H
	DB	060H
	DB	058H
	DB	0d4H
	DB	088H
	DB	078H
	DB	030H
	DB	0e9H
	DB	0a8H
	DB	088H
	DB	010H
	DB	0fdH
	DB	0a8H
	DB	08cH
	DB	010H
	DB	0ffH
	DB	0a8H
	DB	08cH
	DB	010H
	DB	0dbH
	DB	0a8H
	DB	08cH
	DB	010H
	DB	02cH
	DB	0f8H
	DB	0fcH
	DB	0f8H
	DB	00H
	DB	0f8H
	DB	0fcH
	DB	0f8H
	DB	00H
	DB	0f8H
	DB	0fcH
	DB	0f8H
	DB	00H
	DB	0f8H
	DB	0fcH
	DB	0f8H
	DB	00H
	DB	0f8H
	DB	0fcH
	DB	0f8H
	DB	00H
	DB	0f8H
	DB	0fcH
	DB	0f8H
	DB	00H
	DB	0f8H
	DB	0fcH
	DB	0f8H
	DB	00H
	DB	0f8H
	DB	0fcH
	DB	0f8H
	DB	00H
	DB	0f8H
	DB	0fcH
	DB	0f8H
	DB	00H
	DB	0f8H
	DB	0fcH
	DB	0f8H
	DB	00H
	DB	0f8H
	DB	0fcH
	DB	0f8H
	DB	00H
	DB	0f8H
	DB	0fcH
	DB	0f8H
	DB	00H
	DB	0f8H
	DB	0fcH
	DB	0f8H
	DB	00H
	DB	0a8H
	DB	08cH
	DB	010H
	DB	038H
	DB	0a8H
	DB	08cH
	DB	010H
	DB	0ebH
	DB	0a8H
	DB	08cH
	DB	010H
	DB	0ffH
	DB	0a0H
	DB	084H
	DB	018H
	DB	0f8H
	DB	070H
	DB	068H
	DB	048H
	DB	0daH
	DB	060H
	DB	060H
	DB	060H
	DB	0d1H
	DB	060H
	DB	060H
	DB	060H
	DB	0d1H
	DB	060H
	DB	060H
	DB	060H
	DB	0d1H
	DB	060H
	DB	060H
	DB	060H
	DB	0d1H
	DB	060H
	DB	060H
	DB	060H
	DB	0d1H
	DB	060H
	DB	060H
	DB	060H
	DB	0d1H
	DB	060H
	DB	060H
	DB	060H
	DB	0d1H
	DB	060H
	DB	060H
	DB	060H
	DB	0d1H
	DB	060H
	DB	060H
	DB	060H
	DB	0d1H
	DB	060H
	DB	060H
	DB	060H
	DB	0d1H
	DB	060H
	DB	060H
	DB	060H
	DB	0d1H
	DB	060H
	DB	060H
	DB	060H
	DB	0d1H
	DB	060H
	DB	060H
	DB	060H
	DB	0d1H
	DB	060H
	DB	060H
	DB	060H
	DB	0d1H
	DB	060H
	DB	060H
	DB	060H
	DB	0d1H
	DB	060H
	DB	060H
	DB	060H
	DB	0d1H
	DB	060H
	DB	060H
	DB	060H
	DB	0d1H
	DB	060H
	DB	060H
	DB	060H
	DB	0d1H
	DB	060H
	DB	060H
	DB	060H
	DB	0d1H
	DB	060H
	DB	060H
	DB	060H
	DB	0d1H
	DB	060H
	DB	060H
	DB	060H
	DB	0d1H
	DB	060H
	DB	060H
	DB	060H
	DB	0d1H
	DB	060H
	DB	060H
	DB	060H
	DB	0d1H
	DB	060H
	DB	060H
	DB	060H
	DB	0d1H
	DB	060H
	DB	060H
	DB	060H
	DB	0d1H
	DB	060H
	DB	060H
	DB	060H
	DB	0d1H
	DB	060H
	DB	060H
	DB	060H
	DB	0d1H
	DB	060H
	DB	060H
	DB	060H
	DB	0d1H
	DB	060H
	DB	060H
	DB	060H
	DB	0d1H
	DB	060H
	DB	060H
	DB	060H
	DB	0d1H
	DB	060H
	DB	060H
	DB	060H
	DB	0d1H
	DB	060H
	DB	060H
	DB	060H
	DB	0d1H
	DB	060H
	DB	060H
	DB	060H
	DB	0d1H
	DB	060H
	DB	060H
	DB	060H
	DB	0d1H
	DB	060H
	DB	060H
	DB	060H
	DB	0d1H
	DB	060H
	DB	060H
	DB	060H
	DB	0d1H
	DB	060H
	DB	060H
	DB	060H
	DB	0d1H
	DB	060H
	DB	060H
	DB	060H
	DB	0d1H
	DB	060H
	DB	060H
	DB	060H
	DB	0d1H
	DB	060H
	DB	060H
	DB	060H
	DB	0d1H
	DB	060H
	DB	060H
	DB	060H
	DB	0d1H
	DB	060H
	DB	060H
	DB	060H
	DB	0d1H
	DB	060H
	DB	060H
	DB	060H
	DB	0d1H
	DB	060H
	DB	060H
	DB	060H
	DB	0d1H
	DB	060H
	DB	060H
	DB	060H
	DB	0d1H
	DB	060H
	DB	060H
	DB	060H
	DB	0d1H
	DB	060H
	DB	060H
	DB	060H
	DB	0d1H
	DB	060H
	DB	060H
	DB	060H
	DB	0d1H
	DB	060H
	DB	060H
	DB	060H
	DB	0d1H
	DB	060H
	DB	060H
	DB	060H
	DB	0d1H
	DB	060H
	DB	060H
	DB	060H
	DB	0d1H
	DB	060H
	DB	060H
	DB	060H
	DB	0d1H
	DB	060H
	DB	060H
	DB	060H
	DB	0d1H
	DB	060H
	DB	060H
	DB	060H
	DB	0d1H
	DB	060H
	DB	060H
	DB	060H
	DB	0d1H
	DB	060H
	DB	060H
	DB	060H
	DB	0d1H
	DB	060H
	DB	060H
	DB	060H
	DB	0d1H
	DB	060H
	DB	060H
	DB	060H
	DB	0d1H
	DB	060H
	DB	060H
	DB	060H
	DB	0d1H
	DB	060H
	DB	060H
	DB	060H
	DB	0d1H
	DB	060H
	DB	060H
	DB	060H
	DB	0d1H
	DB	060H
	DB	060H
	DB	060H
	DB	0d1H
	DB	060H
	DB	060H
	DB	060H
	DB	0d1H
	DB	060H
	DB	060H
	DB	060H
	DB	0d1H
	DB	060H
	DB	060H
	DB	060H
	DB	0d1H
	DB	060H
	DB	060H
	DB	060H
	DB	0d1H
	DB	060H
	DB	060H
	DB	060H
	DB	0d1H
	DB	060H
	DB	060H
	DB	060H
	DB	0d1H
	DB	060H
	DB	060H
	DB	060H
	DB	0d1H
	DB	060H
	DB	060H
	DB	060H
	DB	0d1H
	DB	060H
	DB	060H
	DB	060H
	DB	0d1H
	DB	060H
	DB	060H
	DB	060H
	DB	0d1H
	DB	060H
	DB	060H
	DB	060H
	DB	0d1H
	DB	060H
	DB	060H
	DB	060H
	DB	0d1H
	DB	060H
	DB	060H
	DB	060H
	DB	0d1H
	DB	060H
	DB	060H
	DB	060H
	DB	0d1H
	DB	060H
	DB	060H
	DB	060H
	DB	0d1H
	DB	060H
	DB	060H
	DB	060H
	DB	0d1H
	DB	060H
	DB	060H
	DB	060H
	DB	0d1H
	DB	060H
	DB	060H
	DB	060H
	DB	0d1H
	DB	060H
	DB	060H
	DB	060H
	DB	0d1H
	DB	060H
	DB	060H
	DB	060H
	DB	0d1H
	DB	060H
	DB	060H
	DB	060H
	DB	0d1H
	DB	060H
	DB	060H
	DB	060H
	DB	0d1H
	DB	060H
	DB	060H
	DB	060H
	DB	0d1H
	DB	060H
	DB	060H
	DB	060H
	DB	0d1H
	DB	060H
	DB	060H
	DB	060H
	DB	0d1H
	DB	060H
	DB	060H
	DB	060H
	DB	0d1H
	DB	060H
	DB	060H
	DB	060H
	DB	0d1H
	DB	060H
	DB	060H
	DB	060H
	DB	0d1H
	DB	060H
	DB	060H
	DB	060H
	DB	0d1H
	DB	060H
	DB	060H
	DB	060H
	DB	0d1H
	DB	060H
	DB	060H
	DB	060H
	DB	0d1H
	DB	060H
	DB	060H
	DB	060H
	DB	0d1H
	DB	060H
	DB	060H
	DB	060H
	DB	0d1H
	DB	060H
	DB	060H
	DB	060H
	DB	0d1H
	DB	060H
	DB	060H
	DB	060H
	DB	0d1H
	DB	060H
	DB	060H
	DB	060H
	DB	0d1H
	DB	060H
	DB	060H
	DB	060H
	DB	0d1H
	DB	060H
	DB	060H
	DB	060H
	DB	0d1H
	DB	060H
	DB	060H
	DB	060H
	DB	0d1H
	DB	060H
	DB	060H
	DB	060H
	DB	0d1H
	DB	060H
	DB	060H
	DB	060H
	DB	0d1H
	DB	060H
	DB	060H
	DB	060H
	DB	0d1H
	DB	068H
	DB	068H
	DB	048H
	DB	0d9H
	DB	098H
	DB	084H
	DB	018H
	DB	0f6H
	DB	0a8H
	DB	08cH
	DB	010H
	DB	0ffH
	DB	0a8H
	DB	08cH
	DB	010H
	DB	0f3H
	DB	0a8H
	DB	08cH
	DB	010H
	DB	03cH
	DB	0f8H
	DB	0fcH
	DB	0f8H
	DB	00H
	DB	0f8H
	DB	0fcH
	DB	0f8H
	DB	00H
	DB	0f8H
	DB	0fcH
	DB	0f8H
	DB	00H
	DB	0f8H
	DB	0fcH
	DB	0f8H
	DB	00H
	DB	0f8H
	DB	0fcH
	DB	0f8H
	DB	00H
	DB	0f8H
	DB	0fcH
	DB	0f8H
	DB	00H
	DB	0f8H
	DB	0fcH
	DB	0f8H
	DB	00H
	DB	0f8H
	DB	0fcH
	DB	0f8H
	DB	00H
	DB	0f8H
	DB	0fcH
	DB	0f8H
	DB	00H
	DB	0f8H
	DB	0fcH
	DB	0f8H
	DB	00H
	DB	0f8H
	DB	0fcH
	DB	0f8H
	DB	00H
	DB	0a8H
	DB	08cH
	DB	010H
	DB	038H
	DB	0a8H
	DB	08cH
	DB	010H
	DB	0f3H
	DB	0a8H
	DB	08cH
	DB	010H
	DB	0ffH
	DB	090H
	DB	080H
	DB	020H
	DB	0f1H
	DB	060H
	DB	060H
	DB	058H
	DB	0d3H
	DB	060H
	DB	060H
	DB	060H
	DB	0d1H
	DB	060H
	DB	060H
	DB	060H
	DB	0d1H
	DB	060H
	DB	060H
	DB	060H
	DB	0d1H
	DB	060H
	DB	060H
	DB	060H
	DB	0d1H
	DB	060H
	DB	060H
	DB	060H
	DB	0d1H
	DB	060H
	DB	060H
	DB	060H
	DB	0d1H
	DB	060H
	DB	060H
	DB	060H
	DB	0d1H
	DB	060H
	DB	060H
	DB	060H
	DB	0d1H
	DB	060H
	DB	060H
	DB	060H
	DB	0d1H
	DB	060H
	DB	060H
	DB	060H
	DB	0d1H
	DB	060H
	DB	060H
	DB	060H
	DB	0d1H
	DB	060H
	DB	060H
	DB	060H
	DB	0d1H
	DB	060H
	DB	060H
	DB	060H
	DB	0d1H
	DB	060H
	DB	060H
	DB	060H
	DB	0d1H
	DB	060H
	DB	060H
	DB	060H
	DB	0d1H
	DB	060H
	DB	060H
	DB	060H
	DB	0d1H
	DB	060H
	DB	060H
	DB	060H
	DB	0d1H
	DB	060H
	DB	060H
	DB	060H
	DB	0d1H
	DB	060H
	DB	060H
	DB	060H
	DB	0d1H
	DB	060H
	DB	060H
	DB	060H
	DB	0d1H
	DB	060H
	DB	060H
	DB	060H
	DB	0d1H
	DB	060H
	DB	060H
	DB	060H
	DB	0d1H
	DB	060H
	DB	060H
	DB	060H
	DB	0d1H
	DB	060H
	DB	060H
	DB	060H
	DB	0d1H
	DB	060H
	DB	060H
	DB	060H
	DB	0d1H
	DB	060H
	DB	060H
	DB	060H
	DB	0d1H
	DB	060H
	DB	060H
	DB	060H
	DB	0d1H
	DB	060H
	DB	060H
	DB	060H
	DB	0d1H
	DB	060H
	DB	060H
	DB	060H
	DB	0d1H
	DB	060H
	DB	060H
	DB	060H
	DB	0d1H
	DB	060H
	DB	060H
	DB	060H
	DB	0d1H
	DB	060H
	DB	060H
	DB	060H
	DB	0d1H
	DB	060H
	DB	060H
	DB	060H
	DB	0d1H
	DB	060H
	DB	060H
	DB	060H
	DB	0d1H
	DB	060H
	DB	060H
	DB	060H
	DB	0d1H
	DB	060H
	DB	060H
	DB	060H
	DB	0d1H
	DB	060H
	DB	060H
	DB	060H
	DB	0d1H
	DB	060H
	DB	060H
	DB	060H
	DB	0d1H
	DB	060H
	DB	060H
	DB	060H
	DB	0d1H
	DB	060H
	DB	060H
	DB	060H
	DB	0d1H
	DB	060H
	DB	060H
	DB	060H
	DB	0d1H
	DB	060H
	DB	060H
	DB	060H
	DB	0d1H
	DB	060H
	DB	060H
	DB	060H
	DB	0d1H
	DB	060H
	DB	060H
	DB	060H
	DB	0d1H
	DB	060H
	DB	060H
	DB	060H
	DB	0d1H
	DB	060H
	DB	060H
	DB	060H
	DB	0d1H
	DB	060H
	DB	060H
	DB	060H
	DB	0d1H
	DB	060H
	DB	060H
	DB	060H
	DB	0d1H
	DB	060H
	DB	060H
	DB	060H
	DB	0d1H
	DB	060H
	DB	060H
	DB	060H
	DB	0d1H
	DB	060H
	DB	060H
	DB	060H
	DB	0d1H
	DB	060H
	DB	060H
	DB	060H
	DB	0d1H
	DB	060H
	DB	060H
	DB	060H
	DB	0d1H
	DB	060H
	DB	060H
	DB	060H
	DB	0d1H
	DB	060H
	DB	060H
	DB	060H
	DB	0d1H
	DB	060H
	DB	060H
	DB	060H
	DB	0d1H
	DB	060H
	DB	060H
	DB	060H
	DB	0d1H
	DB	060H
	DB	060H
	DB	060H
	DB	0d1H
	DB	060H
	DB	060H
	DB	060H
	DB	0d1H
	DB	060H
	DB	060H
	DB	060H
	DB	0d1H
	DB	060H
	DB	060H
	DB	060H
	DB	0d1H
	DB	060H
	DB	060H
	DB	060H
	DB	0d1H
	DB	060H
	DB	060H
	DB	060H
	DB	0d1H
	DB	060H
	DB	060H
	DB	060H
	DB	0d1H
	DB	060H
	DB	060H
	DB	060H
	DB	0d1H
	DB	060H
	DB	060H
	DB	060H
	DB	0d1H
	DB	060H
	DB	060H
	DB	060H
	DB	0d1H
	DB	060H
	DB	060H
	DB	060H
	DB	0d1H
	DB	060H
	DB	060H
	DB	060H
	DB	0d1H
	DB	060H
	DB	060H
	DB	060H
	DB	0d1H
	DB	060H
	DB	060H
	DB	060H
	DB	0d1H
	DB	060H
	DB	060H
	DB	060H
	DB	0d1H
	DB	060H
	DB	060H
	DB	060H
	DB	0d1H
	DB	060H
	DB	060H
	DB	060H
	DB	0d1H
	DB	060H
	DB	060H
	DB	060H
	DB	0d1H
	DB	060H
	DB	060H
	DB	060H
	DB	0d1H
	DB	060H
	DB	060H
	DB	060H
	DB	0d1H
	DB	060H
	DB	060H
	DB	060H
	DB	0d1H
	DB	060H
	DB	060H
	DB	060H
	DB	0d1H
	DB	060H
	DB	060H
	DB	060H
	DB	0d1H
	DB	060H
	DB	060H
	DB	060H
	DB	0d1H
	DB	060H
	DB	060H
	DB	060H
	DB	0d1H
	DB	060H
	DB	060H
	DB	060H
	DB	0d1H
	DB	060H
	DB	060H
	DB	060H
	DB	0d1H
	DB	060H
	DB	060H
	DB	060H
	DB	0d1H
	DB	060H
	DB	060H
	DB	060H
	DB	0d1H
	DB	060H
	DB	060H
	DB	060H
	DB	0d1H
	DB	060H
	DB	060H
	DB	060H
	DB	0d1H
	DB	060H
	DB	060H
	DB	060H
	DB	0d1H
	DB	060H
	DB	060H
	DB	060H
	DB	0d1H
	DB	060H
	DB	060H
	DB	060H
	DB	0d1H
	DB	060H
	DB	060H
	DB	060H
	DB	0d1H
	DB	060H
	DB	060H
	DB	060H
	DB	0d1H
	DB	060H
	DB	060H
	DB	060H
	DB	0d1H
	DB	060H
	DB	060H
	DB	060H
	DB	0d1H
	DB	060H
	DB	060H
	DB	060H
	DB	0d1H
	DB	060H
	DB	060H
	DB	060H
	DB	0d1H
	DB	060H
	DB	060H
	DB	060H
	DB	0d1H
	DB	060H
	DB	060H
	DB	060H
	DB	0d1H
	DB	060H
	DB	060H
	DB	060H
	DB	0d1H
	DB	060H
	DB	060H
	DB	060H
	DB	0d1H
	DB	060H
	DB	060H
	DB	060H
	DB	0d1H
	DB	060H
	DB	060H
	DB	060H
	DB	0d1H
	DB	060H
	DB	060H
	DB	060H
	DB	0d1H
	DB	060H
	DB	060H
	DB	060H
	DB	0d1H
	DB	060H
	DB	060H
	DB	060H
	DB	0d1H
	DB	060H
	DB	060H
	DB	058H
	DB	0d2H
	DB	090H
	DB	07cH
	DB	028H
	DB	0efH
	DB	0a8H
	DB	08cH
	DB	010H
	DB	0ffH
	DB	0a8H
	DB	08cH
	DB	010H
	DB	0f3H
	DB	0a8H
	DB	08cH
	DB	010H
	DB	03cH
	DB	0f8H
	DB	0fcH
	DB	0f8H
	DB	00H
	DB	0f8H
	DB	0fcH
	DB	0f8H
	DB	00H
	DB	0f8H
	DB	0fcH
	DB	0f8H
	DB	00H
	DB	0f8H
	DB	0fcH
	DB	0f8H
	DB	00H
	DB	0f8H
	DB	0fcH
	DB	0f8H
	DB	00H
	DB	0f8H
	DB	0fcH
	DB	0f8H
	DB	00H
	DB	0f8H
	DB	0fcH
	DB	0f8H
	DB	00H
	DB	0f8H
	DB	0fcH
	DB	0f8H
	DB	00H
	DB	0f8H
	DB	0fcH
	DB	0f8H
	DB	00H
	DB	0a8H
	DB	08cH
	DB	010H
	DB	024H
	DB	0a8H
	DB	08cH
	DB	010H
	DB	0e7H
	DB	0a8H
	DB	08cH
	DB	010H
	DB	0ffH
	DB	090H
	DB	080H
	DB	020H
	DB	0f0H
	DB	060H
	DB	060H
	DB	058H
	DB	0d2H
	DB	060H
	DB	060H
	DB	060H
	DB	0d1H
	DB	060H
	DB	060H
	DB	060H
	DB	0d1H
	DB	060H
	DB	060H
	DB	060H
	DB	0d1H
	DB	060H
	DB	060H
	DB	060H
	DB	0d1H
	DB	060H
	DB	060H
	DB	060H
	DB	0d1H
	DB	060H
	DB	060H
	DB	060H
	DB	0d1H
	DB	060H
	DB	060H
	DB	060H
	DB	0d1H
	DB	060H
	DB	060H
	DB	060H
	DB	0d1H
	DB	060H
	DB	060H
	DB	060H
	DB	0d1H
	DB	060H
	DB	060H
	DB	060H
	DB	0d1H
	DB	060H
	DB	060H
	DB	060H
	DB	0d1H
	DB	060H
	DB	060H
	DB	060H
	DB	0d1H
	DB	060H
	DB	060H
	DB	060H
	DB	0d1H
	DB	060H
	DB	060H
	DB	060H
	DB	0d1H
	DB	060H
	DB	060H
	DB	060H
	DB	0d1H
	DB	060H
	DB	060H
	DB	060H
	DB	0d1H
	DB	060H
	DB	060H
	DB	060H
	DB	0d1H
	DB	060H
	DB	060H
	DB	060H
	DB	0d1H
	DB	060H
	DB	060H
	DB	060H
	DB	0d1H
	DB	060H
	DB	060H
	DB	060H
	DB	0d1H
	DB	060H
	DB	060H
	DB	060H
	DB	0d1H
	DB	060H
	DB	060H
	DB	060H
	DB	0d1H
	DB	060H
	DB	060H
	DB	060H
	DB	0d1H
	DB	060H
	DB	060H
	DB	060H
	DB	0d1H
	DB	060H
	DB	060H
	DB	060H
	DB	0d1H
	DB	060H
	DB	060H
	DB	060H
	DB	0d1H
	DB	060H
	DB	060H
	DB	060H
	DB	0d1H
	DB	060H
	DB	060H
	DB	060H
	DB	0d1H
	DB	060H
	DB	060H
	DB	060H
	DB	0d1H
	DB	060H
	DB	060H
	DB	060H
	DB	0d1H
	DB	060H
	DB	060H
	DB	060H
	DB	0d1H
	DB	060H
	DB	060H
	DB	060H
	DB	0d1H
	DB	060H
	DB	060H
	DB	060H
	DB	0d1H
	DB	060H
	DB	060H
	DB	060H
	DB	0d1H
	DB	060H
	DB	060H
	DB	060H
	DB	0d1H
	DB	060H
	DB	060H
	DB	060H
	DB	0d1H
	DB	060H
	DB	060H
	DB	060H
	DB	0d1H
	DB	060H
	DB	060H
	DB	060H
	DB	0d1H
	DB	060H
	DB	060H
	DB	060H
	DB	0d1H
	DB	060H
	DB	060H
	DB	060H
	DB	0d1H
	DB	060H
	DB	060H
	DB	060H
	DB	0d1H
	DB	060H
	DB	060H
	DB	060H
	DB	0d1H
	DB	060H
	DB	060H
	DB	060H
	DB	0d1H
	DB	060H
	DB	060H
	DB	060H
	DB	0d1H
	DB	060H
	DB	060H
	DB	060H
	DB	0d1H
	DB	060H
	DB	060H
	DB	060H
	DB	0d1H
	DB	060H
	DB	060H
	DB	060H
	DB	0d1H
	DB	060H
	DB	060H
	DB	060H
	DB	0d1H
	DB	060H
	DB	060H
	DB	060H
	DB	0d1H
	DB	060H
	DB	060H
	DB	060H
	DB	0d1H
	DB	060H
	DB	060H
	DB	060H
	DB	0d1H
	DB	060H
	DB	060H
	DB	060H
	DB	0d1H
	DB	060H
	DB	060H
	DB	060H
	DB	0d1H
	DB	060H
	DB	060H
	DB	060H
	DB	0d1H
	DB	060H
	DB	060H
	DB	060H
	DB	0d1H
	DB	060H
	DB	060H
	DB	060H
	DB	0d1H
	DB	060H
	DB	060H
	DB	060H
	DB	0d1H
	DB	060H
	DB	060H
	DB	060H
	DB	0d1H
	DB	060H
	DB	060H
	DB	060H
	DB	0d1H
	DB	060H
	DB	060H
	DB	060H
	DB	0d1H
	DB	060H
	DB	060H
	DB	060H
	DB	0d1H
	DB	060H
	DB	060H
	DB	060H
	DB	0d1H
	DB	060H
	DB	060H
	DB	060H
	DB	0d1H
	DB	060H
	DB	060H
	DB	060H
	DB	0d1H
	DB	060H
	DB	060H
	DB	060H
	DB	0d1H
	DB	060H
	DB	060H
	DB	060H
	DB	0d1H
	DB	060H
	DB	060H
	DB	060H
	DB	0d1H
	DB	060H
	DB	060H
	DB	060H
	DB	0d1H
	DB	060H
	DB	060H
	DB	060H
	DB	0d1H
	DB	060H
	DB	060H
	DB	060H
	DB	0d1H
	DB	060H
	DB	060H
	DB	060H
	DB	0d1H
	DB	060H
	DB	060H
	DB	060H
	DB	0d1H
	DB	060H
	DB	060H
	DB	060H
	DB	0d1H
	DB	060H
	DB	060H
	DB	060H
	DB	0d1H
	DB	060H
	DB	060H
	DB	060H
	DB	0d1H
	DB	060H
	DB	060H
	DB	060H
	DB	0d1H
	DB	060H
	DB	060H
	DB	060H
	DB	0d1H
	DB	060H
	DB	060H
	DB	060H
	DB	0d1H
	DB	060H
	DB	060H
	DB	060H
	DB	0d1H
	DB	060H
	DB	060H
	DB	060H
	DB	0d1H
	DB	060H
	DB	060H
	DB	060H
	DB	0d1H
	DB	060H
	DB	060H
	DB	060H
	DB	0d1H
	DB	060H
	DB	060H
	DB	060H
	DB	0d1H
	DB	060H
	DB	060H
	DB	060H
	DB	0d1H
	DB	060H
	DB	060H
	DB	060H
	DB	0d1H
	DB	060H
	DB	060H
	DB	060H
	DB	0d1H
	DB	060H
	DB	060H
	DB	060H
	DB	0d1H
	DB	060H
	DB	060H
	DB	060H
	DB	0d1H
	DB	060H
	DB	060H
	DB	060H
	DB	0d1H
	DB	060H
	DB	060H
	DB	060H
	DB	0d1H
	DB	060H
	DB	060H
	DB	060H
	DB	0d1H
	DB	060H
	DB	060H
	DB	060H
	DB	0d1H
	DB	060H
	DB	060H
	DB	060H
	DB	0d1H
	DB	060H
	DB	060H
	DB	060H
	DB	0d1H
	DB	060H
	DB	060H
	DB	060H
	DB	0d1H
	DB	060H
	DB	060H
	DB	060H
	DB	0d1H
	DB	060H
	DB	060H
	DB	060H
	DB	0d1H
	DB	060H
	DB	060H
	DB	060H
	DB	0d1H
	DB	060H
	DB	060H
	DB	060H
	DB	0d1H
	DB	060H
	DB	060H
	DB	060H
	DB	0d1H
	DB	060H
	DB	060H
	DB	060H
	DB	0d1H
	DB	060H
	DB	060H
	DB	060H
	DB	0d1H
	DB	060H
	DB	060H
	DB	060H
	DB	0d1H
	DB	060H
	DB	060H
	DB	060H
	DB	0d1H
	DB	060H
	DB	060H
	DB	060H
	DB	0d1H
	DB	060H
	DB	060H
	DB	060H
	DB	0d1H
	DB	060H
	DB	060H
	DB	060H
	DB	0d1H
	DB	060H
	DB	060H
	DB	060H
	DB	0d1H
	DB	060H
	DB	060H
	DB	060H
	DB	0d1H
	DB	088H
	DB	07cH
	DB	028H
	DB	0ecH
	DB	0a8H
	DB	08cH
	DB	010H
	DB	0ffH
	DB	0a8H
	DB	08cH
	DB	010H
	DB	0f3H
	DB	0a8H
	DB	08cH
	DB	010H
	DB	02cH
	DB	0f8H
	DB	0fcH
	DB	0f8H
	DB	00H
	DB	0f8H
	DB	0fcH
	DB	0f8H
	DB	00H
	DB	0f8H
	DB	0fcH
	DB	0f8H
	DB	00H
	DB	0f8H
	DB	0fcH
	DB	0f8H
	DB	00H
	DB	0f8H
	DB	0fcH
	DB	0f8H
	DB	00H
	DB	0f8H
	DB	0fcH
	DB	0f8H
	DB	00H
	DB	0f8H
	DB	0fcH
	DB	0f8H
	DB	00H
	DB	0a8H
	DB	08cH
	DB	010H
	DB	04H
	DB	0a8H
	DB	08cH
	DB	010H
	DB	0cfH
	DB	0a8H
	DB	08cH
	DB	010H
	DB	0ffH
	DB	098H
	DB	080H
	DB	020H
	DB	0f2H
	DB	060H
	DB	060H
	DB	058H
	DB	0d2H
	DB	060H
	DB	060H
	DB	060H
	DB	0d1H
	DB	060H
	DB	060H
	DB	060H
	DB	0d1H
	DB	060H
	DB	060H
	DB	060H
	DB	0d1H
	DB	060H
	DB	060H
	DB	060H
	DB	0d1H
	DB	060H
	DB	060H
	DB	060H
	DB	0d1H
	DB	060H
	DB	060H
	DB	060H
	DB	0d1H
	DB	060H
	DB	060H
	DB	060H
	DB	0d1H
	DB	060H
	DB	060H
	DB	060H
	DB	0d1H
	DB	060H
	DB	060H
	DB	060H
	DB	0d1H
	DB	060H
	DB	060H
	DB	060H
	DB	0d1H
	DB	060H
	DB	060H
	DB	060H
	DB	0d1H
	DB	060H
	DB	060H
	DB	060H
	DB	0d1H
	DB	060H
	DB	060H
	DB	060H
	DB	0d1H
	DB	060H
	DB	060H
	DB	060H
	DB	0d1H
	DB	060H
	DB	060H
	DB	060H
	DB	0d1H
	DB	060H
	DB	060H
	DB	060H
	DB	0d1H
	DB	060H
	DB	060H
	DB	060H
	DB	0d1H
	DB	060H
	DB	060H
	DB	060H
	DB	0d1H
	DB	060H
	DB	060H
	DB	060H
	DB	0d1H
	DB	060H
	DB	060H
	DB	060H
	DB	0d1H
	DB	060H
	DB	060H
	DB	060H
	DB	0d1H
	DB	060H
	DB	060H
	DB	060H
	DB	0d1H
	DB	060H
	DB	060H
	DB	060H
	DB	0d1H
	DB	060H
	DB	060H
	DB	060H
	DB	0d1H
	DB	060H
	DB	060H
	DB	060H
	DB	0d1H
	DB	060H
	DB	060H
	DB	060H
	DB	0d1H
	DB	060H
	DB	060H
	DB	060H
	DB	0d1H
	DB	060H
	DB	060H
	DB	060H
	DB	0d1H
	DB	060H
	DB	060H
	DB	060H
	DB	0d1H
	DB	060H
	DB	060H
	DB	060H
	DB	0d1H
	DB	060H
	DB	060H
	DB	060H
	DB	0d1H
	DB	060H
	DB	060H
	DB	060H
	DB	0d1H
	DB	060H
	DB	060H
	DB	060H
	DB	0d1H
	DB	060H
	DB	060H
	DB	060H
	DB	0d1H
	DB	060H
	DB	060H
	DB	060H
	DB	0d1H
	DB	060H
	DB	060H
	DB	060H
	DB	0d1H
	DB	060H
	DB	060H
	DB	060H
	DB	0d1H
	DB	060H
	DB	060H
	DB	060H
	DB	0d1H
	DB	060H
	DB	060H
	DB	060H
	DB	0d1H
	DB	060H
	DB	060H
	DB	060H
	DB	0d1H
	DB	060H
	DB	060H
	DB	060H
	DB	0d1H
	DB	060H
	DB	060H
	DB	060H
	DB	0d1H
	DB	060H
	DB	060H
	DB	060H
	DB	0d1H
	DB	060H
	DB	060H
	DB	060H
	DB	0d1H
	DB	060H
	DB	060H
	DB	060H
	DB	0d1H
	DB	060H
	DB	060H
	DB	060H
	DB	0d1H
	DB	060H
	DB	060H
	DB	060H
	DB	0d1H
	DB	060H
	DB	060H
	DB	060H
	DB	0d1H
	DB	060H
	DB	060H
	DB	060H
	DB	0d1H
	DB	060H
	DB	060H
	DB	060H
	DB	0d1H
	DB	060H
	DB	060H
	DB	060H
	DB	0d1H
	DB	060H
	DB	060H
	DB	060H
	DB	0d1H
	DB	060H
	DB	060H
	DB	060H
	DB	0d1H
	DB	060H
	DB	060H
	DB	060H
	DB	0d1H
	DB	060H
	DB	060H
	DB	060H
	DB	0d1H
	DB	060H
	DB	060H
	DB	060H
	DB	0d1H
	DB	060H
	DB	060H
	DB	060H
	DB	0d1H
	DB	060H
	DB	060H
	DB	060H
	DB	0d1H
	DB	060H
	DB	060H
	DB	060H
	DB	0d1H
	DB	060H
	DB	060H
	DB	060H
	DB	0d1H
	DB	060H
	DB	060H
	DB	060H
	DB	0d1H
	DB	060H
	DB	060H
	DB	060H
	DB	0d1H
	DB	060H
	DB	060H
	DB	060H
	DB	0d1H
	DB	060H
	DB	060H
	DB	060H
	DB	0d1H
	DB	060H
	DB	060H
	DB	060H
	DB	0d1H
	DB	060H
	DB	060H
	DB	060H
	DB	0d1H
	DB	060H
	DB	060H
	DB	060H
	DB	0d1H
	DB	060H
	DB	060H
	DB	060H
	DB	0d1H
	DB	060H
	DB	060H
	DB	060H
	DB	0d1H
	DB	060H
	DB	060H
	DB	060H
	DB	0d1H
	DB	060H
	DB	060H
	DB	060H
	DB	0d1H
	DB	060H
	DB	060H
	DB	060H
	DB	0d1H
	DB	060H
	DB	060H
	DB	060H
	DB	0d1H
	DB	060H
	DB	060H
	DB	060H
	DB	0d1H
	DB	060H
	DB	060H
	DB	060H
	DB	0d1H
	DB	060H
	DB	060H
	DB	060H
	DB	0d1H
	DB	060H
	DB	060H
	DB	060H
	DB	0d1H
	DB	060H
	DB	060H
	DB	060H
	DB	0d1H
	DB	060H
	DB	060H
	DB	060H
	DB	0d1H
	DB	060H
	DB	060H
	DB	060H
	DB	0d1H
	DB	060H
	DB	060H
	DB	060H
	DB	0d1H
	DB	060H
	DB	060H
	DB	060H
	DB	0d1H
	DB	060H
	DB	060H
	DB	060H
	DB	0d1H
	DB	060H
	DB	060H
	DB	060H
	DB	0d1H
	DB	060H
	DB	060H
	DB	060H
	DB	0d1H
	DB	060H
	DB	060H
	DB	060H
	DB	0d1H
	DB	060H
	DB	060H
	DB	060H
	DB	0d1H
	DB	060H
	DB	060H
	DB	060H
	DB	0d1H
	DB	060H
	DB	060H
	DB	060H
	DB	0d1H
	DB	060H
	DB	060H
	DB	060H
	DB	0d1H
	DB	060H
	DB	060H
	DB	060H
	DB	0d1H
	DB	060H
	DB	060H
	DB	060H
	DB	0d1H
	DB	060H
	DB	060H
	DB	060H
	DB	0d1H
	DB	060H
	DB	060H
	DB	060H
	DB	0d1H
	DB	060H
	DB	060H
	DB	060H
	DB	0d1H
	DB	060H
	DB	060H
	DB	060H
	DB	0d1H
	DB	060H
	DB	060H
	DB	060H
	DB	0d1H
	DB	060H
	DB	060H
	DB	060H
	DB	0d1H
	DB	060H
	DB	060H
	DB	060H
	DB	0d1H
	DB	060H
	DB	060H
	DB	060H
	DB	0d1H
	DB	060H
	DB	060H
	DB	060H
	DB	0d1H
	DB	060H
	DB	060H
	DB	060H
	DB	0d1H
	DB	060H
	DB	060H
	DB	060H
	DB	0d1H
	DB	060H
	DB	060H
	DB	060H
	DB	0d1H
	DB	060H
	DB	060H
	DB	060H
	DB	0d1H
	DB	060H
	DB	060H
	DB	060H
	DB	0d1H
	DB	060H
	DB	060H
	DB	060H
	DB	0d1H
	DB	060H
	DB	060H
	DB	060H
	DB	0d1H
	DB	060H
	DB	060H
	DB	060H
	DB	0d1H
	DB	060H
	DB	060H
	DB	060H
	DB	0d1H
	DB	060H
	DB	060H
	DB	060H
	DB	0d1H
	DB	090H
	DB	07cH
	DB	028H
	DB	0eeH
	DB	0a8H
	DB	08cH
	DB	010H
	DB	0ffH
	DB	0a8H
	DB	08cH
	DB	010H
	DB	0dbH
	DB	0a8H
	DB	08cH
	DB	010H
	DB	0cH
	DB	0f8H
	DB	0fcH
	DB	0f8H
	DB	00H
	DB	0f8H
	DB	0fcH
	DB	0f8H
	DB	00H
	DB	0f8H
	DB	0fcH
	DB	0f8H
	DB	00H
	DB	0f8H
	DB	0fcH
	DB	0f8H
	DB	00H
	DB	0f8H
	DB	0fcH
	DB	0f8H
	DB	00H
	DB	0f8H
	DB	0fcH
	DB	0f8H
	DB	00H
	DB	0a8H
	DB	08cH
	DB	010H
	DB	08bH
	DB	0a8H
	DB	08cH
	DB	010H
	DB	0ffH
	DB	0a0H
	DB	088H
	DB	018H
	DB	0f9H
	DB	060H
	DB	060H
	DB	058H
	DB	0d3H
	DB	060H
	DB	060H
	DB	060H
	DB	0d1H
	DB	060H
	DB	060H
	DB	060H
	DB	0d1H
	DB	060H
	DB	060H
	DB	060H
	DB	0d1H
	DB	060H
	DB	060H
	DB	060H
	DB	0d1H
	DB	060H
	DB	060H
	DB	060H
	DB	0d1H
	DB	060H
	DB	060H
	DB	060H
	DB	0d1H
	DB	060H
	DB	060H
	DB	060H
	DB	0d1H
	DB	060H
	DB	060H
	DB	060H
	DB	0d1H
	DB	060H
	DB	060H
	DB	060H
	DB	0d1H
	DB	060H
	DB	060H
	DB	060H
	DB	0d1H
	DB	060H
	DB	060H
	DB	060H
	DB	0d1H
	DB	060H
	DB	060H
	DB	060H
	DB	0d1H
	DB	060H
	DB	060H
	DB	060H
	DB	0d1H
	DB	060H
	DB	060H
	DB	060H
	DB	0d1H
	DB	060H
	DB	060H
	DB	060H
	DB	0d1H
	DB	060H
	DB	060H
	DB	060H
	DB	0d1H
	DB	060H
	DB	060H
	DB	060H
	DB	0d1H
	DB	060H
	DB	060H
	DB	060H
	DB	0d1H
	DB	060H
	DB	060H
	DB	060H
	DB	0d1H
	DB	060H
	DB	060H
	DB	060H
	DB	0d1H
	DB	060H
	DB	060H
	DB	060H
	DB	0d1H
	DB	060H
	DB	060H
	DB	060H
	DB	0d1H
	DB	060H
	DB	060H
	DB	060H
	DB	0d1H
	DB	060H
	DB	060H
	DB	060H
	DB	0d1H
	DB	060H
	DB	060H
	DB	060H
	DB	0d1H
	DB	060H
	DB	060H
	DB	060H
	DB	0d1H
	DB	060H
	DB	060H
	DB	060H
	DB	0d1H
	DB	060H
	DB	060H
	DB	060H
	DB	0d1H
	DB	060H
	DB	060H
	DB	060H
	DB	0d1H
	DB	060H
	DB	060H
	DB	060H
	DB	0d1H
	DB	060H
	DB	060H
	DB	060H
	DB	0d1H
	DB	060H
	DB	060H
	DB	060H
	DB	0d1H
	DB	060H
	DB	060H
	DB	060H
	DB	0d1H
	DB	060H
	DB	060H
	DB	060H
	DB	0d1H
	DB	060H
	DB	060H
	DB	060H
	DB	0d1H
	DB	060H
	DB	060H
	DB	060H
	DB	0d1H
	DB	060H
	DB	060H
	DB	060H
	DB	0d1H
	DB	060H
	DB	060H
	DB	060H
	DB	0d1H
	DB	060H
	DB	060H
	DB	060H
	DB	0d1H
	DB	060H
	DB	060H
	DB	060H
	DB	0d1H
	DB	060H
	DB	060H
	DB	060H
	DB	0d1H
	DB	060H
	DB	060H
	DB	060H
	DB	0d1H
	DB	060H
	DB	060H
	DB	060H
	DB	0d1H
	DB	060H
	DB	060H
	DB	060H
	DB	0d1H
	DB	060H
	DB	060H
	DB	060H
	DB	0d1H
	DB	060H
	DB	060H
	DB	060H
	DB	0d1H
	DB	060H
	DB	060H
	DB	060H
	DB	0d1H
	DB	060H
	DB	060H
	DB	060H
	DB	0d1H
	DB	060H
	DB	060H
	DB	060H
	DB	0d1H
	DB	060H
	DB	060H
	DB	060H
	DB	0d1H
	DB	060H
	DB	060H
	DB	060H
	DB	0d1H
	DB	060H
	DB	060H
	DB	060H
	DB	0d1H
	DB	060H
	DB	060H
	DB	060H
	DB	0d1H
	DB	060H
	DB	060H
	DB	060H
	DB	0d1H
	DB	060H
	DB	060H
	DB	060H
	DB	0d1H
	DB	060H
	DB	060H
	DB	060H
	DB	0d1H
	DB	060H
	DB	060H
	DB	060H
	DB	0d1H
	DB	060H
	DB	060H
	DB	060H
	DB	0d1H
	DB	060H
	DB	060H
	DB	060H
	DB	0d1H
	DB	060H
	DB	060H
	DB	060H
	DB	0d1H
	DB	060H
	DB	060H
	DB	060H
	DB	0d1H
	DB	060H
	DB	060H
	DB	060H
	DB	0d1H
	DB	060H
	DB	060H
	DB	060H
	DB	0d1H
	DB	060H
	DB	060H
	DB	060H
	DB	0d1H
	DB	060H
	DB	060H
	DB	060H
	DB	0d1H
	DB	060H
	DB	060H
	DB	060H
	DB	0d1H
	DB	060H
	DB	060H
	DB	060H
	DB	0d1H
	DB	060H
	DB	060H
	DB	060H
	DB	0d1H
	DB	060H
	DB	060H
	DB	060H
	DB	0d1H
	DB	060H
	DB	060H
	DB	060H
	DB	0d1H
	DB	060H
	DB	060H
	DB	060H
	DB	0d1H
	DB	060H
	DB	060H
	DB	060H
	DB	0d1H
	DB	060H
	DB	060H
	DB	060H
	DB	0d1H
	DB	060H
	DB	060H
	DB	060H
	DB	0d1H
	DB	060H
	DB	060H
	DB	060H
	DB	0d1H
	DB	060H
	DB	060H
	DB	060H
	DB	0d1H
	DB	060H
	DB	060H
	DB	060H
	DB	0d1H
	DB	060H
	DB	060H
	DB	060H
	DB	0d1H
	DB	060H
	DB	060H
	DB	060H
	DB	0d1H
	DB	060H
	DB	060H
	DB	060H
	DB	0d1H
	DB	060H
	DB	060H
	DB	060H
	DB	0d1H
	DB	060H
	DB	060H
	DB	060H
	DB	0d1H
	DB	060H
	DB	060H
	DB	060H
	DB	0d1H
	DB	060H
	DB	060H
	DB	060H
	DB	0d1H
	DB	060H
	DB	060H
	DB	060H
	DB	0d1H
	DB	060H
	DB	060H
	DB	060H
	DB	0d1H
	DB	060H
	DB	060H
	DB	060H
	DB	0d1H
	DB	060H
	DB	060H
	DB	060H
	DB	0d1H
	DB	060H
	DB	060H
	DB	060H
	DB	0d1H
	DB	060H
	DB	060H
	DB	060H
	DB	0d1H
	DB	060H
	DB	060H
	DB	060H
	DB	0d1H
	DB	060H
	DB	060H
	DB	060H
	DB	0d1H
	DB	060H
	DB	060H
	DB	060H
	DB	0d1H
	DB	060H
	DB	060H
	DB	060H
	DB	0d1H
	DB	060H
	DB	060H
	DB	060H
	DB	0d1H
	DB	060H
	DB	060H
	DB	060H
	DB	0d1H
	DB	060H
	DB	060H
	DB	060H
	DB	0d1H
	DB	060H
	DB	060H
	DB	060H
	DB	0d1H
	DB	060H
	DB	060H
	DB	060H
	DB	0d1H
	DB	060H
	DB	060H
	DB	060H
	DB	0d1H
	DB	060H
	DB	060H
	DB	060H
	DB	0d1H
	DB	060H
	DB	060H
	DB	060H
	DB	0d1H
	DB	060H
	DB	060H
	DB	060H
	DB	0d1H
	DB	060H
	DB	060H
	DB	060H
	DB	0d1H
	DB	060H
	DB	060H
	DB	060H
	DB	0d1H
	DB	060H
	DB	060H
	DB	060H
	DB	0d1H
	DB	060H
	DB	060H
	DB	060H
	DB	0d1H
	DB	060H
	DB	060H
	DB	060H
	DB	0d1H
	DB	060H
	DB	060H
	DB	060H
	DB	0d1H
	DB	060H
	DB	060H
	DB	060H
	DB	0d1H
	DB	060H
	DB	060H
	DB	060H
	DB	0d1H
	DB	060H
	DB	060H
	DB	060H
	DB	0d1H
	DB	060H
	DB	060H
	DB	058H
	DB	0d2H
	DB	098H
	DB	084H
	DB	018H
	DB	0f6H
	DB	0a8H
	DB	08cH
	DB	010H
	DB	0ffH
	DB	0a8H
	DB	08cH
	DB	010H
	DB	09bH
	DB	0f8H
	DB	0fcH
	DB	0f8H
	DB	00H
	DB	0f8H
	DB	0fcH
	DB	0f8H
	DB	00H
	DB	0f8H
	DB	0fcH
	DB	0f8H
	DB	00H
	DB	0f8H
	DB	0fcH
	DB	0f8H
	DB	00H
	DB	0f8H
	DB	0fcH
	DB	0f8H
	DB	00H
	DB	0a8H
	DB	08cH
	DB	010H
	DB	02cH
	DB	0a8H
	DB	08cH
	DB	010H
	DB	0fbH
	DB	0a8H
	DB	08cH
	DB	010H
	DB	0feH
	DB	070H
	DB	068H
	DB	048H
	DB	0daH
	DB	060H
	DB	060H
	DB	060H
	DB	0d1H
	DB	060H
	DB	060H
	DB	060H
	DB	0d1H
	DB	060H
	DB	060H
	DB	060H
	DB	0d1H
	DB	060H
	DB	060H
	DB	060H
	DB	0d1H
	DB	060H
	DB	060H
	DB	060H
	DB	0d1H
	DB	060H
	DB	060H
	DB	060H
	DB	0d1H
	DB	060H
	DB	060H
	DB	060H
	DB	0d1H
	DB	060H
	DB	060H
	DB	060H
	DB	0d1H
	DB	060H
	DB	060H
	DB	060H
	DB	0d1H
	DB	060H
	DB	060H
	DB	060H
	DB	0d1H
	DB	060H
	DB	060H
	DB	060H
	DB	0d1H
	DB	060H
	DB	060H
	DB	060H
	DB	0d1H
	DB	060H
	DB	060H
	DB	060H
	DB	0d1H
	DB	060H
	DB	060H
	DB	060H
	DB	0d1H
	DB	060H
	DB	060H
	DB	060H
	DB	0d1H
	DB	060H
	DB	060H
	DB	060H
	DB	0d1H
	DB	060H
	DB	060H
	DB	060H
	DB	0d1H
	DB	060H
	DB	060H
	DB	060H
	DB	0d1H
	DB	060H
	DB	060H
	DB	060H
	DB	0d1H
	DB	060H
	DB	060H
	DB	060H
	DB	0d1H
	DB	060H
	DB	060H
	DB	060H
	DB	0d1H
	DB	060H
	DB	060H
	DB	060H
	DB	0d1H
	DB	060H
	DB	060H
	DB	060H
	DB	0d1H
	DB	060H
	DB	060H
	DB	060H
	DB	0d1H
	DB	060H
	DB	060H
	DB	060H
	DB	0d1H
	DB	060H
	DB	060H
	DB	060H
	DB	0d1H
	DB	060H
	DB	060H
	DB	060H
	DB	0d1H
	DB	060H
	DB	060H
	DB	060H
	DB	0d1H
	DB	060H
	DB	060H
	DB	060H
	DB	0d1H
	DB	060H
	DB	060H
	DB	060H
	DB	0d1H
	DB	060H
	DB	060H
	DB	060H
	DB	0d1H
	DB	060H
	DB	060H
	DB	060H
	DB	0d1H
	DB	060H
	DB	060H
	DB	060H
	DB	0d1H
	DB	060H
	DB	060H
	DB	060H
	DB	0d1H
	DB	060H
	DB	060H
	DB	060H
	DB	0d1H
	DB	060H
	DB	060H
	DB	060H
	DB	0d1H
	DB	060H
	DB	060H
	DB	060H
	DB	0d1H
	DB	060H
	DB	060H
	DB	060H
	DB	0d1H
	DB	060H
	DB	060H
	DB	060H
	DB	0d1H
	DB	060H
	DB	060H
	DB	060H
	DB	0d1H
	DB	060H
	DB	060H
	DB	060H
	DB	0d1H
	DB	060H
	DB	060H
	DB	060H
	DB	0d1H
	DB	060H
	DB	060H
	DB	060H
	DB	0d1H
	DB	060H
	DB	060H
	DB	060H
	DB	0d1H
	DB	060H
	DB	060H
	DB	060H
	DB	0d1H
	DB	060H
	DB	060H
	DB	060H
	DB	0d1H
	DB	060H
	DB	060H
	DB	060H
	DB	0d1H
	DB	060H
	DB	060H
	DB	060H
	DB	0d1H
	DB	060H
	DB	060H
	DB	060H
	DB	0d1H
	DB	060H
	DB	060H
	DB	060H
	DB	0d1H
	DB	060H
	DB	060H
	DB	060H
	DB	0d1H
	DB	060H
	DB	060H
	DB	060H
	DB	0d1H
	DB	060H
	DB	060H
	DB	060H
	DB	0d1H
	DB	060H
	DB	060H
	DB	060H
	DB	0d1H
	DB	060H
	DB	060H
	DB	060H
	DB	0d1H
	DB	060H
	DB	060H
	DB	060H
	DB	0d1H
	DB	060H
	DB	060H
	DB	060H
	DB	0d1H
	DB	060H
	DB	060H
	DB	060H
	DB	0d1H
	DB	060H
	DB	060H
	DB	060H
	DB	0d1H
	DB	060H
	DB	060H
	DB	060H
	DB	0d1H
	DB	060H
	DB	060H
	DB	060H
	DB	0d1H
	DB	060H
	DB	060H
	DB	060H
	DB	0d1H
	DB	060H
	DB	060H
	DB	060H
	DB	0d1H
	DB	060H
	DB	060H
	DB	060H
	DB	0d1H
	DB	060H
	DB	060H
	DB	060H
	DB	0d1H
	DB	060H
	DB	060H
	DB	060H
	DB	0d1H
	DB	060H
	DB	060H
	DB	060H
	DB	0d1H
	DB	060H
	DB	060H
	DB	060H
	DB	0d1H
	DB	060H
	DB	060H
	DB	060H
	DB	0d1H
	DB	060H
	DB	060H
	DB	060H
	DB	0d1H
	DB	060H
	DB	060H
	DB	060H
	DB	0d1H
	DB	060H
	DB	060H
	DB	060H
	DB	0d1H
	DB	060H
	DB	060H
	DB	060H
	DB	0d1H
	DB	060H
	DB	060H
	DB	060H
	DB	0d1H
	DB	060H
	DB	060H
	DB	060H
	DB	0d1H
	DB	060H
	DB	060H
	DB	060H
	DB	0d1H
	DB	060H
	DB	060H
	DB	060H
	DB	0d1H
	DB	060H
	DB	060H
	DB	060H
	DB	0d1H
	DB	060H
	DB	060H
	DB	060H
	DB	0d1H
	DB	060H
	DB	060H
	DB	060H
	DB	0d1H
	DB	060H
	DB	060H
	DB	060H
	DB	0d1H
	DB	060H
	DB	060H
	DB	060H
	DB	0d1H
	DB	060H
	DB	060H
	DB	060H
	DB	0d1H
	DB	060H
	DB	060H
	DB	060H
	DB	0d1H
	DB	060H
	DB	060H
	DB	060H
	DB	0d1H
	DB	060H
	DB	060H
	DB	060H
	DB	0d1H
	DB	060H
	DB	060H
	DB	060H
	DB	0d1H
	DB	060H
	DB	060H
	DB	060H
	DB	0d1H
	DB	060H
	DB	060H
	DB	060H
	DB	0d1H
	DB	060H
	DB	060H
	DB	060H
	DB	0d1H
	DB	060H
	DB	060H
	DB	060H
	DB	0d1H
	DB	060H
	DB	060H
	DB	060H
	DB	0d1H
	DB	060H
	DB	060H
	DB	060H
	DB	0d1H
	DB	060H
	DB	060H
	DB	060H
	DB	0d1H
	DB	060H
	DB	060H
	DB	060H
	DB	0d1H
	DB	060H
	DB	060H
	DB	060H
	DB	0d1H
	DB	060H
	DB	060H
	DB	060H
	DB	0d1H
	DB	060H
	DB	060H
	DB	060H
	DB	0d1H
	DB	060H
	DB	060H
	DB	060H
	DB	0d1H
	DB	060H
	DB	060H
	DB	060H
	DB	0d1H
	DB	060H
	DB	060H
	DB	060H
	DB	0d1H
	DB	060H
	DB	060H
	DB	060H
	DB	0d1H
	DB	060H
	DB	060H
	DB	060H
	DB	0d1H
	DB	060H
	DB	060H
	DB	060H
	DB	0d1H
	DB	060H
	DB	060H
	DB	060H
	DB	0d1H
	DB	060H
	DB	060H
	DB	060H
	DB	0d1H
	DB	060H
	DB	060H
	DB	060H
	DB	0d1H
	DB	060H
	DB	060H
	DB	060H
	DB	0d1H
	DB	060H
	DB	060H
	DB	060H
	DB	0d1H
	DB	060H
	DB	060H
	DB	060H
	DB	0d1H
	DB	060H
	DB	060H
	DB	060H
	DB	0d1H
	DB	060H
	DB	060H
	DB	060H
	DB	0d1H
	DB	060H
	DB	060H
	DB	060H
	DB	0d1H
	DB	060H
	DB	060H
	DB	060H
	DB	0d1H
	DB	068H
	DB	068H
	DB	050H
	DB	0d8H
	DB	0a8H
	DB	088H
	DB	010H
	DB	0fdH
	DB	0a8H
	DB	08cH
	DB	010H
	DB	0ffH
	DB	0a8H
	DB	08cH
	DB	010H
	DB	034H
	DB	0f8H
	DB	0fcH
	DB	0f8H
	DB	00H
	DB	0f8H
	DB	0fcH
	DB	0f8H
	DB	00H
	DB	0f8H
	DB	0fcH
	DB	0f8H
	DB	00H
	DB	0f8H
	DB	0fcH
	DB	0f8H
	DB	00H
	DB	0a8H
	DB	08cH
	DB	010H
	DB	0b3H
	DB	0a8H
	DB	08cH
	DB	010H
	DB	0ffH
	DB	088H
	DB	078H
	DB	028H
	DB	0ebH
	DB	060H
	DB	060H
	DB	060H
	DB	0d1H
	DB	060H
	DB	060H
	DB	060H
	DB	0d1H
	DB	060H
	DB	060H
	DB	060H
	DB	0d1H
	DB	060H
	DB	060H
	DB	060H
	DB	0d1H
	DB	060H
	DB	060H
	DB	060H
	DB	0d1H
	DB	060H
	DB	060H
	DB	060H
	DB	0d1H
	DB	060H
	DB	060H
	DB	060H
	DB	0d1H
	DB	060H
	DB	060H
	DB	060H
	DB	0d1H
	DB	060H
	DB	060H
	DB	060H
	DB	0d1H
	DB	060H
	DB	060H
	DB	060H
	DB	0d1H
	DB	060H
	DB	060H
	DB	060H
	DB	0d1H
	DB	060H
	DB	060H
	DB	060H
	DB	0d1H
	DB	060H
	DB	060H
	DB	060H
	DB	0d1H
	DB	060H
	DB	060H
	DB	060H
	DB	0d1H
	DB	060H
	DB	060H
	DB	060H
	DB	0d1H
	DB	060H
	DB	060H
	DB	060H
	DB	0d1H
	DB	060H
	DB	060H
	DB	060H
	DB	0d1H
	DB	060H
	DB	060H
	DB	060H
	DB	0d1H
	DB	060H
	DB	060H
	DB	060H
	DB	0d1H
	DB	060H
	DB	060H
	DB	060H
	DB	0d1H
	DB	060H
	DB	060H
	DB	060H
	DB	0d1H
	DB	060H
	DB	060H
	DB	060H
	DB	0d1H
	DB	060H
	DB	060H
	DB	060H
	DB	0d1H
	DB	060H
	DB	060H
	DB	060H
	DB	0d1H
	DB	060H
	DB	060H
	DB	060H
	DB	0d1H
	DB	060H
	DB	060H
	DB	060H
	DB	0d1H
	DB	060H
	DB	060H
	DB	060H
	DB	0d1H
	DB	060H
	DB	060H
	DB	060H
	DB	0d1H
	DB	060H
	DB	060H
	DB	060H
	DB	0d1H
	DB	060H
	DB	060H
	DB	060H
	DB	0d1H
	DB	060H
	DB	060H
	DB	060H
	DB	0d1H
	DB	060H
	DB	060H
	DB	060H
	DB	0d1H
	DB	060H
	DB	060H
	DB	060H
	DB	0d1H
	DB	060H
	DB	060H
	DB	060H
	DB	0d1H
	DB	060H
	DB	060H
	DB	060H
	DB	0d1H
	DB	060H
	DB	060H
	DB	060H
	DB	0d1H
	DB	060H
	DB	060H
	DB	060H
	DB	0d1H
	DB	060H
	DB	060H
	DB	060H
	DB	0d1H
	DB	060H
	DB	060H
	DB	060H
	DB	0d1H
	DB	060H
	DB	060H
	DB	060H
	DB	0d1H
	DB	060H
	DB	060H
	DB	060H
	DB	0d1H
	DB	060H
	DB	060H
	DB	060H
	DB	0d1H
	DB	060H
	DB	060H
	DB	060H
	DB	0d1H
	DB	060H
	DB	060H
	DB	060H
	DB	0d1H
	DB	060H
	DB	060H
	DB	060H
	DB	0d1H
	DB	060H
	DB	060H
	DB	060H
	DB	0d1H
	DB	060H
	DB	060H
	DB	060H
	DB	0d1H
	DB	060H
	DB	060H
	DB	060H
	DB	0d1H
	DB	060H
	DB	060H
	DB	060H
	DB	0d1H
	DB	060H
	DB	060H
	DB	060H
	DB	0d1H
	DB	060H
	DB	060H
	DB	060H
	DB	0d1H
	DB	060H
	DB	060H
	DB	060H
	DB	0d1H
	DB	060H
	DB	060H
	DB	060H
	DB	0d1H
	DB	060H
	DB	060H
	DB	060H
	DB	0d1H
	DB	060H
	DB	060H
	DB	060H
	DB	0d1H
	DB	060H
	DB	060H
	DB	060H
	DB	0d1H
	DB	060H
	DB	060H
	DB	060H
	DB	0d1H
	DB	060H
	DB	060H
	DB	060H
	DB	0d1H
	DB	060H
	DB	060H
	DB	060H
	DB	0d1H
	DB	060H
	DB	060H
	DB	060H
	DB	0d1H
	DB	060H
	DB	060H
	DB	060H
	DB	0d1H
	DB	060H
	DB	060H
	DB	060H
	DB	0d1H
	DB	060H
	DB	060H
	DB	060H
	DB	0d1H
	DB	060H
	DB	060H
	DB	060H
	DB	0d1H
	DB	060H
	DB	060H
	DB	060H
	DB	0d1H
	DB	060H
	DB	060H
	DB	060H
	DB	0d1H
	DB	060H
	DB	060H
	DB	060H
	DB	0d1H
	DB	060H
	DB	060H
	DB	060H
	DB	0d1H
	DB	060H
	DB	060H
	DB	060H
	DB	0d1H
	DB	060H
	DB	060H
	DB	060H
	DB	0d1H
	DB	060H
	DB	060H
	DB	060H
	DB	0d1H
	DB	060H
	DB	060H
	DB	060H
	DB	0d1H
	DB	060H
	DB	060H
	DB	060H
	DB	0d1H
	DB	060H
	DB	060H
	DB	060H
	DB	0d1H
	DB	060H
	DB	060H
	DB	060H
	DB	0d1H
	DB	060H
	DB	060H
	DB	060H
	DB	0d1H
	DB	060H
	DB	060H
	DB	060H
	DB	0d1H
	DB	060H
	DB	060H
	DB	060H
	DB	0d1H
	DB	060H
	DB	060H
	DB	060H
	DB	0d1H
	DB	060H
	DB	060H
	DB	060H
	DB	0d1H
	DB	060H
	DB	060H
	DB	060H
	DB	0d1H
	DB	060H
	DB	060H
	DB	060H
	DB	0d1H
	DB	060H
	DB	060H
	DB	060H
	DB	0d1H
	DB	060H
	DB	060H
	DB	060H
	DB	0d1H
	DB	060H
	DB	060H
	DB	060H
	DB	0d1H
	DB	060H
	DB	060H
	DB	060H
	DB	0d1H
	DB	060H
	DB	060H
	DB	060H
	DB	0d1H
	DB	060H
	DB	060H
	DB	060H
	DB	0d1H
	DB	060H
	DB	060H
	DB	060H
	DB	0d1H
	DB	060H
	DB	060H
	DB	060H
	DB	0d1H
	DB	060H
	DB	060H
	DB	060H
	DB	0d1H
	DB	060H
	DB	060H
	DB	060H
	DB	0d1H
	DB	060H
	DB	060H
	DB	060H
	DB	0d1H
	DB	060H
	DB	060H
	DB	060H
	DB	0d1H
	DB	060H
	DB	060H
	DB	060H
	DB	0d1H
	DB	060H
	DB	060H
	DB	060H
	DB	0d1H
	DB	060H
	DB	060H
	DB	060H
	DB	0d1H
	DB	060H
	DB	060H
	DB	060H
	DB	0d1H
	DB	060H
	DB	060H
	DB	060H
	DB	0d1H
	DB	060H
	DB	060H
	DB	060H
	DB	0d1H
	DB	060H
	DB	060H
	DB	060H
	DB	0d1H
	DB	060H
	DB	060H
	DB	060H
	DB	0d1H
	DB	060H
	DB	060H
	DB	060H
	DB	0d1H
	DB	060H
	DB	060H
	DB	060H
	DB	0d1H
	DB	060H
	DB	060H
	DB	060H
	DB	0d1H
	DB	060H
	DB	060H
	DB	060H
	DB	0d1H
	DB	060H
	DB	060H
	DB	060H
	DB	0d1H
	DB	060H
	DB	060H
	DB	060H
	DB	0d1H
	DB	060H
	DB	060H
	DB	060H
	DB	0d1H
	DB	060H
	DB	060H
	DB	060H
	DB	0d1H
	DB	060H
	DB	060H
	DB	060H
	DB	0d1H
	DB	060H
	DB	060H
	DB	060H
	DB	0d1H
	DB	060H
	DB	060H
	DB	060H
	DB	0d1H
	DB	060H
	DB	060H
	DB	060H
	DB	0d1H
	DB	060H
	DB	060H
	DB	060H
	DB	0d1H
	DB	060H
	DB	060H
	DB	060H
	DB	0d1H
	DB	088H
	DB	078H
	DB	030H
	DB	0e9H
	DB	0a8H
	DB	08cH
	DB	010H
	DB	0ffH
	DB	0a8H
	DB	08cH
	DB	010H
	DB	0bfH
	DB	0f8H
	DB	0fcH
	DB	0f8H
	DB	00H
	DB	0f8H
	DB	0fcH
	DB	0f8H
	DB	00H
	DB	0f8H
	DB	0fcH
	DB	0f8H
	DB	00H
	DB	0a8H
	DB	08cH
	DB	010H
	DB	034H
	DB	0a8H
	DB	08cH
	DB	010H
	DB	0ffH
	DB	0a0H
	DB	088H
	DB	010H
	DB	0fcH
	DB	060H
	DB	060H
	DB	058H
	DB	0d4H
	DB	060H
	DB	060H
	DB	060H
	DB	0d1H
	DB	060H
	DB	060H
	DB	060H
	DB	0d1H
	DB	060H
	DB	060H
	DB	060H
	DB	0d1H
	DB	060H
	DB	060H
	DB	060H
	DB	0d1H
	DB	060H
	DB	060H
	DB	060H
	DB	0d1H
	DB	060H
	DB	060H
	DB	060H
	DB	0d1H
	DB	060H
	DB	060H
	DB	060H
	DB	0d1H
	DB	060H
	DB	060H
	DB	060H
	DB	0d1H
	DB	060H
	DB	060H
	DB	060H
	DB	0d1H
	DB	060H
	DB	060H
	DB	060H
	DB	0d1H
	DB	060H
	DB	060H
	DB	060H
	DB	0d1H
	DB	060H
	DB	060H
	DB	060H
	DB	0d1H
	DB	060H
	DB	060H
	DB	060H
	DB	0d1H
	DB	060H
	DB	060H
	DB	060H
	DB	0d1H
	DB	060H
	DB	060H
	DB	060H
	DB	0d1H
	DB	060H
	DB	060H
	DB	060H
	DB	0d1H
	DB	060H
	DB	060H
	DB	060H
	DB	0d1H
	DB	060H
	DB	060H
	DB	060H
	DB	0d1H
	DB	060H
	DB	060H
	DB	060H
	DB	0d1H
	DB	060H
	DB	060H
	DB	060H
	DB	0d1H
	DB	060H
	DB	060H
	DB	060H
	DB	0d1H
	DB	060H
	DB	060H
	DB	060H
	DB	0d1H
	DB	060H
	DB	060H
	DB	060H
	DB	0d1H
	DB	060H
	DB	060H
	DB	060H
	DB	0d1H
	DB	060H
	DB	060H
	DB	060H
	DB	0d1H
	DB	060H
	DB	060H
	DB	060H
	DB	0d1H
	DB	060H
	DB	060H
	DB	060H
	DB	0d1H
	DB	060H
	DB	060H
	DB	060H
	DB	0d1H
	DB	060H
	DB	060H
	DB	060H
	DB	0d1H
	DB	060H
	DB	060H
	DB	060H
	DB	0d1H
	DB	060H
	DB	060H
	DB	060H
	DB	0d1H
	DB	060H
	DB	060H
	DB	060H
	DB	0d1H
	DB	060H
	DB	060H
	DB	060H
	DB	0d1H
	DB	060H
	DB	060H
	DB	060H
	DB	0d1H
	DB	060H
	DB	060H
	DB	060H
	DB	0d1H
	DB	060H
	DB	060H
	DB	060H
	DB	0d1H
	DB	060H
	DB	060H
	DB	060H
	DB	0d1H
	DB	060H
	DB	060H
	DB	060H
	DB	0d1H
	DB	060H
	DB	060H
	DB	060H
	DB	0d1H
	DB	060H
	DB	060H
	DB	060H
	DB	0d1H
	DB	060H
	DB	060H
	DB	060H
	DB	0d1H
	DB	060H
	DB	060H
	DB	060H
	DB	0d1H
	DB	060H
	DB	060H
	DB	060H
	DB	0d1H
	DB	060H
	DB	060H
	DB	060H
	DB	0d1H
	DB	060H
	DB	060H
	DB	060H
	DB	0d1H
	DB	060H
	DB	060H
	DB	060H
	DB	0d1H
	DB	060H
	DB	060H
	DB	060H
	DB	0d1H
	DB	060H
	DB	060H
	DB	060H
	DB	0d1H
	DB	060H
	DB	060H
	DB	060H
	DB	0d1H
	DB	060H
	DB	060H
	DB	060H
	DB	0d1H
	DB	060H
	DB	060H
	DB	060H
	DB	0d1H
	DB	060H
	DB	060H
	DB	060H
	DB	0d1H
	DB	060H
	DB	060H
	DB	060H
	DB	0d1H
	DB	060H
	DB	060H
	DB	060H
	DB	0d1H
	DB	060H
	DB	060H
	DB	060H
	DB	0d1H
	DB	060H
	DB	060H
	DB	060H
	DB	0d1H
	DB	060H
	DB	060H
	DB	060H
	DB	0d1H
	DB	060H
	DB	060H
	DB	060H
	DB	0d1H
	DB	060H
	DB	060H
	DB	060H
	DB	0d1H
	DB	060H
	DB	060H
	DB	060H
	DB	0d1H
	DB	060H
	DB	060H
	DB	060H
	DB	0d1H
	DB	060H
	DB	060H
	DB	060H
	DB	0d1H
	DB	060H
	DB	060H
	DB	060H
	DB	0d1H
	DB	060H
	DB	060H
	DB	060H
	DB	0d1H
	DB	060H
	DB	060H
	DB	060H
	DB	0d1H
	DB	060H
	DB	060H
	DB	060H
	DB	0d1H
	DB	060H
	DB	060H
	DB	060H
	DB	0d1H
	DB	060H
	DB	060H
	DB	060H
	DB	0d1H
	DB	060H
	DB	060H
	DB	060H
	DB	0d1H
	DB	060H
	DB	060H
	DB	060H
	DB	0d1H
	DB	060H
	DB	060H
	DB	060H
	DB	0d1H
	DB	060H
	DB	060H
	DB	060H
	DB	0d1H
	DB	060H
	DB	060H
	DB	060H
	DB	0d1H
	DB	060H
	DB	060H
	DB	060H
	DB	0d1H
	DB	060H
	DB	060H
	DB	060H
	DB	0d1H
	DB	060H
	DB	060H
	DB	060H
	DB	0d1H
	DB	060H
	DB	060H
	DB	060H
	DB	0d1H
	DB	060H
	DB	060H
	DB	060H
	DB	0d1H
	DB	060H
	DB	060H
	DB	060H
	DB	0d1H
	DB	060H
	DB	060H
	DB	060H
	DB	0d1H
	DB	060H
	DB	060H
	DB	060H
	DB	0d1H
	DB	060H
	DB	060H
	DB	060H
	DB	0d1H
	DB	060H
	DB	060H
	DB	060H
	DB	0d1H
	DB	060H
	DB	060H
	DB	060H
	DB	0d1H
	DB	060H
	DB	060H
	DB	060H
	DB	0d1H
	DB	060H
	DB	060H
	DB	060H
	DB	0d1H
	DB	060H
	DB	060H
	DB	060H
	DB	0d1H
	DB	060H
	DB	060H
	DB	060H
	DB	0d1H
	DB	060H
	DB	060H
	DB	060H
	DB	0d1H
	DB	060H
	DB	060H
	DB	060H
	DB	0d1H
	DB	060H
	DB	060H
	DB	060H
	DB	0d1H
	DB	060H
	DB	060H
	DB	060H
	DB	0d1H
	DB	060H
	DB	060H
	DB	060H
	DB	0d1H
	DB	060H
	DB	060H
	DB	060H
	DB	0d1H
	DB	060H
	DB	060H
	DB	060H
	DB	0d1H
	DB	060H
	DB	060H
	DB	060H
	DB	0d1H
	DB	060H
	DB	060H
	DB	060H
	DB	0d1H
	DB	060H
	DB	060H
	DB	060H
	DB	0d1H
	DB	060H
	DB	060H
	DB	060H
	DB	0d1H
	DB	060H
	DB	060H
	DB	060H
	DB	0d1H
	DB	060H
	DB	060H
	DB	060H
	DB	0d1H
	DB	060H
	DB	060H
	DB	060H
	DB	0d1H
	DB	060H
	DB	060H
	DB	060H
	DB	0d1H
	DB	060H
	DB	060H
	DB	060H
	DB	0d1H
	DB	060H
	DB	060H
	DB	060H
	DB	0d1H
	DB	060H
	DB	060H
	DB	060H
	DB	0d1H
	DB	060H
	DB	060H
	DB	060H
	DB	0d1H
	DB	060H
	DB	060H
	DB	060H
	DB	0d1H
	DB	060H
	DB	060H
	DB	060H
	DB	0d1H
	DB	060H
	DB	060H
	DB	060H
	DB	0d1H
	DB	060H
	DB	060H
	DB	060H
	DB	0d1H
	DB	060H
	DB	060H
	DB	060H
	DB	0d1H
	DB	060H
	DB	060H
	DB	060H
	DB	0d1H
	DB	060H
	DB	060H
	DB	060H
	DB	0d1H
	DB	060H
	DB	060H
	DB	060H
	DB	0d1H
	DB	060H
	DB	060H
	DB	060H
	DB	0d1H
	DB	060H
	DB	060H
	DB	058H
	DB	0d4H
	DB	0a0H
	DB	088H
	DB	010H
	DB	0fcH
	DB	0a8H
	DB	08cH
	DB	010H
	DB	0ffH
	DB	0a8H
	DB	08cH
	DB	010H
	DB	038H
	DB	0f8H
	DB	0fcH
	DB	0f8H
	DB	00H
	DB	0f8H
	DB	0fcH
	DB	0f8H
	DB	00H
	DB	0a8H
	DB	08cH
	DB	010H
	DB	09bH
	DB	0a8H
	DB	08cH
	DB	010H
	DB	0ffH
	DB	088H
	DB	078H
	DB	030H
	DB	0eaH
	DB	060H
	DB	060H
	DB	060H
	DB	0d1H
	DB	060H
	DB	060H
	DB	060H
	DB	0d1H
	DB	060H
	DB	060H
	DB	060H
	DB	0d1H
	DB	060H
	DB	060H
	DB	060H
	DB	0d1H
	DB	060H
	DB	060H
	DB	060H
	DB	0d1H
	DB	060H
	DB	060H
	DB	060H
	DB	0d1H
	DB	060H
	DB	060H
	DB	060H
	DB	0d1H
	DB	060H
	DB	060H
	DB	060H
	DB	0d1H
	DB	060H
	DB	060H
	DB	060H
	DB	0d1H
	DB	060H
	DB	060H
	DB	060H
	DB	0d1H
	DB	060H
	DB	060H
	DB	060H
	DB	0d1H
	DB	060H
	DB	060H
	DB	060H
	DB	0d1H
	DB	060H
	DB	060H
	DB	060H
	DB	0d1H
	DB	060H
	DB	060H
	DB	060H
	DB	0d1H
	DB	060H
	DB	060H
	DB	060H
	DB	0d1H
	DB	060H
	DB	060H
	DB	060H
	DB	0d1H
	DB	060H
	DB	060H
	DB	060H
	DB	0d1H
	DB	060H
	DB	060H
	DB	060H
	DB	0d1H
	DB	060H
	DB	060H
	DB	060H
	DB	0d1H
	DB	060H
	DB	060H
	DB	060H
	DB	0d1H
	DB	060H
	DB	060H
	DB	060H
	DB	0d1H
	DB	060H
	DB	060H
	DB	060H
	DB	0d1H
	DB	060H
	DB	060H
	DB	060H
	DB	0d1H
	DB	060H
	DB	060H
	DB	060H
	DB	0d1H
	DB	060H
	DB	060H
	DB	060H
	DB	0d1H
	DB	060H
	DB	060H
	DB	060H
	DB	0d1H
	DB	060H
	DB	060H
	DB	060H
	DB	0d1H
	DB	060H
	DB	060H
	DB	060H
	DB	0d1H
	DB	060H
	DB	060H
	DB	060H
	DB	0d1H
	DB	060H
	DB	060H
	DB	060H
	DB	0d1H
	DB	060H
	DB	060H
	DB	060H
	DB	0d1H
	DB	060H
	DB	060H
	DB	060H
	DB	0d1H
	DB	060H
	DB	060H
	DB	060H
	DB	0d1H
	DB	060H
	DB	060H
	DB	060H
	DB	0d1H
	DB	060H
	DB	060H
	DB	060H
	DB	0d1H
	DB	060H
	DB	060H
	DB	060H
	DB	0d1H
	DB	060H
	DB	060H
	DB	060H
	DB	0d1H
	DB	060H
	DB	060H
	DB	060H
	DB	0d1H
	DB	060H
	DB	060H
	DB	060H
	DB	0d1H
	DB	060H
	DB	060H
	DB	060H
	DB	0d1H
	DB	060H
	DB	060H
	DB	060H
	DB	0d1H
	DB	060H
	DB	060H
	DB	060H
	DB	0d1H
	DB	060H
	DB	060H
	DB	060H
	DB	0d1H
	DB	060H
	DB	060H
	DB	060H
	DB	0d1H
	DB	060H
	DB	060H
	DB	060H
	DB	0d1H
	DB	060H
	DB	060H
	DB	060H
	DB	0d1H
	DB	060H
	DB	060H
	DB	060H
	DB	0d1H
	DB	060H
	DB	060H
	DB	060H
	DB	0d1H
	DB	060H
	DB	060H
	DB	060H
	DB	0d1H
	DB	060H
	DB	060H
	DB	060H
	DB	0d1H
	DB	060H
	DB	060H
	DB	060H
	DB	0d1H
	DB	060H
	DB	060H
	DB	060H
	DB	0d1H
	DB	060H
	DB	060H
	DB	060H
	DB	0d1H
	DB	060H
	DB	060H
	DB	060H
	DB	0d1H
	DB	060H
	DB	060H
	DB	060H
	DB	0d1H
	DB	060H
	DB	060H
	DB	060H
	DB	0d1H
	DB	060H
	DB	060H
	DB	060H
	DB	0d1H
	DB	060H
	DB	060H
	DB	060H
	DB	0d1H
	DB	060H
	DB	060H
	DB	060H
	DB	0d1H
	DB	060H
	DB	060H
	DB	060H
	DB	0d1H
	DB	060H
	DB	060H
	DB	060H
	DB	0d1H
	DB	060H
	DB	060H
	DB	060H
	DB	0d1H
	DB	060H
	DB	060H
	DB	060H
	DB	0d1H
	DB	060H
	DB	060H
	DB	060H
	DB	0d1H
	DB	060H
	DB	060H
	DB	060H
	DB	0d1H
	DB	060H
	DB	060H
	DB	060H
	DB	0d1H
	DB	060H
	DB	060H
	DB	060H
	DB	0d1H
	DB	060H
	DB	060H
	DB	060H
	DB	0d1H
	DB	060H
	DB	060H
	DB	060H
	DB	0d1H
	DB	060H
	DB	060H
	DB	060H
	DB	0d1H
	DB	060H
	DB	060H
	DB	060H
	DB	0d1H
	DB	060H
	DB	060H
	DB	060H
	DB	0d1H
	DB	060H
	DB	060H
	DB	060H
	DB	0d1H
	DB	060H
	DB	060H
	DB	060H
	DB	0d1H
	DB	060H
	DB	060H
	DB	060H
	DB	0d1H
	DB	060H
	DB	060H
	DB	060H
	DB	0d1H
	DB	060H
	DB	060H
	DB	060H
	DB	0d1H
	DB	060H
	DB	060H
	DB	060H
	DB	0d1H
	DB	060H
	DB	060H
	DB	060H
	DB	0d1H
	DB	060H
	DB	060H
	DB	060H
	DB	0d1H
	DB	060H
	DB	060H
	DB	060H
	DB	0d1H
	DB	060H
	DB	060H
	DB	060H
	DB	0d1H
	DB	060H
	DB	060H
	DB	060H
	DB	0d1H
	DB	060H
	DB	060H
	DB	060H
	DB	0d1H
	DB	060H
	DB	060H
	DB	060H
	DB	0d1H
	DB	060H
	DB	060H
	DB	060H
	DB	0d1H
	DB	060H
	DB	060H
	DB	060H
	DB	0d1H
	DB	060H
	DB	060H
	DB	060H
	DB	0d1H
	DB	060H
	DB	060H
	DB	060H
	DB	0d1H
	DB	060H
	DB	060H
	DB	060H
	DB	0d1H
	DB	060H
	DB	060H
	DB	060H
	DB	0d1H
	DB	060H
	DB	060H
	DB	060H
	DB	0d1H
	DB	060H
	DB	060H
	DB	060H
	DB	0d1H
	DB	060H
	DB	060H
	DB	060H
	DB	0d1H
	DB	060H
	DB	060H
	DB	060H
	DB	0d1H
	DB	060H
	DB	060H
	DB	060H
	DB	0d1H
	DB	060H
	DB	060H
	DB	060H
	DB	0d1H
	DB	060H
	DB	060H
	DB	060H
	DB	0d1H
	DB	060H
	DB	060H
	DB	060H
	DB	0d1H
	DB	060H
	DB	060H
	DB	060H
	DB	0d1H
	DB	060H
	DB	060H
	DB	060H
	DB	0d1H
	DB	060H
	DB	060H
	DB	060H
	DB	0d1H
	DB	060H
	DB	060H
	DB	060H
	DB	0d1H
	DB	060H
	DB	060H
	DB	060H
	DB	0d1H
	DB	060H
	DB	060H
	DB	060H
	DB	0d1H
	DB	060H
	DB	060H
	DB	060H
	DB	0d1H
	DB	060H
	DB	060H
	DB	060H
	DB	0d1H
	DB	060H
	DB	060H
	DB	060H
	DB	0d1H
	DB	060H
	DB	060H
	DB	060H
	DB	0d1H
	DB	060H
	DB	060H
	DB	060H
	DB	0d1H
	DB	060H
	DB	060H
	DB	060H
	DB	0d1H
	DB	060H
	DB	060H
	DB	060H
	DB	0d1H
	DB	060H
	DB	060H
	DB	060H
	DB	0d1H
	DB	060H
	DB	060H
	DB	060H
	DB	0d1H
	DB	060H
	DB	060H
	DB	060H
	DB	0d1H
	DB	060H
	DB	060H
	DB	060H
	DB	0d1H
	DB	060H
	DB	060H
	DB	060H
	DB	0d1H
	DB	060H
	DB	060H
	DB	060H
	DB	0d1H
	DB	088H
	DB	078H
	DB	030H
	DB	0e9H
	DB	0a8H
	DB	08cH
	DB	010H
	DB	0ffH
	DB	0a8H
	DB	08cH
	DB	010H
	DB	0a3H
	DB	0f8H
	DB	0fcH
	DB	0f8H
	DB	00H
	DB	0a8H
	DB	08cH
	DB	010H
	DB	04H
	DB	0a8H
	DB	08cH
	DB	010H
	DB	0f3H
	DB	0a8H
	DB	08cH
	DB	010H
	DB	0ffH
	DB	068H
	DB	068H
	DB	050H
	DB	0d8H
	DB	060H
	DB	060H
	DB	060H
	DB	0d1H
	DB	060H
	DB	060H
	DB	060H
	DB	0d1H
	DB	060H
	DB	060H
	DB	060H
	DB	0d1H
	DB	060H
	DB	060H
	DB	060H
	DB	0d1H
	DB	060H
	DB	060H
	DB	060H
	DB	0d1H
	DB	060H
	DB	060H
	DB	060H
	DB	0d1H
	DB	060H
	DB	060H
	DB	060H
	DB	0d1H
	DB	060H
	DB	060H
	DB	060H
	DB	0d1H
	DB	060H
	DB	060H
	DB	060H
	DB	0d1H
	DB	060H
	DB	060H
	DB	060H
	DB	0d1H
	DB	060H
	DB	060H
	DB	060H
	DB	0d1H
	DB	060H
	DB	060H
	DB	060H
	DB	0d1H
	DB	060H
	DB	060H
	DB	060H
	DB	0d1H
	DB	060H
	DB	060H
	DB	060H
	DB	0d1H
	DB	060H
	DB	060H
	DB	060H
	DB	0d1H
	DB	060H
	DB	060H
	DB	060H
	DB	0d1H
	DB	060H
	DB	060H
	DB	060H
	DB	0d1H
	DB	060H
	DB	060H
	DB	060H
	DB	0d1H
	DB	060H
	DB	060H
	DB	060H
	DB	0d1H
	DB	060H
	DB	060H
	DB	060H
	DB	0d1H
	DB	060H
	DB	060H
	DB	060H
	DB	0d1H
	DB	060H
	DB	060H
	DB	060H
	DB	0d1H
	DB	060H
	DB	060H
	DB	060H
	DB	0d1H
	DB	060H
	DB	060H
	DB	060H
	DB	0d1H
	DB	060H
	DB	060H
	DB	060H
	DB	0d1H
	DB	060H
	DB	060H
	DB	060H
	DB	0d1H
	DB	060H
	DB	060H
	DB	060H
	DB	0d1H
	DB	060H
	DB	060H
	DB	060H
	DB	0d1H
	DB	060H
	DB	060H
	DB	060H
	DB	0d1H
	DB	060H
	DB	060H
	DB	060H
	DB	0d1H
	DB	060H
	DB	060H
	DB	060H
	DB	0d1H
	DB	060H
	DB	060H
	DB	060H
	DB	0d1H
	DB	060H
	DB	060H
	DB	060H
	DB	0d1H
	DB	060H
	DB	060H
	DB	060H
	DB	0d1H
	DB	060H
	DB	060H
	DB	060H
	DB	0d1H
	DB	060H
	DB	060H
	DB	060H
	DB	0d1H
	DB	060H
	DB	060H
	DB	060H
	DB	0d1H
	DB	060H
	DB	060H
	DB	060H
	DB	0d1H
	DB	060H
	DB	060H
	DB	060H
	DB	0d1H
	DB	060H
	DB	060H
	DB	060H
	DB	0d1H
	DB	060H
	DB	060H
	DB	060H
	DB	0d1H
	DB	060H
	DB	060H
	DB	060H
	DB	0d1H
	DB	060H
	DB	060H
	DB	060H
	DB	0d1H
	DB	060H
	DB	060H
	DB	060H
	DB	0d1H
	DB	060H
	DB	060H
	DB	060H
	DB	0d1H
	DB	060H
	DB	060H
	DB	060H
	DB	0d1H
	DB	060H
	DB	060H
	DB	060H
	DB	0d1H
	DB	060H
	DB	060H
	DB	060H
	DB	0d1H
	DB	060H
	DB	060H
	DB	060H
	DB	0d1H
	DB	060H
	DB	060H
	DB	060H
	DB	0d1H
	DB	060H
	DB	060H
	DB	060H
	DB	0d1H
	DB	060H
	DB	060H
	DB	060H
	DB	0d1H
	DB	060H
	DB	060H
	DB	060H
	DB	0d1H
	DB	060H
	DB	060H
	DB	060H
	DB	0d1H
	DB	060H
	DB	060H
	DB	060H
	DB	0d1H
	DB	060H
	DB	060H
	DB	060H
	DB	0d1H
	DB	060H
	DB	060H
	DB	060H
	DB	0d1H
	DB	060H
	DB	060H
	DB	060H
	DB	0d1H
	DB	060H
	DB	060H
	DB	060H
	DB	0d1H
	DB	060H
	DB	060H
	DB	060H
	DB	0d1H
	DB	060H
	DB	060H
	DB	060H
	DB	0d1H
	DB	060H
	DB	060H
	DB	060H
	DB	0d1H
	DB	060H
	DB	060H
	DB	060H
	DB	0d1H
	DB	060H
	DB	060H
	DB	060H
	DB	0d1H
	DB	060H
	DB	060H
	DB	060H
	DB	0d1H
	DB	060H
	DB	060H
	DB	060H
	DB	0d1H
	DB	060H
	DB	060H
	DB	060H
	DB	0d1H
	DB	060H
	DB	060H
	DB	060H
	DB	0d1H
	DB	060H
	DB	060H
	DB	060H
	DB	0d1H
	DB	060H
	DB	060H
	DB	060H
	DB	0d1H
	DB	060H
	DB	060H
	DB	060H
	DB	0d1H
	DB	060H
	DB	060H
	DB	060H
	DB	0d1H
	DB	060H
	DB	060H
	DB	060H
	DB	0d1H
	DB	060H
	DB	060H
	DB	060H
	DB	0d1H
	DB	060H
	DB	060H
	DB	060H
	DB	0d1H
	DB	060H
	DB	060H
	DB	060H
	DB	0d1H
	DB	060H
	DB	060H
	DB	060H
	DB	0d1H
	DB	060H
	DB	060H
	DB	060H
	DB	0d1H
	DB	060H
	DB	060H
	DB	060H
	DB	0d1H
	DB	060H
	DB	060H
	DB	060H
	DB	0d1H
	DB	060H
	DB	060H
	DB	060H
	DB	0d1H
	DB	060H
	DB	060H
	DB	060H
	DB	0d1H
	DB	060H
	DB	060H
	DB	060H
	DB	0d1H
	DB	060H
	DB	060H
	DB	060H
	DB	0d1H
	DB	060H
	DB	060H
	DB	060H
	DB	0d1H
	DB	060H
	DB	060H
	DB	060H
	DB	0d1H
	DB	060H
	DB	060H
	DB	060H
	DB	0d1H
	DB	060H
	DB	060H
	DB	060H
	DB	0d1H
	DB	060H
	DB	060H
	DB	060H
	DB	0d1H
	DB	060H
	DB	060H
	DB	060H
	DB	0d1H
	DB	060H
	DB	060H
	DB	060H
	DB	0d1H
	DB	060H
	DB	060H
	DB	060H
	DB	0d1H
	DB	060H
	DB	060H
	DB	060H
	DB	0d1H
	DB	060H
	DB	060H
	DB	060H
	DB	0d1H
	DB	060H
	DB	060H
	DB	060H
	DB	0d1H
	DB	060H
	DB	060H
	DB	060H
	DB	0d1H
	DB	060H
	DB	060H
	DB	060H
	DB	0d1H
	DB	060H
	DB	060H
	DB	060H
	DB	0d1H
	DB	060H
	DB	060H
	DB	060H
	DB	0d1H
	DB	060H
	DB	060H
	DB	060H
	DB	0d1H
	DB	060H
	DB	060H
	DB	060H
	DB	0d1H
	DB	060H
	DB	060H
	DB	060H
	DB	0d1H
	DB	060H
	DB	060H
	DB	060H
	DB	0d1H
	DB	060H
	DB	060H
	DB	060H
	DB	0d1H
	DB	060H
	DB	060H
	DB	060H
	DB	0d1H
	DB	060H
	DB	060H
	DB	060H
	DB	0d1H
	DB	060H
	DB	060H
	DB	060H
	DB	0d1H
	DB	060H
	DB	060H
	DB	060H
	DB	0d1H
	DB	060H
	DB	060H
	DB	060H
	DB	0d1H
	DB	060H
	DB	060H
	DB	060H
	DB	0d1H
	DB	060H
	DB	060H
	DB	060H
	DB	0d1H
	DB	060H
	DB	060H
	DB	060H
	DB	0d1H
	DB	060H
	DB	060H
	DB	060H
	DB	0d1H
	DB	060H
	DB	060H
	DB	060H
	DB	0d1H
	DB	060H
	DB	060H
	DB	060H
	DB	0d1H
	DB	060H
	DB	060H
	DB	060H
	DB	0d1H
	DB	060H
	DB	060H
	DB	060H
	DB	0d1H
	DB	060H
	DB	060H
	DB	060H
	DB	0d1H
	DB	068H
	DB	064H
	DB	050H
	DB	0d7H
	DB	0a8H
	DB	08cH
	DB	010H
	DB	0ffH
	DB	0a8H
	DB	08cH
	DB	010H
	DB	0f3H
	DB	0a8H
	DB	08cH
	DB	010H
	DB	08H
	DB	0a8H
	DB	08cH
	DB	010H
	DB	040H
	DB	0a8H
	DB	08cH
	DB	010H
	DB	0ffH
	DB	0a0H
	DB	084H
	DB	018H
	DB	0f7H
	DB	060H
	DB	060H
	DB	060H
	DB	0d1H
	DB	060H
	DB	060H
	DB	060H
	DB	0d1H
	DB	060H
	DB	060H
	DB	060H
	DB	0d1H
	DB	060H
	DB	060H
	DB	060H
	DB	0d1H
	DB	060H
	DB	060H
	DB	060H
	DB	0d1H
	DB	060H
	DB	060H
	DB	060H
	DB	0d1H
	DB	060H
	DB	060H
	DB	060H
	DB	0d1H
	DB	060H
	DB	060H
	DB	060H
	DB	0d1H
	DB	060H
	DB	060H
	DB	060H
	DB	0d1H
	DB	060H
	DB	060H
	DB	060H
	DB	0d1H
	DB	060H
	DB	060H
	DB	060H
	DB	0d1H
	DB	060H
	DB	060H
	DB	060H
	DB	0d1H
	DB	060H
	DB	060H
	DB	060H
	DB	0d1H
	DB	060H
	DB	060H
	DB	060H
	DB	0d1H
	DB	060H
	DB	060H
	DB	060H
	DB	0d1H
	DB	060H
	DB	060H
	DB	060H
	DB	0d1H
	DB	060H
	DB	060H
	DB	060H
	DB	0d1H
	DB	060H
	DB	060H
	DB	060H
	DB	0d1H
	DB	060H
	DB	060H
	DB	060H
	DB	0d1H
	DB	060H
	DB	060H
	DB	060H
	DB	0d1H
	DB	060H
	DB	060H
	DB	060H
	DB	0d1H
	DB	060H
	DB	060H
	DB	060H
	DB	0d1H
	DB	060H
	DB	060H
	DB	060H
	DB	0d1H
	DB	060H
	DB	060H
	DB	060H
	DB	0d1H
	DB	060H
	DB	060H
	DB	060H
	DB	0d1H
	DB	060H
	DB	060H
	DB	060H
	DB	0d1H
	DB	060H
	DB	060H
	DB	060H
	DB	0d1H
	DB	060H
	DB	060H
	DB	060H
	DB	0d1H
	DB	060H
	DB	060H
	DB	060H
	DB	0d1H
	DB	060H
	DB	060H
	DB	060H
	DB	0d1H
	DB	060H
	DB	060H
	DB	060H
	DB	0d1H
	DB	060H
	DB	060H
	DB	060H
	DB	0d1H
	DB	060H
	DB	060H
	DB	060H
	DB	0d1H
	DB	060H
	DB	060H
	DB	060H
	DB	0d1H
	DB	060H
	DB	060H
	DB	060H
	DB	0d1H
	DB	060H
	DB	060H
	DB	060H
	DB	0d1H
	DB	060H
	DB	060H
	DB	060H
	DB	0d1H
	DB	060H
	DB	060H
	DB	060H
	DB	0d1H
	DB	060H
	DB	060H
	DB	060H
	DB	0d1H
	DB	060H
	DB	060H
	DB	060H
	DB	0d1H
	DB	060H
	DB	060H
	DB	060H
	DB	0d1H
	DB	060H
	DB	060H
	DB	060H
	DB	0d1H
	DB	060H
	DB	060H
	DB	060H
	DB	0d1H
	DB	060H
	DB	060H
	DB	060H
	DB	0d1H
	DB	060H
	DB	060H
	DB	060H
	DB	0d1H
	DB	060H
	DB	060H
	DB	060H
	DB	0d1H
	DB	060H
	DB	060H
	DB	060H
	DB	0d1H
	DB	060H
	DB	060H
	DB	060H
	DB	0d1H
	DB	060H
	DB	060H
	DB	060H
	DB	0d1H
	DB	060H
	DB	060H
	DB	060H
	DB	0d1H
	DB	060H
	DB	060H
	DB	060H
	DB	0d1H
	DB	060H
	DB	060H
	DB	060H
	DB	0d1H
	DB	060H
	DB	060H
	DB	060H
	DB	0d1H
	DB	060H
	DB	060H
	DB	060H
	DB	0d1H
	DB	060H
	DB	060H
	DB	060H
	DB	0d1H
	DB	060H
	DB	060H
	DB	060H
	DB	0d1H
	DB	060H
	DB	060H
	DB	060H
	DB	0d1H
	DB	060H
	DB	060H
	DB	060H
	DB	0d1H
	DB	060H
	DB	060H
	DB	060H
	DB	0d1H
	DB	060H
	DB	060H
	DB	060H
	DB	0d1H
	DB	060H
	DB	060H
	DB	060H
	DB	0d1H
	DB	060H
	DB	060H
	DB	060H
	DB	0d1H
	DB	060H
	DB	060H
	DB	060H
	DB	0d1H
	DB	060H
	DB	060H
	DB	060H
	DB	0d1H
	DB	060H
	DB	060H
	DB	060H
	DB	0d1H
	DB	060H
	DB	060H
	DB	060H
	DB	0d1H
	DB	060H
	DB	060H
	DB	060H
	DB	0d1H
	DB	060H
	DB	060H
	DB	060H
	DB	0d1H
	DB	060H
	DB	060H
	DB	060H
	DB	0d1H
	DB	060H
	DB	060H
	DB	060H
	DB	0d1H
	DB	060H
	DB	060H
	DB	060H
	DB	0d1H
	DB	060H
	DB	060H
	DB	060H
	DB	0d1H
	DB	060H
	DB	060H
	DB	060H
	DB	0d1H
	DB	060H
	DB	060H
	DB	060H
	DB	0d1H
	DB	060H
	DB	060H
	DB	060H
	DB	0d1H
	DB	060H
	DB	060H
	DB	060H
	DB	0d1H
	DB	060H
	DB	060H
	DB	060H
	DB	0d1H
	DB	060H
	DB	060H
	DB	060H
	DB	0d1H
	DB	060H
	DB	060H
	DB	060H
	DB	0d1H
	DB	060H
	DB	060H
	DB	060H
	DB	0d1H
	DB	060H
	DB	060H
	DB	060H
	DB	0d1H
	DB	060H
	DB	060H
	DB	060H
	DB	0d1H
	DB	060H
	DB	060H
	DB	060H
	DB	0d1H
	DB	060H
	DB	060H
	DB	060H
	DB	0d1H
	DB	060H
	DB	060H
	DB	060H
	DB	0d1H
	DB	060H
	DB	060H
	DB	060H
	DB	0d1H
	DB	060H
	DB	060H
	DB	060H
	DB	0d1H
	DB	060H
	DB	060H
	DB	060H
	DB	0d1H
	DB	060H
	DB	060H
	DB	060H
	DB	0d1H
	DB	060H
	DB	060H
	DB	060H
	DB	0d1H
	DB	060H
	DB	060H
	DB	060H
	DB	0d1H
	DB	060H
	DB	060H
	DB	060H
	DB	0d1H
	DB	060H
	DB	060H
	DB	060H
	DB	0d1H
	DB	060H
	DB	060H
	DB	060H
	DB	0d1H
	DB	060H
	DB	060H
	DB	060H
	DB	0d1H
	DB	060H
	DB	060H
	DB	060H
	DB	0d1H
	DB	060H
	DB	060H
	DB	060H
	DB	0d1H
	DB	060H
	DB	060H
	DB	060H
	DB	0d1H
	DB	060H
	DB	060H
	DB	060H
	DB	0d1H
	DB	060H
	DB	060H
	DB	060H
	DB	0d1H
	DB	060H
	DB	060H
	DB	060H
	DB	0d1H
	DB	060H
	DB	060H
	DB	060H
	DB	0d1H
	DB	060H
	DB	060H
	DB	060H
	DB	0d1H
	DB	060H
	DB	060H
	DB	060H
	DB	0d1H
	DB	060H
	DB	060H
	DB	060H
	DB	0d1H
	DB	060H
	DB	060H
	DB	060H
	DB	0d1H
	DB	060H
	DB	060H
	DB	060H
	DB	0d1H
	DB	060H
	DB	060H
	DB	060H
	DB	0d1H
	DB	060H
	DB	060H
	DB	060H
	DB	0d1H
	DB	060H
	DB	060H
	DB	060H
	DB	0d1H
	DB	060H
	DB	060H
	DB	060H
	DB	0d1H
	DB	060H
	DB	060H
	DB	060H
	DB	0d1H
	DB	060H
	DB	060H
	DB	060H
	DB	0d1H
	DB	060H
	DB	060H
	DB	060H
	DB	0d1H
	DB	060H
	DB	060H
	DB	060H
	DB	0d1H
	DB	060H
	DB	060H
	DB	060H
	DB	0d1H
	DB	060H
	DB	060H
	DB	060H
	DB	0d1H
	DB	060H
	DB	060H
	DB	060H
	DB	0d1H
	DB	060H
	DB	060H
	DB	060H
	DB	0d1H
	DB	060H
	DB	060H
	DB	060H
	DB	0d1H
	DB	098H
	DB	084H
	DB	018H
	DB	0f6H
	DB	0a8H
	DB	08cH
	DB	010H
	DB	0ffH
	DB	0a8H
	DB	08cH
	DB	010H
	DB	044H
	DB	0a8H
	DB	08cH
	DB	010H
	DB	080H
	DB	0a8H
	DB	08cH
	DB	010H
	DB	0ffH
	DB	088H
	DB	078H
	DB	030H
	DB	0eaH
	DB	060H
	DB	060H
	DB	060H
	DB	0d1H
	DB	060H
	DB	060H
	DB	060H
	DB	0d1H
	DB	060H
	DB	060H
	DB	060H
	DB	0d1H
	DB	060H
	DB	060H
	DB	060H
	DB	0d1H
	DB	060H
	DB	060H
	DB	060H
	DB	0d1H
	DB	060H
	DB	060H
	DB	060H
	DB	0d1H
	DB	060H
	DB	060H
	DB	060H
	DB	0d1H
	DB	060H
	DB	060H
	DB	060H
	DB	0d1H
	DB	060H
	DB	060H
	DB	060H
	DB	0d1H
	DB	060H
	DB	060H
	DB	060H
	DB	0d1H
	DB	060H
	DB	060H
	DB	060H
	DB	0d1H
	DB	060H
	DB	060H
	DB	060H
	DB	0d1H
	DB	060H
	DB	060H
	DB	060H
	DB	0d1H
	DB	060H
	DB	060H
	DB	060H
	DB	0d1H
	DB	060H
	DB	060H
	DB	060H
	DB	0d1H
	DB	060H
	DB	060H
	DB	060H
	DB	0d1H
	DB	060H
	DB	060H
	DB	060H
	DB	0d1H
	DB	060H
	DB	060H
	DB	060H
	DB	0d1H
	DB	060H
	DB	060H
	DB	060H
	DB	0d1H
	DB	060H
	DB	060H
	DB	060H
	DB	0d1H
	DB	060H
	DB	060H
	DB	060H
	DB	0d1H
	DB	060H
	DB	060H
	DB	060H
	DB	0d1H
	DB	060H
	DB	060H
	DB	060H
	DB	0d1H
	DB	060H
	DB	060H
	DB	060H
	DB	0d1H
	DB	060H
	DB	060H
	DB	060H
	DB	0d1H
	DB	060H
	DB	060H
	DB	060H
	DB	0d1H
	DB	060H
	DB	060H
	DB	060H
	DB	0d1H
	DB	060H
	DB	060H
	DB	060H
	DB	0d1H
	DB	060H
	DB	060H
	DB	060H
	DB	0d1H
	DB	060H
	DB	060H
	DB	060H
	DB	0d1H
	DB	060H
	DB	060H
	DB	060H
	DB	0d1H
	DB	060H
	DB	060H
	DB	060H
	DB	0d1H
	DB	060H
	DB	060H
	DB	060H
	DB	0d1H
	DB	060H
	DB	060H
	DB	060H
	DB	0d1H
	DB	060H
	DB	060H
	DB	060H
	DB	0d1H
	DB	060H
	DB	060H
	DB	060H
	DB	0d1H
	DB	060H
	DB	060H
	DB	060H
	DB	0d1H
	DB	060H
	DB	060H
	DB	060H
	DB	0d1H
	DB	060H
	DB	060H
	DB	060H
	DB	0d1H
	DB	060H
	DB	060H
	DB	060H
	DB	0d1H
	DB	060H
	DB	060H
	DB	060H
	DB	0d1H
	DB	060H
	DB	060H
	DB	060H
	DB	0d1H
	DB	060H
	DB	060H
	DB	060H
	DB	0d1H
	DB	060H
	DB	060H
	DB	060H
	DB	0d1H
	DB	060H
	DB	060H
	DB	060H
	DB	0d1H
	DB	060H
	DB	060H
	DB	060H
	DB	0d1H
	DB	060H
	DB	060H
	DB	060H
	DB	0d1H
	DB	060H
	DB	060H
	DB	060H
	DB	0d1H
	DB	060H
	DB	060H
	DB	060H
	DB	0d1H
	DB	060H
	DB	060H
	DB	060H
	DB	0d1H
	DB	060H
	DB	060H
	DB	060H
	DB	0d1H
	DB	060H
	DB	060H
	DB	060H
	DB	0d1H
	DB	060H
	DB	060H
	DB	060H
	DB	0d1H
	DB	060H
	DB	060H
	DB	060H
	DB	0d1H
	DB	060H
	DB	060H
	DB	060H
	DB	0d1H
	DB	060H
	DB	060H
	DB	060H
	DB	0d1H
	DB	060H
	DB	060H
	DB	060H
	DB	0d1H
	DB	060H
	DB	060H
	DB	060H
	DB	0d1H
	DB	060H
	DB	060H
	DB	060H
	DB	0d1H
	DB	060H
	DB	060H
	DB	060H
	DB	0d1H
	DB	060H
	DB	060H
	DB	060H
	DB	0d1H
	DB	060H
	DB	060H
	DB	060H
	DB	0d1H
	DB	060H
	DB	060H
	DB	060H
	DB	0d1H
	DB	060H
	DB	060H
	DB	060H
	DB	0d1H
	DB	060H
	DB	060H
	DB	060H
	DB	0d1H
	DB	060H
	DB	060H
	DB	060H
	DB	0d1H
	DB	060H
	DB	060H
	DB	060H
	DB	0d1H
	DB	060H
	DB	060H
	DB	060H
	DB	0d1H
	DB	060H
	DB	060H
	DB	060H
	DB	0d1H
	DB	060H
	DB	060H
	DB	060H
	DB	0d1H
	DB	060H
	DB	060H
	DB	060H
	DB	0d1H
	DB	060H
	DB	060H
	DB	060H
	DB	0d1H
	DB	060H
	DB	060H
	DB	060H
	DB	0d1H
	DB	060H
	DB	060H
	DB	060H
	DB	0d1H
	DB	060H
	DB	060H
	DB	060H
	DB	0d1H
	DB	060H
	DB	060H
	DB	060H
	DB	0d1H
	DB	060H
	DB	060H
	DB	060H
	DB	0d1H
	DB	060H
	DB	060H
	DB	060H
	DB	0d1H
	DB	060H
	DB	060H
	DB	060H
	DB	0d1H
	DB	060H
	DB	060H
	DB	060H
	DB	0d1H
	DB	060H
	DB	060H
	DB	060H
	DB	0d1H
	DB	060H
	DB	060H
	DB	060H
	DB	0d1H
	DB	060H
	DB	060H
	DB	060H
	DB	0d1H
	DB	060H
	DB	060H
	DB	060H
	DB	0d1H
	DB	060H
	DB	060H
	DB	060H
	DB	0d1H
	DB	060H
	DB	060H
	DB	060H
	DB	0d1H
	DB	060H
	DB	060H
	DB	060H
	DB	0d1H
	DB	060H
	DB	060H
	DB	060H
	DB	0d1H
	DB	060H
	DB	060H
	DB	060H
	DB	0d1H
	DB	060H
	DB	060H
	DB	060H
	DB	0d1H
	DB	060H
	DB	060H
	DB	060H
	DB	0d1H
	DB	060H
	DB	060H
	DB	060H
	DB	0d1H
	DB	060H
	DB	060H
	DB	060H
	DB	0d1H
	DB	060H
	DB	060H
	DB	060H
	DB	0d1H
	DB	060H
	DB	060H
	DB	060H
	DB	0d1H
	DB	060H
	DB	060H
	DB	060H
	DB	0d1H
	DB	060H
	DB	060H
	DB	060H
	DB	0d1H
	DB	060H
	DB	060H
	DB	060H
	DB	0d1H
	DB	060H
	DB	060H
	DB	060H
	DB	0d1H
	DB	060H
	DB	060H
	DB	060H
	DB	0d1H
	DB	060H
	DB	060H
	DB	060H
	DB	0d1H
	DB	060H
	DB	060H
	DB	060H
	DB	0d1H
	DB	060H
	DB	060H
	DB	060H
	DB	0d1H
	DB	060H
	DB	060H
	DB	060H
	DB	0d1H
	DB	060H
	DB	060H
	DB	060H
	DB	0d1H
	DB	060H
	DB	060H
	DB	060H
	DB	0d1H
	DB	060H
	DB	060H
	DB	060H
	DB	0d1H
	DB	060H
	DB	060H
	DB	060H
	DB	0d1H
	DB	060H
	DB	060H
	DB	060H
	DB	0d1H
	DB	060H
	DB	060H
	DB	060H
	DB	0d1H
	DB	060H
	DB	060H
	DB	060H
	DB	0d1H
	DB	060H
	DB	060H
	DB	060H
	DB	0d1H
	DB	060H
	DB	060H
	DB	060H
	DB	0d1H
	DB	060H
	DB	060H
	DB	060H
	DB	0d1H
	DB	060H
	DB	060H
	DB	060H
	DB	0d1H
	DB	060H
	DB	060H
	DB	060H
	DB	0d1H
	DB	060H
	DB	060H
	DB	060H
	DB	0d1H
	DB	060H
	DB	060H
	DB	060H
	DB	0d1H
	DB	060H
	DB	060H
	DB	060H
	DB	0d1H
	DB	060H
	DB	060H
	DB	060H
	DB	0d1H
	DB	088H
	DB	078H
	DB	030H
	DB	0e9H
	DB	0a8H
	DB	08cH
	DB	010H
	DB	0ffH
	DB	0a8H
	DB	08cH
	DB	010H
	DB	083H
	DB	0a8H
	DB	08cH
	DB	010H
	DB	0b3H
	DB	0a8H
	DB	08cH
	DB	010H
	DB	0ffH
	DB	078H
	DB	070H
	DB	040H
	DB	0e0H
	DB	060H
	DB	060H
	DB	060H
	DB	0d1H
	DB	060H
	DB	060H
	DB	060H
	DB	0d1H
	DB	060H
	DB	060H
	DB	060H
	DB	0d1H
	DB	060H
	DB	060H
	DB	060H
	DB	0d1H
	DB	060H
	DB	060H
	DB	060H
	DB	0d1H
	DB	060H
	DB	060H
	DB	060H
	DB	0d1H
	DB	060H
	DB	060H
	DB	060H
	DB	0d1H
	DB	060H
	DB	060H
	DB	060H
	DB	0d1H
	DB	060H
	DB	060H
	DB	060H
	DB	0d1H
	DB	060H
	DB	060H
	DB	060H
	DB	0d1H
	DB	060H
	DB	060H
	DB	060H
	DB	0d1H
	DB	060H
	DB	060H
	DB	060H
	DB	0d1H
	DB	060H
	DB	060H
	DB	060H
	DB	0d1H
	DB	060H
	DB	060H
	DB	060H
	DB	0d1H
	DB	060H
	DB	060H
	DB	060H
	DB	0d1H
	DB	060H
	DB	060H
	DB	060H
	DB	0d1H
	DB	060H
	DB	060H
	DB	060H
	DB	0d1H
	DB	060H
	DB	060H
	DB	060H
	DB	0d1H
	DB	060H
	DB	060H
	DB	060H
	DB	0d1H
	DB	060H
	DB	060H
	DB	060H
	DB	0d1H
	DB	060H
	DB	060H
	DB	060H
	DB	0d1H
	DB	060H
	DB	060H
	DB	060H
	DB	0d1H
	DB	060H
	DB	060H
	DB	060H
	DB	0d1H
	DB	060H
	DB	060H
	DB	060H
	DB	0d1H
	DB	060H
	DB	060H
	DB	060H
	DB	0d1H
	DB	060H
	DB	060H
	DB	060H
	DB	0d1H
	DB	060H
	DB	060H
	DB	060H
	DB	0d1H
	DB	060H
	DB	060H
	DB	060H
	DB	0d1H
	DB	060H
	DB	060H
	DB	060H
	DB	0d1H
	DB	060H
	DB	060H
	DB	060H
	DB	0d1H
	DB	060H
	DB	060H
	DB	060H
	DB	0d1H
	DB	060H
	DB	060H
	DB	060H
	DB	0d1H
	DB	060H
	DB	060H
	DB	060H
	DB	0d1H
	DB	060H
	DB	060H
	DB	060H
	DB	0d1H
	DB	060H
	DB	060H
	DB	060H
	DB	0d1H
	DB	060H
	DB	060H
	DB	060H
	DB	0d1H
	DB	060H
	DB	060H
	DB	060H
	DB	0d1H
	DB	060H
	DB	060H
	DB	060H
	DB	0d1H
	DB	060H
	DB	060H
	DB	060H
	DB	0d1H
	DB	060H
	DB	060H
	DB	060H
	DB	0d1H
	DB	060H
	DB	060H
	DB	060H
	DB	0d1H
	DB	060H
	DB	060H
	DB	060H
	DB	0d1H
	DB	060H
	DB	060H
	DB	060H
	DB	0d1H
	DB	060H
	DB	060H
	DB	060H
	DB	0d1H
	DB	060H
	DB	060H
	DB	060H
	DB	0d1H
	DB	060H
	DB	060H
	DB	060H
	DB	0d1H
	DB	060H
	DB	060H
	DB	060H
	DB	0d1H
	DB	060H
	DB	060H
	DB	060H
	DB	0d1H
	DB	060H
	DB	060H
	DB	060H
	DB	0d1H
	DB	060H
	DB	060H
	DB	060H
	DB	0d1H
	DB	060H
	DB	060H
	DB	060H
	DB	0d1H
	DB	060H
	DB	060H
	DB	060H
	DB	0d1H
	DB	060H
	DB	060H
	DB	060H
	DB	0d1H
	DB	060H
	DB	060H
	DB	060H
	DB	0d1H
	DB	060H
	DB	060H
	DB	060H
	DB	0d1H
	DB	060H
	DB	060H
	DB	060H
	DB	0d1H
	DB	060H
	DB	060H
	DB	060H
	DB	0d1H
	DB	060H
	DB	060H
	DB	060H
	DB	0d1H
	DB	060H
	DB	060H
	DB	060H
	DB	0d1H
	DB	060H
	DB	060H
	DB	060H
	DB	0d1H
	DB	060H
	DB	060H
	DB	060H
	DB	0d1H
	DB	060H
	DB	060H
	DB	060H
	DB	0d1H
	DB	060H
	DB	060H
	DB	060H
	DB	0d1H
	DB	060H
	DB	060H
	DB	060H
	DB	0d1H
	DB	060H
	DB	060H
	DB	060H
	DB	0d1H
	DB	060H
	DB	060H
	DB	060H
	DB	0d1H
	DB	060H
	DB	060H
	DB	060H
	DB	0d1H
	DB	060H
	DB	060H
	DB	060H
	DB	0d1H
	DB	060H
	DB	060H
	DB	060H
	DB	0d1H
	DB	060H
	DB	060H
	DB	060H
	DB	0d1H
	DB	060H
	DB	060H
	DB	060H
	DB	0d1H
	DB	060H
	DB	060H
	DB	060H
	DB	0d1H
	DB	060H
	DB	060H
	DB	060H
	DB	0d1H
	DB	060H
	DB	060H
	DB	060H
	DB	0d1H
	DB	060H
	DB	060H
	DB	060H
	DB	0d1H
	DB	060H
	DB	060H
	DB	060H
	DB	0d1H
	DB	060H
	DB	060H
	DB	060H
	DB	0d1H
	DB	060H
	DB	060H
	DB	060H
	DB	0d1H
	DB	060H
	DB	060H
	DB	060H
	DB	0d1H
	DB	060H
	DB	060H
	DB	060H
	DB	0d1H
	DB	060H
	DB	060H
	DB	060H
	DB	0d1H
	DB	060H
	DB	060H
	DB	060H
	DB	0d1H
	DB	060H
	DB	060H
	DB	060H
	DB	0d1H
	DB	060H
	DB	060H
	DB	060H
	DB	0d1H
	DB	060H
	DB	060H
	DB	060H
	DB	0d1H
	DB	060H
	DB	060H
	DB	060H
	DB	0d1H
	DB	060H
	DB	060H
	DB	060H
	DB	0d1H
	DB	060H
	DB	060H
	DB	060H
	DB	0d1H
	DB	060H
	DB	060H
	DB	060H
	DB	0d1H
	DB	060H
	DB	060H
	DB	060H
	DB	0d1H
	DB	060H
	DB	060H
	DB	060H
	DB	0d1H
	DB	060H
	DB	060H
	DB	060H
	DB	0d1H
	DB	060H
	DB	060H
	DB	060H
	DB	0d1H
	DB	060H
	DB	060H
	DB	060H
	DB	0d1H
	DB	060H
	DB	060H
	DB	060H
	DB	0d1H
	DB	060H
	DB	060H
	DB	060H
	DB	0d1H
	DB	060H
	DB	060H
	DB	060H
	DB	0d1H
	DB	060H
	DB	060H
	DB	060H
	DB	0d1H
	DB	060H
	DB	060H
	DB	060H
	DB	0d1H
	DB	060H
	DB	060H
	DB	060H
	DB	0d1H
	DB	060H
	DB	060H
	DB	060H
	DB	0d1H
	DB	060H
	DB	060H
	DB	060H
	DB	0d1H
	DB	060H
	DB	060H
	DB	060H
	DB	0d1H
	DB	060H
	DB	060H
	DB	060H
	DB	0d1H
	DB	060H
	DB	060H
	DB	060H
	DB	0d1H
	DB	060H
	DB	060H
	DB	060H
	DB	0d1H
	DB	060H
	DB	060H
	DB	060H
	DB	0d1H
	DB	060H
	DB	060H
	DB	060H
	DB	0d1H
	DB	060H
	DB	060H
	DB	060H
	DB	0d1H
	DB	060H
	DB	060H
	DB	060H
	DB	0d1H
	DB	060H
	DB	060H
	DB	060H
	DB	0d1H
	DB	060H
	DB	060H
	DB	060H
	DB	0d1H
	DB	060H
	DB	060H
	DB	060H
	DB	0d1H
	DB	060H
	DB	060H
	DB	060H
	DB	0d1H
	DB	060H
	DB	060H
	DB	060H
	DB	0d1H
	DB	060H
	DB	060H
	DB	060H
	DB	0d1H
	DB	060H
	DB	060H
	DB	060H
	DB	0d1H
	DB	060H
	DB	060H
	DB	060H
	DB	0d1H
	DB	060H
	DB	060H
	DB	060H
	DB	0d1H
	DB	060H
	DB	060H
	DB	060H
	DB	0d1H
	DB	078H
	DB	070H
	DB	040H
	DB	0dfH
	DB	0a8H
	DB	08cH
	DB	010H
	DB	0ffH
	DB	0a8H
	DB	08cH
	DB	010H
	DB	0b3H
	DB	0a8H
	DB	08cH
	DB	010H
	DB	0d7H
	DB	0a8H
	DB	08cH
	DB	010H
	DB	0ffH
	DB	068H
	DB	068H
	DB	048H
	DB	0d9H
	DB	060H
	DB	060H
	DB	060H
	DB	0d1H
	DB	060H
	DB	060H
	DB	060H
	DB	0d1H
	DB	060H
	DB	060H
	DB	060H
	DB	0d1H
	DB	060H
	DB	060H
	DB	060H
	DB	0d1H
	DB	060H
	DB	060H
	DB	060H
	DB	0d1H
	DB	060H
	DB	060H
	DB	060H
	DB	0d1H
	DB	060H
	DB	060H
	DB	060H
	DB	0d1H
	DB	060H
	DB	060H
	DB	060H
	DB	0d1H
	DB	060H
	DB	060H
	DB	060H
	DB	0d1H
	DB	060H
	DB	060H
	DB	060H
	DB	0d1H
	DB	060H
	DB	060H
	DB	060H
	DB	0d1H
	DB	060H
	DB	060H
	DB	060H
	DB	0d1H
	DB	060H
	DB	060H
	DB	060H
	DB	0d1H
	DB	060H
	DB	060H
	DB	060H
	DB	0d1H
	DB	060H
	DB	060H
	DB	060H
	DB	0d1H
	DB	060H
	DB	060H
	DB	060H
	DB	0d1H
	DB	060H
	DB	060H
	DB	060H
	DB	0d1H
	DB	060H
	DB	060H
	DB	060H
	DB	0d1H
	DB	060H
	DB	060H
	DB	060H
	DB	0d1H
	DB	060H
	DB	060H
	DB	060H
	DB	0d1H
	DB	060H
	DB	060H
	DB	060H
	DB	0d1H
	DB	060H
	DB	060H
	DB	060H
	DB	0d1H
	DB	060H
	DB	060H
	DB	060H
	DB	0d1H
	DB	060H
	DB	060H
	DB	060H
	DB	0d1H
	DB	060H
	DB	060H
	DB	060H
	DB	0d1H
	DB	060H
	DB	060H
	DB	060H
	DB	0d1H
	DB	060H
	DB	060H
	DB	060H
	DB	0d1H
	DB	060H
	DB	060H
	DB	060H
	DB	0d1H
	DB	060H
	DB	060H
	DB	060H
	DB	0d1H
	DB	060H
	DB	060H
	DB	060H
	DB	0d1H
	DB	060H
	DB	060H
	DB	060H
	DB	0d1H
	DB	060H
	DB	060H
	DB	060H
	DB	0d1H
	DB	060H
	DB	060H
	DB	060H
	DB	0d1H
	DB	060H
	DB	060H
	DB	060H
	DB	0d1H
	DB	060H
	DB	060H
	DB	060H
	DB	0d1H
	DB	060H
	DB	060H
	DB	060H
	DB	0d1H
	DB	060H
	DB	060H
	DB	060H
	DB	0d1H
	DB	060H
	DB	060H
	DB	060H
	DB	0d1H
	DB	060H
	DB	060H
	DB	060H
	DB	0d1H
	DB	060H
	DB	060H
	DB	060H
	DB	0d1H
	DB	060H
	DB	060H
	DB	060H
	DB	0d1H
	DB	060H
	DB	060H
	DB	060H
	DB	0d1H
	DB	060H
	DB	060H
	DB	060H
	DB	0d1H
	DB	060H
	DB	060H
	DB	060H
	DB	0d1H
	DB	060H
	DB	060H
	DB	060H
	DB	0d1H
	DB	060H
	DB	060H
	DB	060H
	DB	0d1H
	DB	060H
	DB	060H
	DB	060H
	DB	0d1H
	DB	060H
	DB	060H
	DB	060H
	DB	0d1H
	DB	060H
	DB	060H
	DB	060H
	DB	0d1H
	DB	060H
	DB	060H
	DB	060H
	DB	0d1H
	DB	060H
	DB	060H
	DB	060H
	DB	0d1H
	DB	060H
	DB	060H
	DB	060H
	DB	0d1H
	DB	060H
	DB	060H
	DB	060H
	DB	0d1H
	DB	060H
	DB	060H
	DB	060H
	DB	0d1H
	DB	060H
	DB	060H
	DB	060H
	DB	0d1H
	DB	060H
	DB	060H
	DB	060H
	DB	0d1H
	DB	060H
	DB	060H
	DB	060H
	DB	0d1H
	DB	060H
	DB	060H
	DB	060H
	DB	0d1H
	DB	060H
	DB	060H
	DB	060H
	DB	0d1H
	DB	060H
	DB	060H
	DB	060H
	DB	0d1H
	DB	060H
	DB	060H
	DB	060H
	DB	0d1H
	DB	060H
	DB	060H
	DB	060H
	DB	0d1H
	DB	060H
	DB	060H
	DB	060H
	DB	0d1H
	DB	060H
	DB	060H
	DB	060H
	DB	0d1H
	DB	060H
	DB	060H
	DB	060H
	DB	0d1H
	DB	060H
	DB	060H
	DB	060H
	DB	0d1H
	DB	060H
	DB	060H
	DB	060H
	DB	0d1H
	DB	060H
	DB	060H
	DB	060H
	DB	0d1H
	DB	060H
	DB	060H
	DB	060H
	DB	0d1H
	DB	060H
	DB	060H
	DB	060H
	DB	0d1H
	DB	060H
	DB	060H
	DB	060H
	DB	0d1H
	DB	060H
	DB	060H
	DB	060H
	DB	0d1H
	DB	060H
	DB	060H
	DB	060H
	DB	0d1H
	DB	060H
	DB	060H
	DB	060H
	DB	0d1H
	DB	060H
	DB	060H
	DB	060H
	DB	0d1H
	DB	060H
	DB	060H
	DB	060H
	DB	0d1H
	DB	060H
	DB	060H
	DB	060H
	DB	0d1H
	DB	060H
	DB	060H
	DB	060H
	DB	0d1H
	DB	060H
	DB	060H
	DB	060H
	DB	0d1H
	DB	060H
	DB	060H
	DB	060H
	DB	0d1H
	DB	060H
	DB	060H
	DB	060H
	DB	0d1H
	DB	060H
	DB	060H
	DB	060H
	DB	0d1H
	DB	060H
	DB	060H
	DB	060H
	DB	0d1H
	DB	060H
	DB	060H
	DB	060H
	DB	0d1H
	DB	060H
	DB	060H
	DB	060H
	DB	0d1H
	DB	060H
	DB	060H
	DB	060H
	DB	0d1H
	DB	060H
	DB	060H
	DB	060H
	DB	0d1H
	DB	060H
	DB	060H
	DB	060H
	DB	0d1H
	DB	060H
	DB	060H
	DB	060H
	DB	0d1H
	DB	060H
	DB	060H
	DB	060H
	DB	0d1H
	DB	060H
	DB	060H
	DB	060H
	DB	0d1H
	DB	060H
	DB	060H
	DB	060H
	DB	0d1H
	DB	060H
	DB	060H
	DB	060H
	DB	0d1H
	DB	060H
	DB	060H
	DB	060H
	DB	0d1H
	DB	060H
	DB	060H
	DB	060H
	DB	0d1H
	DB	060H
	DB	060H
	DB	060H
	DB	0d1H
	DB	060H
	DB	060H
	DB	060H
	DB	0d1H
	DB	060H
	DB	060H
	DB	060H
	DB	0d1H
	DB	060H
	DB	060H
	DB	060H
	DB	0d1H
	DB	060H
	DB	060H
	DB	060H
	DB	0d1H
	DB	060H
	DB	060H
	DB	060H
	DB	0d1H
	DB	060H
	DB	060H
	DB	060H
	DB	0d1H
	DB	060H
	DB	060H
	DB	060H
	DB	0d1H
	DB	060H
	DB	060H
	DB	060H
	DB	0d1H
	DB	060H
	DB	060H
	DB	060H
	DB	0d1H
	DB	060H
	DB	060H
	DB	060H
	DB	0d1H
	DB	060H
	DB	060H
	DB	060H
	DB	0d1H
	DB	060H
	DB	060H
	DB	060H
	DB	0d1H
	DB	060H
	DB	060H
	DB	060H
	DB	0d1H
	DB	060H
	DB	060H
	DB	060H
	DB	0d1H
	DB	060H
	DB	060H
	DB	060H
	DB	0d1H
	DB	060H
	DB	060H
	DB	060H
	DB	0d1H
	DB	060H
	DB	060H
	DB	060H
	DB	0d1H
	DB	060H
	DB	060H
	DB	060H
	DB	0d1H
	DB	060H
	DB	060H
	DB	060H
	DB	0d1H
	DB	060H
	DB	060H
	DB	060H
	DB	0d1H
	DB	060H
	DB	060H
	DB	060H
	DB	0d1H
	DB	060H
	DB	060H
	DB	060H
	DB	0d1H
	DB	060H
	DB	060H
	DB	060H
	DB	0d1H
	DB	060H
	DB	060H
	DB	060H
	DB	0d1H
	DB	068H
	DB	068H
	DB	050H
	DB	0d8H
	DB	0a8H
	DB	08cH
	DB	010H
	DB	0ffH
	DB	0a8H
	DB	08cH
	DB	010H
	DB	0dbH
	DB	0a8H
	DB	08cH
	DB	010H
	DB	0f3H
	DB	0a8H
	DB	08cH
	DB	010H
	DB	0ffH
	DB	060H
	DB	060H
	DB	058H
	DB	0d4H
	DB	060H
	DB	060H
	DB	060H
	DB	0d1H
	DB	060H
	DB	060H
	DB	060H
	DB	0d1H
	DB	060H
	DB	060H
	DB	060H
	DB	0d1H
	DB	060H
	DB	060H
	DB	060H
	DB	0d1H
	DB	060H
	DB	060H
	DB	060H
	DB	0d1H
	DB	060H
	DB	060H
	DB	060H
	DB	0d1H
	DB	060H
	DB	060H
	DB	060H
	DB	0d1H
	DB	060H
	DB	060H
	DB	060H
	DB	0d1H
	DB	060H
	DB	060H
	DB	060H
	DB	0d1H
	DB	060H
	DB	060H
	DB	060H
	DB	0d1H
	DB	060H
	DB	060H
	DB	060H
	DB	0d1H
	DB	060H
	DB	060H
	DB	060H
	DB	0d1H
	DB	060H
	DB	060H
	DB	060H
	DB	0d1H
	DB	060H
	DB	060H
	DB	060H
	DB	0d1H
	DB	060H
	DB	060H
	DB	060H
	DB	0d1H
	DB	060H
	DB	060H
	DB	060H
	DB	0d1H
	DB	060H
	DB	060H
	DB	060H
	DB	0d1H
	DB	060H
	DB	060H
	DB	060H
	DB	0d1H
	DB	060H
	DB	060H
	DB	060H
	DB	0d1H
	DB	060H
	DB	060H
	DB	060H
	DB	0d1H
	DB	060H
	DB	060H
	DB	060H
	DB	0d1H
	DB	060H
	DB	060H
	DB	060H
	DB	0d1H
	DB	060H
	DB	060H
	DB	060H
	DB	0d1H
	DB	060H
	DB	060H
	DB	060H
	DB	0d1H
	DB	060H
	DB	060H
	DB	060H
	DB	0d1H
	DB	060H
	DB	060H
	DB	060H
	DB	0d1H
	DB	060H
	DB	060H
	DB	060H
	DB	0d1H
	DB	060H
	DB	060H
	DB	060H
	DB	0d1H
	DB	060H
	DB	060H
	DB	060H
	DB	0d1H
	DB	060H
	DB	060H
	DB	060H
	DB	0d1H
	DB	060H
	DB	060H
	DB	060H
	DB	0d1H
	DB	060H
	DB	060H
	DB	060H
	DB	0d1H
	DB	060H
	DB	060H
	DB	060H
	DB	0d1H
	DB	060H
	DB	060H
	DB	060H
	DB	0d1H
	DB	060H
	DB	060H
	DB	060H
	DB	0d1H
	DB	060H
	DB	060H
	DB	060H
	DB	0d1H
	DB	060H
	DB	060H
	DB	060H
	DB	0d1H
	DB	060H
	DB	060H
	DB	060H
	DB	0d1H
	DB	060H
	DB	060H
	DB	060H
	DB	0d1H
	DB	060H
	DB	060H
	DB	060H
	DB	0d1H
	DB	060H
	DB	060H
	DB	060H
	DB	0d1H
	DB	060H
	DB	060H
	DB	060H
	DB	0d1H
	DB	060H
	DB	060H
	DB	060H
	DB	0d1H
	DB	060H
	DB	060H
	DB	060H
	DB	0d1H
	DB	060H
	DB	060H
	DB	060H
	DB	0d1H
	DB	060H
	DB	060H
	DB	060H
	DB	0d1H
	DB	060H
	DB	060H
	DB	060H
	DB	0d1H
	DB	060H
	DB	060H
	DB	060H
	DB	0d1H
	DB	060H
	DB	060H
	DB	060H
	DB	0d1H
	DB	060H
	DB	060H
	DB	060H
	DB	0d1H
	DB	060H
	DB	060H
	DB	060H
	DB	0d1H
	DB	060H
	DB	060H
	DB	060H
	DB	0d1H
	DB	060H
	DB	060H
	DB	060H
	DB	0d1H
	DB	060H
	DB	060H
	DB	060H
	DB	0d1H
	DB	060H
	DB	060H
	DB	060H
	DB	0d1H
	DB	060H
	DB	060H
	DB	060H
	DB	0d1H
	DB	060H
	DB	060H
	DB	060H
	DB	0d1H
	DB	060H
	DB	060H
	DB	060H
	DB	0d1H
	DB	060H
	DB	060H
	DB	060H
	DB	0d1H
	DB	060H
	DB	060H
	DB	060H
	DB	0d1H
	DB	060H
	DB	060H
	DB	060H
	DB	0d1H
	DB	060H
	DB	060H
	DB	060H
	DB	0d1H
	DB	060H
	DB	060H
	DB	060H
	DB	0d1H
	DB	060H
	DB	060H
	DB	060H
	DB	0d1H
	DB	060H
	DB	060H
	DB	060H
	DB	0d1H
	DB	060H
	DB	060H
	DB	060H
	DB	0d1H
	DB	060H
	DB	060H
	DB	060H
	DB	0d1H
	DB	060H
	DB	060H
	DB	060H
	DB	0d1H
	DB	060H
	DB	060H
	DB	060H
	DB	0d1H
	DB	060H
	DB	060H
	DB	060H
	DB	0d1H
	DB	060H
	DB	060H
	DB	060H
	DB	0d1H
	DB	060H
	DB	060H
	DB	060H
	DB	0d1H
	DB	060H
	DB	060H
	DB	060H
	DB	0d1H
	DB	060H
	DB	060H
	DB	060H
	DB	0d1H
	DB	060H
	DB	060H
	DB	060H
	DB	0d1H
	DB	060H
	DB	060H
	DB	060H
	DB	0d1H
	DB	060H
	DB	060H
	DB	060H
	DB	0d1H
	DB	060H
	DB	060H
	DB	060H
	DB	0d1H
	DB	060H
	DB	060H
	DB	060H
	DB	0d1H
	DB	060H
	DB	060H
	DB	060H
	DB	0d1H
	DB	060H
	DB	060H
	DB	060H
	DB	0d1H
	DB	060H
	DB	060H
	DB	060H
	DB	0d1H
	DB	060H
	DB	060H
	DB	060H
	DB	0d1H
	DB	060H
	DB	060H
	DB	060H
	DB	0d1H
	DB	060H
	DB	060H
	DB	060H
	DB	0d1H
	DB	060H
	DB	060H
	DB	060H
	DB	0d1H
	DB	060H
	DB	060H
	DB	060H
	DB	0d1H
	DB	060H
	DB	060H
	DB	060H
	DB	0d1H
	DB	060H
	DB	060H
	DB	060H
	DB	0d1H
	DB	060H
	DB	060H
	DB	060H
	DB	0d1H
	DB	060H
	DB	060H
	DB	060H
	DB	0d1H
	DB	060H
	DB	060H
	DB	060H
	DB	0d1H
	DB	060H
	DB	060H
	DB	060H
	DB	0d1H
	DB	060H
	DB	060H
	DB	060H
	DB	0d1H
	DB	060H
	DB	060H
	DB	060H
	DB	0d1H
	DB	060H
	DB	060H
	DB	060H
	DB	0d1H
	DB	060H
	DB	060H
	DB	060H
	DB	0d1H
	DB	060H
	DB	060H
	DB	060H
	DB	0d1H
	DB	060H
	DB	060H
	DB	060H
	DB	0d1H
	DB	060H
	DB	060H
	DB	060H
	DB	0d1H
	DB	060H
	DB	060H
	DB	060H
	DB	0d1H
	DB	060H
	DB	060H
	DB	060H
	DB	0d1H
	DB	060H
	DB	060H
	DB	060H
	DB	0d1H
	DB	060H
	DB	060H
	DB	060H
	DB	0d1H
	DB	060H
	DB	060H
	DB	060H
	DB	0d1H
	DB	060H
	DB	060H
	DB	060H
	DB	0d1H
	DB	060H
	DB	060H
	DB	060H
	DB	0d1H
	DB	060H
	DB	060H
	DB	060H
	DB	0d1H
	DB	060H
	DB	060H
	DB	060H
	DB	0d1H
	DB	060H
	DB	060H
	DB	060H
	DB	0d1H
	DB	060H
	DB	060H
	DB	060H
	DB	0d1H
	DB	060H
	DB	060H
	DB	060H
	DB	0d1H
	DB	060H
	DB	060H
	DB	060H
	DB	0d1H
	DB	060H
	DB	060H
	DB	060H
	DB	0d1H
	DB	060H
	DB	060H
	DB	060H
	DB	0d1H
	DB	060H
	DB	060H
	DB	060H
	DB	0d1H
	DB	060H
	DB	060H
	DB	060H
	DB	0d1H
	DB	060H
	DB	060H
	DB	060H
	DB	0d1H
	DB	060H
	DB	060H
	DB	060H
	DB	0d1H
	DB	060H
	DB	060H
	DB	060H
	DB	0d1H
	DB	060H
	DB	060H
	DB	058H
	DB	0d3H
	DB	0a8H
	DB	08cH
	DB	010H
	DB	0ffH
	DB	0a8H
	DB	08cH
	DB	010H
	DB	0f3H
	DB	0a8H
	DB	08cH
	DB	010H
	DB	0ffH
	DB	0a8H
	DB	08cH
	DB	010H
	DB	0ffH
	DB	060H
	DB	060H
	DB	060H
	DB	0d1H
	DB	060H
	DB	060H
	DB	060H
	DB	0d1H
	DB	060H
	DB	060H
	DB	060H
	DB	0d1H
	DB	060H
	DB	060H
	DB	060H
	DB	0d1H
	DB	060H
	DB	060H
	DB	060H
	DB	0d1H
	DB	060H
	DB	060H
	DB	060H
	DB	0d1H
	DB	060H
	DB	060H
	DB	060H
	DB	0d1H
	DB	060H
	DB	060H
	DB	060H
	DB	0d1H
	DB	060H
	DB	060H
	DB	060H
	DB	0d1H
	DB	060H
	DB	060H
	DB	060H
	DB	0d1H
	DB	060H
	DB	060H
	DB	060H
	DB	0d1H
	DB	060H
	DB	060H
	DB	060H
	DB	0d1H
	DB	060H
	DB	060H
	DB	060H
	DB	0d1H
	DB	060H
	DB	060H
	DB	060H
	DB	0d1H
	DB	060H
	DB	060H
	DB	060H
	DB	0d1H
	DB	060H
	DB	060H
	DB	060H
	DB	0d1H
	DB	060H
	DB	060H
	DB	060H
	DB	0d1H
	DB	060H
	DB	060H
	DB	060H
	DB	0d1H
	DB	060H
	DB	060H
	DB	060H
	DB	0d1H
	DB	060H
	DB	060H
	DB	060H
	DB	0d1H
	DB	060H
	DB	060H
	DB	060H
	DB	0d1H
	DB	060H
	DB	060H
	DB	060H
	DB	0d1H
	DB	060H
	DB	060H
	DB	060H
	DB	0d1H
	DB	060H
	DB	060H
	DB	060H
	DB	0d1H
	DB	060H
	DB	060H
	DB	060H
	DB	0d1H
	DB	060H
	DB	060H
	DB	060H
	DB	0d1H
	DB	060H
	DB	060H
	DB	060H
	DB	0d1H
	DB	060H
	DB	060H
	DB	060H
	DB	0d1H
	DB	060H
	DB	060H
	DB	060H
	DB	0d1H
	DB	060H
	DB	060H
	DB	060H
	DB	0d1H
	DB	060H
	DB	060H
	DB	060H
	DB	0d1H
	DB	060H
	DB	060H
	DB	060H
	DB	0d1H
	DB	060H
	DB	060H
	DB	060H
	DB	0d1H
	DB	060H
	DB	060H
	DB	060H
	DB	0d1H
	DB	060H
	DB	060H
	DB	060H
	DB	0d1H
	DB	060H
	DB	060H
	DB	060H
	DB	0d1H
	DB	060H
	DB	060H
	DB	060H
	DB	0d1H
	DB	060H
	DB	060H
	DB	060H
	DB	0d1H
	DB	060H
	DB	060H
	DB	060H
	DB	0d1H
	DB	060H
	DB	060H
	DB	060H
	DB	0d1H
	DB	060H
	DB	060H
	DB	060H
	DB	0d1H
	DB	060H
	DB	060H
	DB	060H
	DB	0d1H
	DB	060H
	DB	060H
	DB	060H
	DB	0d1H
	DB	060H
	DB	060H
	DB	060H
	DB	0d1H
	DB	060H
	DB	060H
	DB	060H
	DB	0d1H
	DB	060H
	DB	060H
	DB	060H
	DB	0d1H
	DB	060H
	DB	060H
	DB	060H
	DB	0d1H
	DB	060H
	DB	060H
	DB	060H
	DB	0d1H
	DB	060H
	DB	060H
	DB	060H
	DB	0d1H
	DB	060H
	DB	060H
	DB	060H
	DB	0d1H
	DB	060H
	DB	060H
	DB	060H
	DB	0d1H
	DB	060H
	DB	060H
	DB	060H
	DB	0d1H
	DB	060H
	DB	060H
	DB	060H
	DB	0d1H
	DB	060H
	DB	060H
	DB	060H
	DB	0d1H
	DB	060H
	DB	060H
	DB	060H
	DB	0d1H
	DB	060H
	DB	060H
	DB	060H
	DB	0d1H
	DB	060H
	DB	060H
	DB	060H
	DB	0d1H
	DB	060H
	DB	060H
	DB	060H
	DB	0d1H
	DB	060H
	DB	060H
	DB	060H
	DB	0d1H
	DB	060H
	DB	060H
	DB	060H
	DB	0d1H
	DB	060H
	DB	060H
	DB	060H
	DB	0d1H
	DB	060H
	DB	060H
	DB	060H
	DB	0d1H
	DB	060H
	DB	060H
	DB	060H
	DB	0d1H
	DB	060H
	DB	060H
	DB	060H
	DB	0d1H
	DB	060H
	DB	060H
	DB	060H
	DB	0d1H
	DB	060H
	DB	060H
	DB	060H
	DB	0d1H
	DB	060H
	DB	060H
	DB	060H
	DB	0d1H
	DB	060H
	DB	060H
	DB	060H
	DB	0d1H
	DB	060H
	DB	060H
	DB	060H
	DB	0d1H
	DB	060H
	DB	060H
	DB	060H
	DB	0d1H
	DB	060H
	DB	060H
	DB	060H
	DB	0d1H
	DB	060H
	DB	060H
	DB	060H
	DB	0d1H
	DB	060H
	DB	060H
	DB	060H
	DB	0d1H
	DB	060H
	DB	060H
	DB	060H
	DB	0d1H
	DB	060H
	DB	060H
	DB	060H
	DB	0d1H
	DB	060H
	DB	060H
	DB	060H
	DB	0d1H
	DB	060H
	DB	060H
	DB	060H
	DB	0d1H
	DB	060H
	DB	060H
	DB	060H
	DB	0d1H
	DB	060H
	DB	060H
	DB	060H
	DB	0d1H
	DB	060H
	DB	060H
	DB	060H
	DB	0d1H
	DB	060H
	DB	060H
	DB	060H
	DB	0d1H
	DB	060H
	DB	060H
	DB	060H
	DB	0d1H
	DB	060H
	DB	060H
	DB	060H
	DB	0d1H
	DB	060H
	DB	060H
	DB	060H
	DB	0d1H
	DB	060H
	DB	060H
	DB	060H
	DB	0d1H
	DB	060H
	DB	060H
	DB	060H
	DB	0d1H
	DB	060H
	DB	060H
	DB	060H
	DB	0d1H
	DB	060H
	DB	060H
	DB	060H
	DB	0d1H
	DB	060H
	DB	060H
	DB	060H
	DB	0d1H
	DB	060H
	DB	060H
	DB	060H
	DB	0d1H
	DB	060H
	DB	060H
	DB	060H
	DB	0d1H
	DB	060H
	DB	060H
	DB	060H
	DB	0d1H
	DB	060H
	DB	060H
	DB	060H
	DB	0d1H
	DB	060H
	DB	060H
	DB	060H
	DB	0d1H
	DB	060H
	DB	060H
	DB	060H
	DB	0d1H
	DB	060H
	DB	060H
	DB	060H
	DB	0d1H
	DB	060H
	DB	060H
	DB	060H
	DB	0d1H
	DB	060H
	DB	060H
	DB	060H
	DB	0d1H
	DB	060H
	DB	060H
	DB	060H
	DB	0d1H
	DB	060H
	DB	060H
	DB	060H
	DB	0d1H
	DB	060H
	DB	060H
	DB	060H
	DB	0d1H
	DB	060H
	DB	060H
	DB	060H
	DB	0d1H
	DB	060H
	DB	060H
	DB	060H
	DB	0d1H
	DB	060H
	DB	060H
	DB	060H
	DB	0d1H
	DB	060H
	DB	060H
	DB	060H
	DB	0d1H
	DB	060H
	DB	060H
	DB	060H
	DB	0d1H
	DB	060H
	DB	060H
	DB	060H
	DB	0d1H
	DB	060H
	DB	060H
	DB	060H
	DB	0d1H
	DB	060H
	DB	060H
	DB	060H
	DB	0d1H
	DB	060H
	DB	060H
	DB	060H
	DB	0d1H
	DB	060H
	DB	060H
	DB	060H
	DB	0d1H
	DB	060H
	DB	060H
	DB	060H
	DB	0d1H
	DB	060H
	DB	060H
	DB	060H
	DB	0d1H
	DB	060H
	DB	060H
	DB	060H
	DB	0d1H
	DB	060H
	DB	060H
	DB	060H
	DB	0d1H
	DB	060H
	DB	060H
	DB	060H
	DB	0d1H
	DB	060H
	DB	060H
	DB	060H
	DB	0d1H
	DB	060H
	DB	060H
	DB	060H
	DB	0d1H
	DB	060H
	DB	060H
	DB	060H
	DB	0d1H
	DB	060H
	DB	060H
	DB	060H
	DB	0d1H
	DB	060H
	DB	060H
	DB	060H
	DB	0d1H
	DB	060H
	DB	060H
	DB	060H
	DB	0d1H
	DB	0a8H
	DB	08cH
	DB	010H
	DB	0ffH
	DB	0a8H
	DB	08cH
	DB	010H
	DB	0ffH
	DB	0a8H
	DB	08cH
	DB	010H
	DB	0ffH
	DB	0a8H
	DB	08cH
	DB	010H
	DB	0ffH
	DB	060H
	DB	060H
	DB	060H
	DB	0d1H
	DB	060H
	DB	060H
	DB	060H
	DB	0d1H
	DB	060H
	DB	060H
	DB	060H
	DB	0d1H
	DB	060H
	DB	060H
	DB	060H
	DB	0d1H
	DB	060H
	DB	060H
	DB	060H
	DB	0d1H
	DB	060H
	DB	060H
	DB	060H
	DB	0d1H
	DB	060H
	DB	060H
	DB	060H
	DB	0d1H
	DB	060H
	DB	060H
	DB	060H
	DB	0d1H
	DB	060H
	DB	060H
	DB	060H
	DB	0d1H
	DB	060H
	DB	060H
	DB	060H
	DB	0d1H
	DB	060H
	DB	060H
	DB	060H
	DB	0d1H
	DB	060H
	DB	060H
	DB	060H
	DB	0d1H
	DB	060H
	DB	060H
	DB	060H
	DB	0d1H
	DB	060H
	DB	060H
	DB	060H
	DB	0d1H
	DB	060H
	DB	060H
	DB	060H
	DB	0d1H
	DB	060H
	DB	060H
	DB	060H
	DB	0d1H
	DB	060H
	DB	060H
	DB	060H
	DB	0d1H
	DB	060H
	DB	060H
	DB	060H
	DB	0d1H
	DB	060H
	DB	060H
	DB	060H
	DB	0d1H
	DB	060H
	DB	060H
	DB	060H
	DB	0d1H
	DB	060H
	DB	060H
	DB	060H
	DB	0d1H
	DB	060H
	DB	060H
	DB	060H
	DB	0d1H
	DB	060H
	DB	060H
	DB	060H
	DB	0d1H
	DB	060H
	DB	060H
	DB	060H
	DB	0d1H
	DB	060H
	DB	060H
	DB	060H
	DB	0d1H
	DB	060H
	DB	060H
	DB	060H
	DB	0d1H
	DB	060H
	DB	060H
	DB	060H
	DB	0d1H
	DB	060H
	DB	060H
	DB	060H
	DB	0d1H
	DB	060H
	DB	060H
	DB	060H
	DB	0d1H
	DB	060H
	DB	060H
	DB	060H
	DB	0d1H
	DB	060H
	DB	060H
	DB	060H
	DB	0d1H
	DB	060H
	DB	060H
	DB	060H
	DB	0d1H
	DB	060H
	DB	060H
	DB	060H
	DB	0d1H
	DB	060H
	DB	060H
	DB	060H
	DB	0d1H
	DB	060H
	DB	060H
	DB	060H
	DB	0d1H
	DB	060H
	DB	060H
	DB	060H
	DB	0d1H
	DB	060H
	DB	060H
	DB	060H
	DB	0d1H
	DB	060H
	DB	060H
	DB	060H
	DB	0d1H
	DB	060H
	DB	060H
	DB	060H
	DB	0d1H
	DB	060H
	DB	060H
	DB	060H
	DB	0d1H
	DB	060H
	DB	060H
	DB	060H
	DB	0d1H
	DB	060H
	DB	060H
	DB	060H
	DB	0d1H
	DB	060H
	DB	060H
	DB	060H
	DB	0d1H
	DB	060H
	DB	060H
	DB	060H
	DB	0d1H
	DB	060H
	DB	060H
	DB	060H
	DB	0d1H
	DB	060H
	DB	060H
	DB	060H
	DB	0d1H
	DB	060H
	DB	060H
	DB	060H
	DB	0d1H
	DB	060H
	DB	060H
	DB	060H
	DB	0d1H
	DB	060H
	DB	060H
	DB	060H
	DB	0d1H
	DB	060H
	DB	060H
	DB	060H
	DB	0d1H
	DB	060H
	DB	060H
	DB	060H
	DB	0d1H
	DB	060H
	DB	060H
	DB	060H
	DB	0d1H
	DB	060H
	DB	060H
	DB	060H
	DB	0d1H
	DB	060H
	DB	060H
	DB	060H
	DB	0d1H
	DB	060H
	DB	060H
	DB	060H
	DB	0d1H
	DB	060H
	DB	060H
	DB	060H
	DB	0d1H
	DB	060H
	DB	060H
	DB	060H
	DB	0d1H
	DB	060H
	DB	060H
	DB	060H
	DB	0d1H
	DB	060H
	DB	060H
	DB	060H
	DB	0d1H
	DB	060H
	DB	060H
	DB	060H
	DB	0d1H
	DB	060H
	DB	060H
	DB	060H
	DB	0d1H
	DB	060H
	DB	060H
	DB	060H
	DB	0d1H
	DB	060H
	DB	060H
	DB	060H
	DB	0d1H
	DB	060H
	DB	060H
	DB	060H
	DB	0d1H
	DB	060H
	DB	060H
	DB	060H
	DB	0d1H
	DB	060H
	DB	060H
	DB	060H
	DB	0d1H
	DB	060H
	DB	060H
	DB	060H
	DB	0d1H
	DB	060H
	DB	060H
	DB	060H
	DB	0d1H
	DB	060H
	DB	060H
	DB	060H
	DB	0d1H
	DB	060H
	DB	060H
	DB	060H
	DB	0d1H
	DB	060H
	DB	060H
	DB	060H
	DB	0d1H
	DB	060H
	DB	060H
	DB	060H
	DB	0d1H
	DB	060H
	DB	060H
	DB	060H
	DB	0d1H
	DB	060H
	DB	060H
	DB	060H
	DB	0d1H
	DB	060H
	DB	060H
	DB	060H
	DB	0d1H
	DB	060H
	DB	060H
	DB	060H
	DB	0d1H
	DB	060H
	DB	060H
	DB	060H
	DB	0d1H
	DB	060H
	DB	060H
	DB	060H
	DB	0d1H
	DB	060H
	DB	060H
	DB	060H
	DB	0d1H
	DB	060H
	DB	060H
	DB	060H
	DB	0d1H
	DB	060H
	DB	060H
	DB	060H
	DB	0d1H
	DB	060H
	DB	060H
	DB	060H
	DB	0d1H
	DB	060H
	DB	060H
	DB	060H
	DB	0d1H
	DB	060H
	DB	060H
	DB	060H
	DB	0d1H
	DB	060H
	DB	060H
	DB	060H
	DB	0d1H
	DB	060H
	DB	060H
	DB	060H
	DB	0d1H
	DB	060H
	DB	060H
	DB	060H
	DB	0d1H
	DB	060H
	DB	060H
	DB	060H
	DB	0d1H
	DB	060H
	DB	060H
	DB	060H
	DB	0d1H
	DB	060H
	DB	060H
	DB	060H
	DB	0d1H
	DB	060H
	DB	060H
	DB	060H
	DB	0d1H
	DB	060H
	DB	060H
	DB	060H
	DB	0d1H
	DB	060H
	DB	060H
	DB	060H
	DB	0d1H
	DB	060H
	DB	060H
	DB	060H
	DB	0d1H
	DB	060H
	DB	060H
	DB	060H
	DB	0d1H
	DB	060H
	DB	060H
	DB	060H
	DB	0d1H
	DB	060H
	DB	060H
	DB	060H
	DB	0d1H
	DB	060H
	DB	060H
	DB	060H
	DB	0d1H
	DB	060H
	DB	060H
	DB	060H
	DB	0d1H
	DB	060H
	DB	060H
	DB	060H
	DB	0d1H
	DB	060H
	DB	060H
	DB	060H
	DB	0d1H
	DB	060H
	DB	060H
	DB	060H
	DB	0d1H
	DB	060H
	DB	060H
	DB	060H
	DB	0d1H
	DB	060H
	DB	060H
	DB	060H
	DB	0d1H
	DB	060H
	DB	060H
	DB	060H
	DB	0d1H
	DB	060H
	DB	060H
	DB	060H
	DB	0d1H
	DB	060H
	DB	060H
	DB	060H
	DB	0d1H
	DB	060H
	DB	060H
	DB	060H
	DB	0d1H
	DB	060H
	DB	060H
	DB	060H
	DB	0d1H
	DB	060H
	DB	060H
	DB	060H
	DB	0d1H
	DB	060H
	DB	060H
	DB	060H
	DB	0d1H
	DB	060H
	DB	060H
	DB	060H
	DB	0d1H
	DB	060H
	DB	060H
	DB	060H
	DB	0d1H
	DB	060H
	DB	060H
	DB	060H
	DB	0d1H
	DB	060H
	DB	060H
	DB	060H
	DB	0d1H
	DB	060H
	DB	060H
	DB	060H
	DB	0d1H
	DB	060H
	DB	060H
	DB	060H
	DB	0d1H
	DB	060H
	DB	060H
	DB	060H
	DB	0d1H
	DB	060H
	DB	060H
	DB	060H
	DB	0d1H
	DB	060H
	DB	060H
	DB	060H
	DB	0d1H
	DB	060H
	DB	060H
	DB	060H
	DB	0d1H
	DB	060H
	DB	060H
	DB	060H
	DB	0d1H
	DB	0a8H
	DB	08cH
	DB	010H
	DB	0ffH
	DB	0a8H
	DB	08cH
	DB	010H
	DB	0ffH
	DB	0a8H
	DB	08cH
	DB	010H
	DB	0ffH
	DB	0a8H
	DB	08cH
	DB	010H
	DB	0ffH
	DB	060H
	DB	060H
	DB	060H
	DB	0d1H
	DB	060H
	DB	060H
	DB	060H
	DB	0d1H
	DB	060H
	DB	060H
	DB	060H
	DB	0d1H
	DB	060H
	DB	060H
	DB	060H
	DB	0d1H
	DB	060H
	DB	060H
	DB	060H
	DB	0d1H
	DB	060H
	DB	060H
	DB	060H
	DB	0d1H
	DB	060H
	DB	060H
	DB	060H
	DB	0d1H
	DB	060H
	DB	060H
	DB	060H
	DB	0d1H
	DB	060H
	DB	060H
	DB	060H
	DB	0d1H
	DB	060H
	DB	060H
	DB	060H
	DB	0d1H
	DB	060H
	DB	060H
	DB	060H
	DB	0d1H
	DB	060H
	DB	060H
	DB	060H
	DB	0d1H
	DB	060H
	DB	060H
	DB	060H
	DB	0d1H
	DB	060H
	DB	060H
	DB	060H
	DB	0d1H
	DB	060H
	DB	060H
	DB	060H
	DB	0d1H
	DB	060H
	DB	060H
	DB	060H
	DB	0d1H
	DB	060H
	DB	060H
	DB	060H
	DB	0d1H
	DB	060H
	DB	060H
	DB	060H
	DB	0d1H
	DB	060H
	DB	060H
	DB	060H
	DB	0d1H
	DB	060H
	DB	060H
	DB	060H
	DB	0d1H
	DB	060H
	DB	060H
	DB	060H
	DB	0d1H
	DB	060H
	DB	060H
	DB	060H
	DB	0d1H
	DB	060H
	DB	060H
	DB	060H
	DB	0d1H
	DB	060H
	DB	060H
	DB	060H
	DB	0d1H
	DB	060H
	DB	060H
	DB	060H
	DB	0d1H
	DB	060H
	DB	060H
	DB	060H
	DB	0d1H
	DB	060H
	DB	060H
	DB	060H
	DB	0d1H
	DB	060H
	DB	060H
	DB	060H
	DB	0d1H
	DB	060H
	DB	060H
	DB	060H
	DB	0d1H
	DB	060H
	DB	060H
	DB	060H
	DB	0d1H
	DB	060H
	DB	060H
	DB	060H
	DB	0d1H
	DB	060H
	DB	060H
	DB	060H
	DB	0d1H
	DB	060H
	DB	060H
	DB	060H
	DB	0d1H
	DB	060H
	DB	060H
	DB	060H
	DB	0d1H
	DB	060H
	DB	060H
	DB	060H
	DB	0d1H
	DB	060H
	DB	060H
	DB	060H
	DB	0d1H
	DB	060H
	DB	060H
	DB	060H
	DB	0d1H
	DB	060H
	DB	060H
	DB	060H
	DB	0d1H
	DB	060H
	DB	060H
	DB	060H
	DB	0d1H
	DB	060H
	DB	060H
	DB	060H
	DB	0d1H
	DB	060H
	DB	060H
	DB	060H
	DB	0d1H
	DB	060H
	DB	060H
	DB	060H
	DB	0d1H
	DB	060H
	DB	060H
	DB	060H
	DB	0d1H
	DB	060H
	DB	060H
	DB	060H
	DB	0d1H
	DB	060H
	DB	060H
	DB	060H
	DB	0d1H
	DB	060H
	DB	060H
	DB	060H
	DB	0d1H
	DB	060H
	DB	060H
	DB	060H
	DB	0d1H
	DB	060H
	DB	060H
	DB	060H
	DB	0d1H
	DB	060H
	DB	060H
	DB	060H
	DB	0d1H
	DB	060H
	DB	060H
	DB	060H
	DB	0d1H
	DB	060H
	DB	060H
	DB	060H
	DB	0d1H
	DB	060H
	DB	060H
	DB	060H
	DB	0d1H
	DB	060H
	DB	060H
	DB	060H
	DB	0d1H
	DB	060H
	DB	060H
	DB	060H
	DB	0d1H
	DB	060H
	DB	060H
	DB	060H
	DB	0d1H
	DB	060H
	DB	060H
	DB	060H
	DB	0d1H
	DB	060H
	DB	060H
	DB	060H
	DB	0d1H
	DB	060H
	DB	060H
	DB	060H
	DB	0d1H
	DB	060H
	DB	060H
	DB	060H
	DB	0d1H
	DB	060H
	DB	060H
	DB	060H
	DB	0d1H
	DB	060H
	DB	060H
	DB	060H
	DB	0d1H
	DB	060H
	DB	060H
	DB	060H
	DB	0d1H
	DB	060H
	DB	060H
	DB	060H
	DB	0d1H
	DB	060H
	DB	060H
	DB	060H
	DB	0d1H
	DB	060H
	DB	060H
	DB	060H
	DB	0d1H
	DB	060H
	DB	060H
	DB	060H
	DB	0d1H
	DB	060H
	DB	060H
	DB	060H
	DB	0d1H
	DB	060H
	DB	060H
	DB	060H
	DB	0d1H
	DB	060H
	DB	060H
	DB	060H
	DB	0d1H
	DB	060H
	DB	060H
	DB	060H
	DB	0d1H
	DB	060H
	DB	060H
	DB	060H
	DB	0d1H
	DB	060H
	DB	060H
	DB	060H
	DB	0d1H
	DB	060H
	DB	060H
	DB	060H
	DB	0d1H
	DB	060H
	DB	060H
	DB	060H
	DB	0d1H
	DB	060H
	DB	060H
	DB	060H
	DB	0d1H
	DB	060H
	DB	060H
	DB	060H
	DB	0d1H
	DB	060H
	DB	060H
	DB	060H
	DB	0d1H
	DB	060H
	DB	060H
	DB	060H
	DB	0d1H
	DB	060H
	DB	060H
	DB	060H
	DB	0d1H
	DB	060H
	DB	060H
	DB	060H
	DB	0d1H
	DB	060H
	DB	060H
	DB	060H
	DB	0d1H
	DB	060H
	DB	060H
	DB	060H
	DB	0d1H
	DB	060H
	DB	060H
	DB	060H
	DB	0d1H
	DB	060H
	DB	060H
	DB	060H
	DB	0d1H
	DB	060H
	DB	060H
	DB	060H
	DB	0d1H
	DB	060H
	DB	060H
	DB	060H
	DB	0d1H
	DB	060H
	DB	060H
	DB	060H
	DB	0d1H
	DB	060H
	DB	060H
	DB	060H
	DB	0d1H
	DB	060H
	DB	060H
	DB	060H
	DB	0d1H
	DB	060H
	DB	060H
	DB	060H
	DB	0d1H
	DB	060H
	DB	060H
	DB	060H
	DB	0d1H
	DB	060H
	DB	060H
	DB	060H
	DB	0d1H
	DB	060H
	DB	060H
	DB	060H
	DB	0d1H
	DB	060H
	DB	060H
	DB	060H
	DB	0d1H
	DB	060H
	DB	060H
	DB	060H
	DB	0d1H
	DB	060H
	DB	060H
	DB	060H
	DB	0d1H
	DB	060H
	DB	060H
	DB	060H
	DB	0d1H
	DB	060H
	DB	060H
	DB	060H
	DB	0d1H
	DB	060H
	DB	060H
	DB	060H
	DB	0d1H
	DB	060H
	DB	060H
	DB	060H
	DB	0d1H
	DB	060H
	DB	060H
	DB	060H
	DB	0d1H
	DB	060H
	DB	060H
	DB	060H
	DB	0d1H
	DB	060H
	DB	060H
	DB	060H
	DB	0d1H
	DB	060H
	DB	060H
	DB	060H
	DB	0d1H
	DB	060H
	DB	060H
	DB	060H
	DB	0d1H
	DB	060H
	DB	060H
	DB	060H
	DB	0d1H
	DB	060H
	DB	060H
	DB	060H
	DB	0d1H
	DB	060H
	DB	060H
	DB	060H
	DB	0d1H
	DB	060H
	DB	060H
	DB	060H
	DB	0d1H
	DB	060H
	DB	060H
	DB	060H
	DB	0d1H
	DB	060H
	DB	060H
	DB	060H
	DB	0d1H
	DB	060H
	DB	060H
	DB	060H
	DB	0d1H
	DB	060H
	DB	060H
	DB	060H
	DB	0d1H
	DB	060H
	DB	060H
	DB	060H
	DB	0d1H
	DB	060H
	DB	060H
	DB	060H
	DB	0d1H
	DB	060H
	DB	060H
	DB	060H
	DB	0d1H
	DB	060H
	DB	060H
	DB	060H
	DB	0d1H
	DB	060H
	DB	060H
	DB	060H
	DB	0d1H
	DB	060H
	DB	060H
	DB	060H
	DB	0d1H
	DB	060H
	DB	060H
	DB	060H
	DB	0d1H
	DB	060H
	DB	060H
	DB	060H
	DB	0d1H
	DB	060H
	DB	060H
	DB	060H
	DB	0d1H
	DB	0a8H
	DB	08cH
	DB	010H
	DB	0ffH
	DB	0a8H
	DB	08cH
	DB	010H
	DB	0ffH
	DB	0a8H
	DB	08cH
	DB	010H
	DB	0ffH
	DB	0a8H
	DB	08cH
	DB	010H
	DB	0ffH
	DB	060H
	DB	060H
	DB	060H
	DB	0d1H
	DB	060H
	DB	060H
	DB	060H
	DB	0d1H
	DB	060H
	DB	060H
	DB	060H
	DB	0d1H
	DB	060H
	DB	060H
	DB	060H
	DB	0d1H
	DB	060H
	DB	060H
	DB	060H
	DB	0d1H
	DB	060H
	DB	060H
	DB	060H
	DB	0d1H
	DB	060H
	DB	060H
	DB	060H
	DB	0d1H
	DB	060H
	DB	060H
	DB	060H
	DB	0d1H
	DB	060H
	DB	060H
	DB	060H
	DB	0d1H
	DB	060H
	DB	060H
	DB	060H
	DB	0d1H
	DB	060H
	DB	060H
	DB	060H
	DB	0d1H
	DB	060H
	DB	060H
	DB	060H
	DB	0d1H
	DB	060H
	DB	060H
	DB	060H
	DB	0d1H
	DB	060H
	DB	060H
	DB	060H
	DB	0d1H
	DB	060H
	DB	060H
	DB	060H
	DB	0d1H
	DB	060H
	DB	060H
	DB	060H
	DB	0d1H
	DB	060H
	DB	060H
	DB	060H
	DB	0d1H
	DB	060H
	DB	060H
	DB	060H
	DB	0d1H
	DB	060H
	DB	060H
	DB	060H
	DB	0d1H
	DB	060H
	DB	060H
	DB	060H
	DB	0d1H
	DB	060H
	DB	060H
	DB	060H
	DB	0d1H
	DB	060H
	DB	060H
	DB	060H
	DB	0d1H
	DB	060H
	DB	060H
	DB	060H
	DB	0d1H
	DB	060H
	DB	060H
	DB	060H
	DB	0d1H
	DB	060H
	DB	060H
	DB	060H
	DB	0d1H
	DB	060H
	DB	060H
	DB	060H
	DB	0d1H
	DB	060H
	DB	060H
	DB	060H
	DB	0d1H
	DB	060H
	DB	060H
	DB	060H
	DB	0d1H
	DB	060H
	DB	060H
	DB	060H
	DB	0d1H
	DB	060H
	DB	060H
	DB	060H
	DB	0d1H
	DB	060H
	DB	060H
	DB	060H
	DB	0d1H
	DB	060H
	DB	060H
	DB	060H
	DB	0d1H
	DB	060H
	DB	060H
	DB	060H
	DB	0d1H
	DB	060H
	DB	060H
	DB	060H
	DB	0d1H
	DB	060H
	DB	060H
	DB	060H
	DB	0d1H
	DB	060H
	DB	060H
	DB	060H
	DB	0d1H
	DB	060H
	DB	060H
	DB	060H
	DB	0d1H
	DB	060H
	DB	060H
	DB	060H
	DB	0d1H
	DB	060H
	DB	060H
	DB	060H
	DB	0d1H
	DB	060H
	DB	060H
	DB	060H
	DB	0d1H
	DB	060H
	DB	060H
	DB	060H
	DB	0d1H
	DB	060H
	DB	060H
	DB	060H
	DB	0d1H
	DB	060H
	DB	060H
	DB	060H
	DB	0d1H
	DB	060H
	DB	060H
	DB	060H
	DB	0d1H
	DB	060H
	DB	060H
	DB	060H
	DB	0d1H
	DB	060H
	DB	060H
	DB	060H
	DB	0d1H
	DB	060H
	DB	060H
	DB	060H
	DB	0d1H
	DB	060H
	DB	060H
	DB	060H
	DB	0d1H
	DB	060H
	DB	060H
	DB	060H
	DB	0d1H
	DB	060H
	DB	060H
	DB	060H
	DB	0d1H
	DB	060H
	DB	060H
	DB	060H
	DB	0d1H
	DB	060H
	DB	060H
	DB	060H
	DB	0d1H
	DB	060H
	DB	060H
	DB	060H
	DB	0d1H
	DB	060H
	DB	060H
	DB	060H
	DB	0d1H
	DB	060H
	DB	060H
	DB	060H
	DB	0d1H
	DB	060H
	DB	060H
	DB	060H
	DB	0d1H
	DB	060H
	DB	060H
	DB	060H
	DB	0d1H
	DB	060H
	DB	060H
	DB	060H
	DB	0d1H
	DB	060H
	DB	060H
	DB	060H
	DB	0d1H
	DB	060H
	DB	060H
	DB	060H
	DB	0d1H
	DB	060H
	DB	060H
	DB	060H
	DB	0d1H
	DB	060H
	DB	060H
	DB	060H
	DB	0d1H
	DB	060H
	DB	060H
	DB	060H
	DB	0d1H
	DB	060H
	DB	060H
	DB	060H
	DB	0d1H
	DB	060H
	DB	060H
	DB	060H
	DB	0d1H
	DB	060H
	DB	060H
	DB	060H
	DB	0d1H
	DB	060H
	DB	060H
	DB	060H
	DB	0d1H
	DB	060H
	DB	060H
	DB	060H
	DB	0d1H
	DB	060H
	DB	060H
	DB	060H
	DB	0d1H
	DB	060H
	DB	060H
	DB	060H
	DB	0d1H
	DB	060H
	DB	060H
	DB	060H
	DB	0d1H
	DB	060H
	DB	060H
	DB	060H
	DB	0d1H
	DB	060H
	DB	060H
	DB	060H
	DB	0d1H
	DB	060H
	DB	060H
	DB	060H
	DB	0d1H
	DB	060H
	DB	060H
	DB	060H
	DB	0d1H
	DB	060H
	DB	060H
	DB	060H
	DB	0d1H
	DB	060H
	DB	060H
	DB	060H
	DB	0d1H
	DB	060H
	DB	060H
	DB	060H
	DB	0d1H
	DB	060H
	DB	060H
	DB	060H
	DB	0d1H
	DB	060H
	DB	060H
	DB	060H
	DB	0d1H
	DB	060H
	DB	060H
	DB	060H
	DB	0d1H
	DB	060H
	DB	060H
	DB	060H
	DB	0d1H
	DB	060H
	DB	060H
	DB	060H
	DB	0d1H
	DB	060H
	DB	060H
	DB	060H
	DB	0d1H
	DB	060H
	DB	060H
	DB	060H
	DB	0d1H
	DB	060H
	DB	060H
	DB	060H
	DB	0d1H
	DB	060H
	DB	060H
	DB	060H
	DB	0d1H
	DB	060H
	DB	060H
	DB	060H
	DB	0d1H
	DB	060H
	DB	060H
	DB	060H
	DB	0d1H
	DB	060H
	DB	060H
	DB	060H
	DB	0d1H
	DB	060H
	DB	060H
	DB	060H
	DB	0d1H
	DB	060H
	DB	060H
	DB	060H
	DB	0d1H
	DB	060H
	DB	060H
	DB	060H
	DB	0d1H
	DB	060H
	DB	060H
	DB	060H
	DB	0d1H
	DB	060H
	DB	060H
	DB	060H
	DB	0d1H
	DB	060H
	DB	060H
	DB	060H
	DB	0d1H
	DB	060H
	DB	060H
	DB	060H
	DB	0d1H
	DB	060H
	DB	060H
	DB	060H
	DB	0d1H
	DB	060H
	DB	060H
	DB	060H
	DB	0d1H
	DB	060H
	DB	060H
	DB	060H
	DB	0d1H
	DB	060H
	DB	060H
	DB	060H
	DB	0d1H
	DB	060H
	DB	060H
	DB	060H
	DB	0d1H
	DB	060H
	DB	060H
	DB	060H
	DB	0d1H
	DB	060H
	DB	060H
	DB	060H
	DB	0d1H
	DB	060H
	DB	060H
	DB	060H
	DB	0d1H
	DB	060H
	DB	060H
	DB	060H
	DB	0d1H
	DB	060H
	DB	060H
	DB	060H
	DB	0d1H
	DB	060H
	DB	060H
	DB	060H
	DB	0d1H
	DB	060H
	DB	060H
	DB	060H
	DB	0d1H
	DB	060H
	DB	060H
	DB	060H
	DB	0d1H
	DB	060H
	DB	060H
	DB	060H
	DB	0d1H
	DB	060H
	DB	060H
	DB	060H
	DB	0d1H
	DB	060H
	DB	060H
	DB	060H
	DB	0d1H
	DB	060H
	DB	060H
	DB	060H
	DB	0d1H
	DB	060H
	DB	060H
	DB	060H
	DB	0d1H
	DB	060H
	DB	060H
	DB	060H
	DB	0d1H
	DB	060H
	DB	060H
	DB	060H
	DB	0d1H
	DB	060H
	DB	060H
	DB	060H
	DB	0d1H
	DB	060H
	DB	060H
	DB	060H
	DB	0d1H
	DB	060H
	DB	060H
	DB	060H
	DB	0d1H
	DB	060H
	DB	060H
	DB	060H
	DB	0d1H
	DB	060H
	DB	060H
	DB	060H
	DB	0d1H
	DB	0a8H
	DB	08cH
	DB	010H
	DB	0ffH
	DB	0a8H
	DB	08cH
	DB	010H
	DB	0ffH
	DB	0a8H
	DB	08cH
	DB	010H
	DB	0ffH
	DB	0a8H
	DB	08cH
	DB	010H
	DB	0ffH
	DB	060H
	DB	060H
	DB	060H
	DB	0d1H
	DB	060H
	DB	060H
	DB	060H
	DB	0d1H
	DB	060H
	DB	060H
	DB	060H
	DB	0d1H
	DB	060H
	DB	060H
	DB	060H
	DB	0d1H
	DB	060H
	DB	060H
	DB	060H
	DB	0d1H
	DB	060H
	DB	060H
	DB	060H
	DB	0d1H
	DB	060H
	DB	060H
	DB	060H
	DB	0d1H
	DB	060H
	DB	060H
	DB	060H
	DB	0d1H
	DB	060H
	DB	060H
	DB	060H
	DB	0d1H
	DB	060H
	DB	060H
	DB	060H
	DB	0d1H
	DB	060H
	DB	060H
	DB	060H
	DB	0d1H
	DB	060H
	DB	060H
	DB	060H
	DB	0d1H
	DB	060H
	DB	060H
	DB	060H
	DB	0d1H
	DB	060H
	DB	060H
	DB	060H
	DB	0d1H
	DB	060H
	DB	060H
	DB	060H
	DB	0d1H
	DB	060H
	DB	060H
	DB	060H
	DB	0d1H
	DB	060H
	DB	060H
	DB	060H
	DB	0d1H
	DB	060H
	DB	060H
	DB	060H
	DB	0d1H
	DB	060H
	DB	060H
	DB	060H
	DB	0d1H
	DB	060H
	DB	060H
	DB	060H
	DB	0d1H
	DB	060H
	DB	060H
	DB	060H
	DB	0d1H
	DB	060H
	DB	060H
	DB	060H
	DB	0d1H
	DB	060H
	DB	060H
	DB	060H
	DB	0d1H
	DB	060H
	DB	060H
	DB	060H
	DB	0d1H
	DB	060H
	DB	060H
	DB	060H
	DB	0d1H
	DB	060H
	DB	060H
	DB	060H
	DB	0d1H
	DB	060H
	DB	060H
	DB	060H
	DB	0d1H
	DB	060H
	DB	060H
	DB	060H
	DB	0d1H
	DB	060H
	DB	060H
	DB	060H
	DB	0d1H
	DB	060H
	DB	060H
	DB	060H
	DB	0d1H
	DB	060H
	DB	060H
	DB	060H
	DB	0d1H
	DB	060H
	DB	060H
	DB	060H
	DB	0d1H
	DB	060H
	DB	060H
	DB	060H
	DB	0d1H
	DB	060H
	DB	060H
	DB	060H
	DB	0d1H
	DB	060H
	DB	060H
	DB	060H
	DB	0d1H
	DB	060H
	DB	060H
	DB	060H
	DB	0d1H
	DB	060H
	DB	060H
	DB	060H
	DB	0d1H
	DB	060H
	DB	060H
	DB	060H
	DB	0d1H
	DB	060H
	DB	060H
	DB	060H
	DB	0d1H
	DB	060H
	DB	060H
	DB	060H
	DB	0d1H
	DB	060H
	DB	060H
	DB	060H
	DB	0d1H
	DB	060H
	DB	060H
	DB	060H
	DB	0d1H
	DB	060H
	DB	060H
	DB	060H
	DB	0d1H
	DB	060H
	DB	060H
	DB	060H
	DB	0d1H
	DB	060H
	DB	060H
	DB	060H
	DB	0d1H
	DB	060H
	DB	060H
	DB	060H
	DB	0d1H
	DB	060H
	DB	060H
	DB	060H
	DB	0d1H
	DB	060H
	DB	060H
	DB	060H
	DB	0d1H
	DB	060H
	DB	060H
	DB	060H
	DB	0d1H
	DB	060H
	DB	060H
	DB	060H
	DB	0d1H
	DB	060H
	DB	060H
	DB	060H
	DB	0d1H
	DB	060H
	DB	060H
	DB	060H
	DB	0d1H
	DB	060H
	DB	060H
	DB	060H
	DB	0d1H
	DB	060H
	DB	060H
	DB	060H
	DB	0d1H
	DB	060H
	DB	060H
	DB	060H
	DB	0d1H
	DB	060H
	DB	060H
	DB	060H
	DB	0d1H
	DB	060H
	DB	060H
	DB	060H
	DB	0d1H
	DB	060H
	DB	060H
	DB	060H
	DB	0d1H
	DB	060H
	DB	060H
	DB	060H
	DB	0d1H
	DB	060H
	DB	060H
	DB	060H
	DB	0d1H
	DB	060H
	DB	060H
	DB	060H
	DB	0d1H
	DB	060H
	DB	060H
	DB	060H
	DB	0d1H
	DB	060H
	DB	060H
	DB	060H
	DB	0d1H
	DB	060H
	DB	060H
	DB	060H
	DB	0d1H
	DB	060H
	DB	060H
	DB	060H
	DB	0d1H
	DB	060H
	DB	060H
	DB	060H
	DB	0d1H
	DB	060H
	DB	060H
	DB	060H
	DB	0d1H
	DB	060H
	DB	060H
	DB	060H
	DB	0d1H
	DB	060H
	DB	060H
	DB	060H
	DB	0d1H
	DB	060H
	DB	060H
	DB	060H
	DB	0d1H
	DB	060H
	DB	060H
	DB	060H
	DB	0d1H
	DB	060H
	DB	060H
	DB	060H
	DB	0d1H
	DB	060H
	DB	060H
	DB	060H
	DB	0d1H
	DB	060H
	DB	060H
	DB	060H
	DB	0d1H
	DB	060H
	DB	060H
	DB	060H
	DB	0d1H
	DB	060H
	DB	060H
	DB	060H
	DB	0d1H
	DB	060H
	DB	060H
	DB	060H
	DB	0d1H
	DB	060H
	DB	060H
	DB	060H
	DB	0d1H
	DB	060H
	DB	060H
	DB	060H
	DB	0d1H
	DB	060H
	DB	060H
	DB	060H
	DB	0d1H
	DB	060H
	DB	060H
	DB	060H
	DB	0d1H
	DB	060H
	DB	060H
	DB	060H
	DB	0d1H
	DB	060H
	DB	060H
	DB	060H
	DB	0d1H
	DB	060H
	DB	060H
	DB	060H
	DB	0d1H
	DB	060H
	DB	060H
	DB	060H
	DB	0d1H
	DB	060H
	DB	060H
	DB	060H
	DB	0d1H
	DB	060H
	DB	060H
	DB	060H
	DB	0d1H
	DB	060H
	DB	060H
	DB	060H
	DB	0d1H
	DB	060H
	DB	060H
	DB	060H
	DB	0d1H
	DB	060H
	DB	060H
	DB	060H
	DB	0d1H
	DB	060H
	DB	060H
	DB	060H
	DB	0d1H
	DB	060H
	DB	060H
	DB	060H
	DB	0d1H
	DB	060H
	DB	060H
	DB	060H
	DB	0d1H
	DB	060H
	DB	060H
	DB	060H
	DB	0d1H
	DB	060H
	DB	060H
	DB	060H
	DB	0d1H
	DB	060H
	DB	060H
	DB	060H
	DB	0d1H
	DB	060H
	DB	060H
	DB	060H
	DB	0d1H
	DB	060H
	DB	060H
	DB	060H
	DB	0d1H
	DB	060H
	DB	060H
	DB	060H
	DB	0d1H
	DB	060H
	DB	060H
	DB	060H
	DB	0d1H
	DB	060H
	DB	060H
	DB	060H
	DB	0d1H
	DB	060H
	DB	060H
	DB	060H
	DB	0d1H
	DB	060H
	DB	060H
	DB	060H
	DB	0d1H
	DB	060H
	DB	060H
	DB	060H
	DB	0d1H
	DB	060H
	DB	060H
	DB	060H
	DB	0d1H
	DB	060H
	DB	060H
	DB	060H
	DB	0d1H
	DB	060H
	DB	060H
	DB	060H
	DB	0d1H
	DB	060H
	DB	060H
	DB	060H
	DB	0d1H
	DB	060H
	DB	060H
	DB	060H
	DB	0d1H
	DB	060H
	DB	060H
	DB	060H
	DB	0d1H
	DB	060H
	DB	060H
	DB	060H
	DB	0d1H
	DB	060H
	DB	060H
	DB	060H
	DB	0d1H
	DB	060H
	DB	060H
	DB	060H
	DB	0d1H
	DB	060H
	DB	060H
	DB	060H
	DB	0d1H
	DB	060H
	DB	060H
	DB	060H
	DB	0d1H
	DB	060H
	DB	060H
	DB	060H
	DB	0d1H
	DB	060H
	DB	060H
	DB	060H
	DB	0d1H
	DB	060H
	DB	060H
	DB	060H
	DB	0d1H
	DB	060H
	DB	060H
	DB	060H
	DB	0d1H
	DB	060H
	DB	060H
	DB	060H
	DB	0d1H
	DB	060H
	DB	060H
	DB	060H
	DB	0d1H
	DB	060H
	DB	060H
	DB	060H
	DB	0d1H
	DB	0a8H
	DB	08cH
	DB	010H
	DB	0ffH
	DB	0a8H
	DB	08cH
	DB	010H
	DB	0ffH
	DB	0a8H
	DB	08cH
	DB	010H
	DB	0ffH
	DB	0a8H
	DB	08cH
	DB	010H
	DB	0ffH
	DB	060H
	DB	060H
	DB	060H
	DB	0d1H
	DB	060H
	DB	060H
	DB	060H
	DB	0d1H
	DB	060H
	DB	060H
	DB	060H
	DB	0d1H
	DB	060H
	DB	060H
	DB	060H
	DB	0d1H
	DB	060H
	DB	060H
	DB	060H
	DB	0d1H
	DB	060H
	DB	060H
	DB	060H
	DB	0d1H
	DB	060H
	DB	060H
	DB	060H
	DB	0d1H
	DB	060H
	DB	060H
	DB	060H
	DB	0d1H
	DB	060H
	DB	060H
	DB	060H
	DB	0d1H
	DB	060H
	DB	060H
	DB	060H
	DB	0d1H
	DB	060H
	DB	060H
	DB	060H
	DB	0d1H
	DB	060H
	DB	060H
	DB	060H
	DB	0d1H
	DB	060H
	DB	060H
	DB	060H
	DB	0d1H
	DB	060H
	DB	060H
	DB	060H
	DB	0d1H
	DB	060H
	DB	060H
	DB	060H
	DB	0d1H
	DB	060H
	DB	060H
	DB	060H
	DB	0d1H
	DB	060H
	DB	060H
	DB	060H
	DB	0d1H
	DB	060H
	DB	060H
	DB	060H
	DB	0d1H
	DB	060H
	DB	060H
	DB	060H
	DB	0d1H
	DB	060H
	DB	060H
	DB	060H
	DB	0d1H
	DB	060H
	DB	060H
	DB	060H
	DB	0d1H
	DB	060H
	DB	060H
	DB	060H
	DB	0d1H
	DB	060H
	DB	060H
	DB	060H
	DB	0d1H
	DB	060H
	DB	060H
	DB	060H
	DB	0d1H
	DB	060H
	DB	060H
	DB	060H
	DB	0d1H
	DB	060H
	DB	060H
	DB	060H
	DB	0d1H
	DB	060H
	DB	060H
	DB	060H
	DB	0d1H
	DB	060H
	DB	060H
	DB	060H
	DB	0d1H
	DB	060H
	DB	060H
	DB	060H
	DB	0d1H
	DB	060H
	DB	060H
	DB	060H
	DB	0d1H
	DB	060H
	DB	060H
	DB	060H
	DB	0d1H
	DB	060H
	DB	060H
	DB	060H
	DB	0d1H
	DB	060H
	DB	060H
	DB	060H
	DB	0d1H
	DB	060H
	DB	060H
	DB	060H
	DB	0d1H
	DB	060H
	DB	060H
	DB	060H
	DB	0d1H
	DB	060H
	DB	060H
	DB	060H
	DB	0d1H
	DB	060H
	DB	060H
	DB	060H
	DB	0d1H
	DB	060H
	DB	060H
	DB	060H
	DB	0d1H
	DB	060H
	DB	060H
	DB	060H
	DB	0d1H
	DB	060H
	DB	060H
	DB	060H
	DB	0d1H
	DB	060H
	DB	060H
	DB	060H
	DB	0d1H
	DB	060H
	DB	060H
	DB	060H
	DB	0d1H
	DB	060H
	DB	060H
	DB	060H
	DB	0d1H
	DB	060H
	DB	060H
	DB	060H
	DB	0d1H
	DB	060H
	DB	060H
	DB	060H
	DB	0d1H
	DB	060H
	DB	060H
	DB	060H
	DB	0d1H
	DB	060H
	DB	060H
	DB	060H
	DB	0d1H
	DB	060H
	DB	060H
	DB	060H
	DB	0d1H
	DB	060H
	DB	060H
	DB	060H
	DB	0d1H
	DB	060H
	DB	060H
	DB	060H
	DB	0d1H
	DB	060H
	DB	060H
	DB	060H
	DB	0d1H
	DB	060H
	DB	060H
	DB	060H
	DB	0d1H
	DB	060H
	DB	060H
	DB	060H
	DB	0d1H
	DB	060H
	DB	060H
	DB	060H
	DB	0d1H
	DB	060H
	DB	060H
	DB	060H
	DB	0d1H
	DB	060H
	DB	060H
	DB	060H
	DB	0d1H
	DB	060H
	DB	060H
	DB	060H
	DB	0d1H
	DB	060H
	DB	060H
	DB	060H
	DB	0d1H
	DB	060H
	DB	060H
	DB	060H
	DB	0d1H
	DB	060H
	DB	060H
	DB	060H
	DB	0d1H
	DB	060H
	DB	060H
	DB	060H
	DB	0d1H
	DB	060H
	DB	060H
	DB	060H
	DB	0d1H
	DB	060H
	DB	060H
	DB	060H
	DB	0d1H
	DB	060H
	DB	060H
	DB	060H
	DB	0d1H
	DB	060H
	DB	060H
	DB	060H
	DB	0d1H
	DB	060H
	DB	060H
	DB	060H
	DB	0d1H
	DB	060H
	DB	060H
	DB	060H
	DB	0d1H
	DB	060H
	DB	060H
	DB	060H
	DB	0d1H
	DB	060H
	DB	060H
	DB	060H
	DB	0d1H
	DB	060H
	DB	060H
	DB	060H
	DB	0d1H
	DB	060H
	DB	060H
	DB	060H
	DB	0d1H
	DB	060H
	DB	060H
	DB	060H
	DB	0d1H
	DB	060H
	DB	060H
	DB	060H
	DB	0d1H
	DB	060H
	DB	060H
	DB	060H
	DB	0d1H
	DB	060H
	DB	060H
	DB	060H
	DB	0d1H
	DB	060H
	DB	060H
	DB	060H
	DB	0d1H
	DB	060H
	DB	060H
	DB	060H
	DB	0d1H
	DB	060H
	DB	060H
	DB	060H
	DB	0d1H
	DB	060H
	DB	060H
	DB	060H
	DB	0d1H
	DB	060H
	DB	060H
	DB	060H
	DB	0d1H
	DB	060H
	DB	060H
	DB	060H
	DB	0d1H
	DB	060H
	DB	060H
	DB	060H
	DB	0d1H
	DB	060H
	DB	060H
	DB	060H
	DB	0d1H
	DB	060H
	DB	060H
	DB	060H
	DB	0d1H
	DB	060H
	DB	060H
	DB	060H
	DB	0d1H
	DB	060H
	DB	060H
	DB	060H
	DB	0d1H
	DB	060H
	DB	060H
	DB	060H
	DB	0d1H
	DB	060H
	DB	060H
	DB	060H
	DB	0d1H
	DB	060H
	DB	060H
	DB	060H
	DB	0d1H
	DB	060H
	DB	060H
	DB	060H
	DB	0d1H
	DB	060H
	DB	060H
	DB	060H
	DB	0d1H
	DB	060H
	DB	060H
	DB	060H
	DB	0d1H
	DB	060H
	DB	060H
	DB	060H
	DB	0d1H
	DB	060H
	DB	060H
	DB	060H
	DB	0d1H
	DB	060H
	DB	060H
	DB	060H
	DB	0d1H
	DB	060H
	DB	060H
	DB	060H
	DB	0d1H
	DB	060H
	DB	060H
	DB	060H
	DB	0d1H
	DB	060H
	DB	060H
	DB	060H
	DB	0d1H
	DB	060H
	DB	060H
	DB	060H
	DB	0d1H
	DB	060H
	DB	060H
	DB	060H
	DB	0d1H
	DB	060H
	DB	060H
	DB	060H
	DB	0d1H
	DB	060H
	DB	060H
	DB	060H
	DB	0d1H
	DB	060H
	DB	060H
	DB	060H
	DB	0d1H
	DB	060H
	DB	060H
	DB	060H
	DB	0d1H
	DB	060H
	DB	060H
	DB	060H
	DB	0d1H
	DB	060H
	DB	060H
	DB	060H
	DB	0d1H
	DB	060H
	DB	060H
	DB	060H
	DB	0d1H
	DB	060H
	DB	060H
	DB	060H
	DB	0d1H
	DB	060H
	DB	060H
	DB	060H
	DB	0d1H
	DB	060H
	DB	060H
	DB	060H
	DB	0d1H
	DB	060H
	DB	060H
	DB	060H
	DB	0d1H
	DB	060H
	DB	060H
	DB	060H
	DB	0d1H
	DB	060H
	DB	060H
	DB	060H
	DB	0d1H
	DB	060H
	DB	060H
	DB	060H
	DB	0d1H
	DB	060H
	DB	060H
	DB	060H
	DB	0d1H
	DB	060H
	DB	060H
	DB	060H
	DB	0d1H
	DB	060H
	DB	060H
	DB	060H
	DB	0d1H
	DB	060H
	DB	060H
	DB	060H
	DB	0d1H
	DB	060H
	DB	060H
	DB	060H
	DB	0d1H
	DB	060H
	DB	060H
	DB	060H
	DB	0d1H
	DB	060H
	DB	060H
	DB	060H
	DB	0d1H
	DB	060H
	DB	060H
	DB	060H
	DB	0d1H
	DB	0a8H
	DB	08cH
	DB	010H
	DB	0ffH
	DB	0a8H
	DB	08cH
	DB	010H
	DB	0ffH
	DB	0a8H
	DB	08cH
	DB	010H
	DB	0ffH
	DB	0a8H
	DB	08cH
	DB	010H
	DB	0ffH
	DB	060H
	DB	060H
	DB	060H
	DB	0d1H
	DB	060H
	DB	060H
	DB	060H
	DB	0d1H
	DB	060H
	DB	060H
	DB	060H
	DB	0d1H
	DB	060H
	DB	060H
	DB	060H
	DB	0d1H
	DB	060H
	DB	060H
	DB	060H
	DB	0d1H
	DB	060H
	DB	060H
	DB	060H
	DB	0d1H
	DB	060H
	DB	060H
	DB	060H
	DB	0d1H
	DB	060H
	DB	060H
	DB	060H
	DB	0d1H
	DB	060H
	DB	060H
	DB	060H
	DB	0d1H
	DB	060H
	DB	060H
	DB	060H
	DB	0d1H
	DB	060H
	DB	060H
	DB	060H
	DB	0d1H
	DB	060H
	DB	060H
	DB	060H
	DB	0d1H
	DB	060H
	DB	060H
	DB	060H
	DB	0d1H
	DB	060H
	DB	060H
	DB	060H
	DB	0d1H
	DB	060H
	DB	060H
	DB	060H
	DB	0d1H
	DB	060H
	DB	060H
	DB	060H
	DB	0d1H
	DB	060H
	DB	060H
	DB	060H
	DB	0d1H
	DB	060H
	DB	060H
	DB	060H
	DB	0d1H
	DB	060H
	DB	060H
	DB	060H
	DB	0d1H
	DB	060H
	DB	060H
	DB	060H
	DB	0d1H
	DB	060H
	DB	060H
	DB	060H
	DB	0d1H
	DB	060H
	DB	060H
	DB	060H
	DB	0d1H
	DB	060H
	DB	060H
	DB	060H
	DB	0d1H
	DB	060H
	DB	060H
	DB	060H
	DB	0d1H
	DB	060H
	DB	060H
	DB	060H
	DB	0d1H
	DB	060H
	DB	060H
	DB	060H
	DB	0d1H
	DB	060H
	DB	060H
	DB	060H
	DB	0d1H
	DB	060H
	DB	060H
	DB	060H
	DB	0d1H
	DB	060H
	DB	060H
	DB	060H
	DB	0d1H
	DB	060H
	DB	060H
	DB	060H
	DB	0d1H
	DB	060H
	DB	060H
	DB	060H
	DB	0d1H
	DB	060H
	DB	060H
	DB	060H
	DB	0d1H
	DB	060H
	DB	060H
	DB	060H
	DB	0d1H
	DB	060H
	DB	060H
	DB	060H
	DB	0d1H
	DB	060H
	DB	060H
	DB	060H
	DB	0d1H
	DB	060H
	DB	060H
	DB	060H
	DB	0d1H
	DB	060H
	DB	060H
	DB	060H
	DB	0d1H
	DB	060H
	DB	060H
	DB	060H
	DB	0d1H
	DB	060H
	DB	060H
	DB	060H
	DB	0d1H
	DB	060H
	DB	060H
	DB	060H
	DB	0d1H
	DB	060H
	DB	060H
	DB	060H
	DB	0d1H
	DB	060H
	DB	060H
	DB	060H
	DB	0d1H
	DB	060H
	DB	060H
	DB	060H
	DB	0d1H
	DB	060H
	DB	060H
	DB	060H
	DB	0d1H
	DB	060H
	DB	060H
	DB	060H
	DB	0d1H
	DB	060H
	DB	060H
	DB	060H
	DB	0d1H
	DB	060H
	DB	060H
	DB	060H
	DB	0d1H
	DB	060H
	DB	060H
	DB	060H
	DB	0d1H
	DB	060H
	DB	060H
	DB	060H
	DB	0d1H
	DB	060H
	DB	060H
	DB	060H
	DB	0d1H
	DB	060H
	DB	060H
	DB	060H
	DB	0d1H
	DB	060H
	DB	060H
	DB	060H
	DB	0d1H
	DB	060H
	DB	060H
	DB	060H
	DB	0d1H
	DB	060H
	DB	060H
	DB	060H
	DB	0d1H
	DB	060H
	DB	060H
	DB	060H
	DB	0d1H
	DB	060H
	DB	060H
	DB	060H
	DB	0d1H
	DB	060H
	DB	060H
	DB	060H
	DB	0d1H
	DB	060H
	DB	060H
	DB	060H
	DB	0d1H
	DB	060H
	DB	060H
	DB	060H
	DB	0d1H
	DB	060H
	DB	060H
	DB	060H
	DB	0d1H
	DB	060H
	DB	060H
	DB	060H
	DB	0d1H
	DB	060H
	DB	060H
	DB	060H
	DB	0d1H
	DB	060H
	DB	060H
	DB	060H
	DB	0d1H
	DB	060H
	DB	060H
	DB	060H
	DB	0d1H
	DB	060H
	DB	060H
	DB	060H
	DB	0d1H
	DB	060H
	DB	060H
	DB	060H
	DB	0d1H
	DB	060H
	DB	060H
	DB	060H
	DB	0d1H
	DB	060H
	DB	060H
	DB	060H
	DB	0d1H
	DB	060H
	DB	060H
	DB	060H
	DB	0d1H
	DB	060H
	DB	060H
	DB	060H
	DB	0d1H
	DB	060H
	DB	060H
	DB	060H
	DB	0d1H
	DB	060H
	DB	060H
	DB	060H
	DB	0d1H
	DB	060H
	DB	060H
	DB	060H
	DB	0d1H
	DB	060H
	DB	060H
	DB	060H
	DB	0d1H
	DB	060H
	DB	060H
	DB	060H
	DB	0d1H
	DB	060H
	DB	060H
	DB	060H
	DB	0d1H
	DB	060H
	DB	060H
	DB	060H
	DB	0d1H
	DB	060H
	DB	060H
	DB	060H
	DB	0d1H
	DB	060H
	DB	060H
	DB	060H
	DB	0d1H
	DB	060H
	DB	060H
	DB	060H
	DB	0d1H
	DB	060H
	DB	060H
	DB	060H
	DB	0d1H
	DB	060H
	DB	060H
	DB	060H
	DB	0d1H
	DB	060H
	DB	060H
	DB	060H
	DB	0d1H
	DB	060H
	DB	060H
	DB	060H
	DB	0d1H
	DB	060H
	DB	060H
	DB	060H
	DB	0d1H
	DB	060H
	DB	060H
	DB	060H
	DB	0d1H
	DB	060H
	DB	060H
	DB	060H
	DB	0d1H
	DB	060H
	DB	060H
	DB	060H
	DB	0d1H
	DB	060H
	DB	060H
	DB	060H
	DB	0d1H
	DB	060H
	DB	060H
	DB	060H
	DB	0d1H
	DB	060H
	DB	060H
	DB	060H
	DB	0d1H
	DB	060H
	DB	060H
	DB	060H
	DB	0d1H
	DB	060H
	DB	060H
	DB	060H
	DB	0d1H
	DB	060H
	DB	060H
	DB	060H
	DB	0d1H
	DB	060H
	DB	060H
	DB	060H
	DB	0d1H
	DB	060H
	DB	060H
	DB	060H
	DB	0d1H
	DB	060H
	DB	060H
	DB	060H
	DB	0d1H
	DB	060H
	DB	060H
	DB	060H
	DB	0d1H
	DB	060H
	DB	060H
	DB	060H
	DB	0d1H
	DB	060H
	DB	060H
	DB	060H
	DB	0d1H
	DB	060H
	DB	060H
	DB	060H
	DB	0d1H
	DB	060H
	DB	060H
	DB	060H
	DB	0d1H
	DB	060H
	DB	060H
	DB	060H
	DB	0d1H
	DB	060H
	DB	060H
	DB	060H
	DB	0d1H
	DB	060H
	DB	060H
	DB	060H
	DB	0d1H
	DB	060H
	DB	060H
	DB	060H
	DB	0d1H
	DB	060H
	DB	060H
	DB	060H
	DB	0d1H
	DB	060H
	DB	060H
	DB	060H
	DB	0d1H
	DB	060H
	DB	060H
	DB	060H
	DB	0d1H
	DB	060H
	DB	060H
	DB	060H
	DB	0d1H
	DB	060H
	DB	060H
	DB	060H
	DB	0d1H
	DB	060H
	DB	060H
	DB	060H
	DB	0d1H
	DB	060H
	DB	060H
	DB	060H
	DB	0d1H
	DB	060H
	DB	060H
	DB	060H
	DB	0d1H
	DB	060H
	DB	060H
	DB	060H
	DB	0d1H
	DB	060H
	DB	060H
	DB	060H
	DB	0d1H
	DB	060H
	DB	060H
	DB	060H
	DB	0d1H
	DB	060H
	DB	060H
	DB	060H
	DB	0d1H
	DB	060H
	DB	060H
	DB	060H
	DB	0d1H
	DB	060H
	DB	060H
	DB	060H
	DB	0d1H
	DB	060H
	DB	060H
	DB	060H
	DB	0d1H
	DB	060H
	DB	060H
	DB	060H
	DB	0d1H
	DB	0a8H
	DB	08cH
	DB	010H
	DB	0ffH
	DB	0a8H
	DB	08cH
	DB	010H
	DB	0ffH
	DB	0a8H
	DB	08cH
	DB	010H
	DB	0ffH
	DB	0a8H
	DB	08cH
	DB	010H
	DB	0ffH
	DB	060H
	DB	060H
	DB	060H
	DB	0d1H
	DB	060H
	DB	060H
	DB	060H
	DB	0d1H
	DB	060H
	DB	060H
	DB	060H
	DB	0d1H
	DB	060H
	DB	060H
	DB	060H
	DB	0d1H
	DB	060H
	DB	060H
	DB	060H
	DB	0d1H
	DB	060H
	DB	060H
	DB	060H
	DB	0d1H
	DB	060H
	DB	060H
	DB	060H
	DB	0d1H
	DB	060H
	DB	060H
	DB	060H
	DB	0d1H
	DB	060H
	DB	060H
	DB	060H
	DB	0d1H
	DB	060H
	DB	060H
	DB	060H
	DB	0d1H
	DB	060H
	DB	060H
	DB	060H
	DB	0d1H
	DB	060H
	DB	060H
	DB	060H
	DB	0d1H
	DB	060H
	DB	060H
	DB	060H
	DB	0d1H
	DB	060H
	DB	060H
	DB	060H
	DB	0d1H
	DB	060H
	DB	060H
	DB	060H
	DB	0d1H
	DB	060H
	DB	060H
	DB	060H
	DB	0d1H
	DB	060H
	DB	060H
	DB	060H
	DB	0d1H
	DB	060H
	DB	060H
	DB	060H
	DB	0d1H
	DB	060H
	DB	060H
	DB	060H
	DB	0d1H
	DB	060H
	DB	060H
	DB	060H
	DB	0d1H
	DB	060H
	DB	060H
	DB	060H
	DB	0d1H
	DB	060H
	DB	060H
	DB	060H
	DB	0d1H
	DB	060H
	DB	060H
	DB	060H
	DB	0d1H
	DB	060H
	DB	060H
	DB	060H
	DB	0d1H
	DB	060H
	DB	060H
	DB	060H
	DB	0d1H
	DB	060H
	DB	060H
	DB	060H
	DB	0d1H
	DB	060H
	DB	060H
	DB	060H
	DB	0d1H
	DB	060H
	DB	060H
	DB	060H
	DB	0d1H
	DB	060H
	DB	060H
	DB	060H
	DB	0d1H
	DB	060H
	DB	060H
	DB	060H
	DB	0d1H
	DB	060H
	DB	060H
	DB	060H
	DB	0d1H
	DB	060H
	DB	060H
	DB	060H
	DB	0d1H
	DB	060H
	DB	060H
	DB	060H
	DB	0d1H
	DB	060H
	DB	060H
	DB	060H
	DB	0d1H
	DB	060H
	DB	060H
	DB	060H
	DB	0d1H
	DB	060H
	DB	060H
	DB	060H
	DB	0d1H
	DB	060H
	DB	060H
	DB	060H
	DB	0d1H
	DB	060H
	DB	060H
	DB	060H
	DB	0d1H
	DB	060H
	DB	060H
	DB	060H
	DB	0d1H
	DB	060H
	DB	060H
	DB	060H
	DB	0d1H
	DB	060H
	DB	060H
	DB	060H
	DB	0d1H
	DB	060H
	DB	060H
	DB	060H
	DB	0d1H
	DB	060H
	DB	060H
	DB	060H
	DB	0d1H
	DB	060H
	DB	060H
	DB	060H
	DB	0d1H
	DB	060H
	DB	060H
	DB	060H
	DB	0d1H
	DB	060H
	DB	060H
	DB	060H
	DB	0d1H
	DB	060H
	DB	060H
	DB	060H
	DB	0d1H
	DB	060H
	DB	060H
	DB	060H
	DB	0d1H
	DB	060H
	DB	060H
	DB	060H
	DB	0d1H
	DB	060H
	DB	060H
	DB	060H
	DB	0d1H
	DB	060H
	DB	060H
	DB	060H
	DB	0d1H
	DB	060H
	DB	060H
	DB	060H
	DB	0d1H
	DB	060H
	DB	060H
	DB	060H
	DB	0d1H
	DB	060H
	DB	060H
	DB	060H
	DB	0d1H
	DB	060H
	DB	060H
	DB	060H
	DB	0d1H
	DB	060H
	DB	060H
	DB	060H
	DB	0d1H
	DB	060H
	DB	060H
	DB	060H
	DB	0d1H
	DB	060H
	DB	060H
	DB	060H
	DB	0d1H
	DB	060H
	DB	060H
	DB	060H
	DB	0d1H
	DB	060H
	DB	060H
	DB	060H
	DB	0d1H
	DB	060H
	DB	060H
	DB	060H
	DB	0d1H
	DB	060H
	DB	060H
	DB	060H
	DB	0d1H
	DB	060H
	DB	060H
	DB	060H
	DB	0d1H
	DB	060H
	DB	060H
	DB	060H
	DB	0d1H
	DB	060H
	DB	060H
	DB	060H
	DB	0d1H
	DB	060H
	DB	060H
	DB	060H
	DB	0d1H
	DB	060H
	DB	060H
	DB	060H
	DB	0d1H
	DB	060H
	DB	060H
	DB	060H
	DB	0d1H
	DB	060H
	DB	060H
	DB	060H
	DB	0d1H
	DB	060H
	DB	060H
	DB	060H
	DB	0d1H
	DB	060H
	DB	060H
	DB	060H
	DB	0d1H
	DB	060H
	DB	060H
	DB	060H
	DB	0d1H
	DB	060H
	DB	060H
	DB	060H
	DB	0d1H
	DB	060H
	DB	060H
	DB	060H
	DB	0d1H
	DB	060H
	DB	060H
	DB	060H
	DB	0d1H
	DB	060H
	DB	060H
	DB	060H
	DB	0d1H
	DB	060H
	DB	060H
	DB	060H
	DB	0d1H
	DB	060H
	DB	060H
	DB	060H
	DB	0d1H
	DB	060H
	DB	060H
	DB	060H
	DB	0d1H
	DB	060H
	DB	060H
	DB	060H
	DB	0d1H
	DB	060H
	DB	060H
	DB	060H
	DB	0d1H
	DB	060H
	DB	060H
	DB	060H
	DB	0d1H
	DB	060H
	DB	060H
	DB	060H
	DB	0d1H
	DB	060H
	DB	060H
	DB	060H
	DB	0d1H
	DB	060H
	DB	060H
	DB	060H
	DB	0d1H
	DB	060H
	DB	060H
	DB	060H
	DB	0d1H
	DB	060H
	DB	060H
	DB	060H
	DB	0d1H
	DB	060H
	DB	060H
	DB	060H
	DB	0d1H
	DB	060H
	DB	060H
	DB	060H
	DB	0d1H
	DB	060H
	DB	060H
	DB	060H
	DB	0d1H
	DB	060H
	DB	060H
	DB	060H
	DB	0d1H
	DB	060H
	DB	060H
	DB	060H
	DB	0d1H
	DB	060H
	DB	060H
	DB	060H
	DB	0d1H
	DB	060H
	DB	060H
	DB	060H
	DB	0d1H
	DB	060H
	DB	060H
	DB	060H
	DB	0d1H
	DB	060H
	DB	060H
	DB	060H
	DB	0d1H
	DB	060H
	DB	060H
	DB	060H
	DB	0d1H
	DB	060H
	DB	060H
	DB	060H
	DB	0d1H
	DB	060H
	DB	060H
	DB	060H
	DB	0d1H
	DB	060H
	DB	060H
	DB	060H
	DB	0d1H
	DB	060H
	DB	060H
	DB	060H
	DB	0d1H
	DB	060H
	DB	060H
	DB	060H
	DB	0d1H
	DB	060H
	DB	060H
	DB	060H
	DB	0d1H
	DB	060H
	DB	060H
	DB	060H
	DB	0d1H
	DB	060H
	DB	060H
	DB	060H
	DB	0d1H
	DB	060H
	DB	060H
	DB	060H
	DB	0d1H
	DB	060H
	DB	060H
	DB	060H
	DB	0d1H
	DB	060H
	DB	060H
	DB	060H
	DB	0d1H
	DB	060H
	DB	060H
	DB	060H
	DB	0d1H
	DB	060H
	DB	060H
	DB	060H
	DB	0d1H
	DB	060H
	DB	060H
	DB	060H
	DB	0d1H
	DB	060H
	DB	060H
	DB	060H
	DB	0d1H
	DB	060H
	DB	060H
	DB	060H
	DB	0d1H
	DB	060H
	DB	060H
	DB	060H
	DB	0d1H
	DB	060H
	DB	060H
	DB	060H
	DB	0d1H
	DB	060H
	DB	060H
	DB	060H
	DB	0d1H
	DB	060H
	DB	060H
	DB	060H
	DB	0d1H
	DB	060H
	DB	060H
	DB	060H
	DB	0d1H
	DB	060H
	DB	060H
	DB	060H
	DB	0d1H
	DB	060H
	DB	060H
	DB	060H
	DB	0d1H
	DB	060H
	DB	060H
	DB	060H
	DB	0d1H
	DB	060H
	DB	060H
	DB	060H
	DB	0d1H
	DB	0a8H
	DB	08cH
	DB	010H
	DB	0ffH
	DB	0a8H
	DB	08cH
	DB	010H
	DB	0ffH
	DB	0a8H
	DB	08cH
	DB	010H
	DB	0ffH
	DB	0a8H
	DB	08cH
	DB	010H
	DB	0ffH
	DB	060H
	DB	060H
	DB	060H
	DB	0d1H
	DB	060H
	DB	060H
	DB	060H
	DB	0d1H
	DB	060H
	DB	060H
	DB	060H
	DB	0d1H
	DB	060H
	DB	060H
	DB	060H
	DB	0d1H
	DB	060H
	DB	060H
	DB	060H
	DB	0d1H
	DB	060H
	DB	060H
	DB	060H
	DB	0d1H
	DB	060H
	DB	060H
	DB	060H
	DB	0d1H
	DB	060H
	DB	060H
	DB	060H
	DB	0d1H
	DB	060H
	DB	060H
	DB	060H
	DB	0d1H
	DB	060H
	DB	060H
	DB	060H
	DB	0d1H
	DB	060H
	DB	060H
	DB	060H
	DB	0d1H
	DB	060H
	DB	060H
	DB	060H
	DB	0d1H
	DB	060H
	DB	060H
	DB	060H
	DB	0d1H
	DB	060H
	DB	060H
	DB	060H
	DB	0d1H
	DB	060H
	DB	060H
	DB	060H
	DB	0d1H
	DB	060H
	DB	060H
	DB	060H
	DB	0d1H
	DB	060H
	DB	060H
	DB	060H
	DB	0d1H
	DB	060H
	DB	060H
	DB	060H
	DB	0d1H
	DB	060H
	DB	060H
	DB	060H
	DB	0d1H
	DB	060H
	DB	060H
	DB	060H
	DB	0d1H
	DB	060H
	DB	060H
	DB	060H
	DB	0d1H
	DB	060H
	DB	060H
	DB	060H
	DB	0d1H
	DB	060H
	DB	060H
	DB	060H
	DB	0d1H
	DB	060H
	DB	060H
	DB	060H
	DB	0d1H
	DB	060H
	DB	060H
	DB	060H
	DB	0d1H
	DB	060H
	DB	060H
	DB	060H
	DB	0d1H
	DB	060H
	DB	060H
	DB	060H
	DB	0d1H
	DB	060H
	DB	060H
	DB	060H
	DB	0d1H
	DB	060H
	DB	060H
	DB	060H
	DB	0d1H
	DB	060H
	DB	060H
	DB	060H
	DB	0d1H
	DB	060H
	DB	060H
	DB	060H
	DB	0d1H
	DB	060H
	DB	060H
	DB	060H
	DB	0d1H
	DB	060H
	DB	060H
	DB	060H
	DB	0d1H
	DB	060H
	DB	060H
	DB	060H
	DB	0d1H
	DB	060H
	DB	060H
	DB	060H
	DB	0d1H
	DB	060H
	DB	060H
	DB	060H
	DB	0d1H
	DB	060H
	DB	060H
	DB	060H
	DB	0d1H
	DB	060H
	DB	060H
	DB	060H
	DB	0d1H
	DB	060H
	DB	060H
	DB	060H
	DB	0d1H
	DB	060H
	DB	060H
	DB	060H
	DB	0d1H
	DB	060H
	DB	060H
	DB	060H
	DB	0d1H
	DB	060H
	DB	060H
	DB	060H
	DB	0d1H
	DB	060H
	DB	060H
	DB	060H
	DB	0d1H
	DB	060H
	DB	060H
	DB	060H
	DB	0d1H
	DB	060H
	DB	060H
	DB	060H
	DB	0d1H
	DB	060H
	DB	060H
	DB	060H
	DB	0d1H
	DB	060H
	DB	060H
	DB	060H
	DB	0d1H
	DB	060H
	DB	060H
	DB	060H
	DB	0d1H
	DB	060H
	DB	060H
	DB	060H
	DB	0d1H
	DB	060H
	DB	060H
	DB	060H
	DB	0d1H
	DB	060H
	DB	060H
	DB	060H
	DB	0d1H
	DB	060H
	DB	060H
	DB	060H
	DB	0d1H
	DB	060H
	DB	060H
	DB	060H
	DB	0d1H
	DB	060H
	DB	060H
	DB	060H
	DB	0d1H
	DB	060H
	DB	060H
	DB	060H
	DB	0d1H
	DB	060H
	DB	060H
	DB	060H
	DB	0d1H
	DB	060H
	DB	060H
	DB	060H
	DB	0d1H
	DB	060H
	DB	060H
	DB	060H
	DB	0d1H
	DB	060H
	DB	060H
	DB	060H
	DB	0d1H
	DB	060H
	DB	060H
	DB	060H
	DB	0d1H
	DB	060H
	DB	060H
	DB	060H
	DB	0d1H
	DB	060H
	DB	060H
	DB	060H
	DB	0d1H
	DB	060H
	DB	060H
	DB	060H
	DB	0d1H
	DB	060H
	DB	060H
	DB	060H
	DB	0d1H
	DB	060H
	DB	060H
	DB	060H
	DB	0d1H
	DB	060H
	DB	060H
	DB	060H
	DB	0d1H
	DB	060H
	DB	060H
	DB	060H
	DB	0d1H
	DB	060H
	DB	060H
	DB	060H
	DB	0d1H
	DB	060H
	DB	060H
	DB	060H
	DB	0d1H
	DB	060H
	DB	060H
	DB	060H
	DB	0d1H
	DB	060H
	DB	060H
	DB	060H
	DB	0d1H
	DB	060H
	DB	060H
	DB	060H
	DB	0d1H
	DB	060H
	DB	060H
	DB	060H
	DB	0d1H
	DB	060H
	DB	060H
	DB	060H
	DB	0d1H
	DB	060H
	DB	060H
	DB	060H
	DB	0d1H
	DB	060H
	DB	060H
	DB	060H
	DB	0d1H
	DB	060H
	DB	060H
	DB	060H
	DB	0d1H
	DB	060H
	DB	060H
	DB	060H
	DB	0d1H
	DB	060H
	DB	060H
	DB	060H
	DB	0d1H
	DB	060H
	DB	060H
	DB	060H
	DB	0d1H
	DB	060H
	DB	060H
	DB	060H
	DB	0d1H
	DB	060H
	DB	060H
	DB	060H
	DB	0d1H
	DB	060H
	DB	060H
	DB	060H
	DB	0d1H
	DB	060H
	DB	060H
	DB	060H
	DB	0d1H
	DB	060H
	DB	060H
	DB	060H
	DB	0d1H
	DB	060H
	DB	060H
	DB	060H
	DB	0d1H
	DB	060H
	DB	060H
	DB	060H
	DB	0d1H
	DB	060H
	DB	060H
	DB	060H
	DB	0d1H
	DB	060H
	DB	060H
	DB	060H
	DB	0d1H
	DB	060H
	DB	060H
	DB	060H
	DB	0d1H
	DB	060H
	DB	060H
	DB	060H
	DB	0d1H
	DB	060H
	DB	060H
	DB	060H
	DB	0d1H
	DB	060H
	DB	060H
	DB	060H
	DB	0d1H
	DB	060H
	DB	060H
	DB	060H
	DB	0d1H
	DB	060H
	DB	060H
	DB	060H
	DB	0d1H
	DB	060H
	DB	060H
	DB	060H
	DB	0d1H
	DB	060H
	DB	060H
	DB	060H
	DB	0d1H
	DB	060H
	DB	060H
	DB	060H
	DB	0d1H
	DB	060H
	DB	060H
	DB	060H
	DB	0d1H
	DB	060H
	DB	060H
	DB	060H
	DB	0d1H
	DB	060H
	DB	060H
	DB	060H
	DB	0d1H
	DB	060H
	DB	060H
	DB	060H
	DB	0d1H
	DB	060H
	DB	060H
	DB	060H
	DB	0d1H
	DB	060H
	DB	060H
	DB	060H
	DB	0d1H
	DB	060H
	DB	060H
	DB	060H
	DB	0d1H
	DB	060H
	DB	060H
	DB	060H
	DB	0d1H
	DB	060H
	DB	060H
	DB	060H
	DB	0d1H
	DB	060H
	DB	060H
	DB	060H
	DB	0d1H
	DB	060H
	DB	060H
	DB	060H
	DB	0d1H
	DB	060H
	DB	060H
	DB	060H
	DB	0d1H
	DB	060H
	DB	060H
	DB	060H
	DB	0d1H
	DB	060H
	DB	060H
	DB	060H
	DB	0d1H
	DB	060H
	DB	060H
	DB	060H
	DB	0d1H
	DB	060H
	DB	060H
	DB	060H
	DB	0d1H
	DB	060H
	DB	060H
	DB	060H
	DB	0d1H
	DB	060H
	DB	060H
	DB	060H
	DB	0d1H
	DB	060H
	DB	060H
	DB	060H
	DB	0d1H
	DB	060H
	DB	060H
	DB	060H
	DB	0d1H
	DB	060H
	DB	060H
	DB	060H
	DB	0d1H
	DB	060H
	DB	060H
	DB	060H
	DB	0d1H
	DB	060H
	DB	060H
	DB	060H
	DB	0d1H
	DB	060H
	DB	060H
	DB	060H
	DB	0d1H
	DB	0a8H
	DB	08cH
	DB	010H
	DB	0ffH
	DB	0a8H
	DB	08cH
	DB	010H
	DB	0ffH
	DB	0a8H
	DB	08cH
	DB	010H
	DB	0ffH
	DB	0a8H
	DB	08cH
	DB	010H
	DB	0ffH
	DB	060H
	DB	060H
	DB	060H
	DB	0d1H
	DB	060H
	DB	060H
	DB	060H
	DB	0d1H
	DB	060H
	DB	060H
	DB	060H
	DB	0d1H
	DB	060H
	DB	060H
	DB	060H
	DB	0d1H
	DB	060H
	DB	060H
	DB	060H
	DB	0d1H
	DB	060H
	DB	060H
	DB	060H
	DB	0d1H
	DB	060H
	DB	060H
	DB	060H
	DB	0d1H
	DB	060H
	DB	060H
	DB	060H
	DB	0d1H
	DB	060H
	DB	060H
	DB	060H
	DB	0d1H
	DB	060H
	DB	060H
	DB	060H
	DB	0d1H
	DB	060H
	DB	060H
	DB	060H
	DB	0d1H
	DB	060H
	DB	060H
	DB	060H
	DB	0d1H
	DB	060H
	DB	060H
	DB	060H
	DB	0d1H
	DB	060H
	DB	060H
	DB	060H
	DB	0d1H
	DB	060H
	DB	060H
	DB	060H
	DB	0d1H
	DB	060H
	DB	060H
	DB	060H
	DB	0d1H
	DB	060H
	DB	060H
	DB	060H
	DB	0d1H
	DB	060H
	DB	060H
	DB	060H
	DB	0d1H
	DB	060H
	DB	060H
	DB	060H
	DB	0d1H
	DB	060H
	DB	060H
	DB	060H
	DB	0d1H
	DB	060H
	DB	060H
	DB	060H
	DB	0d1H
	DB	060H
	DB	060H
	DB	060H
	DB	0d1H
	DB	060H
	DB	060H
	DB	060H
	DB	0d1H
	DB	060H
	DB	060H
	DB	060H
	DB	0d1H
	DB	060H
	DB	060H
	DB	060H
	DB	0d1H
	DB	060H
	DB	060H
	DB	060H
	DB	0d1H
	DB	060H
	DB	060H
	DB	060H
	DB	0d1H
	DB	060H
	DB	060H
	DB	060H
	DB	0d1H
	DB	060H
	DB	060H
	DB	060H
	DB	0d1H
	DB	060H
	DB	060H
	DB	060H
	DB	0d1H
	DB	060H
	DB	060H
	DB	060H
	DB	0d1H
	DB	060H
	DB	060H
	DB	060H
	DB	0d1H
	DB	060H
	DB	060H
	DB	060H
	DB	0d1H
	DB	060H
	DB	060H
	DB	060H
	DB	0d1H
	DB	060H
	DB	060H
	DB	060H
	DB	0d1H
	DB	060H
	DB	060H
	DB	060H
	DB	0d1H
	DB	060H
	DB	060H
	DB	060H
	DB	0d1H
	DB	060H
	DB	060H
	DB	060H
	DB	0d1H
	DB	060H
	DB	060H
	DB	060H
	DB	0d1H
	DB	060H
	DB	060H
	DB	060H
	DB	0d1H
	DB	060H
	DB	060H
	DB	060H
	DB	0d1H
	DB	060H
	DB	060H
	DB	060H
	DB	0d1H
	DB	060H
	DB	060H
	DB	060H
	DB	0d1H
	DB	060H
	DB	060H
	DB	060H
	DB	0d1H
	DB	060H
	DB	060H
	DB	060H
	DB	0d1H
	DB	060H
	DB	060H
	DB	060H
	DB	0d1H
	DB	060H
	DB	060H
	DB	060H
	DB	0d1H
	DB	060H
	DB	060H
	DB	060H
	DB	0d1H
	DB	060H
	DB	060H
	DB	060H
	DB	0d1H
	DB	060H
	DB	060H
	DB	060H
	DB	0d1H
	DB	060H
	DB	060H
	DB	060H
	DB	0d1H
	DB	060H
	DB	060H
	DB	060H
	DB	0d1H
	DB	060H
	DB	060H
	DB	060H
	DB	0d1H
	DB	060H
	DB	060H
	DB	060H
	DB	0d1H
	DB	060H
	DB	060H
	DB	060H
	DB	0d1H
	DB	060H
	DB	060H
	DB	060H
	DB	0d1H
	DB	060H
	DB	060H
	DB	060H
	DB	0d1H
	DB	060H
	DB	060H
	DB	060H
	DB	0d1H
	DB	060H
	DB	060H
	DB	060H
	DB	0d1H
	DB	060H
	DB	060H
	DB	060H
	DB	0d1H
	DB	060H
	DB	060H
	DB	060H
	DB	0d1H
	DB	060H
	DB	060H
	DB	060H
	DB	0d1H
	DB	060H
	DB	060H
	DB	060H
	DB	0d1H
	DB	060H
	DB	060H
	DB	060H
	DB	0d1H
	DB	060H
	DB	060H
	DB	060H
	DB	0d1H
	DB	060H
	DB	060H
	DB	060H
	DB	0d1H
	DB	060H
	DB	060H
	DB	060H
	DB	0d1H
	DB	060H
	DB	060H
	DB	060H
	DB	0d1H
	DB	060H
	DB	060H
	DB	060H
	DB	0d1H
	DB	060H
	DB	060H
	DB	060H
	DB	0d1H
	DB	060H
	DB	060H
	DB	060H
	DB	0d1H
	DB	060H
	DB	060H
	DB	060H
	DB	0d1H
	DB	060H
	DB	060H
	DB	060H
	DB	0d1H
	DB	060H
	DB	060H
	DB	060H
	DB	0d1H
	DB	060H
	DB	060H
	DB	060H
	DB	0d1H
	DB	060H
	DB	060H
	DB	060H
	DB	0d1H
	DB	060H
	DB	060H
	DB	060H
	DB	0d1H
	DB	060H
	DB	060H
	DB	060H
	DB	0d1H
	DB	060H
	DB	060H
	DB	060H
	DB	0d1H
	DB	060H
	DB	060H
	DB	060H
	DB	0d1H
	DB	060H
	DB	060H
	DB	060H
	DB	0d1H
	DB	060H
	DB	060H
	DB	060H
	DB	0d1H
	DB	060H
	DB	060H
	DB	060H
	DB	0d1H
	DB	060H
	DB	060H
	DB	060H
	DB	0d1H
	DB	060H
	DB	060H
	DB	060H
	DB	0d1H
	DB	060H
	DB	060H
	DB	060H
	DB	0d1H
	DB	060H
	DB	060H
	DB	060H
	DB	0d1H
	DB	060H
	DB	060H
	DB	060H
	DB	0d1H
	DB	060H
	DB	060H
	DB	060H
	DB	0d1H
	DB	060H
	DB	060H
	DB	060H
	DB	0d1H
	DB	060H
	DB	060H
	DB	060H
	DB	0d1H
	DB	060H
	DB	060H
	DB	060H
	DB	0d1H
	DB	060H
	DB	060H
	DB	060H
	DB	0d1H
	DB	060H
	DB	060H
	DB	060H
	DB	0d1H
	DB	060H
	DB	060H
	DB	060H
	DB	0d1H
	DB	060H
	DB	060H
	DB	060H
	DB	0d1H
	DB	060H
	DB	060H
	DB	060H
	DB	0d1H
	DB	060H
	DB	060H
	DB	060H
	DB	0d1H
	DB	060H
	DB	060H
	DB	060H
	DB	0d1H
	DB	060H
	DB	060H
	DB	060H
	DB	0d1H
	DB	060H
	DB	060H
	DB	060H
	DB	0d1H
	DB	060H
	DB	060H
	DB	060H
	DB	0d1H
	DB	060H
	DB	060H
	DB	060H
	DB	0d1H
	DB	060H
	DB	060H
	DB	060H
	DB	0d1H
	DB	060H
	DB	060H
	DB	060H
	DB	0d1H
	DB	060H
	DB	060H
	DB	060H
	DB	0d1H
	DB	060H
	DB	060H
	DB	060H
	DB	0d1H
	DB	060H
	DB	060H
	DB	060H
	DB	0d1H
	DB	060H
	DB	060H
	DB	060H
	DB	0d1H
	DB	060H
	DB	060H
	DB	060H
	DB	0d1H
	DB	060H
	DB	060H
	DB	060H
	DB	0d1H
	DB	060H
	DB	060H
	DB	060H
	DB	0d1H
	DB	060H
	DB	060H
	DB	060H
	DB	0d1H
	DB	060H
	DB	060H
	DB	060H
	DB	0d1H
	DB	060H
	DB	060H
	DB	060H
	DB	0d1H
	DB	060H
	DB	060H
	DB	060H
	DB	0d1H
	DB	060H
	DB	060H
	DB	060H
	DB	0d1H
	DB	060H
	DB	060H
	DB	060H
	DB	0d1H
	DB	060H
	DB	060H
	DB	060H
	DB	0d1H
	DB	060H
	DB	060H
	DB	060H
	DB	0d1H
	DB	060H
	DB	060H
	DB	060H
	DB	0d1H
	DB	060H
	DB	060H
	DB	060H
	DB	0d1H
	DB	0a8H
	DB	08cH
	DB	010H
	DB	0ffH
	DB	0a8H
	DB	08cH
	DB	010H
	DB	0ffH
	DB	0a8H
	DB	08cH
	DB	010H
	DB	0ffH
	DB	0a8H
	DB	08cH
	DB	010H
	DB	0ffH
	DB	060H
	DB	060H
	DB	060H
	DB	0d1H
	DB	060H
	DB	060H
	DB	060H
	DB	0d1H
	DB	060H
	DB	060H
	DB	060H
	DB	0d1H
	DB	060H
	DB	060H
	DB	060H
	DB	0d1H
	DB	060H
	DB	060H
	DB	060H
	DB	0d1H
	DB	060H
	DB	060H
	DB	060H
	DB	0d1H
	DB	060H
	DB	060H
	DB	060H
	DB	0d1H
	DB	060H
	DB	060H
	DB	060H
	DB	0d1H
	DB	060H
	DB	060H
	DB	060H
	DB	0d1H
	DB	060H
	DB	060H
	DB	060H
	DB	0d1H
	DB	060H
	DB	060H
	DB	060H
	DB	0d1H
	DB	060H
	DB	060H
	DB	060H
	DB	0d1H
	DB	060H
	DB	060H
	DB	060H
	DB	0d1H
	DB	060H
	DB	060H
	DB	060H
	DB	0d1H
	DB	060H
	DB	060H
	DB	060H
	DB	0d1H
	DB	060H
	DB	060H
	DB	060H
	DB	0d1H
	DB	060H
	DB	060H
	DB	060H
	DB	0d1H
	DB	060H
	DB	060H
	DB	060H
	DB	0d1H
	DB	060H
	DB	060H
	DB	060H
	DB	0d1H
	DB	060H
	DB	060H
	DB	060H
	DB	0d1H
	DB	060H
	DB	060H
	DB	060H
	DB	0d1H
	DB	060H
	DB	060H
	DB	060H
	DB	0d1H
	DB	060H
	DB	060H
	DB	060H
	DB	0d1H
	DB	060H
	DB	060H
	DB	060H
	DB	0d1H
	DB	060H
	DB	060H
	DB	060H
	DB	0d1H
	DB	060H
	DB	060H
	DB	060H
	DB	0d1H
	DB	060H
	DB	060H
	DB	060H
	DB	0d1H
	DB	060H
	DB	060H
	DB	060H
	DB	0d1H
	DB	060H
	DB	060H
	DB	060H
	DB	0d1H
	DB	060H
	DB	060H
	DB	060H
	DB	0d1H
	DB	060H
	DB	060H
	DB	060H
	DB	0d1H
	DB	060H
	DB	060H
	DB	060H
	DB	0d1H
	DB	060H
	DB	060H
	DB	060H
	DB	0d1H
	DB	060H
	DB	060H
	DB	060H
	DB	0d1H
	DB	060H
	DB	060H
	DB	060H
	DB	0d1H
	DB	060H
	DB	060H
	DB	060H
	DB	0d1H
	DB	060H
	DB	060H
	DB	060H
	DB	0d1H
	DB	060H
	DB	060H
	DB	060H
	DB	0d1H
	DB	060H
	DB	060H
	DB	060H
	DB	0d1H
	DB	060H
	DB	060H
	DB	060H
	DB	0d1H
	DB	060H
	DB	060H
	DB	060H
	DB	0d1H
	DB	060H
	DB	060H
	DB	060H
	DB	0d1H
	DB	060H
	DB	060H
	DB	060H
	DB	0d1H
	DB	060H
	DB	060H
	DB	060H
	DB	0d1H
	DB	060H
	DB	060H
	DB	060H
	DB	0d1H
	DB	060H
	DB	060H
	DB	060H
	DB	0d1H
	DB	060H
	DB	060H
	DB	060H
	DB	0d1H
	DB	060H
	DB	060H
	DB	060H
	DB	0d1H
	DB	060H
	DB	060H
	DB	060H
	DB	0d1H
	DB	060H
	DB	060H
	DB	060H
	DB	0d1H
	DB	060H
	DB	060H
	DB	060H
	DB	0d1H
	DB	060H
	DB	060H
	DB	060H
	DB	0d1H
	DB	060H
	DB	060H
	DB	060H
	DB	0d1H
	DB	060H
	DB	060H
	DB	060H
	DB	0d1H
	DB	060H
	DB	060H
	DB	060H
	DB	0d1H
	DB	060H
	DB	060H
	DB	060H
	DB	0d1H
	DB	060H
	DB	060H
	DB	060H
	DB	0d1H
	DB	060H
	DB	060H
	DB	060H
	DB	0d1H
	DB	060H
	DB	060H
	DB	060H
	DB	0d1H
	DB	060H
	DB	060H
	DB	060H
	DB	0d1H
	DB	060H
	DB	060H
	DB	060H
	DB	0d1H
	DB	060H
	DB	060H
	DB	060H
	DB	0d1H
	DB	060H
	DB	060H
	DB	060H
	DB	0d1H
	DB	060H
	DB	060H
	DB	060H
	DB	0d1H
	DB	060H
	DB	060H
	DB	060H
	DB	0d1H
	DB	060H
	DB	060H
	DB	060H
	DB	0d1H
	DB	060H
	DB	060H
	DB	060H
	DB	0d1H
	DB	060H
	DB	060H
	DB	060H
	DB	0d1H
	DB	060H
	DB	060H
	DB	060H
	DB	0d1H
	DB	060H
	DB	060H
	DB	060H
	DB	0d1H
	DB	060H
	DB	060H
	DB	060H
	DB	0d1H
	DB	060H
	DB	060H
	DB	060H
	DB	0d1H
	DB	060H
	DB	060H
	DB	060H
	DB	0d1H
	DB	060H
	DB	060H
	DB	060H
	DB	0d1H
	DB	060H
	DB	060H
	DB	060H
	DB	0d1H
	DB	060H
	DB	060H
	DB	060H
	DB	0d1H
	DB	060H
	DB	060H
	DB	060H
	DB	0d1H
	DB	060H
	DB	060H
	DB	060H
	DB	0d1H
	DB	060H
	DB	060H
	DB	060H
	DB	0d1H
	DB	060H
	DB	060H
	DB	060H
	DB	0d1H
	DB	060H
	DB	060H
	DB	060H
	DB	0d1H
	DB	060H
	DB	060H
	DB	060H
	DB	0d1H
	DB	060H
	DB	060H
	DB	060H
	DB	0d1H
	DB	060H
	DB	060H
	DB	060H
	DB	0d1H
	DB	060H
	DB	060H
	DB	060H
	DB	0d1H
	DB	060H
	DB	060H
	DB	060H
	DB	0d1H
	DB	060H
	DB	060H
	DB	060H
	DB	0d1H
	DB	060H
	DB	060H
	DB	060H
	DB	0d1H
	DB	060H
	DB	060H
	DB	060H
	DB	0d1H
	DB	060H
	DB	060H
	DB	060H
	DB	0d1H
	DB	060H
	DB	060H
	DB	060H
	DB	0d1H
	DB	060H
	DB	060H
	DB	060H
	DB	0d1H
	DB	060H
	DB	060H
	DB	060H
	DB	0d1H
	DB	060H
	DB	060H
	DB	060H
	DB	0d1H
	DB	060H
	DB	060H
	DB	060H
	DB	0d1H
	DB	060H
	DB	060H
	DB	060H
	DB	0d1H
	DB	060H
	DB	060H
	DB	060H
	DB	0d1H
	DB	060H
	DB	060H
	DB	060H
	DB	0d1H
	DB	060H
	DB	060H
	DB	060H
	DB	0d1H
	DB	060H
	DB	060H
	DB	060H
	DB	0d1H
	DB	060H
	DB	060H
	DB	060H
	DB	0d1H
	DB	060H
	DB	060H
	DB	060H
	DB	0d1H
	DB	060H
	DB	060H
	DB	060H
	DB	0d1H
	DB	060H
	DB	060H
	DB	060H
	DB	0d1H
	DB	060H
	DB	060H
	DB	060H
	DB	0d1H
	DB	060H
	DB	060H
	DB	060H
	DB	0d1H
	DB	060H
	DB	060H
	DB	060H
	DB	0d1H
	DB	060H
	DB	060H
	DB	060H
	DB	0d1H
	DB	060H
	DB	060H
	DB	060H
	DB	0d1H
	DB	060H
	DB	060H
	DB	060H
	DB	0d1H
	DB	060H
	DB	060H
	DB	060H
	DB	0d1H
	DB	060H
	DB	060H
	DB	060H
	DB	0d1H
	DB	060H
	DB	060H
	DB	060H
	DB	0d1H
	DB	060H
	DB	060H
	DB	060H
	DB	0d1H
	DB	060H
	DB	060H
	DB	060H
	DB	0d1H
	DB	060H
	DB	060H
	DB	060H
	DB	0d1H
	DB	060H
	DB	060H
	DB	060H
	DB	0d1H
	DB	060H
	DB	060H
	DB	060H
	DB	0d1H
	DB	060H
	DB	060H
	DB	060H
	DB	0d1H
	DB	060H
	DB	060H
	DB	060H
	DB	0d1H
	DB	060H
	DB	060H
	DB	060H
	DB	0d1H
	DB	060H
	DB	060H
	DB	060H
	DB	0d1H
	DB	0a8H
	DB	08cH
	DB	010H
	DB	0ffH
	DB	0a8H
	DB	08cH
	DB	010H
	DB	0ffH
	DB	0a8H
	DB	08cH
	DB	010H
	DB	0ffH
	DB	0a8H
	DB	08cH
	DB	010H
	DB	0ffH
	DB	060H
	DB	060H
	DB	060H
	DB	0d1H
	DB	060H
	DB	060H
	DB	060H
	DB	0d1H
	DB	060H
	DB	060H
	DB	060H
	DB	0d1H
	DB	060H
	DB	060H
	DB	060H
	DB	0d1H
	DB	060H
	DB	060H
	DB	060H
	DB	0d1H
	DB	060H
	DB	060H
	DB	060H
	DB	0d1H
	DB	060H
	DB	060H
	DB	060H
	DB	0d1H
	DB	060H
	DB	060H
	DB	060H
	DB	0d1H
	DB	060H
	DB	060H
	DB	060H
	DB	0d1H
	DB	060H
	DB	060H
	DB	060H
	DB	0d1H
	DB	060H
	DB	060H
	DB	060H
	DB	0d1H
	DB	060H
	DB	060H
	DB	060H
	DB	0d1H
	DB	060H
	DB	060H
	DB	060H
	DB	0d1H
	DB	060H
	DB	060H
	DB	060H
	DB	0d1H
	DB	060H
	DB	060H
	DB	060H
	DB	0d1H
	DB	060H
	DB	060H
	DB	060H
	DB	0d1H
	DB	060H
	DB	060H
	DB	060H
	DB	0d1H
	DB	060H
	DB	060H
	DB	060H
	DB	0d1H
	DB	060H
	DB	060H
	DB	060H
	DB	0d1H
	DB	060H
	DB	060H
	DB	060H
	DB	0d1H
	DB	060H
	DB	060H
	DB	060H
	DB	0d1H
	DB	060H
	DB	060H
	DB	060H
	DB	0d1H
	DB	060H
	DB	060H
	DB	060H
	DB	0d1H
	DB	060H
	DB	060H
	DB	060H
	DB	0d1H
	DB	060H
	DB	060H
	DB	060H
	DB	0d1H
	DB	060H
	DB	060H
	DB	060H
	DB	0d1H
	DB	060H
	DB	060H
	DB	060H
	DB	0d1H
	DB	060H
	DB	060H
	DB	060H
	DB	0d1H
	DB	060H
	DB	060H
	DB	060H
	DB	0d1H
	DB	060H
	DB	060H
	DB	060H
	DB	0d1H
	DB	060H
	DB	060H
	DB	060H
	DB	0d1H
	DB	060H
	DB	060H
	DB	060H
	DB	0d1H
	DB	060H
	DB	060H
	DB	060H
	DB	0d1H
	DB	060H
	DB	060H
	DB	060H
	DB	0d1H
	DB	060H
	DB	060H
	DB	060H
	DB	0d1H
	DB	060H
	DB	060H
	DB	060H
	DB	0d1H
	DB	060H
	DB	060H
	DB	060H
	DB	0d1H
	DB	060H
	DB	060H
	DB	060H
	DB	0d1H
	DB	060H
	DB	060H
	DB	060H
	DB	0d1H
	DB	060H
	DB	060H
	DB	060H
	DB	0d1H
	DB	060H
	DB	060H
	DB	060H
	DB	0d1H
	DB	060H
	DB	060H
	DB	060H
	DB	0d1H
	DB	060H
	DB	060H
	DB	060H
	DB	0d1H
	DB	060H
	DB	060H
	DB	060H
	DB	0d1H
	DB	060H
	DB	060H
	DB	060H
	DB	0d1H
	DB	060H
	DB	060H
	DB	060H
	DB	0d1H
	DB	060H
	DB	060H
	DB	060H
	DB	0d1H
	DB	060H
	DB	060H
	DB	060H
	DB	0d1H
	DB	060H
	DB	060H
	DB	060H
	DB	0d1H
	DB	060H
	DB	060H
	DB	060H
	DB	0d1H
	DB	060H
	DB	060H
	DB	060H
	DB	0d1H
	DB	060H
	DB	060H
	DB	060H
	DB	0d1H
	DB	060H
	DB	060H
	DB	060H
	DB	0d1H
	DB	060H
	DB	060H
	DB	060H
	DB	0d1H
	DB	060H
	DB	060H
	DB	060H
	DB	0d1H
	DB	060H
	DB	060H
	DB	060H
	DB	0d1H
	DB	060H
	DB	060H
	DB	060H
	DB	0d1H
	DB	060H
	DB	060H
	DB	060H
	DB	0d1H
	DB	060H
	DB	060H
	DB	060H
	DB	0d1H
	DB	060H
	DB	060H
	DB	060H
	DB	0d1H
	DB	060H
	DB	060H
	DB	060H
	DB	0d1H
	DB	060H
	DB	060H
	DB	060H
	DB	0d1H
	DB	060H
	DB	060H
	DB	060H
	DB	0d1H
	DB	060H
	DB	060H
	DB	060H
	DB	0d1H
	DB	060H
	DB	060H
	DB	060H
	DB	0d1H
	DB	060H
	DB	060H
	DB	060H
	DB	0d1H
	DB	060H
	DB	060H
	DB	060H
	DB	0d1H
	DB	060H
	DB	060H
	DB	060H
	DB	0d1H
	DB	060H
	DB	060H
	DB	060H
	DB	0d1H
	DB	060H
	DB	060H
	DB	060H
	DB	0d1H
	DB	060H
	DB	060H
	DB	060H
	DB	0d1H
	DB	060H
	DB	060H
	DB	060H
	DB	0d1H
	DB	060H
	DB	060H
	DB	060H
	DB	0d1H
	DB	060H
	DB	060H
	DB	060H
	DB	0d1H
	DB	060H
	DB	060H
	DB	060H
	DB	0d1H
	DB	060H
	DB	060H
	DB	060H
	DB	0d1H
	DB	060H
	DB	060H
	DB	060H
	DB	0d1H
	DB	060H
	DB	060H
	DB	060H
	DB	0d1H
	DB	060H
	DB	060H
	DB	060H
	DB	0d1H
	DB	060H
	DB	060H
	DB	060H
	DB	0d1H
	DB	060H
	DB	060H
	DB	060H
	DB	0d1H
	DB	060H
	DB	060H
	DB	060H
	DB	0d1H
	DB	060H
	DB	060H
	DB	060H
	DB	0d1H
	DB	060H
	DB	060H
	DB	060H
	DB	0d1H
	DB	060H
	DB	060H
	DB	060H
	DB	0d1H
	DB	060H
	DB	060H
	DB	060H
	DB	0d1H
	DB	060H
	DB	060H
	DB	060H
	DB	0d1H
	DB	060H
	DB	060H
	DB	060H
	DB	0d1H
	DB	060H
	DB	060H
	DB	060H
	DB	0d1H
	DB	060H
	DB	060H
	DB	060H
	DB	0d1H
	DB	060H
	DB	060H
	DB	060H
	DB	0d1H
	DB	060H
	DB	060H
	DB	060H
	DB	0d1H
	DB	060H
	DB	060H
	DB	060H
	DB	0d1H
	DB	060H
	DB	060H
	DB	060H
	DB	0d1H
	DB	060H
	DB	060H
	DB	060H
	DB	0d1H
	DB	060H
	DB	060H
	DB	060H
	DB	0d1H
	DB	060H
	DB	060H
	DB	060H
	DB	0d1H
	DB	060H
	DB	060H
	DB	060H
	DB	0d1H
	DB	060H
	DB	060H
	DB	060H
	DB	0d1H
	DB	060H
	DB	060H
	DB	060H
	DB	0d1H
	DB	060H
	DB	060H
	DB	060H
	DB	0d1H
	DB	060H
	DB	060H
	DB	060H
	DB	0d1H
	DB	060H
	DB	060H
	DB	060H
	DB	0d1H
	DB	060H
	DB	060H
	DB	060H
	DB	0d1H
	DB	060H
	DB	060H
	DB	060H
	DB	0d1H
	DB	060H
	DB	060H
	DB	060H
	DB	0d1H
	DB	060H
	DB	060H
	DB	060H
	DB	0d1H
	DB	060H
	DB	060H
	DB	060H
	DB	0d1H
	DB	060H
	DB	060H
	DB	060H
	DB	0d1H
	DB	060H
	DB	060H
	DB	060H
	DB	0d1H
	DB	060H
	DB	060H
	DB	060H
	DB	0d1H
	DB	060H
	DB	060H
	DB	060H
	DB	0d1H
	DB	060H
	DB	060H
	DB	060H
	DB	0d1H
	DB	060H
	DB	060H
	DB	060H
	DB	0d1H
	DB	060H
	DB	060H
	DB	060H
	DB	0d1H
	DB	060H
	DB	060H
	DB	060H
	DB	0d1H
	DB	060H
	DB	060H
	DB	060H
	DB	0d1H
	DB	060H
	DB	060H
	DB	060H
	DB	0d1H
	DB	060H
	DB	060H
	DB	060H
	DB	0d1H
	DB	060H
	DB	060H
	DB	060H
	DB	0d1H
	DB	060H
	DB	060H
	DB	060H
	DB	0d1H
	DB	060H
	DB	060H
	DB	060H
	DB	0d1H
	DB	0a8H
	DB	08cH
	DB	010H
	DB	0ffH
	DB	0a8H
	DB	08cH
	DB	010H
	DB	0ffH
	DB	0a8H
	DB	08cH
	DB	010H
	DB	0ffH
	DB	0a8H
	DB	08cH
	DB	010H
	DB	0ffH
	DB	060H
	DB	060H
	DB	060H
	DB	0d1H
	DB	060H
	DB	060H
	DB	060H
	DB	0d1H
	DB	060H
	DB	060H
	DB	060H
	DB	0d1H
	DB	060H
	DB	060H
	DB	060H
	DB	0d1H
	DB	060H
	DB	060H
	DB	060H
	DB	0d1H
	DB	060H
	DB	060H
	DB	060H
	DB	0d1H
	DB	060H
	DB	060H
	DB	060H
	DB	0d1H
	DB	060H
	DB	060H
	DB	060H
	DB	0d1H
	DB	060H
	DB	060H
	DB	060H
	DB	0d1H
	DB	060H
	DB	060H
	DB	060H
	DB	0d1H
	DB	060H
	DB	060H
	DB	060H
	DB	0d1H
	DB	060H
	DB	060H
	DB	060H
	DB	0d1H
	DB	060H
	DB	060H
	DB	060H
	DB	0d1H
	DB	060H
	DB	060H
	DB	060H
	DB	0d1H
	DB	060H
	DB	060H
	DB	060H
	DB	0d1H
	DB	060H
	DB	060H
	DB	060H
	DB	0d1H
	DB	060H
	DB	060H
	DB	060H
	DB	0d1H
	DB	060H
	DB	060H
	DB	060H
	DB	0d1H
	DB	060H
	DB	060H
	DB	060H
	DB	0d1H
	DB	060H
	DB	060H
	DB	060H
	DB	0d1H
	DB	060H
	DB	060H
	DB	060H
	DB	0d1H
	DB	060H
	DB	060H
	DB	060H
	DB	0d1H
	DB	060H
	DB	060H
	DB	060H
	DB	0d1H
	DB	060H
	DB	060H
	DB	060H
	DB	0d1H
	DB	060H
	DB	060H
	DB	060H
	DB	0d1H
	DB	060H
	DB	060H
	DB	060H
	DB	0d1H
	DB	060H
	DB	060H
	DB	060H
	DB	0d1H
	DB	060H
	DB	060H
	DB	060H
	DB	0d1H
	DB	060H
	DB	060H
	DB	060H
	DB	0d1H
	DB	060H
	DB	060H
	DB	060H
	DB	0d1H
	DB	060H
	DB	060H
	DB	060H
	DB	0d1H
	DB	060H
	DB	060H
	DB	060H
	DB	0d1H
	DB	060H
	DB	060H
	DB	060H
	DB	0d1H
	DB	060H
	DB	060H
	DB	060H
	DB	0d1H
	DB	060H
	DB	060H
	DB	060H
	DB	0d1H
	DB	060H
	DB	060H
	DB	060H
	DB	0d1H
	DB	060H
	DB	060H
	DB	060H
	DB	0d1H
	DB	060H
	DB	060H
	DB	060H
	DB	0d1H
	DB	060H
	DB	060H
	DB	060H
	DB	0d1H
	DB	060H
	DB	060H
	DB	060H
	DB	0d1H
	DB	060H
	DB	060H
	DB	060H
	DB	0d1H
	DB	060H
	DB	060H
	DB	060H
	DB	0d1H
	DB	060H
	DB	060H
	DB	060H
	DB	0d1H
	DB	060H
	DB	060H
	DB	060H
	DB	0d1H
	DB	060H
	DB	060H
	DB	060H
	DB	0d1H
	DB	060H
	DB	060H
	DB	060H
	DB	0d1H
	DB	060H
	DB	060H
	DB	060H
	DB	0d1H
	DB	060H
	DB	060H
	DB	060H
	DB	0d1H
	DB	060H
	DB	060H
	DB	060H
	DB	0d1H
	DB	060H
	DB	060H
	DB	060H
	DB	0d1H
	DB	060H
	DB	060H
	DB	060H
	DB	0d1H
	DB	060H
	DB	060H
	DB	060H
	DB	0d1H
	DB	060H
	DB	060H
	DB	060H
	DB	0d1H
	DB	060H
	DB	060H
	DB	060H
	DB	0d1H
	DB	060H
	DB	060H
	DB	060H
	DB	0d1H
	DB	060H
	DB	060H
	DB	060H
	DB	0d1H
	DB	060H
	DB	060H
	DB	060H
	DB	0d1H
	DB	060H
	DB	060H
	DB	060H
	DB	0d1H
	DB	060H
	DB	060H
	DB	060H
	DB	0d1H
	DB	060H
	DB	060H
	DB	060H
	DB	0d1H
	DB	060H
	DB	060H
	DB	060H
	DB	0d1H
	DB	060H
	DB	060H
	DB	060H
	DB	0d1H
	DB	060H
	DB	060H
	DB	060H
	DB	0d1H
	DB	060H
	DB	060H
	DB	060H
	DB	0d1H
	DB	060H
	DB	060H
	DB	060H
	DB	0d1H
	DB	060H
	DB	060H
	DB	060H
	DB	0d1H
	DB	060H
	DB	060H
	DB	060H
	DB	0d1H
	DB	060H
	DB	060H
	DB	060H
	DB	0d1H
	DB	060H
	DB	060H
	DB	060H
	DB	0d1H
	DB	060H
	DB	060H
	DB	060H
	DB	0d1H
	DB	060H
	DB	060H
	DB	060H
	DB	0d1H
	DB	060H
	DB	060H
	DB	060H
	DB	0d1H
	DB	060H
	DB	060H
	DB	060H
	DB	0d1H
	DB	060H
	DB	060H
	DB	060H
	DB	0d1H
	DB	060H
	DB	060H
	DB	060H
	DB	0d1H
	DB	060H
	DB	060H
	DB	060H
	DB	0d1H
	DB	060H
	DB	060H
	DB	060H
	DB	0d1H
	DB	060H
	DB	060H
	DB	060H
	DB	0d1H
	DB	060H
	DB	060H
	DB	060H
	DB	0d1H
	DB	060H
	DB	060H
	DB	060H
	DB	0d1H
	DB	060H
	DB	060H
	DB	060H
	DB	0d1H
	DB	060H
	DB	060H
	DB	060H
	DB	0d1H
	DB	060H
	DB	060H
	DB	060H
	DB	0d1H
	DB	060H
	DB	060H
	DB	060H
	DB	0d1H
	DB	060H
	DB	060H
	DB	060H
	DB	0d1H
	DB	060H
	DB	060H
	DB	060H
	DB	0d1H
	DB	060H
	DB	060H
	DB	060H
	DB	0d1H
	DB	060H
	DB	060H
	DB	060H
	DB	0d1H
	DB	060H
	DB	060H
	DB	060H
	DB	0d1H
	DB	060H
	DB	060H
	DB	060H
	DB	0d1H
	DB	060H
	DB	060H
	DB	060H
	DB	0d1H
	DB	060H
	DB	060H
	DB	060H
	DB	0d1H
	DB	060H
	DB	060H
	DB	060H
	DB	0d1H
	DB	060H
	DB	060H
	DB	060H
	DB	0d1H
	DB	060H
	DB	060H
	DB	060H
	DB	0d1H
	DB	060H
	DB	060H
	DB	060H
	DB	0d1H
	DB	060H
	DB	060H
	DB	060H
	DB	0d1H
	DB	060H
	DB	060H
	DB	060H
	DB	0d1H
	DB	060H
	DB	060H
	DB	060H
	DB	0d1H
	DB	060H
	DB	060H
	DB	060H
	DB	0d1H
	DB	060H
	DB	060H
	DB	060H
	DB	0d1H
	DB	060H
	DB	060H
	DB	060H
	DB	0d1H
	DB	060H
	DB	060H
	DB	060H
	DB	0d1H
	DB	060H
	DB	060H
	DB	060H
	DB	0d1H
	DB	060H
	DB	060H
	DB	060H
	DB	0d1H
	DB	060H
	DB	060H
	DB	060H
	DB	0d1H
	DB	060H
	DB	060H
	DB	060H
	DB	0d1H
	DB	060H
	DB	060H
	DB	060H
	DB	0d1H
	DB	060H
	DB	060H
	DB	060H
	DB	0d1H
	DB	060H
	DB	060H
	DB	060H
	DB	0d1H
	DB	060H
	DB	060H
	DB	060H
	DB	0d1H
	DB	060H
	DB	060H
	DB	060H
	DB	0d1H
	DB	060H
	DB	060H
	DB	060H
	DB	0d1H
	DB	060H
	DB	060H
	DB	060H
	DB	0d1H
	DB	060H
	DB	060H
	DB	060H
	DB	0d1H
	DB	060H
	DB	060H
	DB	060H
	DB	0d1H
	DB	060H
	DB	060H
	DB	060H
	DB	0d1H
	DB	060H
	DB	060H
	DB	060H
	DB	0d1H
	DB	060H
	DB	060H
	DB	060H
	DB	0d1H
	DB	060H
	DB	060H
	DB	060H
	DB	0d1H
	DB	060H
	DB	060H
	DB	060H
	DB	0d1H
	DB	060H
	DB	060H
	DB	060H
	DB	0d1H
	DB	0a8H
	DB	08cH
	DB	010H
	DB	0ffH
	DB	0a8H
	DB	08cH
	DB	010H
	DB	0ffH
	DB	0a8H
	DB	08cH
	DB	010H
	DB	0ffH
	DB	0a8H
	DB	08cH
	DB	010H
	DB	0ffH
	DB	060H
	DB	060H
	DB	060H
	DB	0d1H
	DB	060H
	DB	060H
	DB	060H
	DB	0d1H
	DB	060H
	DB	060H
	DB	060H
	DB	0d1H
	DB	060H
	DB	060H
	DB	060H
	DB	0d1H
	DB	060H
	DB	060H
	DB	060H
	DB	0d1H
	DB	060H
	DB	060H
	DB	060H
	DB	0d1H
	DB	060H
	DB	060H
	DB	060H
	DB	0d1H
	DB	060H
	DB	060H
	DB	060H
	DB	0d1H
	DB	060H
	DB	060H
	DB	060H
	DB	0d1H
	DB	060H
	DB	060H
	DB	060H
	DB	0d1H
	DB	060H
	DB	060H
	DB	060H
	DB	0d1H
	DB	060H
	DB	060H
	DB	060H
	DB	0d1H
	DB	060H
	DB	060H
	DB	060H
	DB	0d1H
	DB	060H
	DB	060H
	DB	060H
	DB	0d1H
	DB	060H
	DB	060H
	DB	060H
	DB	0d1H
	DB	060H
	DB	060H
	DB	060H
	DB	0d1H
	DB	060H
	DB	060H
	DB	060H
	DB	0d1H
	DB	060H
	DB	060H
	DB	060H
	DB	0d1H
	DB	060H
	DB	060H
	DB	060H
	DB	0d1H
	DB	060H
	DB	060H
	DB	060H
	DB	0d1H
	DB	060H
	DB	060H
	DB	060H
	DB	0d1H
	DB	060H
	DB	060H
	DB	060H
	DB	0d1H
	DB	060H
	DB	060H
	DB	060H
	DB	0d1H
	DB	060H
	DB	060H
	DB	060H
	DB	0d1H
	DB	060H
	DB	060H
	DB	060H
	DB	0d1H
	DB	060H
	DB	060H
	DB	060H
	DB	0d1H
	DB	060H
	DB	060H
	DB	060H
	DB	0d1H
	DB	060H
	DB	060H
	DB	060H
	DB	0d1H
	DB	060H
	DB	060H
	DB	060H
	DB	0d1H
	DB	060H
	DB	060H
	DB	060H
	DB	0d1H
	DB	060H
	DB	060H
	DB	060H
	DB	0d1H
	DB	060H
	DB	060H
	DB	060H
	DB	0d1H
	DB	060H
	DB	060H
	DB	060H
	DB	0d1H
	DB	060H
	DB	060H
	DB	060H
	DB	0d1H
	DB	060H
	DB	060H
	DB	060H
	DB	0d1H
	DB	060H
	DB	060H
	DB	060H
	DB	0d1H
	DB	060H
	DB	060H
	DB	060H
	DB	0d1H
	DB	060H
	DB	060H
	DB	060H
	DB	0d1H
	DB	060H
	DB	060H
	DB	060H
	DB	0d1H
	DB	060H
	DB	060H
	DB	060H
	DB	0d1H
	DB	060H
	DB	060H
	DB	060H
	DB	0d1H
	DB	060H
	DB	060H
	DB	060H
	DB	0d1H
	DB	060H
	DB	060H
	DB	060H
	DB	0d1H
	DB	060H
	DB	060H
	DB	060H
	DB	0d1H
	DB	060H
	DB	060H
	DB	060H
	DB	0d1H
	DB	060H
	DB	060H
	DB	060H
	DB	0d1H
	DB	060H
	DB	060H
	DB	060H
	DB	0d1H
	DB	060H
	DB	060H
	DB	060H
	DB	0d1H
	DB	060H
	DB	060H
	DB	060H
	DB	0d1H
	DB	060H
	DB	060H
	DB	060H
	DB	0d1H
	DB	060H
	DB	060H
	DB	060H
	DB	0d1H
	DB	060H
	DB	060H
	DB	060H
	DB	0d1H
	DB	060H
	DB	060H
	DB	060H
	DB	0d1H
	DB	060H
	DB	060H
	DB	060H
	DB	0d1H
	DB	060H
	DB	060H
	DB	060H
	DB	0d1H
	DB	060H
	DB	060H
	DB	060H
	DB	0d1H
	DB	060H
	DB	060H
	DB	060H
	DB	0d1H
	DB	060H
	DB	060H
	DB	060H
	DB	0d1H
	DB	060H
	DB	060H
	DB	060H
	DB	0d1H
	DB	060H
	DB	060H
	DB	060H
	DB	0d1H
	DB	060H
	DB	060H
	DB	060H
	DB	0d1H
	DB	060H
	DB	060H
	DB	060H
	DB	0d1H
	DB	060H
	DB	060H
	DB	060H
	DB	0d1H
	DB	060H
	DB	060H
	DB	060H
	DB	0d1H
	DB	060H
	DB	060H
	DB	060H
	DB	0d1H
	DB	060H
	DB	060H
	DB	060H
	DB	0d1H
	DB	060H
	DB	060H
	DB	060H
	DB	0d1H
	DB	060H
	DB	060H
	DB	060H
	DB	0d1H
	DB	060H
	DB	060H
	DB	060H
	DB	0d1H
	DB	060H
	DB	060H
	DB	060H
	DB	0d1H
	DB	060H
	DB	060H
	DB	060H
	DB	0d1H
	DB	060H
	DB	060H
	DB	060H
	DB	0d1H
	DB	060H
	DB	060H
	DB	060H
	DB	0d1H
	DB	060H
	DB	060H
	DB	060H
	DB	0d1H
	DB	060H
	DB	060H
	DB	060H
	DB	0d1H
	DB	060H
	DB	060H
	DB	060H
	DB	0d1H
	DB	060H
	DB	060H
	DB	060H
	DB	0d1H
	DB	060H
	DB	060H
	DB	060H
	DB	0d1H
	DB	060H
	DB	060H
	DB	060H
	DB	0d1H
	DB	060H
	DB	060H
	DB	060H
	DB	0d1H
	DB	060H
	DB	060H
	DB	060H
	DB	0d1H
	DB	060H
	DB	060H
	DB	060H
	DB	0d1H
	DB	060H
	DB	060H
	DB	060H
	DB	0d1H
	DB	060H
	DB	060H
	DB	060H
	DB	0d1H
	DB	060H
	DB	060H
	DB	060H
	DB	0d1H
	DB	060H
	DB	060H
	DB	060H
	DB	0d1H
	DB	060H
	DB	060H
	DB	060H
	DB	0d1H
	DB	060H
	DB	060H
	DB	060H
	DB	0d1H
	DB	060H
	DB	060H
	DB	060H
	DB	0d1H
	DB	060H
	DB	060H
	DB	060H
	DB	0d1H
	DB	060H
	DB	060H
	DB	060H
	DB	0d1H
	DB	060H
	DB	060H
	DB	060H
	DB	0d1H
	DB	060H
	DB	060H
	DB	060H
	DB	0d1H
	DB	060H
	DB	060H
	DB	060H
	DB	0d1H
	DB	060H
	DB	060H
	DB	060H
	DB	0d1H
	DB	060H
	DB	060H
	DB	060H
	DB	0d1H
	DB	060H
	DB	060H
	DB	060H
	DB	0d1H
	DB	060H
	DB	060H
	DB	060H
	DB	0d1H
	DB	060H
	DB	060H
	DB	060H
	DB	0d1H
	DB	060H
	DB	060H
	DB	060H
	DB	0d1H
	DB	060H
	DB	060H
	DB	060H
	DB	0d1H
	DB	060H
	DB	060H
	DB	060H
	DB	0d1H
	DB	060H
	DB	060H
	DB	060H
	DB	0d1H
	DB	060H
	DB	060H
	DB	060H
	DB	0d1H
	DB	060H
	DB	060H
	DB	060H
	DB	0d1H
	DB	060H
	DB	060H
	DB	060H
	DB	0d1H
	DB	060H
	DB	060H
	DB	060H
	DB	0d1H
	DB	060H
	DB	060H
	DB	060H
	DB	0d1H
	DB	060H
	DB	060H
	DB	060H
	DB	0d1H
	DB	060H
	DB	060H
	DB	060H
	DB	0d1H
	DB	060H
	DB	060H
	DB	060H
	DB	0d1H
	DB	060H
	DB	060H
	DB	060H
	DB	0d1H
	DB	060H
	DB	060H
	DB	060H
	DB	0d1H
	DB	060H
	DB	060H
	DB	060H
	DB	0d1H
	DB	060H
	DB	060H
	DB	060H
	DB	0d1H
	DB	060H
	DB	060H
	DB	060H
	DB	0d1H
	DB	060H
	DB	060H
	DB	060H
	DB	0d1H
	DB	060H
	DB	060H
	DB	060H
	DB	0d1H
	DB	060H
	DB	060H
	DB	060H
	DB	0d1H
	DB	060H
	DB	060H
	DB	060H
	DB	0d1H
	DB	060H
	DB	060H
	DB	060H
	DB	0d1H
	DB	060H
	DB	060H
	DB	060H
	DB	0d1H
	DB	0a8H
	DB	08cH
	DB	010H
	DB	0ffH
	DB	0a8H
	DB	08cH
	DB	010H
	DB	0ffH
	DB	0a8H
	DB	08cH
	DB	010H
	DB	0ffH
	DB	0a8H
	DB	08cH
	DB	010H
	DB	0ffH
	DB	060H
	DB	060H
	DB	060H
	DB	0d1H
	DB	060H
	DB	060H
	DB	060H
	DB	0d1H
	DB	060H
	DB	060H
	DB	060H
	DB	0d1H
	DB	060H
	DB	060H
	DB	060H
	DB	0d1H
	DB	060H
	DB	060H
	DB	060H
	DB	0d1H
	DB	060H
	DB	060H
	DB	060H
	DB	0d1H
	DB	060H
	DB	060H
	DB	060H
	DB	0d1H
	DB	060H
	DB	060H
	DB	060H
	DB	0d1H
	DB	060H
	DB	060H
	DB	060H
	DB	0d1H
	DB	060H
	DB	060H
	DB	060H
	DB	0d1H
	DB	060H
	DB	060H
	DB	060H
	DB	0d1H
	DB	060H
	DB	060H
	DB	060H
	DB	0d1H
	DB	060H
	DB	060H
	DB	060H
	DB	0d1H
	DB	060H
	DB	060H
	DB	060H
	DB	0d1H
	DB	060H
	DB	060H
	DB	060H
	DB	0d1H
	DB	060H
	DB	060H
	DB	060H
	DB	0d1H
	DB	060H
	DB	060H
	DB	060H
	DB	0d1H
	DB	060H
	DB	060H
	DB	060H
	DB	0d1H
	DB	060H
	DB	060H
	DB	060H
	DB	0d1H
	DB	060H
	DB	060H
	DB	060H
	DB	0d1H
	DB	060H
	DB	060H
	DB	060H
	DB	0d1H
	DB	060H
	DB	060H
	DB	060H
	DB	0d1H
	DB	060H
	DB	060H
	DB	060H
	DB	0d1H
	DB	060H
	DB	060H
	DB	060H
	DB	0d1H
	DB	060H
	DB	060H
	DB	060H
	DB	0d1H
	DB	060H
	DB	060H
	DB	060H
	DB	0d1H
	DB	060H
	DB	060H
	DB	060H
	DB	0d1H
	DB	060H
	DB	060H
	DB	060H
	DB	0d1H
	DB	060H
	DB	060H
	DB	060H
	DB	0d1H
	DB	060H
	DB	060H
	DB	060H
	DB	0d1H
	DB	060H
	DB	060H
	DB	060H
	DB	0d1H
	DB	060H
	DB	060H
	DB	060H
	DB	0d1H
	DB	060H
	DB	060H
	DB	060H
	DB	0d1H
	DB	060H
	DB	060H
	DB	060H
	DB	0d1H
	DB	060H
	DB	060H
	DB	060H
	DB	0d1H
	DB	060H
	DB	060H
	DB	060H
	DB	0d1H
	DB	060H
	DB	060H
	DB	060H
	DB	0d1H
	DB	060H
	DB	060H
	DB	060H
	DB	0d1H
	DB	060H
	DB	060H
	DB	060H
	DB	0d1H
	DB	060H
	DB	060H
	DB	060H
	DB	0d1H
	DB	060H
	DB	060H
	DB	060H
	DB	0d1H
	DB	060H
	DB	060H
	DB	060H
	DB	0d1H
	DB	060H
	DB	060H
	DB	060H
	DB	0d1H
	DB	060H
	DB	060H
	DB	060H
	DB	0d1H
	DB	060H
	DB	060H
	DB	060H
	DB	0d1H
	DB	060H
	DB	060H
	DB	060H
	DB	0d1H
	DB	060H
	DB	060H
	DB	060H
	DB	0d1H
	DB	060H
	DB	060H
	DB	060H
	DB	0d1H
	DB	060H
	DB	060H
	DB	060H
	DB	0d1H
	DB	060H
	DB	060H
	DB	060H
	DB	0d1H
	DB	060H
	DB	060H
	DB	060H
	DB	0d1H
	DB	060H
	DB	060H
	DB	060H
	DB	0d1H
	DB	060H
	DB	060H
	DB	060H
	DB	0d1H
	DB	060H
	DB	060H
	DB	060H
	DB	0d1H
	DB	060H
	DB	060H
	DB	060H
	DB	0d1H
	DB	060H
	DB	060H
	DB	060H
	DB	0d1H
	DB	060H
	DB	060H
	DB	060H
	DB	0d1H
	DB	060H
	DB	060H
	DB	060H
	DB	0d1H
	DB	060H
	DB	060H
	DB	060H
	DB	0d1H
	DB	060H
	DB	060H
	DB	060H
	DB	0d1H
	DB	060H
	DB	060H
	DB	060H
	DB	0d1H
	DB	060H
	DB	060H
	DB	060H
	DB	0d1H
	DB	060H
	DB	060H
	DB	060H
	DB	0d1H
	DB	060H
	DB	060H
	DB	060H
	DB	0d1H
	DB	060H
	DB	060H
	DB	060H
	DB	0d1H
	DB	060H
	DB	060H
	DB	060H
	DB	0d1H
	DB	060H
	DB	060H
	DB	060H
	DB	0d1H
	DB	060H
	DB	060H
	DB	060H
	DB	0d1H
	DB	060H
	DB	060H
	DB	060H
	DB	0d1H
	DB	060H
	DB	060H
	DB	060H
	DB	0d1H
	DB	060H
	DB	060H
	DB	060H
	DB	0d1H
	DB	060H
	DB	060H
	DB	060H
	DB	0d1H
	DB	060H
	DB	060H
	DB	060H
	DB	0d1H
	DB	060H
	DB	060H
	DB	060H
	DB	0d1H
	DB	060H
	DB	060H
	DB	060H
	DB	0d1H
	DB	060H
	DB	060H
	DB	060H
	DB	0d1H
	DB	060H
	DB	060H
	DB	060H
	DB	0d1H
	DB	060H
	DB	060H
	DB	060H
	DB	0d1H
	DB	060H
	DB	060H
	DB	060H
	DB	0d1H
	DB	060H
	DB	060H
	DB	060H
	DB	0d1H
	DB	060H
	DB	060H
	DB	060H
	DB	0d1H
	DB	060H
	DB	060H
	DB	060H
	DB	0d1H
	DB	060H
	DB	060H
	DB	060H
	DB	0d1H
	DB	060H
	DB	060H
	DB	060H
	DB	0d1H
	DB	060H
	DB	060H
	DB	060H
	DB	0d1H
	DB	060H
	DB	060H
	DB	060H
	DB	0d1H
	DB	060H
	DB	060H
	DB	060H
	DB	0d1H
	DB	060H
	DB	060H
	DB	060H
	DB	0d1H
	DB	060H
	DB	060H
	DB	060H
	DB	0d1H
	DB	060H
	DB	060H
	DB	060H
	DB	0d1H
	DB	060H
	DB	060H
	DB	060H
	DB	0d1H
	DB	060H
	DB	060H
	DB	060H
	DB	0d1H
	DB	060H
	DB	060H
	DB	060H
	DB	0d1H
	DB	060H
	DB	060H
	DB	060H
	DB	0d1H
	DB	060H
	DB	060H
	DB	060H
	DB	0d1H
	DB	060H
	DB	060H
	DB	060H
	DB	0d1H
	DB	060H
	DB	060H
	DB	060H
	DB	0d1H
	DB	060H
	DB	060H
	DB	060H
	DB	0d1H
	DB	060H
	DB	060H
	DB	060H
	DB	0d1H
	DB	060H
	DB	060H
	DB	060H
	DB	0d1H
	DB	060H
	DB	060H
	DB	060H
	DB	0d1H
	DB	060H
	DB	060H
	DB	060H
	DB	0d1H
	DB	060H
	DB	060H
	DB	060H
	DB	0d1H
	DB	060H
	DB	060H
	DB	060H
	DB	0d1H
	DB	060H
	DB	060H
	DB	060H
	DB	0d1H
	DB	060H
	DB	060H
	DB	060H
	DB	0d1H
	DB	060H
	DB	060H
	DB	060H
	DB	0d1H
	DB	060H
	DB	060H
	DB	060H
	DB	0d1H
	DB	060H
	DB	060H
	DB	060H
	DB	0d1H
	DB	060H
	DB	060H
	DB	060H
	DB	0d1H
	DB	060H
	DB	060H
	DB	060H
	DB	0d1H
	DB	060H
	DB	060H
	DB	060H
	DB	0d1H
	DB	060H
	DB	060H
	DB	060H
	DB	0d1H
	DB	060H
	DB	060H
	DB	060H
	DB	0d1H
	DB	060H
	DB	060H
	DB	060H
	DB	0d1H
	DB	060H
	DB	060H
	DB	060H
	DB	0d1H
	DB	060H
	DB	060H
	DB	060H
	DB	0d1H
	DB	060H
	DB	060H
	DB	060H
	DB	0d1H
	DB	060H
	DB	060H
	DB	060H
	DB	0d1H
	DB	060H
	DB	060H
	DB	060H
	DB	0d1H
	DB	060H
	DB	060H
	DB	060H
	DB	0d1H
	DB	060H
	DB	060H
	DB	060H
	DB	0d1H
	DB	0a8H
	DB	08cH
	DB	010H
	DB	0ffH
	DB	0a8H
	DB	08cH
	DB	010H
	DB	0ffH
	DB	0a8H
	DB	08cH
	DB	010H
	DB	0ffH
	DB	0a8H
	DB	08cH
	DB	010H
	DB	0ffH
	DB	060H
	DB	060H
	DB	060H
	DB	0d1H
	DB	060H
	DB	060H
	DB	060H
	DB	0d1H
	DB	060H
	DB	060H
	DB	060H
	DB	0d1H
	DB	060H
	DB	060H
	DB	060H
	DB	0d1H
	DB	060H
	DB	060H
	DB	060H
	DB	0d1H
	DB	060H
	DB	060H
	DB	060H
	DB	0d1H
	DB	060H
	DB	060H
	DB	060H
	DB	0d1H
	DB	060H
	DB	060H
	DB	060H
	DB	0d1H
	DB	060H
	DB	060H
	DB	060H
	DB	0d1H
	DB	060H
	DB	060H
	DB	060H
	DB	0d1H
	DB	060H
	DB	060H
	DB	060H
	DB	0d1H
	DB	060H
	DB	060H
	DB	060H
	DB	0d1H
	DB	060H
	DB	060H
	DB	060H
	DB	0d1H
	DB	060H
	DB	060H
	DB	060H
	DB	0d1H
	DB	060H
	DB	060H
	DB	060H
	DB	0d1H
	DB	060H
	DB	060H
	DB	060H
	DB	0d1H
	DB	060H
	DB	060H
	DB	060H
	DB	0d1H
	DB	060H
	DB	060H
	DB	060H
	DB	0d1H
	DB	060H
	DB	060H
	DB	060H
	DB	0d1H
	DB	060H
	DB	060H
	DB	060H
	DB	0d1H
	DB	060H
	DB	060H
	DB	060H
	DB	0d1H
	DB	060H
	DB	060H
	DB	060H
	DB	0d1H
	DB	060H
	DB	060H
	DB	060H
	DB	0d1H
	DB	060H
	DB	060H
	DB	060H
	DB	0d1H
	DB	060H
	DB	060H
	DB	060H
	DB	0d1H
	DB	060H
	DB	060H
	DB	060H
	DB	0d1H
	DB	060H
	DB	060H
	DB	060H
	DB	0d1H
	DB	060H
	DB	060H
	DB	060H
	DB	0d1H
	DB	060H
	DB	060H
	DB	060H
	DB	0d1H
	DB	060H
	DB	060H
	DB	060H
	DB	0d1H
	DB	060H
	DB	060H
	DB	060H
	DB	0d1H
	DB	060H
	DB	060H
	DB	060H
	DB	0d1H
	DB	060H
	DB	060H
	DB	060H
	DB	0d1H
	DB	060H
	DB	060H
	DB	060H
	DB	0d1H
	DB	060H
	DB	060H
	DB	060H
	DB	0d1H
	DB	060H
	DB	060H
	DB	060H
	DB	0d1H
	DB	060H
	DB	060H
	DB	060H
	DB	0d1H
	DB	060H
	DB	060H
	DB	060H
	DB	0d1H
	DB	060H
	DB	060H
	DB	060H
	DB	0d1H
	DB	060H
	DB	060H
	DB	060H
	DB	0d1H
	DB	060H
	DB	060H
	DB	060H
	DB	0d1H
	DB	060H
	DB	060H
	DB	060H
	DB	0d1H
	DB	060H
	DB	060H
	DB	060H
	DB	0d1H
	DB	060H
	DB	060H
	DB	060H
	DB	0d1H
	DB	060H
	DB	060H
	DB	060H
	DB	0d1H
	DB	060H
	DB	060H
	DB	060H
	DB	0d1H
	DB	060H
	DB	060H
	DB	060H
	DB	0d1H
	DB	060H
	DB	060H
	DB	060H
	DB	0d1H
	DB	060H
	DB	060H
	DB	060H
	DB	0d1H
	DB	060H
	DB	060H
	DB	060H
	DB	0d1H
	DB	060H
	DB	060H
	DB	060H
	DB	0d1H
	DB	060H
	DB	060H
	DB	060H
	DB	0d1H
	DB	060H
	DB	060H
	DB	060H
	DB	0d1H
	DB	060H
	DB	060H
	DB	060H
	DB	0d1H
	DB	060H
	DB	060H
	DB	060H
	DB	0d1H
	DB	060H
	DB	060H
	DB	060H
	DB	0d1H
	DB	060H
	DB	060H
	DB	060H
	DB	0d1H
	DB	060H
	DB	060H
	DB	060H
	DB	0d1H
	DB	060H
	DB	060H
	DB	060H
	DB	0d1H
	DB	060H
	DB	060H
	DB	060H
	DB	0d1H
	DB	060H
	DB	060H
	DB	060H
	DB	0d1H
	DB	060H
	DB	060H
	DB	060H
	DB	0d1H
	DB	060H
	DB	060H
	DB	060H
	DB	0d1H
	DB	060H
	DB	060H
	DB	060H
	DB	0d1H
	DB	060H
	DB	060H
	DB	060H
	DB	0d1H
	DB	060H
	DB	060H
	DB	060H
	DB	0d1H
	DB	060H
	DB	060H
	DB	060H
	DB	0d1H
	DB	060H
	DB	060H
	DB	060H
	DB	0d1H
	DB	060H
	DB	060H
	DB	060H
	DB	0d1H
	DB	060H
	DB	060H
	DB	060H
	DB	0d1H
	DB	060H
	DB	060H
	DB	060H
	DB	0d1H
	DB	060H
	DB	060H
	DB	060H
	DB	0d1H
	DB	060H
	DB	060H
	DB	060H
	DB	0d1H
	DB	060H
	DB	060H
	DB	060H
	DB	0d1H
	DB	060H
	DB	060H
	DB	060H
	DB	0d1H
	DB	060H
	DB	060H
	DB	060H
	DB	0d1H
	DB	060H
	DB	060H
	DB	060H
	DB	0d1H
	DB	060H
	DB	060H
	DB	060H
	DB	0d1H
	DB	060H
	DB	060H
	DB	060H
	DB	0d1H
	DB	060H
	DB	060H
	DB	060H
	DB	0d1H
	DB	060H
	DB	060H
	DB	060H
	DB	0d1H
	DB	060H
	DB	060H
	DB	060H
	DB	0d1H
	DB	060H
	DB	060H
	DB	060H
	DB	0d1H
	DB	060H
	DB	060H
	DB	060H
	DB	0d1H
	DB	060H
	DB	060H
	DB	060H
	DB	0d1H
	DB	060H
	DB	060H
	DB	060H
	DB	0d1H
	DB	060H
	DB	060H
	DB	060H
	DB	0d1H
	DB	060H
	DB	060H
	DB	060H
	DB	0d1H
	DB	060H
	DB	060H
	DB	060H
	DB	0d1H
	DB	060H
	DB	060H
	DB	060H
	DB	0d1H
	DB	060H
	DB	060H
	DB	060H
	DB	0d1H
	DB	060H
	DB	060H
	DB	060H
	DB	0d1H
	DB	060H
	DB	060H
	DB	060H
	DB	0d1H
	DB	060H
	DB	060H
	DB	060H
	DB	0d1H
	DB	060H
	DB	060H
	DB	060H
	DB	0d1H
	DB	060H
	DB	060H
	DB	060H
	DB	0d1H
	DB	060H
	DB	060H
	DB	060H
	DB	0d1H
	DB	060H
	DB	060H
	DB	060H
	DB	0d1H
	DB	060H
	DB	060H
	DB	060H
	DB	0d1H
	DB	060H
	DB	060H
	DB	060H
	DB	0d1H
	DB	060H
	DB	060H
	DB	060H
	DB	0d1H
	DB	060H
	DB	060H
	DB	060H
	DB	0d1H
	DB	060H
	DB	060H
	DB	060H
	DB	0d1H
	DB	060H
	DB	060H
	DB	060H
	DB	0d1H
	DB	060H
	DB	060H
	DB	060H
	DB	0d1H
	DB	060H
	DB	060H
	DB	060H
	DB	0d1H
	DB	060H
	DB	060H
	DB	060H
	DB	0d1H
	DB	060H
	DB	060H
	DB	060H
	DB	0d1H
	DB	060H
	DB	060H
	DB	060H
	DB	0d1H
	DB	060H
	DB	060H
	DB	060H
	DB	0d1H
	DB	060H
	DB	060H
	DB	060H
	DB	0d1H
	DB	060H
	DB	060H
	DB	060H
	DB	0d1H
	DB	060H
	DB	060H
	DB	060H
	DB	0d1H
	DB	060H
	DB	060H
	DB	060H
	DB	0d1H
	DB	060H
	DB	060H
	DB	060H
	DB	0d1H
	DB	060H
	DB	060H
	DB	060H
	DB	0d1H
	DB	060H
	DB	060H
	DB	060H
	DB	0d1H
	DB	060H
	DB	060H
	DB	060H
	DB	0d1H
	DB	060H
	DB	060H
	DB	060H
	DB	0d1H
	DB	060H
	DB	060H
	DB	060H
	DB	0d1H
	DB	060H
	DB	060H
	DB	060H
	DB	0d1H
	DB	060H
	DB	060H
	DB	060H
	DB	0d1H
	DB	0a8H
	DB	08cH
	DB	010H
	DB	0ffH
	DB	0a8H
	DB	08cH
	DB	010H
	DB	0ffH
	DB	0a8H
	DB	08cH
	DB	010H
	DB	0ffH
	DB	0a8H
	DB	08cH
	DB	010H
	DB	0ffH
	DB	060H
	DB	060H
	DB	060H
	DB	0d1H
	DB	060H
	DB	060H
	DB	060H
	DB	0d1H
	DB	060H
	DB	060H
	DB	060H
	DB	0d1H
	DB	060H
	DB	060H
	DB	060H
	DB	0d1H
	DB	060H
	DB	060H
	DB	060H
	DB	0d1H
	DB	060H
	DB	060H
	DB	060H
	DB	0d1H
	DB	060H
	DB	060H
	DB	060H
	DB	0d1H
	DB	060H
	DB	060H
	DB	060H
	DB	0d1H
	DB	060H
	DB	060H
	DB	060H
	DB	0d1H
	DB	060H
	DB	060H
	DB	060H
	DB	0d1H
	DB	060H
	DB	060H
	DB	060H
	DB	0d1H
	DB	060H
	DB	060H
	DB	060H
	DB	0d1H
	DB	060H
	DB	060H
	DB	060H
	DB	0d1H
	DB	060H
	DB	060H
	DB	060H
	DB	0d1H
	DB	060H
	DB	060H
	DB	060H
	DB	0d1H
	DB	060H
	DB	060H
	DB	060H
	DB	0d1H
	DB	060H
	DB	060H
	DB	060H
	DB	0d1H
	DB	060H
	DB	060H
	DB	060H
	DB	0d1H
	DB	060H
	DB	060H
	DB	060H
	DB	0d1H
	DB	060H
	DB	060H
	DB	060H
	DB	0d1H
	DB	060H
	DB	060H
	DB	060H
	DB	0d1H
	DB	060H
	DB	060H
	DB	060H
	DB	0d1H
	DB	060H
	DB	060H
	DB	060H
	DB	0d1H
	DB	060H
	DB	060H
	DB	060H
	DB	0d1H
	DB	060H
	DB	060H
	DB	060H
	DB	0d1H
	DB	060H
	DB	060H
	DB	060H
	DB	0d1H
	DB	060H
	DB	060H
	DB	060H
	DB	0d1H
	DB	060H
	DB	060H
	DB	060H
	DB	0d1H
	DB	060H
	DB	060H
	DB	060H
	DB	0d1H
	DB	060H
	DB	060H
	DB	060H
	DB	0d1H
	DB	060H
	DB	060H
	DB	060H
	DB	0d1H
	DB	060H
	DB	060H
	DB	060H
	DB	0d1H
	DB	060H
	DB	060H
	DB	060H
	DB	0d1H
	DB	060H
	DB	060H
	DB	060H
	DB	0d1H
	DB	060H
	DB	060H
	DB	060H
	DB	0d1H
	DB	060H
	DB	060H
	DB	060H
	DB	0d1H
	DB	060H
	DB	060H
	DB	060H
	DB	0d1H
	DB	060H
	DB	060H
	DB	060H
	DB	0d1H
	DB	060H
	DB	060H
	DB	060H
	DB	0d1H
	DB	060H
	DB	060H
	DB	060H
	DB	0d1H
	DB	060H
	DB	060H
	DB	060H
	DB	0d1H
	DB	060H
	DB	060H
	DB	060H
	DB	0d1H
	DB	060H
	DB	060H
	DB	060H
	DB	0d1H
	DB	060H
	DB	060H
	DB	060H
	DB	0d1H
	DB	060H
	DB	060H
	DB	060H
	DB	0d1H
	DB	060H
	DB	060H
	DB	060H
	DB	0d1H
	DB	060H
	DB	060H
	DB	060H
	DB	0d1H
	DB	060H
	DB	060H
	DB	060H
	DB	0d1H
	DB	060H
	DB	060H
	DB	060H
	DB	0d1H
	DB	060H
	DB	060H
	DB	060H
	DB	0d1H
	DB	060H
	DB	060H
	DB	060H
	DB	0d1H
	DB	060H
	DB	060H
	DB	060H
	DB	0d1H
	DB	060H
	DB	060H
	DB	060H
	DB	0d1H
	DB	060H
	DB	060H
	DB	060H
	DB	0d1H
	DB	060H
	DB	060H
	DB	060H
	DB	0d1H
	DB	060H
	DB	060H
	DB	060H
	DB	0d1H
	DB	060H
	DB	060H
	DB	060H
	DB	0d1H
	DB	060H
	DB	060H
	DB	060H
	DB	0d1H
	DB	060H
	DB	060H
	DB	060H
	DB	0d1H
	DB	060H
	DB	060H
	DB	060H
	DB	0d1H
	DB	060H
	DB	060H
	DB	060H
	DB	0d1H
	DB	060H
	DB	060H
	DB	060H
	DB	0d1H
	DB	060H
	DB	060H
	DB	060H
	DB	0d1H
	DB	060H
	DB	060H
	DB	060H
	DB	0d1H
	DB	060H
	DB	060H
	DB	060H
	DB	0d1H
	DB	060H
	DB	060H
	DB	060H
	DB	0d1H
	DB	060H
	DB	060H
	DB	060H
	DB	0d1H
	DB	060H
	DB	060H
	DB	060H
	DB	0d1H
	DB	060H
	DB	060H
	DB	060H
	DB	0d1H
	DB	060H
	DB	060H
	DB	060H
	DB	0d1H
	DB	060H
	DB	060H
	DB	060H
	DB	0d1H
	DB	060H
	DB	060H
	DB	060H
	DB	0d1H
	DB	060H
	DB	060H
	DB	060H
	DB	0d1H
	DB	060H
	DB	060H
	DB	060H
	DB	0d1H
	DB	060H
	DB	060H
	DB	060H
	DB	0d1H
	DB	060H
	DB	060H
	DB	060H
	DB	0d1H
	DB	060H
	DB	060H
	DB	060H
	DB	0d1H
	DB	060H
	DB	060H
	DB	060H
	DB	0d1H
	DB	060H
	DB	060H
	DB	060H
	DB	0d1H
	DB	060H
	DB	060H
	DB	060H
	DB	0d1H
	DB	060H
	DB	060H
	DB	060H
	DB	0d1H
	DB	060H
	DB	060H
	DB	060H
	DB	0d1H
	DB	060H
	DB	060H
	DB	060H
	DB	0d1H
	DB	060H
	DB	060H
	DB	060H
	DB	0d1H
	DB	060H
	DB	060H
	DB	060H
	DB	0d1H
	DB	060H
	DB	060H
	DB	060H
	DB	0d1H
	DB	060H
	DB	060H
	DB	060H
	DB	0d1H
	DB	060H
	DB	060H
	DB	060H
	DB	0d1H
	DB	060H
	DB	060H
	DB	060H
	DB	0d1H
	DB	060H
	DB	060H
	DB	060H
	DB	0d1H
	DB	060H
	DB	060H
	DB	060H
	DB	0d1H
	DB	060H
	DB	060H
	DB	060H
	DB	0d1H
	DB	060H
	DB	060H
	DB	060H
	DB	0d1H
	DB	060H
	DB	060H
	DB	060H
	DB	0d1H
	DB	060H
	DB	060H
	DB	060H
	DB	0d1H
	DB	060H
	DB	060H
	DB	060H
	DB	0d1H
	DB	060H
	DB	060H
	DB	060H
	DB	0d1H
	DB	060H
	DB	060H
	DB	060H
	DB	0d1H
	DB	060H
	DB	060H
	DB	060H
	DB	0d1H
	DB	060H
	DB	060H
	DB	060H
	DB	0d1H
	DB	060H
	DB	060H
	DB	060H
	DB	0d1H
	DB	060H
	DB	060H
	DB	060H
	DB	0d1H
	DB	060H
	DB	060H
	DB	060H
	DB	0d1H
	DB	060H
	DB	060H
	DB	060H
	DB	0d1H
	DB	060H
	DB	060H
	DB	060H
	DB	0d1H
	DB	060H
	DB	060H
	DB	060H
	DB	0d1H
	DB	060H
	DB	060H
	DB	060H
	DB	0d1H
	DB	060H
	DB	060H
	DB	060H
	DB	0d1H
	DB	060H
	DB	060H
	DB	060H
	DB	0d1H
	DB	060H
	DB	060H
	DB	060H
	DB	0d1H
	DB	060H
	DB	060H
	DB	060H
	DB	0d1H
	DB	060H
	DB	060H
	DB	060H
	DB	0d1H
	DB	060H
	DB	060H
	DB	060H
	DB	0d1H
	DB	060H
	DB	060H
	DB	060H
	DB	0d1H
	DB	060H
	DB	060H
	DB	060H
	DB	0d1H
	DB	060H
	DB	060H
	DB	060H
	DB	0d1H
	DB	060H
	DB	060H
	DB	060H
	DB	0d1H
	DB	060H
	DB	060H
	DB	060H
	DB	0d1H
	DB	060H
	DB	060H
	DB	060H
	DB	0d1H
	DB	060H
	DB	060H
	DB	060H
	DB	0d1H
	DB	060H
	DB	060H
	DB	060H
	DB	0d1H
	DB	060H
	DB	060H
	DB	060H
	DB	0d1H
	DB	0a8H
	DB	08cH
	DB	010H
	DB	0ffH
	DB	0a8H
	DB	08cH
	DB	010H
	DB	0ffH
	DB	0a8H
	DB	08cH
	DB	010H
	DB	0ffH
	DB	0a8H
	DB	08cH
	DB	010H
	DB	0ffH
	DB	060H
	DB	060H
	DB	060H
	DB	0d1H
	DB	060H
	DB	060H
	DB	060H
	DB	0d1H
	DB	060H
	DB	060H
	DB	060H
	DB	0d1H
	DB	060H
	DB	060H
	DB	060H
	DB	0d1H
	DB	060H
	DB	060H
	DB	060H
	DB	0d1H
	DB	060H
	DB	060H
	DB	060H
	DB	0d1H
	DB	060H
	DB	060H
	DB	060H
	DB	0d1H
	DB	060H
	DB	060H
	DB	060H
	DB	0d1H
	DB	060H
	DB	060H
	DB	060H
	DB	0d1H
	DB	060H
	DB	060H
	DB	060H
	DB	0d1H
	DB	060H
	DB	060H
	DB	060H
	DB	0d1H
	DB	060H
	DB	060H
	DB	060H
	DB	0d1H
	DB	060H
	DB	060H
	DB	060H
	DB	0d1H
	DB	060H
	DB	060H
	DB	060H
	DB	0d1H
	DB	060H
	DB	060H
	DB	060H
	DB	0d1H
	DB	060H
	DB	060H
	DB	060H
	DB	0d1H
	DB	060H
	DB	060H
	DB	060H
	DB	0d1H
	DB	060H
	DB	060H
	DB	060H
	DB	0d1H
	DB	060H
	DB	060H
	DB	060H
	DB	0d1H
	DB	060H
	DB	060H
	DB	060H
	DB	0d1H
	DB	060H
	DB	060H
	DB	060H
	DB	0d1H
	DB	060H
	DB	060H
	DB	060H
	DB	0d1H
	DB	060H
	DB	060H
	DB	060H
	DB	0d1H
	DB	060H
	DB	060H
	DB	060H
	DB	0d1H
	DB	060H
	DB	060H
	DB	060H
	DB	0d1H
	DB	060H
	DB	060H
	DB	060H
	DB	0d1H
	DB	060H
	DB	060H
	DB	060H
	DB	0d1H
	DB	060H
	DB	060H
	DB	060H
	DB	0d1H
	DB	060H
	DB	060H
	DB	060H
	DB	0d1H
	DB	060H
	DB	060H
	DB	060H
	DB	0d1H
	DB	060H
	DB	060H
	DB	060H
	DB	0d1H
	DB	060H
	DB	060H
	DB	060H
	DB	0d1H
	DB	060H
	DB	060H
	DB	060H
	DB	0d1H
	DB	060H
	DB	060H
	DB	060H
	DB	0d1H
	DB	060H
	DB	060H
	DB	060H
	DB	0d1H
	DB	060H
	DB	060H
	DB	060H
	DB	0d1H
	DB	060H
	DB	060H
	DB	060H
	DB	0d1H
	DB	060H
	DB	060H
	DB	060H
	DB	0d1H
	DB	060H
	DB	060H
	DB	060H
	DB	0d1H
	DB	060H
	DB	060H
	DB	060H
	DB	0d1H
	DB	060H
	DB	060H
	DB	060H
	DB	0d1H
	DB	060H
	DB	060H
	DB	060H
	DB	0d1H
	DB	060H
	DB	060H
	DB	060H
	DB	0d1H
	DB	060H
	DB	060H
	DB	060H
	DB	0d1H
	DB	060H
	DB	060H
	DB	060H
	DB	0d1H
	DB	060H
	DB	060H
	DB	060H
	DB	0d1H
	DB	060H
	DB	060H
	DB	060H
	DB	0d1H
	DB	060H
	DB	060H
	DB	060H
	DB	0d1H
	DB	060H
	DB	060H
	DB	060H
	DB	0d1H
	DB	060H
	DB	060H
	DB	060H
	DB	0d1H
	DB	060H
	DB	060H
	DB	060H
	DB	0d1H
	DB	060H
	DB	060H
	DB	060H
	DB	0d1H
	DB	060H
	DB	060H
	DB	060H
	DB	0d1H
	DB	060H
	DB	060H
	DB	060H
	DB	0d1H
	DB	060H
	DB	060H
	DB	060H
	DB	0d1H
	DB	060H
	DB	060H
	DB	060H
	DB	0d1H
	DB	060H
	DB	060H
	DB	060H
	DB	0d1H
	DB	060H
	DB	060H
	DB	060H
	DB	0d1H
	DB	060H
	DB	060H
	DB	060H
	DB	0d1H
	DB	060H
	DB	060H
	DB	060H
	DB	0d1H
	DB	060H
	DB	060H
	DB	060H
	DB	0d1H
	DB	060H
	DB	060H
	DB	060H
	DB	0d1H
	DB	060H
	DB	060H
	DB	060H
	DB	0d1H
	DB	060H
	DB	060H
	DB	060H
	DB	0d1H
	DB	060H
	DB	060H
	DB	060H
	DB	0d1H
	DB	060H
	DB	060H
	DB	060H
	DB	0d1H
	DB	060H
	DB	060H
	DB	060H
	DB	0d1H
	DB	060H
	DB	060H
	DB	060H
	DB	0d1H
	DB	060H
	DB	060H
	DB	060H
	DB	0d1H
	DB	060H
	DB	060H
	DB	060H
	DB	0d1H
	DB	060H
	DB	060H
	DB	060H
	DB	0d1H
	DB	060H
	DB	060H
	DB	060H
	DB	0d1H
	DB	060H
	DB	060H
	DB	060H
	DB	0d1H
	DB	060H
	DB	060H
	DB	060H
	DB	0d1H
	DB	060H
	DB	060H
	DB	060H
	DB	0d1H
	DB	060H
	DB	060H
	DB	060H
	DB	0d1H
	DB	060H
	DB	060H
	DB	060H
	DB	0d1H
	DB	060H
	DB	060H
	DB	060H
	DB	0d1H
	DB	060H
	DB	060H
	DB	060H
	DB	0d1H
	DB	060H
	DB	060H
	DB	060H
	DB	0d1H
	DB	060H
	DB	060H
	DB	060H
	DB	0d1H
	DB	060H
	DB	060H
	DB	060H
	DB	0d1H
	DB	060H
	DB	060H
	DB	060H
	DB	0d1H
	DB	060H
	DB	060H
	DB	060H
	DB	0d1H
	DB	060H
	DB	060H
	DB	060H
	DB	0d1H
	DB	060H
	DB	060H
	DB	060H
	DB	0d1H
	DB	060H
	DB	060H
	DB	060H
	DB	0d1H
	DB	060H
	DB	060H
	DB	060H
	DB	0d1H
	DB	060H
	DB	060H
	DB	060H
	DB	0d1H
	DB	060H
	DB	060H
	DB	060H
	DB	0d1H
	DB	060H
	DB	060H
	DB	060H
	DB	0d1H
	DB	060H
	DB	060H
	DB	060H
	DB	0d1H
	DB	060H
	DB	060H
	DB	060H
	DB	0d1H
	DB	060H
	DB	060H
	DB	060H
	DB	0d1H
	DB	060H
	DB	060H
	DB	060H
	DB	0d1H
	DB	060H
	DB	060H
	DB	060H
	DB	0d1H
	DB	060H
	DB	060H
	DB	060H
	DB	0d1H
	DB	060H
	DB	060H
	DB	060H
	DB	0d1H
	DB	060H
	DB	060H
	DB	060H
	DB	0d1H
	DB	060H
	DB	060H
	DB	060H
	DB	0d1H
	DB	060H
	DB	060H
	DB	060H
	DB	0d1H
	DB	060H
	DB	060H
	DB	060H
	DB	0d1H
	DB	060H
	DB	060H
	DB	060H
	DB	0d1H
	DB	060H
	DB	060H
	DB	060H
	DB	0d1H
	DB	060H
	DB	060H
	DB	060H
	DB	0d1H
	DB	060H
	DB	060H
	DB	060H
	DB	0d1H
	DB	060H
	DB	060H
	DB	060H
	DB	0d1H
	DB	060H
	DB	060H
	DB	060H
	DB	0d1H
	DB	060H
	DB	060H
	DB	060H
	DB	0d1H
	DB	060H
	DB	060H
	DB	060H
	DB	0d1H
	DB	060H
	DB	060H
	DB	060H
	DB	0d1H
	DB	060H
	DB	060H
	DB	060H
	DB	0d1H
	DB	060H
	DB	060H
	DB	060H
	DB	0d1H
	DB	060H
	DB	060H
	DB	060H
	DB	0d1H
	DB	060H
	DB	060H
	DB	060H
	DB	0d1H
	DB	060H
	DB	060H
	DB	060H
	DB	0d1H
	DB	060H
	DB	060H
	DB	060H
	DB	0d1H
	DB	060H
	DB	060H
	DB	060H
	DB	0d1H
	DB	060H
	DB	060H
	DB	060H
	DB	0d1H
	DB	060H
	DB	060H
	DB	060H
	DB	0d1H
	DB	060H
	DB	060H
	DB	060H
	DB	0d1H
	DB	060H
	DB	060H
	DB	060H
	DB	0d1H
	DB	0a8H
	DB	08cH
	DB	010H
	DB	0ffH
	DB	0a8H
	DB	08cH
	DB	010H
	DB	0ffH
	DB	0a8H
	DB	08cH
	DB	010H
	DB	0ffH
	DB	0a8H
	DB	08cH
	DB	010H
	DB	0ffH
	DB	060H
	DB	060H
	DB	060H
	DB	0d1H
	DB	060H
	DB	060H
	DB	060H
	DB	0d1H
	DB	060H
	DB	060H
	DB	060H
	DB	0d1H
	DB	060H
	DB	060H
	DB	060H
	DB	0d1H
	DB	060H
	DB	060H
	DB	060H
	DB	0d1H
	DB	060H
	DB	060H
	DB	060H
	DB	0d1H
	DB	060H
	DB	060H
	DB	060H
	DB	0d1H
	DB	060H
	DB	060H
	DB	060H
	DB	0d1H
	DB	060H
	DB	060H
	DB	060H
	DB	0d1H
	DB	060H
	DB	060H
	DB	060H
	DB	0d1H
	DB	060H
	DB	060H
	DB	060H
	DB	0d1H
	DB	060H
	DB	060H
	DB	060H
	DB	0d1H
	DB	060H
	DB	060H
	DB	060H
	DB	0d1H
	DB	060H
	DB	060H
	DB	060H
	DB	0d1H
	DB	060H
	DB	060H
	DB	060H
	DB	0d1H
	DB	060H
	DB	060H
	DB	060H
	DB	0d1H
	DB	060H
	DB	060H
	DB	060H
	DB	0d1H
	DB	060H
	DB	060H
	DB	060H
	DB	0d1H
	DB	060H
	DB	060H
	DB	060H
	DB	0d1H
	DB	060H
	DB	060H
	DB	060H
	DB	0d1H
	DB	060H
	DB	060H
	DB	060H
	DB	0d1H
	DB	060H
	DB	060H
	DB	060H
	DB	0d1H
	DB	060H
	DB	060H
	DB	060H
	DB	0d1H
	DB	060H
	DB	060H
	DB	060H
	DB	0d1H
	DB	060H
	DB	060H
	DB	060H
	DB	0d1H
	DB	060H
	DB	060H
	DB	060H
	DB	0d1H
	DB	060H
	DB	060H
	DB	060H
	DB	0d1H
	DB	060H
	DB	060H
	DB	060H
	DB	0d1H
	DB	060H
	DB	060H
	DB	060H
	DB	0d1H
	DB	060H
	DB	060H
	DB	060H
	DB	0d1H
	DB	060H
	DB	060H
	DB	060H
	DB	0d1H
	DB	060H
	DB	060H
	DB	060H
	DB	0d1H
	DB	060H
	DB	060H
	DB	060H
	DB	0d1H
	DB	060H
	DB	060H
	DB	060H
	DB	0d1H
	DB	060H
	DB	060H
	DB	060H
	DB	0d1H
	DB	060H
	DB	060H
	DB	060H
	DB	0d1H
	DB	060H
	DB	060H
	DB	060H
	DB	0d1H
	DB	060H
	DB	060H
	DB	060H
	DB	0d1H
	DB	060H
	DB	060H
	DB	060H
	DB	0d1H
	DB	060H
	DB	060H
	DB	060H
	DB	0d1H
	DB	060H
	DB	060H
	DB	060H
	DB	0d1H
	DB	060H
	DB	060H
	DB	060H
	DB	0d1H
	DB	060H
	DB	060H
	DB	060H
	DB	0d1H
	DB	060H
	DB	060H
	DB	060H
	DB	0d1H
	DB	060H
	DB	060H
	DB	060H
	DB	0d1H
	DB	060H
	DB	060H
	DB	060H
	DB	0d1H
	DB	060H
	DB	060H
	DB	060H
	DB	0d1H
	DB	060H
	DB	060H
	DB	060H
	DB	0d1H
	DB	060H
	DB	060H
	DB	060H
	DB	0d1H
	DB	060H
	DB	060H
	DB	060H
	DB	0d1H
	DB	060H
	DB	060H
	DB	060H
	DB	0d1H
	DB	060H
	DB	060H
	DB	060H
	DB	0d1H
	DB	060H
	DB	060H
	DB	060H
	DB	0d1H
	DB	060H
	DB	060H
	DB	060H
	DB	0d1H
	DB	060H
	DB	060H
	DB	060H
	DB	0d1H
	DB	060H
	DB	060H
	DB	060H
	DB	0d1H
	DB	060H
	DB	060H
	DB	060H
	DB	0d1H
	DB	060H
	DB	060H
	DB	060H
	DB	0d1H
	DB	060H
	DB	060H
	DB	060H
	DB	0d1H
	DB	060H
	DB	060H
	DB	060H
	DB	0d1H
	DB	060H
	DB	060H
	DB	060H
	DB	0d1H
	DB	060H
	DB	060H
	DB	060H
	DB	0d1H
	DB	060H
	DB	060H
	DB	060H
	DB	0d1H
	DB	060H
	DB	060H
	DB	060H
	DB	0d1H
	DB	060H
	DB	060H
	DB	060H
	DB	0d1H
	DB	060H
	DB	060H
	DB	060H
	DB	0d1H
	DB	060H
	DB	060H
	DB	060H
	DB	0d1H
	DB	060H
	DB	060H
	DB	060H
	DB	0d1H
	DB	060H
	DB	060H
	DB	060H
	DB	0d1H
	DB	060H
	DB	060H
	DB	060H
	DB	0d1H
	DB	060H
	DB	060H
	DB	060H
	DB	0d1H
	DB	060H
	DB	060H
	DB	060H
	DB	0d1H
	DB	060H
	DB	060H
	DB	060H
	DB	0d1H
	DB	060H
	DB	060H
	DB	060H
	DB	0d1H
	DB	060H
	DB	060H
	DB	060H
	DB	0d1H
	DB	060H
	DB	060H
	DB	060H
	DB	0d1H
	DB	060H
	DB	060H
	DB	060H
	DB	0d1H
	DB	060H
	DB	060H
	DB	060H
	DB	0d1H
	DB	060H
	DB	060H
	DB	060H
	DB	0d1H
	DB	060H
	DB	060H
	DB	060H
	DB	0d1H
	DB	060H
	DB	060H
	DB	060H
	DB	0d1H
	DB	060H
	DB	060H
	DB	060H
	DB	0d1H
	DB	060H
	DB	060H
	DB	060H
	DB	0d1H
	DB	060H
	DB	060H
	DB	060H
	DB	0d1H
	DB	060H
	DB	060H
	DB	060H
	DB	0d1H
	DB	060H
	DB	060H
	DB	060H
	DB	0d1H
	DB	060H
	DB	060H
	DB	060H
	DB	0d1H
	DB	060H
	DB	060H
	DB	060H
	DB	0d1H
	DB	060H
	DB	060H
	DB	060H
	DB	0d1H
	DB	060H
	DB	060H
	DB	060H
	DB	0d1H
	DB	060H
	DB	060H
	DB	060H
	DB	0d1H
	DB	060H
	DB	060H
	DB	060H
	DB	0d1H
	DB	060H
	DB	060H
	DB	060H
	DB	0d1H
	DB	060H
	DB	060H
	DB	060H
	DB	0d1H
	DB	060H
	DB	060H
	DB	060H
	DB	0d1H
	DB	060H
	DB	060H
	DB	060H
	DB	0d1H
	DB	060H
	DB	060H
	DB	060H
	DB	0d1H
	DB	060H
	DB	060H
	DB	060H
	DB	0d1H
	DB	060H
	DB	060H
	DB	060H
	DB	0d1H
	DB	060H
	DB	060H
	DB	060H
	DB	0d1H
	DB	060H
	DB	060H
	DB	060H
	DB	0d1H
	DB	060H
	DB	060H
	DB	060H
	DB	0d1H
	DB	060H
	DB	060H
	DB	060H
	DB	0d1H
	DB	060H
	DB	060H
	DB	060H
	DB	0d1H
	DB	060H
	DB	060H
	DB	060H
	DB	0d1H
	DB	060H
	DB	060H
	DB	060H
	DB	0d1H
	DB	060H
	DB	060H
	DB	060H
	DB	0d1H
	DB	060H
	DB	060H
	DB	060H
	DB	0d1H
	DB	060H
	DB	060H
	DB	060H
	DB	0d1H
	DB	060H
	DB	060H
	DB	060H
	DB	0d1H
	DB	060H
	DB	060H
	DB	060H
	DB	0d1H
	DB	060H
	DB	060H
	DB	060H
	DB	0d1H
	DB	060H
	DB	060H
	DB	060H
	DB	0d1H
	DB	060H
	DB	060H
	DB	060H
	DB	0d1H
	DB	060H
	DB	060H
	DB	060H
	DB	0d1H
	DB	060H
	DB	060H
	DB	060H
	DB	0d1H
	DB	060H
	DB	060H
	DB	060H
	DB	0d1H
	DB	060H
	DB	060H
	DB	060H
	DB	0d1H
	DB	060H
	DB	060H
	DB	060H
	DB	0d1H
	DB	060H
	DB	060H
	DB	060H
	DB	0d1H
	DB	060H
	DB	060H
	DB	060H
	DB	0d1H
	DB	060H
	DB	060H
	DB	060H
	DB	0d1H
	DB	0a8H
	DB	08cH
	DB	010H
	DB	0ffH
	DB	0a8H
	DB	08cH
	DB	010H
	DB	0ffH
	DB	0a8H
	DB	08cH
	DB	010H
	DB	0ffH
	DB	0a8H
	DB	08cH
	DB	010H
	DB	0ffH
	DB	060H
	DB	060H
	DB	060H
	DB	0d1H
	DB	060H
	DB	060H
	DB	060H
	DB	0d1H
	DB	060H
	DB	060H
	DB	060H
	DB	0d1H
	DB	060H
	DB	060H
	DB	060H
	DB	0d1H
	DB	060H
	DB	060H
	DB	060H
	DB	0d1H
	DB	060H
	DB	060H
	DB	060H
	DB	0d1H
	DB	060H
	DB	060H
	DB	060H
	DB	0d1H
	DB	060H
	DB	060H
	DB	060H
	DB	0d1H
	DB	060H
	DB	060H
	DB	060H
	DB	0d1H
	DB	060H
	DB	060H
	DB	060H
	DB	0d1H
	DB	060H
	DB	060H
	DB	060H
	DB	0d1H
	DB	060H
	DB	060H
	DB	060H
	DB	0d1H
	DB	060H
	DB	060H
	DB	060H
	DB	0d1H
	DB	060H
	DB	060H
	DB	060H
	DB	0d1H
	DB	060H
	DB	060H
	DB	060H
	DB	0d1H
	DB	060H
	DB	060H
	DB	060H
	DB	0d1H
	DB	060H
	DB	060H
	DB	060H
	DB	0d1H
	DB	060H
	DB	060H
	DB	060H
	DB	0d1H
	DB	060H
	DB	060H
	DB	060H
	DB	0d1H
	DB	060H
	DB	060H
	DB	060H
	DB	0d1H
	DB	060H
	DB	060H
	DB	060H
	DB	0d1H
	DB	060H
	DB	060H
	DB	060H
	DB	0d1H
	DB	060H
	DB	060H
	DB	060H
	DB	0d1H
	DB	060H
	DB	060H
	DB	060H
	DB	0d1H
	DB	060H
	DB	060H
	DB	060H
	DB	0d1H
	DB	060H
	DB	060H
	DB	060H
	DB	0d1H
	DB	060H
	DB	060H
	DB	060H
	DB	0d1H
	DB	060H
	DB	060H
	DB	060H
	DB	0d1H
	DB	060H
	DB	060H
	DB	060H
	DB	0d1H
	DB	060H
	DB	060H
	DB	060H
	DB	0d1H
	DB	060H
	DB	060H
	DB	060H
	DB	0d1H
	DB	060H
	DB	060H
	DB	060H
	DB	0d1H
	DB	060H
	DB	060H
	DB	060H
	DB	0d1H
	DB	060H
	DB	060H
	DB	060H
	DB	0d1H
	DB	060H
	DB	060H
	DB	060H
	DB	0d1H
	DB	060H
	DB	060H
	DB	060H
	DB	0d1H
	DB	060H
	DB	060H
	DB	060H
	DB	0d1H
	DB	060H
	DB	060H
	DB	060H
	DB	0d1H
	DB	060H
	DB	060H
	DB	060H
	DB	0d1H
	DB	060H
	DB	060H
	DB	060H
	DB	0d1H
	DB	060H
	DB	060H
	DB	060H
	DB	0d1H
	DB	060H
	DB	060H
	DB	060H
	DB	0d1H
	DB	060H
	DB	060H
	DB	060H
	DB	0d1H
	DB	060H
	DB	060H
	DB	060H
	DB	0d1H
	DB	060H
	DB	060H
	DB	060H
	DB	0d1H
	DB	060H
	DB	060H
	DB	060H
	DB	0d1H
	DB	060H
	DB	060H
	DB	060H
	DB	0d1H
	DB	060H
	DB	060H
	DB	060H
	DB	0d1H
	DB	060H
	DB	060H
	DB	060H
	DB	0d1H
	DB	060H
	DB	060H
	DB	060H
	DB	0d1H
	DB	060H
	DB	060H
	DB	060H
	DB	0d1H
	DB	060H
	DB	060H
	DB	060H
	DB	0d1H
	DB	060H
	DB	060H
	DB	060H
	DB	0d1H
	DB	060H
	DB	060H
	DB	060H
	DB	0d1H
	DB	060H
	DB	060H
	DB	060H
	DB	0d1H
	DB	060H
	DB	060H
	DB	060H
	DB	0d1H
	DB	060H
	DB	060H
	DB	060H
	DB	0d1H
	DB	060H
	DB	060H
	DB	060H
	DB	0d1H
	DB	060H
	DB	060H
	DB	060H
	DB	0d1H
	DB	060H
	DB	060H
	DB	060H
	DB	0d1H
	DB	060H
	DB	060H
	DB	060H
	DB	0d1H
	DB	060H
	DB	060H
	DB	060H
	DB	0d1H
	DB	060H
	DB	060H
	DB	060H
	DB	0d1H
	DB	060H
	DB	060H
	DB	060H
	DB	0d1H
	DB	060H
	DB	060H
	DB	060H
	DB	0d1H
	DB	060H
	DB	060H
	DB	060H
	DB	0d1H
	DB	060H
	DB	060H
	DB	060H
	DB	0d1H
	DB	060H
	DB	060H
	DB	060H
	DB	0d1H
	DB	060H
	DB	060H
	DB	060H
	DB	0d1H
	DB	060H
	DB	060H
	DB	060H
	DB	0d1H
	DB	060H
	DB	060H
	DB	060H
	DB	0d1H
	DB	060H
	DB	060H
	DB	060H
	DB	0d1H
	DB	060H
	DB	060H
	DB	060H
	DB	0d1H
	DB	060H
	DB	060H
	DB	060H
	DB	0d1H
	DB	060H
	DB	060H
	DB	060H
	DB	0d1H
	DB	060H
	DB	060H
	DB	060H
	DB	0d1H
	DB	060H
	DB	060H
	DB	060H
	DB	0d1H
	DB	060H
	DB	060H
	DB	060H
	DB	0d1H
	DB	060H
	DB	060H
	DB	060H
	DB	0d1H
	DB	060H
	DB	060H
	DB	060H
	DB	0d1H
	DB	060H
	DB	060H
	DB	060H
	DB	0d1H
	DB	060H
	DB	060H
	DB	060H
	DB	0d1H
	DB	060H
	DB	060H
	DB	060H
	DB	0d1H
	DB	060H
	DB	060H
	DB	060H
	DB	0d1H
	DB	060H
	DB	060H
	DB	060H
	DB	0d1H
	DB	060H
	DB	060H
	DB	060H
	DB	0d1H
	DB	060H
	DB	060H
	DB	060H
	DB	0d1H
	DB	060H
	DB	060H
	DB	060H
	DB	0d1H
	DB	060H
	DB	060H
	DB	060H
	DB	0d1H
	DB	060H
	DB	060H
	DB	060H
	DB	0d1H
	DB	060H
	DB	060H
	DB	060H
	DB	0d1H
	DB	060H
	DB	060H
	DB	060H
	DB	0d1H
	DB	060H
	DB	060H
	DB	060H
	DB	0d1H
	DB	060H
	DB	060H
	DB	060H
	DB	0d1H
	DB	060H
	DB	060H
	DB	060H
	DB	0d1H
	DB	060H
	DB	060H
	DB	060H
	DB	0d1H
	DB	060H
	DB	060H
	DB	060H
	DB	0d1H
	DB	060H
	DB	060H
	DB	060H
	DB	0d1H
	DB	060H
	DB	060H
	DB	060H
	DB	0d1H
	DB	060H
	DB	060H
	DB	060H
	DB	0d1H
	DB	060H
	DB	060H
	DB	060H
	DB	0d1H
	DB	060H
	DB	060H
	DB	060H
	DB	0d1H
	DB	060H
	DB	060H
	DB	060H
	DB	0d1H
	DB	060H
	DB	060H
	DB	060H
	DB	0d1H
	DB	060H
	DB	060H
	DB	060H
	DB	0d1H
	DB	060H
	DB	060H
	DB	060H
	DB	0d1H
	DB	060H
	DB	060H
	DB	060H
	DB	0d1H
	DB	060H
	DB	060H
	DB	060H
	DB	0d1H
	DB	060H
	DB	060H
	DB	060H
	DB	0d1H
	DB	060H
	DB	060H
	DB	060H
	DB	0d1H
	DB	060H
	DB	060H
	DB	060H
	DB	0d1H
	DB	060H
	DB	060H
	DB	060H
	DB	0d1H
	DB	060H
	DB	060H
	DB	060H
	DB	0d1H
	DB	060H
	DB	060H
	DB	060H
	DB	0d1H
	DB	060H
	DB	060H
	DB	060H
	DB	0d1H
	DB	060H
	DB	060H
	DB	060H
	DB	0d1H
	DB	060H
	DB	060H
	DB	060H
	DB	0d1H
	DB	060H
	DB	060H
	DB	060H
	DB	0d1H
	DB	060H
	DB	060H
	DB	060H
	DB	0d1H
	DB	060H
	DB	060H
	DB	060H
	DB	0d1H
	DB	060H
	DB	060H
	DB	060H
	DB	0d1H
	DB	060H
	DB	060H
	DB	060H
	DB	0d1H
	DB	0a8H
	DB	08cH
	DB	010H
	DB	0ffH
	DB	0a8H
	DB	08cH
	DB	010H
	DB	0ffH
	DB	0a8H
	DB	08cH
	DB	010H
	DB	0ffH
	DB	0a8H
	DB	08cH
	DB	010H
	DB	0ffH
	DB	060H
	DB	060H
	DB	060H
	DB	0d1H
	DB	060H
	DB	060H
	DB	060H
	DB	0d1H
	DB	060H
	DB	060H
	DB	060H
	DB	0d1H
	DB	060H
	DB	060H
	DB	060H
	DB	0d1H
	DB	060H
	DB	060H
	DB	060H
	DB	0d1H
	DB	060H
	DB	060H
	DB	060H
	DB	0d1H
	DB	060H
	DB	060H
	DB	060H
	DB	0d1H
	DB	060H
	DB	060H
	DB	060H
	DB	0d1H
	DB	060H
	DB	060H
	DB	060H
	DB	0d1H
	DB	060H
	DB	060H
	DB	060H
	DB	0d1H
	DB	060H
	DB	060H
	DB	060H
	DB	0d1H
	DB	060H
	DB	060H
	DB	060H
	DB	0d1H
	DB	060H
	DB	060H
	DB	060H
	DB	0d1H
	DB	060H
	DB	060H
	DB	060H
	DB	0d1H
	DB	060H
	DB	060H
	DB	060H
	DB	0d1H
	DB	060H
	DB	060H
	DB	060H
	DB	0d1H
	DB	060H
	DB	060H
	DB	060H
	DB	0d1H
	DB	060H
	DB	060H
	DB	060H
	DB	0d1H
	DB	060H
	DB	060H
	DB	060H
	DB	0d1H
	DB	060H
	DB	060H
	DB	060H
	DB	0d1H
	DB	060H
	DB	060H
	DB	060H
	DB	0d1H
	DB	060H
	DB	060H
	DB	060H
	DB	0d1H
	DB	060H
	DB	060H
	DB	060H
	DB	0d1H
	DB	060H
	DB	060H
	DB	060H
	DB	0d1H
	DB	060H
	DB	060H
	DB	060H
	DB	0d1H
	DB	060H
	DB	060H
	DB	060H
	DB	0d1H
	DB	060H
	DB	060H
	DB	060H
	DB	0d1H
	DB	060H
	DB	060H
	DB	060H
	DB	0d1H
	DB	060H
	DB	060H
	DB	060H
	DB	0d1H
	DB	060H
	DB	060H
	DB	060H
	DB	0d1H
	DB	060H
	DB	060H
	DB	060H
	DB	0d1H
	DB	060H
	DB	060H
	DB	060H
	DB	0d1H
	DB	060H
	DB	060H
	DB	060H
	DB	0d1H
	DB	060H
	DB	060H
	DB	060H
	DB	0d1H
	DB	060H
	DB	060H
	DB	060H
	DB	0d1H
	DB	060H
	DB	060H
	DB	060H
	DB	0d1H
	DB	060H
	DB	060H
	DB	060H
	DB	0d1H
	DB	060H
	DB	060H
	DB	060H
	DB	0d1H
	DB	060H
	DB	060H
	DB	060H
	DB	0d1H
	DB	060H
	DB	060H
	DB	060H
	DB	0d1H
	DB	060H
	DB	060H
	DB	060H
	DB	0d1H
	DB	060H
	DB	060H
	DB	060H
	DB	0d1H
	DB	060H
	DB	060H
	DB	060H
	DB	0d1H
	DB	060H
	DB	060H
	DB	060H
	DB	0d1H
	DB	060H
	DB	060H
	DB	060H
	DB	0d1H
	DB	060H
	DB	060H
	DB	060H
	DB	0d1H
	DB	060H
	DB	060H
	DB	060H
	DB	0d1H
	DB	060H
	DB	060H
	DB	060H
	DB	0d1H
	DB	060H
	DB	060H
	DB	060H
	DB	0d1H
	DB	060H
	DB	060H
	DB	060H
	DB	0d1H
	DB	060H
	DB	060H
	DB	060H
	DB	0d1H
	DB	060H
	DB	060H
	DB	060H
	DB	0d1H
	DB	060H
	DB	060H
	DB	060H
	DB	0d1H
	DB	060H
	DB	060H
	DB	060H
	DB	0d1H
	DB	060H
	DB	060H
	DB	060H
	DB	0d1H
	DB	060H
	DB	060H
	DB	060H
	DB	0d1H
	DB	060H
	DB	060H
	DB	060H
	DB	0d1H
	DB	060H
	DB	060H
	DB	060H
	DB	0d1H
	DB	060H
	DB	060H
	DB	060H
	DB	0d1H
	DB	060H
	DB	060H
	DB	060H
	DB	0d1H
	DB	060H
	DB	060H
	DB	060H
	DB	0d1H
	DB	060H
	DB	060H
	DB	060H
	DB	0d1H
	DB	060H
	DB	060H
	DB	060H
	DB	0d1H
	DB	060H
	DB	060H
	DB	060H
	DB	0d1H
	DB	060H
	DB	060H
	DB	060H
	DB	0d1H
	DB	060H
	DB	060H
	DB	060H
	DB	0d1H
	DB	060H
	DB	060H
	DB	060H
	DB	0d1H
	DB	060H
	DB	060H
	DB	060H
	DB	0d1H
	DB	060H
	DB	060H
	DB	060H
	DB	0d1H
	DB	060H
	DB	060H
	DB	060H
	DB	0d1H
	DB	060H
	DB	060H
	DB	060H
	DB	0d1H
	DB	060H
	DB	060H
	DB	060H
	DB	0d1H
	DB	060H
	DB	060H
	DB	060H
	DB	0d1H
	DB	060H
	DB	060H
	DB	060H
	DB	0d1H
	DB	060H
	DB	060H
	DB	060H
	DB	0d1H
	DB	060H
	DB	060H
	DB	060H
	DB	0d1H
	DB	060H
	DB	060H
	DB	060H
	DB	0d1H
	DB	060H
	DB	060H
	DB	060H
	DB	0d1H
	DB	060H
	DB	060H
	DB	060H
	DB	0d1H
	DB	060H
	DB	060H
	DB	060H
	DB	0d1H
	DB	060H
	DB	060H
	DB	060H
	DB	0d1H
	DB	060H
	DB	060H
	DB	060H
	DB	0d1H
	DB	060H
	DB	060H
	DB	060H
	DB	0d1H
	DB	060H
	DB	060H
	DB	060H
	DB	0d1H
	DB	060H
	DB	060H
	DB	060H
	DB	0d1H
	DB	060H
	DB	060H
	DB	060H
	DB	0d1H
	DB	060H
	DB	060H
	DB	060H
	DB	0d1H
	DB	060H
	DB	060H
	DB	060H
	DB	0d1H
	DB	060H
	DB	060H
	DB	060H
	DB	0d1H
	DB	060H
	DB	060H
	DB	060H
	DB	0d1H
	DB	060H
	DB	060H
	DB	060H
	DB	0d1H
	DB	060H
	DB	060H
	DB	060H
	DB	0d1H
	DB	060H
	DB	060H
	DB	060H
	DB	0d1H
	DB	060H
	DB	060H
	DB	060H
	DB	0d1H
	DB	060H
	DB	060H
	DB	060H
	DB	0d1H
	DB	060H
	DB	060H
	DB	060H
	DB	0d1H
	DB	060H
	DB	060H
	DB	060H
	DB	0d1H
	DB	060H
	DB	060H
	DB	060H
	DB	0d1H
	DB	060H
	DB	060H
	DB	060H
	DB	0d1H
	DB	060H
	DB	060H
	DB	060H
	DB	0d1H
	DB	060H
	DB	060H
	DB	060H
	DB	0d1H
	DB	060H
	DB	060H
	DB	060H
	DB	0d1H
	DB	060H
	DB	060H
	DB	060H
	DB	0d1H
	DB	060H
	DB	060H
	DB	060H
	DB	0d1H
	DB	060H
	DB	060H
	DB	060H
	DB	0d1H
	DB	060H
	DB	060H
	DB	060H
	DB	0d1H
	DB	060H
	DB	060H
	DB	060H
	DB	0d1H
	DB	060H
	DB	060H
	DB	060H
	DB	0d1H
	DB	060H
	DB	060H
	DB	060H
	DB	0d1H
	DB	060H
	DB	060H
	DB	060H
	DB	0d1H
	DB	060H
	DB	060H
	DB	060H
	DB	0d1H
	DB	060H
	DB	060H
	DB	060H
	DB	0d1H
	DB	060H
	DB	060H
	DB	060H
	DB	0d1H
	DB	060H
	DB	060H
	DB	060H
	DB	0d1H
	DB	060H
	DB	060H
	DB	060H
	DB	0d1H
	DB	060H
	DB	060H
	DB	060H
	DB	0d1H
	DB	060H
	DB	060H
	DB	060H
	DB	0d1H
	DB	060H
	DB	060H
	DB	060H
	DB	0d1H
	DB	060H
	DB	060H
	DB	060H
	DB	0d1H
	DB	060H
	DB	060H
	DB	060H
	DB	0d1H
	DB	060H
	DB	060H
	DB	060H
	DB	0d1H
	DB	060H
	DB	060H
	DB	060H
	DB	0d1H
	DB	0a8H
	DB	08cH
	DB	010H
	DB	0ffH
	DB	0a8H
	DB	08cH
	DB	010H
	DB	0ffH
	DB	0a8H
	DB	08cH
	DB	010H
	DB	0ffH
	DB	0a8H
	DB	08cH
	DB	010H
	DB	0ffH
	DB	060H
	DB	060H
	DB	060H
	DB	0d1H
	DB	060H
	DB	060H
	DB	060H
	DB	0d1H
	DB	060H
	DB	060H
	DB	060H
	DB	0d1H
	DB	060H
	DB	060H
	DB	060H
	DB	0d1H
	DB	060H
	DB	060H
	DB	060H
	DB	0d1H
	DB	060H
	DB	060H
	DB	060H
	DB	0d1H
	DB	060H
	DB	060H
	DB	060H
	DB	0d1H
	DB	060H
	DB	060H
	DB	060H
	DB	0d1H
	DB	060H
	DB	060H
	DB	060H
	DB	0d1H
	DB	060H
	DB	060H
	DB	060H
	DB	0d1H
	DB	060H
	DB	060H
	DB	060H
	DB	0d1H
	DB	060H
	DB	060H
	DB	060H
	DB	0d1H
	DB	060H
	DB	060H
	DB	060H
	DB	0d1H
	DB	060H
	DB	060H
	DB	060H
	DB	0d1H
	DB	060H
	DB	060H
	DB	060H
	DB	0d1H
	DB	060H
	DB	060H
	DB	060H
	DB	0d1H
	DB	060H
	DB	060H
	DB	060H
	DB	0d1H
	DB	060H
	DB	060H
	DB	060H
	DB	0d1H
	DB	060H
	DB	060H
	DB	060H
	DB	0d1H
	DB	060H
	DB	060H
	DB	060H
	DB	0d1H
	DB	060H
	DB	060H
	DB	060H
	DB	0d1H
	DB	060H
	DB	060H
	DB	060H
	DB	0d1H
	DB	060H
	DB	060H
	DB	060H
	DB	0d1H
	DB	060H
	DB	060H
	DB	060H
	DB	0d1H
	DB	060H
	DB	060H
	DB	060H
	DB	0d1H
	DB	060H
	DB	060H
	DB	060H
	DB	0d1H
	DB	060H
	DB	060H
	DB	060H
	DB	0d1H
	DB	060H
	DB	060H
	DB	060H
	DB	0d1H
	DB	060H
	DB	060H
	DB	060H
	DB	0d1H
	DB	060H
	DB	060H
	DB	060H
	DB	0d1H
	DB	060H
	DB	060H
	DB	060H
	DB	0d1H
	DB	060H
	DB	060H
	DB	060H
	DB	0d1H
	DB	060H
	DB	060H
	DB	060H
	DB	0d1H
	DB	060H
	DB	060H
	DB	060H
	DB	0d1H
	DB	060H
	DB	060H
	DB	060H
	DB	0d1H
	DB	060H
	DB	060H
	DB	060H
	DB	0d1H
	DB	060H
	DB	060H
	DB	060H
	DB	0d1H
	DB	060H
	DB	060H
	DB	060H
	DB	0d1H
	DB	060H
	DB	060H
	DB	060H
	DB	0d1H
	DB	060H
	DB	060H
	DB	060H
	DB	0d1H
	DB	060H
	DB	060H
	DB	060H
	DB	0d1H
	DB	060H
	DB	060H
	DB	060H
	DB	0d1H
	DB	060H
	DB	060H
	DB	060H
	DB	0d1H
	DB	060H
	DB	060H
	DB	060H
	DB	0d1H
	DB	060H
	DB	060H
	DB	060H
	DB	0d1H
	DB	060H
	DB	060H
	DB	060H
	DB	0d1H
	DB	060H
	DB	060H
	DB	060H
	DB	0d1H
	DB	060H
	DB	060H
	DB	060H
	DB	0d1H
	DB	060H
	DB	060H
	DB	060H
	DB	0d1H
	DB	060H
	DB	060H
	DB	060H
	DB	0d1H
	DB	060H
	DB	060H
	DB	060H
	DB	0d1H
	DB	060H
	DB	060H
	DB	060H
	DB	0d1H
	DB	060H
	DB	060H
	DB	060H
	DB	0d1H
	DB	060H
	DB	060H
	DB	060H
	DB	0d1H
	DB	060H
	DB	060H
	DB	060H
	DB	0d1H
	DB	060H
	DB	060H
	DB	060H
	DB	0d1H
	DB	060H
	DB	060H
	DB	060H
	DB	0d1H
	DB	060H
	DB	060H
	DB	060H
	DB	0d1H
	DB	060H
	DB	060H
	DB	060H
	DB	0d1H
	DB	060H
	DB	060H
	DB	060H
	DB	0d1H
	DB	060H
	DB	060H
	DB	060H
	DB	0d1H
	DB	060H
	DB	060H
	DB	060H
	DB	0d1H
	DB	060H
	DB	060H
	DB	060H
	DB	0d1H
	DB	060H
	DB	060H
	DB	060H
	DB	0d1H
	DB	060H
	DB	060H
	DB	060H
	DB	0d1H
	DB	060H
	DB	060H
	DB	060H
	DB	0d1H
	DB	060H
	DB	060H
	DB	060H
	DB	0d1H
	DB	060H
	DB	060H
	DB	060H
	DB	0d1H
	DB	060H
	DB	060H
	DB	060H
	DB	0d1H
	DB	060H
	DB	060H
	DB	060H
	DB	0d1H
	DB	060H
	DB	060H
	DB	060H
	DB	0d1H
	DB	060H
	DB	060H
	DB	060H
	DB	0d1H
	DB	060H
	DB	060H
	DB	060H
	DB	0d1H
	DB	060H
	DB	060H
	DB	060H
	DB	0d1H
	DB	060H
	DB	060H
	DB	060H
	DB	0d1H
	DB	060H
	DB	060H
	DB	060H
	DB	0d1H
	DB	060H
	DB	060H
	DB	060H
	DB	0d1H
	DB	060H
	DB	060H
	DB	060H
	DB	0d1H
	DB	060H
	DB	060H
	DB	060H
	DB	0d1H
	DB	060H
	DB	060H
	DB	060H
	DB	0d1H
	DB	060H
	DB	060H
	DB	060H
	DB	0d1H
	DB	060H
	DB	060H
	DB	060H
	DB	0d1H
	DB	060H
	DB	060H
	DB	060H
	DB	0d1H
	DB	060H
	DB	060H
	DB	060H
	DB	0d1H
	DB	060H
	DB	060H
	DB	060H
	DB	0d1H
	DB	060H
	DB	060H
	DB	060H
	DB	0d1H
	DB	060H
	DB	060H
	DB	060H
	DB	0d1H
	DB	060H
	DB	060H
	DB	060H
	DB	0d1H
	DB	060H
	DB	060H
	DB	060H
	DB	0d1H
	DB	060H
	DB	060H
	DB	060H
	DB	0d1H
	DB	060H
	DB	060H
	DB	060H
	DB	0d1H
	DB	060H
	DB	060H
	DB	060H
	DB	0d1H
	DB	060H
	DB	060H
	DB	060H
	DB	0d1H
	DB	060H
	DB	060H
	DB	060H
	DB	0d1H
	DB	060H
	DB	060H
	DB	060H
	DB	0d1H
	DB	060H
	DB	060H
	DB	060H
	DB	0d1H
	DB	060H
	DB	060H
	DB	060H
	DB	0d1H
	DB	060H
	DB	060H
	DB	060H
	DB	0d1H
	DB	060H
	DB	060H
	DB	060H
	DB	0d1H
	DB	060H
	DB	060H
	DB	060H
	DB	0d1H
	DB	060H
	DB	060H
	DB	060H
	DB	0d1H
	DB	060H
	DB	060H
	DB	060H
	DB	0d1H
	DB	060H
	DB	060H
	DB	060H
	DB	0d1H
	DB	060H
	DB	060H
	DB	060H
	DB	0d1H
	DB	060H
	DB	060H
	DB	060H
	DB	0d1H
	DB	060H
	DB	060H
	DB	060H
	DB	0d1H
	DB	060H
	DB	060H
	DB	060H
	DB	0d1H
	DB	060H
	DB	060H
	DB	060H
	DB	0d1H
	DB	060H
	DB	060H
	DB	060H
	DB	0d1H
	DB	060H
	DB	060H
	DB	060H
	DB	0d1H
	DB	060H
	DB	060H
	DB	060H
	DB	0d1H
	DB	060H
	DB	060H
	DB	060H
	DB	0d1H
	DB	060H
	DB	060H
	DB	060H
	DB	0d1H
	DB	060H
	DB	060H
	DB	060H
	DB	0d1H
	DB	060H
	DB	060H
	DB	060H
	DB	0d1H
	DB	060H
	DB	060H
	DB	060H
	DB	0d1H
	DB	060H
	DB	060H
	DB	060H
	DB	0d1H
	DB	060H
	DB	060H
	DB	060H
	DB	0d1H
	DB	060H
	DB	060H
	DB	060H
	DB	0d1H
	DB	060H
	DB	060H
	DB	060H
	DB	0d1H
	DB	060H
	DB	060H
	DB	060H
	DB	0d1H
	DB	060H
	DB	060H
	DB	060H
	DB	0d1H
	DB	0a8H
	DB	08cH
	DB	010H
	DB	0ffH
	DB	0a8H
	DB	08cH
	DB	010H
	DB	0ffH
	DB	0a8H
	DB	08cH
	DB	010H
	DB	0ffH
	DB	0a8H
	DB	08cH
	DB	010H
	DB	0ffH
	DB	060H
	DB	060H
	DB	060H
	DB	0d1H
	DB	060H
	DB	060H
	DB	060H
	DB	0d1H
	DB	060H
	DB	060H
	DB	060H
	DB	0d1H
	DB	060H
	DB	060H
	DB	060H
	DB	0d1H
	DB	060H
	DB	060H
	DB	060H
	DB	0d1H
	DB	060H
	DB	060H
	DB	060H
	DB	0d1H
	DB	060H
	DB	060H
	DB	060H
	DB	0d1H
	DB	060H
	DB	060H
	DB	060H
	DB	0d1H
	DB	060H
	DB	060H
	DB	060H
	DB	0d1H
	DB	060H
	DB	060H
	DB	060H
	DB	0d1H
	DB	060H
	DB	060H
	DB	060H
	DB	0d1H
	DB	060H
	DB	060H
	DB	060H
	DB	0d1H
	DB	060H
	DB	060H
	DB	060H
	DB	0d1H
	DB	060H
	DB	060H
	DB	060H
	DB	0d1H
	DB	060H
	DB	060H
	DB	060H
	DB	0d1H
	DB	060H
	DB	060H
	DB	060H
	DB	0d1H
	DB	060H
	DB	060H
	DB	060H
	DB	0d1H
	DB	060H
	DB	060H
	DB	060H
	DB	0d1H
	DB	060H
	DB	060H
	DB	060H
	DB	0d1H
	DB	060H
	DB	060H
	DB	060H
	DB	0d1H
	DB	060H
	DB	060H
	DB	060H
	DB	0d1H
	DB	060H
	DB	060H
	DB	060H
	DB	0d1H
	DB	060H
	DB	060H
	DB	060H
	DB	0d1H
	DB	060H
	DB	060H
	DB	060H
	DB	0d1H
	DB	060H
	DB	060H
	DB	060H
	DB	0d1H
	DB	060H
	DB	060H
	DB	060H
	DB	0d1H
	DB	060H
	DB	060H
	DB	060H
	DB	0d1H
	DB	060H
	DB	060H
	DB	060H
	DB	0d1H
	DB	060H
	DB	060H
	DB	060H
	DB	0d1H
	DB	060H
	DB	060H
	DB	060H
	DB	0d1H
	DB	060H
	DB	060H
	DB	060H
	DB	0d1H
	DB	060H
	DB	060H
	DB	060H
	DB	0d1H
	DB	060H
	DB	060H
	DB	060H
	DB	0d1H
	DB	060H
	DB	060H
	DB	060H
	DB	0d1H
	DB	060H
	DB	060H
	DB	060H
	DB	0d1H
	DB	060H
	DB	060H
	DB	060H
	DB	0d1H
	DB	060H
	DB	060H
	DB	060H
	DB	0d1H
	DB	060H
	DB	060H
	DB	060H
	DB	0d1H
	DB	060H
	DB	060H
	DB	060H
	DB	0d1H
	DB	060H
	DB	060H
	DB	060H
	DB	0d1H
	DB	060H
	DB	060H
	DB	060H
	DB	0d1H
	DB	060H
	DB	060H
	DB	060H
	DB	0d1H
	DB	060H
	DB	060H
	DB	060H
	DB	0d1H
	DB	060H
	DB	060H
	DB	060H
	DB	0d1H
	DB	060H
	DB	060H
	DB	060H
	DB	0d1H
	DB	060H
	DB	060H
	DB	060H
	DB	0d1H
	DB	060H
	DB	060H
	DB	060H
	DB	0d1H
	DB	060H
	DB	060H
	DB	060H
	DB	0d1H
	DB	060H
	DB	060H
	DB	060H
	DB	0d1H
	DB	060H
	DB	060H
	DB	060H
	DB	0d1H
	DB	060H
	DB	060H
	DB	060H
	DB	0d1H
	DB	060H
	DB	060H
	DB	060H
	DB	0d1H
	DB	060H
	DB	060H
	DB	060H
	DB	0d1H
	DB	060H
	DB	060H
	DB	060H
	DB	0d1H
	DB	060H
	DB	060H
	DB	060H
	DB	0d1H
	DB	060H
	DB	060H
	DB	060H
	DB	0d1H
	DB	060H
	DB	060H
	DB	060H
	DB	0d1H
	DB	060H
	DB	060H
	DB	060H
	DB	0d1H
	DB	060H
	DB	060H
	DB	060H
	DB	0d1H
	DB	060H
	DB	060H
	DB	060H
	DB	0d1H
	DB	060H
	DB	060H
	DB	060H
	DB	0d1H
	DB	060H
	DB	060H
	DB	060H
	DB	0d1H
	DB	060H
	DB	060H
	DB	060H
	DB	0d1H
	DB	060H
	DB	060H
	DB	060H
	DB	0d1H
	DB	060H
	DB	060H
	DB	060H
	DB	0d1H
	DB	060H
	DB	060H
	DB	060H
	DB	0d1H
	DB	060H
	DB	060H
	DB	060H
	DB	0d1H
	DB	060H
	DB	060H
	DB	060H
	DB	0d1H
	DB	060H
	DB	060H
	DB	060H
	DB	0d1H
	DB	060H
	DB	060H
	DB	060H
	DB	0d1H
	DB	060H
	DB	060H
	DB	060H
	DB	0d1H
	DB	060H
	DB	060H
	DB	060H
	DB	0d1H
	DB	060H
	DB	060H
	DB	060H
	DB	0d1H
	DB	060H
	DB	060H
	DB	060H
	DB	0d1H
	DB	060H
	DB	060H
	DB	060H
	DB	0d1H
	DB	060H
	DB	060H
	DB	060H
	DB	0d1H
	DB	060H
	DB	060H
	DB	060H
	DB	0d1H
	DB	060H
	DB	060H
	DB	060H
	DB	0d1H
	DB	060H
	DB	060H
	DB	060H
	DB	0d1H
	DB	060H
	DB	060H
	DB	060H
	DB	0d1H
	DB	060H
	DB	060H
	DB	060H
	DB	0d1H
	DB	060H
	DB	060H
	DB	060H
	DB	0d1H
	DB	060H
	DB	060H
	DB	060H
	DB	0d1H
	DB	060H
	DB	060H
	DB	060H
	DB	0d1H
	DB	060H
	DB	060H
	DB	060H
	DB	0d1H
	DB	060H
	DB	060H
	DB	060H
	DB	0d1H
	DB	060H
	DB	060H
	DB	060H
	DB	0d1H
	DB	060H
	DB	060H
	DB	060H
	DB	0d1H
	DB	060H
	DB	060H
	DB	060H
	DB	0d1H
	DB	060H
	DB	060H
	DB	060H
	DB	0d1H
	DB	060H
	DB	060H
	DB	060H
	DB	0d1H
	DB	060H
	DB	060H
	DB	060H
	DB	0d1H
	DB	060H
	DB	060H
	DB	060H
	DB	0d1H
	DB	060H
	DB	060H
	DB	060H
	DB	0d1H
	DB	060H
	DB	060H
	DB	060H
	DB	0d1H
	DB	060H
	DB	060H
	DB	060H
	DB	0d1H
	DB	060H
	DB	060H
	DB	060H
	DB	0d1H
	DB	060H
	DB	060H
	DB	060H
	DB	0d1H
	DB	060H
	DB	060H
	DB	060H
	DB	0d1H
	DB	060H
	DB	060H
	DB	060H
	DB	0d1H
	DB	060H
	DB	060H
	DB	060H
	DB	0d1H
	DB	060H
	DB	060H
	DB	060H
	DB	0d1H
	DB	060H
	DB	060H
	DB	060H
	DB	0d1H
	DB	060H
	DB	060H
	DB	060H
	DB	0d1H
	DB	060H
	DB	060H
	DB	060H
	DB	0d1H
	DB	060H
	DB	060H
	DB	060H
	DB	0d1H
	DB	060H
	DB	060H
	DB	060H
	DB	0d1H
	DB	060H
	DB	060H
	DB	060H
	DB	0d1H
	DB	060H
	DB	060H
	DB	060H
	DB	0d1H
	DB	060H
	DB	060H
	DB	060H
	DB	0d1H
	DB	060H
	DB	060H
	DB	060H
	DB	0d1H
	DB	060H
	DB	060H
	DB	060H
	DB	0d1H
	DB	060H
	DB	060H
	DB	060H
	DB	0d1H
	DB	060H
	DB	060H
	DB	060H
	DB	0d1H
	DB	060H
	DB	060H
	DB	060H
	DB	0d1H
	DB	060H
	DB	060H
	DB	060H
	DB	0d1H
	DB	060H
	DB	060H
	DB	060H
	DB	0d1H
	DB	060H
	DB	060H
	DB	060H
	DB	0d1H
	DB	060H
	DB	060H
	DB	060H
	DB	0d1H
	DB	060H
	DB	060H
	DB	060H
	DB	0d1H
	DB	060H
	DB	060H
	DB	060H
	DB	0d1H
	DB	060H
	DB	060H
	DB	060H
	DB	0d1H
	DB	0a8H
	DB	08cH
	DB	010H
	DB	0ffH
	DB	0a8H
	DB	08cH
	DB	010H
	DB	0ffH
	DB	0a8H
	DB	08cH
	DB	010H
	DB	0ffH
	DB	0a8H
	DB	08cH
	DB	010H
	DB	0ffH
	DB	060H
	DB	060H
	DB	060H
	DB	0d1H
	DB	060H
	DB	060H
	DB	060H
	DB	0d1H
	DB	060H
	DB	060H
	DB	060H
	DB	0d1H
	DB	060H
	DB	060H
	DB	060H
	DB	0d1H
	DB	060H
	DB	060H
	DB	060H
	DB	0d1H
	DB	060H
	DB	060H
	DB	060H
	DB	0d1H
	DB	060H
	DB	060H
	DB	060H
	DB	0d1H
	DB	060H
	DB	060H
	DB	060H
	DB	0d1H
	DB	060H
	DB	060H
	DB	060H
	DB	0d1H
	DB	060H
	DB	060H
	DB	060H
	DB	0d1H
	DB	060H
	DB	060H
	DB	060H
	DB	0d1H
	DB	060H
	DB	060H
	DB	060H
	DB	0d1H
	DB	060H
	DB	060H
	DB	060H
	DB	0d1H
	DB	060H
	DB	060H
	DB	060H
	DB	0d1H
	DB	060H
	DB	060H
	DB	060H
	DB	0d1H
	DB	060H
	DB	060H
	DB	060H
	DB	0d1H
	DB	060H
	DB	060H
	DB	060H
	DB	0d1H
	DB	060H
	DB	060H
	DB	060H
	DB	0d1H
	DB	060H
	DB	060H
	DB	060H
	DB	0d1H
	DB	060H
	DB	060H
	DB	060H
	DB	0d1H
	DB	060H
	DB	060H
	DB	060H
	DB	0d1H
	DB	060H
	DB	060H
	DB	060H
	DB	0d1H
	DB	060H
	DB	060H
	DB	060H
	DB	0d1H
	DB	060H
	DB	060H
	DB	060H
	DB	0d1H
	DB	060H
	DB	060H
	DB	060H
	DB	0d1H
	DB	060H
	DB	060H
	DB	060H
	DB	0d1H
	DB	060H
	DB	060H
	DB	060H
	DB	0d1H
	DB	060H
	DB	060H
	DB	060H
	DB	0d1H
	DB	060H
	DB	060H
	DB	060H
	DB	0d1H
	DB	060H
	DB	060H
	DB	060H
	DB	0d1H
	DB	060H
	DB	060H
	DB	060H
	DB	0d1H
	DB	060H
	DB	060H
	DB	060H
	DB	0d1H
	DB	060H
	DB	060H
	DB	060H
	DB	0d1H
	DB	060H
	DB	060H
	DB	060H
	DB	0d1H
	DB	060H
	DB	060H
	DB	060H
	DB	0d1H
	DB	060H
	DB	060H
	DB	060H
	DB	0d1H
	DB	060H
	DB	060H
	DB	060H
	DB	0d1H
	DB	060H
	DB	060H
	DB	060H
	DB	0d1H
	DB	060H
	DB	060H
	DB	060H
	DB	0d1H
	DB	060H
	DB	060H
	DB	060H
	DB	0d1H
	DB	060H
	DB	060H
	DB	060H
	DB	0d1H
	DB	060H
	DB	060H
	DB	060H
	DB	0d1H
	DB	060H
	DB	060H
	DB	060H
	DB	0d1H
	DB	060H
	DB	060H
	DB	060H
	DB	0d1H
	DB	060H
	DB	060H
	DB	060H
	DB	0d1H
	DB	060H
	DB	060H
	DB	060H
	DB	0d1H
	DB	060H
	DB	060H
	DB	060H
	DB	0d1H
	DB	060H
	DB	060H
	DB	060H
	DB	0d1H
	DB	060H
	DB	060H
	DB	060H
	DB	0d1H
	DB	060H
	DB	060H
	DB	060H
	DB	0d1H
	DB	060H
	DB	060H
	DB	060H
	DB	0d1H
	DB	060H
	DB	060H
	DB	060H
	DB	0d1H
	DB	060H
	DB	060H
	DB	060H
	DB	0d1H
	DB	060H
	DB	060H
	DB	060H
	DB	0d1H
	DB	060H
	DB	060H
	DB	060H
	DB	0d1H
	DB	060H
	DB	060H
	DB	060H
	DB	0d1H
	DB	060H
	DB	060H
	DB	060H
	DB	0d1H
	DB	060H
	DB	060H
	DB	060H
	DB	0d1H
	DB	060H
	DB	060H
	DB	060H
	DB	0d1H
	DB	060H
	DB	060H
	DB	060H
	DB	0d1H
	DB	060H
	DB	060H
	DB	060H
	DB	0d1H
	DB	060H
	DB	060H
	DB	060H
	DB	0d1H
	DB	060H
	DB	060H
	DB	060H
	DB	0d1H
	DB	060H
	DB	060H
	DB	060H
	DB	0d1H
	DB	060H
	DB	060H
	DB	060H
	DB	0d1H
	DB	060H
	DB	060H
	DB	060H
	DB	0d1H
	DB	060H
	DB	060H
	DB	060H
	DB	0d1H
	DB	060H
	DB	060H
	DB	060H
	DB	0d1H
	DB	060H
	DB	060H
	DB	060H
	DB	0d1H
	DB	060H
	DB	060H
	DB	060H
	DB	0d1H
	DB	060H
	DB	060H
	DB	060H
	DB	0d1H
	DB	060H
	DB	060H
	DB	060H
	DB	0d1H
	DB	060H
	DB	060H
	DB	060H
	DB	0d1H
	DB	060H
	DB	060H
	DB	060H
	DB	0d1H
	DB	060H
	DB	060H
	DB	060H
	DB	0d1H
	DB	060H
	DB	060H
	DB	060H
	DB	0d1H
	DB	060H
	DB	060H
	DB	060H
	DB	0d1H
	DB	060H
	DB	060H
	DB	060H
	DB	0d1H
	DB	060H
	DB	060H
	DB	060H
	DB	0d1H
	DB	060H
	DB	060H
	DB	060H
	DB	0d1H
	DB	060H
	DB	060H
	DB	060H
	DB	0d1H
	DB	060H
	DB	060H
	DB	060H
	DB	0d1H
	DB	060H
	DB	060H
	DB	060H
	DB	0d1H
	DB	060H
	DB	060H
	DB	060H
	DB	0d1H
	DB	060H
	DB	060H
	DB	060H
	DB	0d1H
	DB	060H
	DB	060H
	DB	060H
	DB	0d1H
	DB	060H
	DB	060H
	DB	060H
	DB	0d1H
	DB	060H
	DB	060H
	DB	060H
	DB	0d1H
	DB	060H
	DB	060H
	DB	060H
	DB	0d1H
	DB	060H
	DB	060H
	DB	060H
	DB	0d1H
	DB	060H
	DB	060H
	DB	060H
	DB	0d1H
	DB	060H
	DB	060H
	DB	060H
	DB	0d1H
	DB	060H
	DB	060H
	DB	060H
	DB	0d1H
	DB	060H
	DB	060H
	DB	060H
	DB	0d1H
	DB	060H
	DB	060H
	DB	060H
	DB	0d1H
	DB	060H
	DB	060H
	DB	060H
	DB	0d1H
	DB	060H
	DB	060H
	DB	060H
	DB	0d1H
	DB	060H
	DB	060H
	DB	060H
	DB	0d1H
	DB	060H
	DB	060H
	DB	060H
	DB	0d1H
	DB	060H
	DB	060H
	DB	060H
	DB	0d1H
	DB	060H
	DB	060H
	DB	060H
	DB	0d1H
	DB	060H
	DB	060H
	DB	060H
	DB	0d1H
	DB	060H
	DB	060H
	DB	060H
	DB	0d1H
	DB	060H
	DB	060H
	DB	060H
	DB	0d1H
	DB	060H
	DB	060H
	DB	060H
	DB	0d1H
	DB	060H
	DB	060H
	DB	060H
	DB	0d1H
	DB	060H
	DB	060H
	DB	060H
	DB	0d1H
	DB	060H
	DB	060H
	DB	060H
	DB	0d1H
	DB	060H
	DB	060H
	DB	060H
	DB	0d1H
	DB	060H
	DB	060H
	DB	060H
	DB	0d1H
	DB	060H
	DB	060H
	DB	060H
	DB	0d1H
	DB	060H
	DB	060H
	DB	060H
	DB	0d1H
	DB	060H
	DB	060H
	DB	060H
	DB	0d1H
	DB	060H
	DB	060H
	DB	060H
	DB	0d1H
	DB	060H
	DB	060H
	DB	060H
	DB	0d1H
	DB	060H
	DB	060H
	DB	060H
	DB	0d1H
	DB	060H
	DB	060H
	DB	060H
	DB	0d1H
	DB	060H
	DB	060H
	DB	060H
	DB	0d1H
	DB	060H
	DB	060H
	DB	060H
	DB	0d1H
	DB	060H
	DB	060H
	DB	060H
	DB	0d1H
	DB	060H
	DB	060H
	DB	060H
	DB	0d1H
	DB	060H
	DB	060H
	DB	060H
	DB	0d1H
	DB	0a8H
	DB	08cH
	DB	010H
	DB	0ffH
	DB	0a8H
	DB	08cH
	DB	010H
	DB	0ffH
	DB	0a8H
	DB	08cH
	DB	010H
	DB	0ffH
	DB	0a8H
	DB	08cH
	DB	010H
	DB	0ffH
	DB	060H
	DB	060H
	DB	060H
	DB	0d1H
	DB	060H
	DB	060H
	DB	060H
	DB	0d1H
	DB	060H
	DB	060H
	DB	060H
	DB	0d1H
	DB	060H
	DB	060H
	DB	060H
	DB	0d1H
	DB	060H
	DB	060H
	DB	060H
	DB	0d1H
	DB	060H
	DB	060H
	DB	060H
	DB	0d1H
	DB	060H
	DB	060H
	DB	060H
	DB	0d1H
	DB	060H
	DB	060H
	DB	060H
	DB	0d1H
	DB	060H
	DB	060H
	DB	060H
	DB	0d1H
	DB	060H
	DB	060H
	DB	060H
	DB	0d1H
	DB	060H
	DB	060H
	DB	060H
	DB	0d1H
	DB	060H
	DB	060H
	DB	060H
	DB	0d1H
	DB	060H
	DB	060H
	DB	060H
	DB	0d1H
	DB	060H
	DB	060H
	DB	060H
	DB	0d1H
	DB	060H
	DB	060H
	DB	060H
	DB	0d1H
	DB	060H
	DB	060H
	DB	060H
	DB	0d1H
	DB	060H
	DB	060H
	DB	060H
	DB	0d1H
	DB	060H
	DB	060H
	DB	060H
	DB	0d1H
	DB	060H
	DB	060H
	DB	060H
	DB	0d1H
	DB	060H
	DB	060H
	DB	060H
	DB	0d1H
	DB	060H
	DB	060H
	DB	060H
	DB	0d1H
	DB	060H
	DB	060H
	DB	060H
	DB	0d1H
	DB	060H
	DB	060H
	DB	060H
	DB	0d1H
	DB	060H
	DB	060H
	DB	060H
	DB	0d1H
	DB	060H
	DB	060H
	DB	060H
	DB	0d1H
	DB	060H
	DB	060H
	DB	060H
	DB	0d1H
	DB	060H
	DB	060H
	DB	060H
	DB	0d1H
	DB	060H
	DB	060H
	DB	060H
	DB	0d1H
	DB	060H
	DB	060H
	DB	060H
	DB	0d1H
	DB	060H
	DB	060H
	DB	060H
	DB	0d1H
	DB	060H
	DB	060H
	DB	060H
	DB	0d1H
	DB	060H
	DB	060H
	DB	060H
	DB	0d1H
	DB	060H
	DB	060H
	DB	060H
	DB	0d1H
	DB	060H
	DB	060H
	DB	060H
	DB	0d1H
	DB	060H
	DB	060H
	DB	060H
	DB	0d1H
	DB	060H
	DB	060H
	DB	060H
	DB	0d1H
	DB	060H
	DB	060H
	DB	060H
	DB	0d1H
	DB	060H
	DB	060H
	DB	060H
	DB	0d1H
	DB	060H
	DB	060H
	DB	060H
	DB	0d1H
	DB	060H
	DB	060H
	DB	060H
	DB	0d1H
	DB	060H
	DB	060H
	DB	060H
	DB	0d1H
	DB	060H
	DB	060H
	DB	060H
	DB	0d1H
	DB	060H
	DB	060H
	DB	060H
	DB	0d1H
	DB	060H
	DB	060H
	DB	060H
	DB	0d1H
	DB	060H
	DB	060H
	DB	060H
	DB	0d1H
	DB	060H
	DB	060H
	DB	060H
	DB	0d1H
	DB	060H
	DB	060H
	DB	060H
	DB	0d1H
	DB	060H
	DB	060H
	DB	060H
	DB	0d1H
	DB	060H
	DB	060H
	DB	060H
	DB	0d1H
	DB	060H
	DB	060H
	DB	060H
	DB	0d1H
	DB	060H
	DB	060H
	DB	060H
	DB	0d1H
	DB	060H
	DB	060H
	DB	060H
	DB	0d1H
	DB	060H
	DB	060H
	DB	060H
	DB	0d1H
	DB	060H
	DB	060H
	DB	060H
	DB	0d1H
	DB	060H
	DB	060H
	DB	060H
	DB	0d1H
	DB	060H
	DB	060H
	DB	060H
	DB	0d1H
	DB	060H
	DB	060H
	DB	060H
	DB	0d1H
	DB	060H
	DB	060H
	DB	060H
	DB	0d1H
	DB	060H
	DB	060H
	DB	060H
	DB	0d1H
	DB	060H
	DB	060H
	DB	060H
	DB	0d1H
	DB	060H
	DB	060H
	DB	060H
	DB	0d1H
	DB	060H
	DB	060H
	DB	060H
	DB	0d1H
	DB	060H
	DB	060H
	DB	060H
	DB	0d1H
	DB	060H
	DB	060H
	DB	060H
	DB	0d1H
	DB	060H
	DB	060H
	DB	060H
	DB	0d1H
	DB	060H
	DB	060H
	DB	060H
	DB	0d1H
	DB	060H
	DB	060H
	DB	060H
	DB	0d1H
	DB	060H
	DB	060H
	DB	060H
	DB	0d1H
	DB	060H
	DB	060H
	DB	060H
	DB	0d1H
	DB	060H
	DB	060H
	DB	060H
	DB	0d1H
	DB	060H
	DB	060H
	DB	060H
	DB	0d1H
	DB	060H
	DB	060H
	DB	060H
	DB	0d1H
	DB	060H
	DB	060H
	DB	060H
	DB	0d1H
	DB	060H
	DB	060H
	DB	060H
	DB	0d1H
	DB	060H
	DB	060H
	DB	060H
	DB	0d1H
	DB	060H
	DB	060H
	DB	060H
	DB	0d1H
	DB	060H
	DB	060H
	DB	060H
	DB	0d1H
	DB	060H
	DB	060H
	DB	060H
	DB	0d1H
	DB	060H
	DB	060H
	DB	060H
	DB	0d1H
	DB	060H
	DB	060H
	DB	060H
	DB	0d1H
	DB	060H
	DB	060H
	DB	060H
	DB	0d1H
	DB	060H
	DB	060H
	DB	060H
	DB	0d1H
	DB	060H
	DB	060H
	DB	060H
	DB	0d1H
	DB	060H
	DB	060H
	DB	060H
	DB	0d1H
	DB	060H
	DB	060H
	DB	060H
	DB	0d1H
	DB	060H
	DB	060H
	DB	060H
	DB	0d1H
	DB	060H
	DB	060H
	DB	060H
	DB	0d1H
	DB	060H
	DB	060H
	DB	060H
	DB	0d1H
	DB	060H
	DB	060H
	DB	060H
	DB	0d1H
	DB	060H
	DB	060H
	DB	060H
	DB	0d1H
	DB	060H
	DB	060H
	DB	060H
	DB	0d1H
	DB	060H
	DB	060H
	DB	060H
	DB	0d1H
	DB	060H
	DB	060H
	DB	060H
	DB	0d1H
	DB	060H
	DB	060H
	DB	060H
	DB	0d1H
	DB	060H
	DB	060H
	DB	060H
	DB	0d1H
	DB	060H
	DB	060H
	DB	060H
	DB	0d1H
	DB	060H
	DB	060H
	DB	060H
	DB	0d1H
	DB	060H
	DB	060H
	DB	060H
	DB	0d1H
	DB	060H
	DB	060H
	DB	060H
	DB	0d1H
	DB	060H
	DB	060H
	DB	060H
	DB	0d1H
	DB	060H
	DB	060H
	DB	060H
	DB	0d1H
	DB	060H
	DB	060H
	DB	060H
	DB	0d1H
	DB	060H
	DB	060H
	DB	060H
	DB	0d1H
	DB	060H
	DB	060H
	DB	060H
	DB	0d1H
	DB	060H
	DB	060H
	DB	060H
	DB	0d1H
	DB	060H
	DB	060H
	DB	060H
	DB	0d1H
	DB	060H
	DB	060H
	DB	060H
	DB	0d1H
	DB	060H
	DB	060H
	DB	060H
	DB	0d1H
	DB	060H
	DB	060H
	DB	060H
	DB	0d1H
	DB	060H
	DB	060H
	DB	060H
	DB	0d1H
	DB	060H
	DB	060H
	DB	060H
	DB	0d1H
	DB	060H
	DB	060H
	DB	060H
	DB	0d1H
	DB	060H
	DB	060H
	DB	060H
	DB	0d1H
	DB	060H
	DB	060H
	DB	060H
	DB	0d1H
	DB	060H
	DB	060H
	DB	060H
	DB	0d1H
	DB	060H
	DB	060H
	DB	060H
	DB	0d1H
	DB	060H
	DB	060H
	DB	060H
	DB	0d1H
	DB	060H
	DB	060H
	DB	060H
	DB	0d1H
	DB	060H
	DB	060H
	DB	060H
	DB	0d1H
	DB	060H
	DB	060H
	DB	060H
	DB	0d1H
	DB	060H
	DB	060H
	DB	060H
	DB	0d1H
	DB	060H
	DB	060H
	DB	060H
	DB	0d1H
	DB	0a8H
	DB	08cH
	DB	010H
	DB	0ffH
	DB	0a8H
	DB	08cH
	DB	010H
	DB	0ffH
	DB	0a8H
	DB	08cH
	DB	010H
	DB	0ffH
	DB	0a8H
	DB	08cH
	DB	010H
	DB	0ffH
	DB	060H
	DB	060H
	DB	060H
	DB	0d1H
	DB	060H
	DB	060H
	DB	060H
	DB	0d1H
	DB	060H
	DB	060H
	DB	060H
	DB	0d1H
	DB	060H
	DB	060H
	DB	060H
	DB	0d1H
	DB	060H
	DB	060H
	DB	060H
	DB	0d1H
	DB	060H
	DB	060H
	DB	060H
	DB	0d1H
	DB	060H
	DB	060H
	DB	060H
	DB	0d1H
	DB	060H
	DB	060H
	DB	060H
	DB	0d1H
	DB	060H
	DB	060H
	DB	060H
	DB	0d1H
	DB	060H
	DB	060H
	DB	060H
	DB	0d1H
	DB	060H
	DB	060H
	DB	060H
	DB	0d1H
	DB	060H
	DB	060H
	DB	060H
	DB	0d1H
	DB	060H
	DB	060H
	DB	060H
	DB	0d1H
	DB	060H
	DB	060H
	DB	060H
	DB	0d1H
	DB	060H
	DB	060H
	DB	060H
	DB	0d1H
	DB	060H
	DB	060H
	DB	060H
	DB	0d1H
	DB	060H
	DB	060H
	DB	060H
	DB	0d1H
	DB	060H
	DB	060H
	DB	060H
	DB	0d1H
	DB	060H
	DB	060H
	DB	060H
	DB	0d1H
	DB	060H
	DB	060H
	DB	060H
	DB	0d1H
	DB	060H
	DB	060H
	DB	060H
	DB	0d1H
	DB	060H
	DB	060H
	DB	060H
	DB	0d1H
	DB	060H
	DB	060H
	DB	060H
	DB	0d1H
	DB	060H
	DB	060H
	DB	060H
	DB	0d1H
	DB	060H
	DB	060H
	DB	060H
	DB	0d1H
	DB	060H
	DB	060H
	DB	060H
	DB	0d1H
	DB	060H
	DB	060H
	DB	060H
	DB	0d1H
	DB	060H
	DB	060H
	DB	060H
	DB	0d1H
	DB	060H
	DB	060H
	DB	060H
	DB	0d1H
	DB	060H
	DB	060H
	DB	060H
	DB	0d1H
	DB	060H
	DB	060H
	DB	060H
	DB	0d1H
	DB	060H
	DB	060H
	DB	060H
	DB	0d1H
	DB	060H
	DB	060H
	DB	060H
	DB	0d1H
	DB	060H
	DB	060H
	DB	060H
	DB	0d1H
	DB	060H
	DB	060H
	DB	060H
	DB	0d1H
	DB	060H
	DB	060H
	DB	060H
	DB	0d1H
	DB	060H
	DB	060H
	DB	060H
	DB	0d1H
	DB	060H
	DB	060H
	DB	060H
	DB	0d1H
	DB	060H
	DB	060H
	DB	060H
	DB	0d1H
	DB	060H
	DB	060H
	DB	060H
	DB	0d1H
	DB	060H
	DB	060H
	DB	060H
	DB	0d1H
	DB	060H
	DB	060H
	DB	060H
	DB	0d1H
	DB	060H
	DB	060H
	DB	060H
	DB	0d1H
	DB	060H
	DB	060H
	DB	060H
	DB	0d1H
	DB	060H
	DB	060H
	DB	060H
	DB	0d1H
	DB	060H
	DB	060H
	DB	060H
	DB	0d1H
	DB	060H
	DB	060H
	DB	060H
	DB	0d1H
	DB	060H
	DB	060H
	DB	060H
	DB	0d1H
	DB	060H
	DB	060H
	DB	060H
	DB	0d1H
	DB	060H
	DB	060H
	DB	060H
	DB	0d1H
	DB	060H
	DB	060H
	DB	060H
	DB	0d1H
	DB	060H
	DB	060H
	DB	060H
	DB	0d1H
	DB	060H
	DB	060H
	DB	060H
	DB	0d1H
	DB	060H
	DB	060H
	DB	060H
	DB	0d1H
	DB	060H
	DB	060H
	DB	060H
	DB	0d1H
	DB	060H
	DB	060H
	DB	060H
	DB	0d1H
	DB	060H
	DB	060H
	DB	060H
	DB	0d1H
	DB	060H
	DB	060H
	DB	060H
	DB	0d1H
	DB	060H
	DB	060H
	DB	060H
	DB	0d1H
	DB	060H
	DB	060H
	DB	060H
	DB	0d1H
	DB	060H
	DB	060H
	DB	060H
	DB	0d1H
	DB	060H
	DB	060H
	DB	060H
	DB	0d1H
	DB	060H
	DB	060H
	DB	060H
	DB	0d1H
	DB	060H
	DB	060H
	DB	060H
	DB	0d1H
	DB	060H
	DB	060H
	DB	060H
	DB	0d1H
	DB	060H
	DB	060H
	DB	060H
	DB	0d1H
	DB	060H
	DB	060H
	DB	060H
	DB	0d1H
	DB	060H
	DB	060H
	DB	060H
	DB	0d1H
	DB	060H
	DB	060H
	DB	060H
	DB	0d1H
	DB	060H
	DB	060H
	DB	060H
	DB	0d1H
	DB	060H
	DB	060H
	DB	060H
	DB	0d1H
	DB	060H
	DB	060H
	DB	060H
	DB	0d1H
	DB	060H
	DB	060H
	DB	060H
	DB	0d1H
	DB	060H
	DB	060H
	DB	060H
	DB	0d1H
	DB	060H
	DB	060H
	DB	060H
	DB	0d1H
	DB	060H
	DB	060H
	DB	060H
	DB	0d1H
	DB	060H
	DB	060H
	DB	060H
	DB	0d1H
	DB	060H
	DB	060H
	DB	060H
	DB	0d1H
	DB	060H
	DB	060H
	DB	060H
	DB	0d1H
	DB	060H
	DB	060H
	DB	060H
	DB	0d1H
	DB	060H
	DB	060H
	DB	060H
	DB	0d1H
	DB	060H
	DB	060H
	DB	060H
	DB	0d1H
	DB	060H
	DB	060H
	DB	060H
	DB	0d1H
	DB	060H
	DB	060H
	DB	060H
	DB	0d1H
	DB	060H
	DB	060H
	DB	060H
	DB	0d1H
	DB	060H
	DB	060H
	DB	060H
	DB	0d1H
	DB	060H
	DB	060H
	DB	060H
	DB	0d1H
	DB	060H
	DB	060H
	DB	060H
	DB	0d1H
	DB	060H
	DB	060H
	DB	060H
	DB	0d1H
	DB	060H
	DB	060H
	DB	060H
	DB	0d1H
	DB	060H
	DB	060H
	DB	060H
	DB	0d1H
	DB	060H
	DB	060H
	DB	060H
	DB	0d1H
	DB	060H
	DB	060H
	DB	060H
	DB	0d1H
	DB	060H
	DB	060H
	DB	060H
	DB	0d1H
	DB	060H
	DB	060H
	DB	060H
	DB	0d1H
	DB	060H
	DB	060H
	DB	060H
	DB	0d1H
	DB	060H
	DB	060H
	DB	060H
	DB	0d1H
	DB	060H
	DB	060H
	DB	060H
	DB	0d1H
	DB	060H
	DB	060H
	DB	060H
	DB	0d1H
	DB	060H
	DB	060H
	DB	060H
	DB	0d1H
	DB	060H
	DB	060H
	DB	060H
	DB	0d1H
	DB	060H
	DB	060H
	DB	060H
	DB	0d1H
	DB	060H
	DB	060H
	DB	060H
	DB	0d1H
	DB	060H
	DB	060H
	DB	060H
	DB	0d1H
	DB	060H
	DB	060H
	DB	060H
	DB	0d1H
	DB	060H
	DB	060H
	DB	060H
	DB	0d1H
	DB	060H
	DB	060H
	DB	060H
	DB	0d1H
	DB	060H
	DB	060H
	DB	060H
	DB	0d1H
	DB	060H
	DB	060H
	DB	060H
	DB	0d1H
	DB	060H
	DB	060H
	DB	060H
	DB	0d1H
	DB	060H
	DB	060H
	DB	060H
	DB	0d1H
	DB	060H
	DB	060H
	DB	060H
	DB	0d1H
	DB	060H
	DB	060H
	DB	060H
	DB	0d1H
	DB	060H
	DB	060H
	DB	060H
	DB	0d1H
	DB	060H
	DB	060H
	DB	060H
	DB	0d1H
	DB	060H
	DB	060H
	DB	060H
	DB	0d1H
	DB	060H
	DB	060H
	DB	060H
	DB	0d1H
	DB	060H
	DB	060H
	DB	060H
	DB	0d1H
	DB	060H
	DB	060H
	DB	060H
	DB	0d1H
	DB	060H
	DB	060H
	DB	060H
	DB	0d1H
	DB	060H
	DB	060H
	DB	060H
	DB	0d1H
	DB	060H
	DB	060H
	DB	060H
	DB	0d1H
	DB	0a8H
	DB	08cH
	DB	010H
	DB	0ffH
	DB	0a8H
	DB	08cH
	DB	010H
	DB	0ffH
	DB	0a8H
	DB	08cH
	DB	010H
	DB	0ffH
	DB	0a8H
	DB	08cH
	DB	010H
	DB	0ffH
	DB	060H
	DB	060H
	DB	060H
	DB	0d1H
	DB	060H
	DB	060H
	DB	060H
	DB	0d1H
	DB	060H
	DB	060H
	DB	060H
	DB	0d1H
	DB	060H
	DB	060H
	DB	060H
	DB	0d1H
	DB	060H
	DB	060H
	DB	060H
	DB	0d1H
	DB	060H
	DB	060H
	DB	060H
	DB	0d1H
	DB	060H
	DB	060H
	DB	060H
	DB	0d1H
	DB	060H
	DB	060H
	DB	060H
	DB	0d1H
	DB	060H
	DB	060H
	DB	060H
	DB	0d1H
	DB	060H
	DB	060H
	DB	060H
	DB	0d1H
	DB	060H
	DB	060H
	DB	060H
	DB	0d1H
	DB	060H
	DB	060H
	DB	060H
	DB	0d1H
	DB	060H
	DB	060H
	DB	060H
	DB	0d1H
	DB	060H
	DB	060H
	DB	060H
	DB	0d1H
	DB	060H
	DB	060H
	DB	060H
	DB	0d1H
	DB	060H
	DB	060H
	DB	060H
	DB	0d1H
	DB	060H
	DB	060H
	DB	060H
	DB	0d1H
	DB	060H
	DB	060H
	DB	060H
	DB	0d1H
	DB	060H
	DB	060H
	DB	060H
	DB	0d1H
	DB	060H
	DB	060H
	DB	060H
	DB	0d1H
	DB	060H
	DB	060H
	DB	060H
	DB	0d1H
	DB	060H
	DB	060H
	DB	060H
	DB	0d1H
	DB	060H
	DB	060H
	DB	060H
	DB	0d1H
	DB	060H
	DB	060H
	DB	060H
	DB	0d1H
	DB	060H
	DB	060H
	DB	060H
	DB	0d1H
	DB	060H
	DB	060H
	DB	060H
	DB	0d1H
	DB	060H
	DB	060H
	DB	060H
	DB	0d1H
	DB	060H
	DB	060H
	DB	060H
	DB	0d1H
	DB	060H
	DB	060H
	DB	060H
	DB	0d1H
	DB	060H
	DB	060H
	DB	060H
	DB	0d1H
	DB	060H
	DB	060H
	DB	060H
	DB	0d1H
	DB	060H
	DB	060H
	DB	060H
	DB	0d1H
	DB	060H
	DB	060H
	DB	060H
	DB	0d1H
	DB	060H
	DB	060H
	DB	060H
	DB	0d1H
	DB	060H
	DB	060H
	DB	060H
	DB	0d1H
	DB	060H
	DB	060H
	DB	060H
	DB	0d1H
	DB	060H
	DB	060H
	DB	060H
	DB	0d1H
	DB	060H
	DB	060H
	DB	060H
	DB	0d1H
	DB	060H
	DB	060H
	DB	060H
	DB	0d1H
	DB	060H
	DB	060H
	DB	060H
	DB	0d1H
	DB	060H
	DB	060H
	DB	060H
	DB	0d1H
	DB	060H
	DB	060H
	DB	060H
	DB	0d1H
	DB	060H
	DB	060H
	DB	060H
	DB	0d1H
	DB	060H
	DB	060H
	DB	060H
	DB	0d1H
	DB	060H
	DB	060H
	DB	060H
	DB	0d1H
	DB	060H
	DB	060H
	DB	060H
	DB	0d1H
	DB	060H
	DB	060H
	DB	060H
	DB	0d1H
	DB	060H
	DB	060H
	DB	060H
	DB	0d1H
	DB	060H
	DB	060H
	DB	060H
	DB	0d1H
	DB	060H
	DB	060H
	DB	060H
	DB	0d1H
	DB	060H
	DB	060H
	DB	060H
	DB	0d1H
	DB	060H
	DB	060H
	DB	060H
	DB	0d1H
	DB	060H
	DB	060H
	DB	060H
	DB	0d1H
	DB	060H
	DB	060H
	DB	060H
	DB	0d1H
	DB	060H
	DB	060H
	DB	060H
	DB	0d1H
	DB	060H
	DB	060H
	DB	060H
	DB	0d1H
	DB	060H
	DB	060H
	DB	060H
	DB	0d1H
	DB	060H
	DB	060H
	DB	060H
	DB	0d1H
	DB	060H
	DB	060H
	DB	060H
	DB	0d1H
	DB	060H
	DB	060H
	DB	060H
	DB	0d1H
	DB	060H
	DB	060H
	DB	060H
	DB	0d1H
	DB	060H
	DB	060H
	DB	060H
	DB	0d1H
	DB	060H
	DB	060H
	DB	060H
	DB	0d1H
	DB	060H
	DB	060H
	DB	060H
	DB	0d1H
	DB	060H
	DB	060H
	DB	060H
	DB	0d1H
	DB	060H
	DB	060H
	DB	060H
	DB	0d1H
	DB	060H
	DB	060H
	DB	060H
	DB	0d1H
	DB	060H
	DB	060H
	DB	060H
	DB	0d1H
	DB	060H
	DB	060H
	DB	060H
	DB	0d1H
	DB	060H
	DB	060H
	DB	060H
	DB	0d1H
	DB	060H
	DB	060H
	DB	060H
	DB	0d1H
	DB	060H
	DB	060H
	DB	060H
	DB	0d1H
	DB	060H
	DB	060H
	DB	060H
	DB	0d1H
	DB	060H
	DB	060H
	DB	060H
	DB	0d1H
	DB	060H
	DB	060H
	DB	060H
	DB	0d1H
	DB	060H
	DB	060H
	DB	060H
	DB	0d1H
	DB	060H
	DB	060H
	DB	060H
	DB	0d1H
	DB	060H
	DB	060H
	DB	060H
	DB	0d1H
	DB	060H
	DB	060H
	DB	060H
	DB	0d1H
	DB	060H
	DB	060H
	DB	060H
	DB	0d1H
	DB	060H
	DB	060H
	DB	060H
	DB	0d1H
	DB	060H
	DB	060H
	DB	060H
	DB	0d1H
	DB	060H
	DB	060H
	DB	060H
	DB	0d1H
	DB	060H
	DB	060H
	DB	060H
	DB	0d1H
	DB	060H
	DB	060H
	DB	060H
	DB	0d1H
	DB	060H
	DB	060H
	DB	060H
	DB	0d1H
	DB	060H
	DB	060H
	DB	060H
	DB	0d1H
	DB	060H
	DB	060H
	DB	060H
	DB	0d1H
	DB	060H
	DB	060H
	DB	060H
	DB	0d1H
	DB	060H
	DB	060H
	DB	060H
	DB	0d1H
	DB	060H
	DB	060H
	DB	060H
	DB	0d1H
	DB	060H
	DB	060H
	DB	060H
	DB	0d1H
	DB	060H
	DB	060H
	DB	060H
	DB	0d1H
	DB	060H
	DB	060H
	DB	060H
	DB	0d1H
	DB	060H
	DB	060H
	DB	060H
	DB	0d1H
	DB	060H
	DB	060H
	DB	060H
	DB	0d1H
	DB	060H
	DB	060H
	DB	060H
	DB	0d1H
	DB	060H
	DB	060H
	DB	060H
	DB	0d1H
	DB	060H
	DB	060H
	DB	060H
	DB	0d1H
	DB	060H
	DB	060H
	DB	060H
	DB	0d1H
	DB	060H
	DB	060H
	DB	060H
	DB	0d1H
	DB	060H
	DB	060H
	DB	060H
	DB	0d1H
	DB	060H
	DB	060H
	DB	060H
	DB	0d1H
	DB	060H
	DB	060H
	DB	060H
	DB	0d1H
	DB	060H
	DB	060H
	DB	060H
	DB	0d1H
	DB	060H
	DB	060H
	DB	060H
	DB	0d1H
	DB	060H
	DB	060H
	DB	060H
	DB	0d1H
	DB	060H
	DB	060H
	DB	060H
	DB	0d1H
	DB	060H
	DB	060H
	DB	060H
	DB	0d1H
	DB	060H
	DB	060H
	DB	060H
	DB	0d1H
	DB	060H
	DB	060H
	DB	060H
	DB	0d1H
	DB	060H
	DB	060H
	DB	060H
	DB	0d1H
	DB	060H
	DB	060H
	DB	060H
	DB	0d1H
	DB	060H
	DB	060H
	DB	060H
	DB	0d1H
	DB	060H
	DB	060H
	DB	060H
	DB	0d1H
	DB	060H
	DB	060H
	DB	060H
	DB	0d1H
	DB	060H
	DB	060H
	DB	060H
	DB	0d1H
	DB	060H
	DB	060H
	DB	060H
	DB	0d1H
	DB	060H
	DB	060H
	DB	060H
	DB	0d1H
	DB	060H
	DB	060H
	DB	060H
	DB	0d1H
	DB	060H
	DB	060H
	DB	060H
	DB	0d1H
	DB	060H
	DB	060H
	DB	060H
	DB	0d1H
	DB	0a8H
	DB	08cH
	DB	010H
	DB	0ffH
	DB	0a8H
	DB	08cH
	DB	010H
	DB	0ffH
	DB	0a8H
	DB	08cH
	DB	010H
	DB	0ffH
	DB	0a8H
	DB	08cH
	DB	010H
	DB	0ffH
	DB	060H
	DB	060H
	DB	060H
	DB	0d1H
	DB	060H
	DB	060H
	DB	060H
	DB	0d1H
	DB	060H
	DB	060H
	DB	060H
	DB	0d1H
	DB	060H
	DB	060H
	DB	060H
	DB	0d1H
	DB	060H
	DB	060H
	DB	060H
	DB	0d1H
	DB	060H
	DB	060H
	DB	060H
	DB	0d1H
	DB	060H
	DB	060H
	DB	060H
	DB	0d1H
	DB	060H
	DB	060H
	DB	060H
	DB	0d1H
	DB	060H
	DB	060H
	DB	060H
	DB	0d1H
	DB	060H
	DB	060H
	DB	060H
	DB	0d1H
	DB	060H
	DB	060H
	DB	060H
	DB	0d1H
	DB	060H
	DB	060H
	DB	060H
	DB	0d1H
	DB	060H
	DB	060H
	DB	060H
	DB	0d1H
	DB	060H
	DB	060H
	DB	060H
	DB	0d1H
	DB	060H
	DB	060H
	DB	060H
	DB	0d1H
	DB	060H
	DB	060H
	DB	060H
	DB	0d1H
	DB	060H
	DB	060H
	DB	060H
	DB	0d1H
	DB	060H
	DB	060H
	DB	060H
	DB	0d1H
	DB	060H
	DB	060H
	DB	060H
	DB	0d1H
	DB	060H
	DB	060H
	DB	060H
	DB	0d1H
	DB	060H
	DB	060H
	DB	060H
	DB	0d1H
	DB	060H
	DB	060H
	DB	060H
	DB	0d1H
	DB	060H
	DB	060H
	DB	060H
	DB	0d1H
	DB	060H
	DB	060H
	DB	060H
	DB	0d1H
	DB	060H
	DB	060H
	DB	060H
	DB	0d1H
	DB	060H
	DB	060H
	DB	060H
	DB	0d1H
	DB	060H
	DB	060H
	DB	060H
	DB	0d1H
	DB	060H
	DB	060H
	DB	060H
	DB	0d1H
	DB	060H
	DB	060H
	DB	060H
	DB	0d1H
	DB	060H
	DB	060H
	DB	060H
	DB	0d1H
	DB	060H
	DB	060H
	DB	060H
	DB	0d1H
	DB	060H
	DB	060H
	DB	060H
	DB	0d1H
	DB	060H
	DB	060H
	DB	060H
	DB	0d1H
	DB	060H
	DB	060H
	DB	060H
	DB	0d1H
	DB	060H
	DB	060H
	DB	060H
	DB	0d1H
	DB	060H
	DB	060H
	DB	060H
	DB	0d1H
	DB	060H
	DB	060H
	DB	060H
	DB	0d1H
	DB	060H
	DB	060H
	DB	060H
	DB	0d1H
	DB	060H
	DB	060H
	DB	060H
	DB	0d1H
	DB	060H
	DB	060H
	DB	060H
	DB	0d1H
	DB	060H
	DB	060H
	DB	060H
	DB	0d1H
	DB	060H
	DB	060H
	DB	060H
	DB	0d1H
	DB	060H
	DB	060H
	DB	060H
	DB	0d1H
	DB	060H
	DB	060H
	DB	060H
	DB	0d1H
	DB	060H
	DB	060H
	DB	060H
	DB	0d1H
	DB	060H
	DB	060H
	DB	060H
	DB	0d1H
	DB	060H
	DB	060H
	DB	060H
	DB	0d1H
	DB	060H
	DB	060H
	DB	060H
	DB	0d1H
	DB	060H
	DB	060H
	DB	060H
	DB	0d1H
	DB	060H
	DB	060H
	DB	060H
	DB	0d1H
	DB	060H
	DB	060H
	DB	060H
	DB	0d1H
	DB	060H
	DB	060H
	DB	060H
	DB	0d1H
	DB	060H
	DB	060H
	DB	060H
	DB	0d1H
	DB	060H
	DB	060H
	DB	060H
	DB	0d1H
	DB	060H
	DB	060H
	DB	060H
	DB	0d1H
	DB	060H
	DB	060H
	DB	060H
	DB	0d1H
	DB	060H
	DB	060H
	DB	060H
	DB	0d1H
	DB	060H
	DB	060H
	DB	060H
	DB	0d1H
	DB	060H
	DB	060H
	DB	060H
	DB	0d1H
	DB	060H
	DB	060H
	DB	060H
	DB	0d1H
	DB	060H
	DB	060H
	DB	060H
	DB	0d1H
	DB	060H
	DB	060H
	DB	060H
	DB	0d1H
	DB	060H
	DB	060H
	DB	060H
	DB	0d1H
	DB	060H
	DB	060H
	DB	060H
	DB	0d1H
	DB	060H
	DB	060H
	DB	060H
	DB	0d1H
	DB	060H
	DB	060H
	DB	060H
	DB	0d1H
	DB	060H
	DB	060H
	DB	060H
	DB	0d1H
	DB	060H
	DB	060H
	DB	060H
	DB	0d1H
	DB	060H
	DB	060H
	DB	060H
	DB	0d1H
	DB	060H
	DB	060H
	DB	060H
	DB	0d1H
	DB	060H
	DB	060H
	DB	060H
	DB	0d1H
	DB	060H
	DB	060H
	DB	060H
	DB	0d1H
	DB	060H
	DB	060H
	DB	060H
	DB	0d1H
	DB	060H
	DB	060H
	DB	060H
	DB	0d1H
	DB	060H
	DB	060H
	DB	060H
	DB	0d1H
	DB	060H
	DB	060H
	DB	060H
	DB	0d1H
	DB	060H
	DB	060H
	DB	060H
	DB	0d1H
	DB	060H
	DB	060H
	DB	060H
	DB	0d1H
	DB	060H
	DB	060H
	DB	060H
	DB	0d1H
	DB	060H
	DB	060H
	DB	060H
	DB	0d1H
	DB	060H
	DB	060H
	DB	060H
	DB	0d1H
	DB	060H
	DB	060H
	DB	060H
	DB	0d1H
	DB	060H
	DB	060H
	DB	060H
	DB	0d1H
	DB	060H
	DB	060H
	DB	060H
	DB	0d1H
	DB	060H
	DB	060H
	DB	060H
	DB	0d1H
	DB	060H
	DB	060H
	DB	060H
	DB	0d1H
	DB	060H
	DB	060H
	DB	060H
	DB	0d1H
	DB	060H
	DB	060H
	DB	060H
	DB	0d1H
	DB	060H
	DB	060H
	DB	060H
	DB	0d1H
	DB	060H
	DB	060H
	DB	060H
	DB	0d1H
	DB	060H
	DB	060H
	DB	060H
	DB	0d1H
	DB	060H
	DB	060H
	DB	060H
	DB	0d1H
	DB	060H
	DB	060H
	DB	060H
	DB	0d1H
	DB	060H
	DB	060H
	DB	060H
	DB	0d1H
	DB	060H
	DB	060H
	DB	060H
	DB	0d1H
	DB	060H
	DB	060H
	DB	060H
	DB	0d1H
	DB	060H
	DB	060H
	DB	060H
	DB	0d1H
	DB	060H
	DB	060H
	DB	060H
	DB	0d1H
	DB	060H
	DB	060H
	DB	060H
	DB	0d1H
	DB	060H
	DB	060H
	DB	060H
	DB	0d1H
	DB	060H
	DB	060H
	DB	060H
	DB	0d1H
	DB	060H
	DB	060H
	DB	060H
	DB	0d1H
	DB	060H
	DB	060H
	DB	060H
	DB	0d1H
	DB	060H
	DB	060H
	DB	060H
	DB	0d1H
	DB	060H
	DB	060H
	DB	060H
	DB	0d1H
	DB	060H
	DB	060H
	DB	060H
	DB	0d1H
	DB	060H
	DB	060H
	DB	060H
	DB	0d1H
	DB	060H
	DB	060H
	DB	060H
	DB	0d1H
	DB	060H
	DB	060H
	DB	060H
	DB	0d1H
	DB	060H
	DB	060H
	DB	060H
	DB	0d1H
	DB	060H
	DB	060H
	DB	060H
	DB	0d1H
	DB	060H
	DB	060H
	DB	060H
	DB	0d1H
	DB	060H
	DB	060H
	DB	060H
	DB	0d1H
	DB	060H
	DB	060H
	DB	060H
	DB	0d1H
	DB	060H
	DB	060H
	DB	060H
	DB	0d1H
	DB	060H
	DB	060H
	DB	060H
	DB	0d1H
	DB	060H
	DB	060H
	DB	060H
	DB	0d1H
	DB	060H
	DB	060H
	DB	060H
	DB	0d1H
	DB	060H
	DB	060H
	DB	060H
	DB	0d1H
	DB	060H
	DB	060H
	DB	060H
	DB	0d1H
	DB	060H
	DB	060H
	DB	060H
	DB	0d1H
	DB	060H
	DB	060H
	DB	060H
	DB	0d1H
	DB	0a8H
	DB	08cH
	DB	010H
	DB	0ffH
	DB	0a8H
	DB	08cH
	DB	010H
	DB	0ffH
	DB	0a8H
	DB	08cH
	DB	010H
	DB	0ffH
	DB	0a8H
	DB	08cH
	DB	010H
	DB	0ffH
	DB	060H
	DB	060H
	DB	060H
	DB	0d1H
	DB	060H
	DB	060H
	DB	060H
	DB	0d1H
	DB	060H
	DB	060H
	DB	060H
	DB	0d1H
	DB	060H
	DB	060H
	DB	060H
	DB	0d1H
	DB	060H
	DB	060H
	DB	060H
	DB	0d1H
	DB	060H
	DB	060H
	DB	060H
	DB	0d1H
	DB	060H
	DB	060H
	DB	060H
	DB	0d1H
	DB	060H
	DB	060H
	DB	060H
	DB	0d1H
	DB	060H
	DB	060H
	DB	060H
	DB	0d1H
	DB	060H
	DB	060H
	DB	060H
	DB	0d1H
	DB	060H
	DB	060H
	DB	060H
	DB	0d1H
	DB	060H
	DB	060H
	DB	060H
	DB	0d1H
	DB	060H
	DB	060H
	DB	060H
	DB	0d1H
	DB	060H
	DB	060H
	DB	060H
	DB	0d1H
	DB	060H
	DB	060H
	DB	060H
	DB	0d1H
	DB	060H
	DB	060H
	DB	060H
	DB	0d1H
	DB	060H
	DB	060H
	DB	060H
	DB	0d1H
	DB	060H
	DB	060H
	DB	060H
	DB	0d1H
	DB	060H
	DB	060H
	DB	060H
	DB	0d1H
	DB	060H
	DB	060H
	DB	060H
	DB	0d1H
	DB	060H
	DB	060H
	DB	060H
	DB	0d1H
	DB	060H
	DB	060H
	DB	060H
	DB	0d1H
	DB	060H
	DB	060H
	DB	060H
	DB	0d1H
	DB	060H
	DB	060H
	DB	060H
	DB	0d1H
	DB	060H
	DB	060H
	DB	060H
	DB	0d1H
	DB	060H
	DB	060H
	DB	060H
	DB	0d1H
	DB	060H
	DB	060H
	DB	060H
	DB	0d1H
	DB	060H
	DB	060H
	DB	060H
	DB	0d1H
	DB	060H
	DB	060H
	DB	060H
	DB	0d1H
	DB	060H
	DB	060H
	DB	060H
	DB	0d1H
	DB	060H
	DB	060H
	DB	060H
	DB	0d1H
	DB	060H
	DB	060H
	DB	060H
	DB	0d1H
	DB	060H
	DB	060H
	DB	060H
	DB	0d1H
	DB	060H
	DB	060H
	DB	060H
	DB	0d1H
	DB	060H
	DB	060H
	DB	060H
	DB	0d1H
	DB	060H
	DB	060H
	DB	060H
	DB	0d1H
	DB	060H
	DB	060H
	DB	060H
	DB	0d1H
	DB	060H
	DB	060H
	DB	060H
	DB	0d1H
	DB	060H
	DB	060H
	DB	060H
	DB	0d1H
	DB	060H
	DB	060H
	DB	060H
	DB	0d1H
	DB	060H
	DB	060H
	DB	060H
	DB	0d1H
	DB	060H
	DB	060H
	DB	060H
	DB	0d1H
	DB	060H
	DB	060H
	DB	060H
	DB	0d1H
	DB	060H
	DB	060H
	DB	060H
	DB	0d1H
	DB	060H
	DB	060H
	DB	060H
	DB	0d1H
	DB	060H
	DB	060H
	DB	060H
	DB	0d1H
	DB	060H
	DB	060H
	DB	060H
	DB	0d1H
	DB	060H
	DB	060H
	DB	060H
	DB	0d1H
	DB	060H
	DB	060H
	DB	060H
	DB	0d1H
	DB	060H
	DB	060H
	DB	060H
	DB	0d1H
	DB	060H
	DB	060H
	DB	060H
	DB	0d1H
	DB	060H
	DB	060H
	DB	060H
	DB	0d1H
	DB	060H
	DB	060H
	DB	060H
	DB	0d1H
	DB	060H
	DB	060H
	DB	060H
	DB	0d1H
	DB	060H
	DB	060H
	DB	060H
	DB	0d1H
	DB	060H
	DB	060H
	DB	060H
	DB	0d1H
	DB	060H
	DB	060H
	DB	060H
	DB	0d1H
	DB	060H
	DB	060H
	DB	060H
	DB	0d1H
	DB	060H
	DB	060H
	DB	060H
	DB	0d1H
	DB	060H
	DB	060H
	DB	060H
	DB	0d1H
	DB	060H
	DB	060H
	DB	060H
	DB	0d1H
	DB	060H
	DB	060H
	DB	060H
	DB	0d1H
	DB	060H
	DB	060H
	DB	060H
	DB	0d1H
	DB	060H
	DB	060H
	DB	060H
	DB	0d1H
	DB	060H
	DB	060H
	DB	060H
	DB	0d1H
	DB	060H
	DB	060H
	DB	060H
	DB	0d1H
	DB	060H
	DB	060H
	DB	060H
	DB	0d1H
	DB	060H
	DB	060H
	DB	060H
	DB	0d1H
	DB	060H
	DB	060H
	DB	060H
	DB	0d1H
	DB	060H
	DB	060H
	DB	060H
	DB	0d1H
	DB	060H
	DB	060H
	DB	060H
	DB	0d1H
	DB	060H
	DB	060H
	DB	060H
	DB	0d1H
	DB	060H
	DB	060H
	DB	060H
	DB	0d1H
	DB	060H
	DB	060H
	DB	060H
	DB	0d1H
	DB	060H
	DB	060H
	DB	060H
	DB	0d1H
	DB	060H
	DB	060H
	DB	060H
	DB	0d1H
	DB	060H
	DB	060H
	DB	060H
	DB	0d1H
	DB	060H
	DB	060H
	DB	060H
	DB	0d1H
	DB	060H
	DB	060H
	DB	060H
	DB	0d1H
	DB	060H
	DB	060H
	DB	060H
	DB	0d1H
	DB	060H
	DB	060H
	DB	060H
	DB	0d1H
	DB	060H
	DB	060H
	DB	060H
	DB	0d1H
	DB	060H
	DB	060H
	DB	060H
	DB	0d1H
	DB	060H
	DB	060H
	DB	060H
	DB	0d1H
	DB	060H
	DB	060H
	DB	060H
	DB	0d1H
	DB	060H
	DB	060H
	DB	060H
	DB	0d1H
	DB	060H
	DB	060H
	DB	060H
	DB	0d1H
	DB	060H
	DB	060H
	DB	060H
	DB	0d1H
	DB	060H
	DB	060H
	DB	060H
	DB	0d1H
	DB	060H
	DB	060H
	DB	060H
	DB	0d1H
	DB	060H
	DB	060H
	DB	060H
	DB	0d1H
	DB	060H
	DB	060H
	DB	060H
	DB	0d1H
	DB	060H
	DB	060H
	DB	060H
	DB	0d1H
	DB	060H
	DB	060H
	DB	060H
	DB	0d1H
	DB	060H
	DB	060H
	DB	060H
	DB	0d1H
	DB	060H
	DB	060H
	DB	060H
	DB	0d1H
	DB	060H
	DB	060H
	DB	060H
	DB	0d1H
	DB	060H
	DB	060H
	DB	060H
	DB	0d1H
	DB	060H
	DB	060H
	DB	060H
	DB	0d1H
	DB	060H
	DB	060H
	DB	060H
	DB	0d1H
	DB	060H
	DB	060H
	DB	060H
	DB	0d1H
	DB	060H
	DB	060H
	DB	060H
	DB	0d1H
	DB	060H
	DB	060H
	DB	060H
	DB	0d1H
	DB	060H
	DB	060H
	DB	060H
	DB	0d1H
	DB	060H
	DB	060H
	DB	060H
	DB	0d1H
	DB	060H
	DB	060H
	DB	060H
	DB	0d1H
	DB	060H
	DB	060H
	DB	060H
	DB	0d1H
	DB	060H
	DB	060H
	DB	060H
	DB	0d1H
	DB	060H
	DB	060H
	DB	060H
	DB	0d1H
	DB	060H
	DB	060H
	DB	060H
	DB	0d1H
	DB	060H
	DB	060H
	DB	060H
	DB	0d1H
	DB	060H
	DB	060H
	DB	060H
	DB	0d1H
	DB	060H
	DB	060H
	DB	060H
	DB	0d1H
	DB	060H
	DB	060H
	DB	060H
	DB	0d1H
	DB	060H
	DB	060H
	DB	060H
	DB	0d1H
	DB	060H
	DB	060H
	DB	060H
	DB	0d1H
	DB	060H
	DB	060H
	DB	060H
	DB	0d1H
	DB	060H
	DB	060H
	DB	060H
	DB	0d1H
	DB	060H
	DB	060H
	DB	060H
	DB	0d1H
	DB	060H
	DB	060H
	DB	060H
	DB	0d1H
	DB	060H
	DB	060H
	DB	060H
	DB	0d1H
	DB	060H
	DB	060H
	DB	060H
	DB	0d1H
	DB	0a8H
	DB	08cH
	DB	010H
	DB	0ffH
	DB	0a8H
	DB	08cH
	DB	010H
	DB	0ffH
	DB	0a8H
	DB	08cH
	DB	010H
	DB	0ffH
	DB	0a8H
	DB	08cH
	DB	010H
	DB	0ffH
	DB	060H
	DB	060H
	DB	060H
	DB	0d1H
	DB	060H
	DB	060H
	DB	060H
	DB	0d1H
	DB	060H
	DB	060H
	DB	060H
	DB	0d1H
	DB	060H
	DB	060H
	DB	060H
	DB	0d1H
	DB	060H
	DB	060H
	DB	060H
	DB	0d1H
	DB	060H
	DB	060H
	DB	060H
	DB	0d1H
	DB	060H
	DB	060H
	DB	060H
	DB	0d1H
	DB	060H
	DB	060H
	DB	060H
	DB	0d1H
	DB	060H
	DB	060H
	DB	060H
	DB	0d1H
	DB	060H
	DB	060H
	DB	060H
	DB	0d1H
	DB	060H
	DB	060H
	DB	060H
	DB	0d1H
	DB	060H
	DB	060H
	DB	060H
	DB	0d1H
	DB	060H
	DB	060H
	DB	060H
	DB	0d1H
	DB	060H
	DB	060H
	DB	060H
	DB	0d1H
	DB	060H
	DB	060H
	DB	060H
	DB	0d1H
	DB	060H
	DB	060H
	DB	060H
	DB	0d1H
	DB	060H
	DB	060H
	DB	060H
	DB	0d1H
	DB	060H
	DB	060H
	DB	060H
	DB	0d1H
	DB	060H
	DB	060H
	DB	060H
	DB	0d1H
	DB	060H
	DB	060H
	DB	060H
	DB	0d1H
	DB	060H
	DB	060H
	DB	060H
	DB	0d1H
	DB	060H
	DB	060H
	DB	060H
	DB	0d1H
	DB	060H
	DB	060H
	DB	060H
	DB	0d1H
	DB	060H
	DB	060H
	DB	060H
	DB	0d1H
	DB	060H
	DB	060H
	DB	060H
	DB	0d1H
	DB	060H
	DB	060H
	DB	060H
	DB	0d1H
	DB	060H
	DB	060H
	DB	060H
	DB	0d1H
	DB	060H
	DB	060H
	DB	060H
	DB	0d1H
	DB	060H
	DB	060H
	DB	060H
	DB	0d1H
	DB	060H
	DB	060H
	DB	060H
	DB	0d1H
	DB	060H
	DB	060H
	DB	060H
	DB	0d1H
	DB	060H
	DB	060H
	DB	060H
	DB	0d1H
	DB	060H
	DB	060H
	DB	060H
	DB	0d1H
	DB	060H
	DB	060H
	DB	060H
	DB	0d1H
	DB	060H
	DB	060H
	DB	060H
	DB	0d1H
	DB	060H
	DB	060H
	DB	060H
	DB	0d1H
	DB	060H
	DB	060H
	DB	060H
	DB	0d1H
	DB	060H
	DB	060H
	DB	060H
	DB	0d1H
	DB	060H
	DB	060H
	DB	060H
	DB	0d1H
	DB	060H
	DB	060H
	DB	060H
	DB	0d1H
	DB	060H
	DB	060H
	DB	060H
	DB	0d1H
	DB	060H
	DB	060H
	DB	060H
	DB	0d1H
	DB	060H
	DB	060H
	DB	060H
	DB	0d1H
	DB	060H
	DB	060H
	DB	060H
	DB	0d1H
	DB	060H
	DB	060H
	DB	060H
	DB	0d1H
	DB	060H
	DB	060H
	DB	060H
	DB	0d1H
	DB	060H
	DB	060H
	DB	060H
	DB	0d1H
	DB	060H
	DB	060H
	DB	060H
	DB	0d1H
	DB	060H
	DB	060H
	DB	060H
	DB	0d1H
	DB	060H
	DB	060H
	DB	060H
	DB	0d1H
	DB	060H
	DB	060H
	DB	060H
	DB	0d1H
	DB	060H
	DB	060H
	DB	060H
	DB	0d1H
	DB	060H
	DB	060H
	DB	060H
	DB	0d1H
	DB	060H
	DB	060H
	DB	060H
	DB	0d1H
	DB	060H
	DB	060H
	DB	060H
	DB	0d1H
	DB	060H
	DB	060H
	DB	060H
	DB	0d1H
	DB	060H
	DB	060H
	DB	060H
	DB	0d1H
	DB	060H
	DB	060H
	DB	060H
	DB	0d1H
	DB	060H
	DB	060H
	DB	060H
	DB	0d1H
	DB	060H
	DB	060H
	DB	060H
	DB	0d1H
	DB	060H
	DB	060H
	DB	060H
	DB	0d1H
	DB	060H
	DB	060H
	DB	060H
	DB	0d1H
	DB	060H
	DB	060H
	DB	060H
	DB	0d1H
	DB	060H
	DB	060H
	DB	060H
	DB	0d1H
	DB	060H
	DB	060H
	DB	060H
	DB	0d1H
	DB	060H
	DB	060H
	DB	060H
	DB	0d1H
	DB	060H
	DB	060H
	DB	060H
	DB	0d1H
	DB	060H
	DB	060H
	DB	060H
	DB	0d1H
	DB	060H
	DB	060H
	DB	060H
	DB	0d1H
	DB	060H
	DB	060H
	DB	060H
	DB	0d1H
	DB	060H
	DB	060H
	DB	060H
	DB	0d1H
	DB	060H
	DB	060H
	DB	060H
	DB	0d1H
	DB	060H
	DB	060H
	DB	060H
	DB	0d1H
	DB	060H
	DB	060H
	DB	060H
	DB	0d1H
	DB	060H
	DB	060H
	DB	060H
	DB	0d1H
	DB	060H
	DB	060H
	DB	060H
	DB	0d1H
	DB	060H
	DB	060H
	DB	060H
	DB	0d1H
	DB	060H
	DB	060H
	DB	060H
	DB	0d1H
	DB	060H
	DB	060H
	DB	060H
	DB	0d1H
	DB	060H
	DB	060H
	DB	060H
	DB	0d1H
	DB	060H
	DB	060H
	DB	060H
	DB	0d1H
	DB	060H
	DB	060H
	DB	060H
	DB	0d1H
	DB	060H
	DB	060H
	DB	060H
	DB	0d1H
	DB	060H
	DB	060H
	DB	060H
	DB	0d1H
	DB	060H
	DB	060H
	DB	060H
	DB	0d1H
	DB	060H
	DB	060H
	DB	060H
	DB	0d1H
	DB	060H
	DB	060H
	DB	060H
	DB	0d1H
	DB	060H
	DB	060H
	DB	060H
	DB	0d1H
	DB	060H
	DB	060H
	DB	060H
	DB	0d1H
	DB	060H
	DB	060H
	DB	060H
	DB	0d1H
	DB	060H
	DB	060H
	DB	060H
	DB	0d1H
	DB	060H
	DB	060H
	DB	060H
	DB	0d1H
	DB	060H
	DB	060H
	DB	060H
	DB	0d1H
	DB	060H
	DB	060H
	DB	060H
	DB	0d1H
	DB	060H
	DB	060H
	DB	060H
	DB	0d1H
	DB	060H
	DB	060H
	DB	060H
	DB	0d1H
	DB	060H
	DB	060H
	DB	060H
	DB	0d1H
	DB	060H
	DB	060H
	DB	060H
	DB	0d1H
	DB	060H
	DB	060H
	DB	060H
	DB	0d1H
	DB	060H
	DB	060H
	DB	060H
	DB	0d1H
	DB	060H
	DB	060H
	DB	060H
	DB	0d1H
	DB	060H
	DB	060H
	DB	060H
	DB	0d1H
	DB	060H
	DB	060H
	DB	060H
	DB	0d1H
	DB	060H
	DB	060H
	DB	060H
	DB	0d1H
	DB	060H
	DB	060H
	DB	060H
	DB	0d1H
	DB	060H
	DB	060H
	DB	060H
	DB	0d1H
	DB	060H
	DB	060H
	DB	060H
	DB	0d1H
	DB	060H
	DB	060H
	DB	060H
	DB	0d1H
	DB	060H
	DB	060H
	DB	060H
	DB	0d1H
	DB	060H
	DB	060H
	DB	060H
	DB	0d1H
	DB	060H
	DB	060H
	DB	060H
	DB	0d1H
	DB	060H
	DB	060H
	DB	060H
	DB	0d1H
	DB	060H
	DB	060H
	DB	060H
	DB	0d1H
	DB	060H
	DB	060H
	DB	060H
	DB	0d1H
	DB	060H
	DB	060H
	DB	060H
	DB	0d1H
	DB	060H
	DB	060H
	DB	060H
	DB	0d1H
	DB	060H
	DB	060H
	DB	060H
	DB	0d1H
	DB	060H
	DB	060H
	DB	060H
	DB	0d1H
	DB	060H
	DB	060H
	DB	060H
	DB	0d1H
	DB	060H
	DB	060H
	DB	060H
	DB	0d1H
	DB	060H
	DB	060H
	DB	060H
	DB	0d1H
	DB	060H
	DB	060H
	DB	060H
	DB	0d1H
	DB	0a8H
	DB	08cH
	DB	010H
	DB	0ffH
	DB	0a8H
	DB	08cH
	DB	010H
	DB	0ffH
	DB	0a8H
	DB	08cH
	DB	010H
	DB	0ffH
	DB	0a8H
	DB	08cH
	DB	010H
	DB	0ffH
	DB	060H
	DB	060H
	DB	060H
	DB	0d1H
	DB	060H
	DB	060H
	DB	060H
	DB	0d1H
	DB	060H
	DB	060H
	DB	060H
	DB	0d1H
	DB	060H
	DB	060H
	DB	060H
	DB	0d1H
	DB	060H
	DB	060H
	DB	060H
	DB	0d1H
	DB	060H
	DB	060H
	DB	060H
	DB	0d1H
	DB	060H
	DB	060H
	DB	060H
	DB	0d1H
	DB	060H
	DB	060H
	DB	060H
	DB	0d1H
	DB	060H
	DB	060H
	DB	060H
	DB	0d1H
	DB	060H
	DB	060H
	DB	060H
	DB	0d1H
	DB	060H
	DB	060H
	DB	060H
	DB	0d1H
	DB	060H
	DB	060H
	DB	060H
	DB	0d1H
	DB	060H
	DB	060H
	DB	060H
	DB	0d1H
	DB	060H
	DB	060H
	DB	060H
	DB	0d1H
	DB	060H
	DB	060H
	DB	060H
	DB	0d1H
	DB	060H
	DB	060H
	DB	060H
	DB	0d1H
	DB	060H
	DB	060H
	DB	060H
	DB	0d1H
	DB	060H
	DB	060H
	DB	060H
	DB	0d1H
	DB	060H
	DB	060H
	DB	060H
	DB	0d1H
	DB	060H
	DB	060H
	DB	060H
	DB	0d1H
	DB	060H
	DB	060H
	DB	060H
	DB	0d1H
	DB	060H
	DB	060H
	DB	060H
	DB	0d1H
	DB	060H
	DB	060H
	DB	060H
	DB	0d1H
	DB	060H
	DB	060H
	DB	060H
	DB	0d1H
	DB	060H
	DB	060H
	DB	060H
	DB	0d1H
	DB	060H
	DB	060H
	DB	060H
	DB	0d1H
	DB	060H
	DB	060H
	DB	060H
	DB	0d1H
	DB	060H
	DB	060H
	DB	060H
	DB	0d1H
	DB	060H
	DB	060H
	DB	060H
	DB	0d1H
	DB	060H
	DB	060H
	DB	060H
	DB	0d1H
	DB	060H
	DB	060H
	DB	060H
	DB	0d1H
	DB	060H
	DB	060H
	DB	060H
	DB	0d1H
	DB	060H
	DB	060H
	DB	060H
	DB	0d1H
	DB	060H
	DB	060H
	DB	060H
	DB	0d1H
	DB	060H
	DB	060H
	DB	060H
	DB	0d1H
	DB	060H
	DB	060H
	DB	060H
	DB	0d1H
	DB	060H
	DB	060H
	DB	060H
	DB	0d1H
	DB	060H
	DB	060H
	DB	060H
	DB	0d1H
	DB	060H
	DB	060H
	DB	060H
	DB	0d1H
	DB	060H
	DB	060H
	DB	060H
	DB	0d1H
	DB	060H
	DB	060H
	DB	060H
	DB	0d1H
	DB	060H
	DB	060H
	DB	060H
	DB	0d1H
	DB	060H
	DB	060H
	DB	060H
	DB	0d1H
	DB	060H
	DB	060H
	DB	060H
	DB	0d1H
	DB	060H
	DB	060H
	DB	060H
	DB	0d1H
	DB	060H
	DB	060H
	DB	060H
	DB	0d1H
	DB	060H
	DB	060H
	DB	060H
	DB	0d1H
	DB	060H
	DB	060H
	DB	060H
	DB	0d1H
	DB	060H
	DB	060H
	DB	060H
	DB	0d1H
	DB	060H
	DB	060H
	DB	060H
	DB	0d1H
	DB	060H
	DB	060H
	DB	060H
	DB	0d1H
	DB	060H
	DB	060H
	DB	060H
	DB	0d1H
	DB	060H
	DB	060H
	DB	060H
	DB	0d1H
	DB	060H
	DB	060H
	DB	060H
	DB	0d1H
	DB	060H
	DB	060H
	DB	060H
	DB	0d1H
	DB	060H
	DB	060H
	DB	060H
	DB	0d1H
	DB	060H
	DB	060H
	DB	060H
	DB	0d1H
	DB	060H
	DB	060H
	DB	060H
	DB	0d1H
	DB	060H
	DB	060H
	DB	060H
	DB	0d1H
	DB	060H
	DB	060H
	DB	060H
	DB	0d1H
	DB	060H
	DB	060H
	DB	060H
	DB	0d1H
	DB	060H
	DB	060H
	DB	060H
	DB	0d1H
	DB	060H
	DB	060H
	DB	060H
	DB	0d1H
	DB	060H
	DB	060H
	DB	060H
	DB	0d1H
	DB	060H
	DB	060H
	DB	060H
	DB	0d1H
	DB	060H
	DB	060H
	DB	060H
	DB	0d1H
	DB	060H
	DB	060H
	DB	060H
	DB	0d1H
	DB	060H
	DB	060H
	DB	060H
	DB	0d1H
	DB	060H
	DB	060H
	DB	060H
	DB	0d1H
	DB	060H
	DB	060H
	DB	060H
	DB	0d1H
	DB	060H
	DB	060H
	DB	060H
	DB	0d1H
	DB	060H
	DB	060H
	DB	060H
	DB	0d1H
	DB	060H
	DB	060H
	DB	060H
	DB	0d1H
	DB	060H
	DB	060H
	DB	060H
	DB	0d1H
	DB	060H
	DB	060H
	DB	060H
	DB	0d1H
	DB	060H
	DB	060H
	DB	060H
	DB	0d1H
	DB	060H
	DB	060H
	DB	060H
	DB	0d1H
	DB	060H
	DB	060H
	DB	060H
	DB	0d1H
	DB	060H
	DB	060H
	DB	060H
	DB	0d1H
	DB	060H
	DB	060H
	DB	060H
	DB	0d1H
	DB	060H
	DB	060H
	DB	060H
	DB	0d1H
	DB	060H
	DB	060H
	DB	060H
	DB	0d1H
	DB	060H
	DB	060H
	DB	060H
	DB	0d1H
	DB	060H
	DB	060H
	DB	060H
	DB	0d1H
	DB	060H
	DB	060H
	DB	060H
	DB	0d1H
	DB	060H
	DB	060H
	DB	060H
	DB	0d1H
	DB	060H
	DB	060H
	DB	060H
	DB	0d1H
	DB	060H
	DB	060H
	DB	060H
	DB	0d1H
	DB	060H
	DB	060H
	DB	060H
	DB	0d1H
	DB	060H
	DB	060H
	DB	060H
	DB	0d1H
	DB	060H
	DB	060H
	DB	060H
	DB	0d1H
	DB	060H
	DB	060H
	DB	060H
	DB	0d1H
	DB	060H
	DB	060H
	DB	060H
	DB	0d1H
	DB	060H
	DB	060H
	DB	060H
	DB	0d1H
	DB	060H
	DB	060H
	DB	060H
	DB	0d1H
	DB	060H
	DB	060H
	DB	060H
	DB	0d1H
	DB	060H
	DB	060H
	DB	060H
	DB	0d1H
	DB	060H
	DB	060H
	DB	060H
	DB	0d1H
	DB	060H
	DB	060H
	DB	060H
	DB	0d1H
	DB	060H
	DB	060H
	DB	060H
	DB	0d1H
	DB	060H
	DB	060H
	DB	060H
	DB	0d1H
	DB	060H
	DB	060H
	DB	060H
	DB	0d1H
	DB	060H
	DB	060H
	DB	060H
	DB	0d1H
	DB	060H
	DB	060H
	DB	060H
	DB	0d1H
	DB	060H
	DB	060H
	DB	060H
	DB	0d1H
	DB	060H
	DB	060H
	DB	060H
	DB	0d1H
	DB	060H
	DB	060H
	DB	060H
	DB	0d1H
	DB	060H
	DB	060H
	DB	060H
	DB	0d1H
	DB	060H
	DB	060H
	DB	060H
	DB	0d1H
	DB	060H
	DB	060H
	DB	060H
	DB	0d1H
	DB	060H
	DB	060H
	DB	060H
	DB	0d1H
	DB	060H
	DB	060H
	DB	060H
	DB	0d1H
	DB	060H
	DB	060H
	DB	060H
	DB	0d1H
	DB	060H
	DB	060H
	DB	060H
	DB	0d1H
	DB	060H
	DB	060H
	DB	060H
	DB	0d1H
	DB	060H
	DB	060H
	DB	060H
	DB	0d1H
	DB	060H
	DB	060H
	DB	060H
	DB	0d1H
	DB	060H
	DB	060H
	DB	060H
	DB	0d1H
	DB	060H
	DB	060H
	DB	060H
	DB	0d1H
	DB	060H
	DB	060H
	DB	060H
	DB	0d1H
	DB	060H
	DB	060H
	DB	060H
	DB	0d1H
	DB	060H
	DB	060H
	DB	060H
	DB	0d1H
	DB	0a8H
	DB	08cH
	DB	010H
	DB	0ffH
	DB	0a8H
	DB	08cH
	DB	010H
	DB	0ffH
	DB	0a8H
	DB	08cH
	DB	010H
	DB	0ffH
	DB	0a8H
	DB	08cH
	DB	010H
	DB	0ffH
	DB	060H
	DB	060H
	DB	060H
	DB	0d1H
	DB	060H
	DB	060H
	DB	060H
	DB	0d1H
	DB	060H
	DB	060H
	DB	060H
	DB	0d1H
	DB	060H
	DB	060H
	DB	060H
	DB	0d1H
	DB	060H
	DB	060H
	DB	060H
	DB	0d1H
	DB	060H
	DB	060H
	DB	060H
	DB	0d1H
	DB	060H
	DB	060H
	DB	060H
	DB	0d1H
	DB	060H
	DB	060H
	DB	060H
	DB	0d1H
	DB	060H
	DB	060H
	DB	060H
	DB	0d1H
	DB	060H
	DB	060H
	DB	060H
	DB	0d1H
	DB	060H
	DB	060H
	DB	060H
	DB	0d1H
	DB	060H
	DB	060H
	DB	060H
	DB	0d1H
	DB	060H
	DB	060H
	DB	060H
	DB	0d1H
	DB	060H
	DB	060H
	DB	060H
	DB	0d1H
	DB	060H
	DB	060H
	DB	060H
	DB	0d1H
	DB	060H
	DB	060H
	DB	060H
	DB	0d1H
	DB	060H
	DB	060H
	DB	060H
	DB	0d1H
	DB	060H
	DB	060H
	DB	060H
	DB	0d1H
	DB	060H
	DB	060H
	DB	060H
	DB	0d1H
	DB	060H
	DB	060H
	DB	060H
	DB	0d1H
	DB	060H
	DB	060H
	DB	060H
	DB	0d1H
	DB	060H
	DB	060H
	DB	060H
	DB	0d1H
	DB	060H
	DB	060H
	DB	060H
	DB	0d1H
	DB	060H
	DB	060H
	DB	060H
	DB	0d1H
	DB	060H
	DB	060H
	DB	060H
	DB	0d1H
	DB	060H
	DB	060H
	DB	060H
	DB	0d1H
	DB	060H
	DB	060H
	DB	060H
	DB	0d1H
	DB	060H
	DB	060H
	DB	060H
	DB	0d1H
	DB	060H
	DB	060H
	DB	060H
	DB	0d1H
	DB	060H
	DB	060H
	DB	060H
	DB	0d1H
	DB	060H
	DB	060H
	DB	060H
	DB	0d1H
	DB	060H
	DB	060H
	DB	060H
	DB	0d1H
	DB	060H
	DB	060H
	DB	060H
	DB	0d1H
	DB	060H
	DB	060H
	DB	060H
	DB	0d1H
	DB	060H
	DB	060H
	DB	060H
	DB	0d1H
	DB	060H
	DB	060H
	DB	060H
	DB	0d1H
	DB	060H
	DB	060H
	DB	060H
	DB	0d1H
	DB	060H
	DB	060H
	DB	060H
	DB	0d1H
	DB	060H
	DB	060H
	DB	060H
	DB	0d1H
	DB	060H
	DB	060H
	DB	060H
	DB	0d1H
	DB	060H
	DB	060H
	DB	060H
	DB	0d1H
	DB	060H
	DB	060H
	DB	060H
	DB	0d1H
	DB	060H
	DB	060H
	DB	060H
	DB	0d1H
	DB	060H
	DB	060H
	DB	060H
	DB	0d1H
	DB	060H
	DB	060H
	DB	060H
	DB	0d1H
	DB	060H
	DB	060H
	DB	060H
	DB	0d1H
	DB	060H
	DB	060H
	DB	060H
	DB	0d1H
	DB	060H
	DB	060H
	DB	060H
	DB	0d1H
	DB	060H
	DB	060H
	DB	060H
	DB	0d1H
	DB	060H
	DB	060H
	DB	060H
	DB	0d1H
	DB	060H
	DB	060H
	DB	060H
	DB	0d1H
	DB	060H
	DB	060H
	DB	060H
	DB	0d1H
	DB	060H
	DB	060H
	DB	060H
	DB	0d1H
	DB	060H
	DB	060H
	DB	060H
	DB	0d1H
	DB	060H
	DB	060H
	DB	060H
	DB	0d1H
	DB	060H
	DB	060H
	DB	060H
	DB	0d1H
	DB	060H
	DB	060H
	DB	060H
	DB	0d1H
	DB	060H
	DB	060H
	DB	060H
	DB	0d1H
	DB	060H
	DB	060H
	DB	060H
	DB	0d1H
	DB	060H
	DB	060H
	DB	060H
	DB	0d1H
	DB	060H
	DB	060H
	DB	060H
	DB	0d1H
	DB	060H
	DB	060H
	DB	060H
	DB	0d1H
	DB	060H
	DB	060H
	DB	060H
	DB	0d1H
	DB	060H
	DB	060H
	DB	060H
	DB	0d1H
	DB	060H
	DB	060H
	DB	060H
	DB	0d1H
	DB	060H
	DB	060H
	DB	060H
	DB	0d1H
	DB	060H
	DB	060H
	DB	060H
	DB	0d1H
	DB	060H
	DB	060H
	DB	060H
	DB	0d1H
	DB	060H
	DB	060H
	DB	060H
	DB	0d1H
	DB	060H
	DB	060H
	DB	060H
	DB	0d1H
	DB	060H
	DB	060H
	DB	060H
	DB	0d1H
	DB	060H
	DB	060H
	DB	060H
	DB	0d1H
	DB	060H
	DB	060H
	DB	060H
	DB	0d1H
	DB	060H
	DB	060H
	DB	060H
	DB	0d1H
	DB	060H
	DB	060H
	DB	060H
	DB	0d1H
	DB	060H
	DB	060H
	DB	060H
	DB	0d1H
	DB	060H
	DB	060H
	DB	060H
	DB	0d1H
	DB	060H
	DB	060H
	DB	060H
	DB	0d1H
	DB	060H
	DB	060H
	DB	060H
	DB	0d1H
	DB	060H
	DB	060H
	DB	060H
	DB	0d1H
	DB	060H
	DB	060H
	DB	060H
	DB	0d1H
	DB	060H
	DB	060H
	DB	060H
	DB	0d1H
	DB	060H
	DB	060H
	DB	060H
	DB	0d1H
	DB	060H
	DB	060H
	DB	060H
	DB	0d1H
	DB	060H
	DB	060H
	DB	060H
	DB	0d1H
	DB	060H
	DB	060H
	DB	060H
	DB	0d1H
	DB	060H
	DB	060H
	DB	060H
	DB	0d1H
	DB	060H
	DB	060H
	DB	060H
	DB	0d1H
	DB	060H
	DB	060H
	DB	060H
	DB	0d1H
	DB	060H
	DB	060H
	DB	060H
	DB	0d1H
	DB	060H
	DB	060H
	DB	060H
	DB	0d1H
	DB	060H
	DB	060H
	DB	060H
	DB	0d1H
	DB	060H
	DB	060H
	DB	060H
	DB	0d1H
	DB	060H
	DB	060H
	DB	060H
	DB	0d1H
	DB	060H
	DB	060H
	DB	060H
	DB	0d1H
	DB	060H
	DB	060H
	DB	060H
	DB	0d1H
	DB	060H
	DB	060H
	DB	060H
	DB	0d1H
	DB	060H
	DB	060H
	DB	060H
	DB	0d1H
	DB	060H
	DB	060H
	DB	060H
	DB	0d1H
	DB	060H
	DB	060H
	DB	060H
	DB	0d1H
	DB	060H
	DB	060H
	DB	060H
	DB	0d1H
	DB	060H
	DB	060H
	DB	060H
	DB	0d1H
	DB	060H
	DB	060H
	DB	060H
	DB	0d1H
	DB	060H
	DB	060H
	DB	060H
	DB	0d1H
	DB	060H
	DB	060H
	DB	060H
	DB	0d1H
	DB	060H
	DB	060H
	DB	060H
	DB	0d1H
	DB	060H
	DB	060H
	DB	060H
	DB	0d1H
	DB	060H
	DB	060H
	DB	060H
	DB	0d1H
	DB	060H
	DB	060H
	DB	060H
	DB	0d1H
	DB	060H
	DB	060H
	DB	060H
	DB	0d1H
	DB	060H
	DB	060H
	DB	060H
	DB	0d1H
	DB	060H
	DB	060H
	DB	060H
	DB	0d1H
	DB	060H
	DB	060H
	DB	060H
	DB	0d1H
	DB	060H
	DB	060H
	DB	060H
	DB	0d1H
	DB	060H
	DB	060H
	DB	060H
	DB	0d1H
	DB	060H
	DB	060H
	DB	060H
	DB	0d1H
	DB	060H
	DB	060H
	DB	060H
	DB	0d1H
	DB	060H
	DB	060H
	DB	060H
	DB	0d1H
	DB	060H
	DB	060H
	DB	060H
	DB	0d1H
	DB	060H
	DB	060H
	DB	060H
	DB	0d1H
	DB	060H
	DB	060H
	DB	060H
	DB	0d1H
	DB	060H
	DB	060H
	DB	060H
	DB	0d1H
	DB	0a8H
	DB	08cH
	DB	010H
	DB	0ffH
	DB	0a8H
	DB	08cH
	DB	010H
	DB	0ffH
	DB	0a8H
	DB	08cH
	DB	010H
	DB	0ffH
	DB	0a8H
	DB	08cH
	DB	010H
	DB	0ffH
	DB	060H
	DB	060H
	DB	060H
	DB	0d1H
	DB	060H
	DB	060H
	DB	060H
	DB	0d1H
	DB	060H
	DB	060H
	DB	060H
	DB	0d1H
	DB	060H
	DB	060H
	DB	060H
	DB	0d1H
	DB	060H
	DB	060H
	DB	060H
	DB	0d1H
	DB	060H
	DB	060H
	DB	060H
	DB	0d1H
	DB	060H
	DB	060H
	DB	060H
	DB	0d1H
	DB	060H
	DB	060H
	DB	060H
	DB	0d1H
	DB	060H
	DB	060H
	DB	060H
	DB	0d1H
	DB	060H
	DB	060H
	DB	060H
	DB	0d1H
	DB	060H
	DB	060H
	DB	060H
	DB	0d1H
	DB	060H
	DB	060H
	DB	060H
	DB	0d1H
	DB	060H
	DB	060H
	DB	060H
	DB	0d1H
	DB	060H
	DB	060H
	DB	060H
	DB	0d1H
	DB	060H
	DB	060H
	DB	060H
	DB	0d1H
	DB	060H
	DB	060H
	DB	060H
	DB	0d1H
	DB	060H
	DB	060H
	DB	060H
	DB	0d1H
	DB	060H
	DB	060H
	DB	060H
	DB	0d1H
	DB	060H
	DB	060H
	DB	060H
	DB	0d1H
	DB	060H
	DB	060H
	DB	060H
	DB	0d1H
	DB	060H
	DB	060H
	DB	060H
	DB	0d1H
	DB	060H
	DB	060H
	DB	060H
	DB	0d1H
	DB	060H
	DB	060H
	DB	060H
	DB	0d1H
	DB	060H
	DB	060H
	DB	060H
	DB	0d1H
	DB	060H
	DB	060H
	DB	060H
	DB	0d1H
	DB	060H
	DB	060H
	DB	060H
	DB	0d1H
	DB	060H
	DB	060H
	DB	060H
	DB	0d1H
	DB	060H
	DB	060H
	DB	060H
	DB	0d1H
	DB	060H
	DB	060H
	DB	060H
	DB	0d1H
	DB	060H
	DB	060H
	DB	060H
	DB	0d1H
	DB	060H
	DB	060H
	DB	060H
	DB	0d1H
	DB	060H
	DB	060H
	DB	060H
	DB	0d1H
	DB	060H
	DB	060H
	DB	060H
	DB	0d1H
	DB	060H
	DB	060H
	DB	060H
	DB	0d1H
	DB	060H
	DB	060H
	DB	060H
	DB	0d1H
	DB	060H
	DB	060H
	DB	060H
	DB	0d1H
	DB	060H
	DB	060H
	DB	060H
	DB	0d1H
	DB	060H
	DB	060H
	DB	060H
	DB	0d1H
	DB	060H
	DB	060H
	DB	060H
	DB	0d1H
	DB	060H
	DB	060H
	DB	060H
	DB	0d1H
	DB	060H
	DB	060H
	DB	060H
	DB	0d1H
	DB	060H
	DB	060H
	DB	060H
	DB	0d1H
	DB	060H
	DB	060H
	DB	060H
	DB	0d1H
	DB	060H
	DB	060H
	DB	060H
	DB	0d1H
	DB	060H
	DB	060H
	DB	060H
	DB	0d1H
	DB	060H
	DB	060H
	DB	060H
	DB	0d1H
	DB	060H
	DB	060H
	DB	060H
	DB	0d1H
	DB	060H
	DB	060H
	DB	060H
	DB	0d1H
	DB	060H
	DB	060H
	DB	060H
	DB	0d1H
	DB	060H
	DB	060H
	DB	060H
	DB	0d1H
	DB	060H
	DB	060H
	DB	060H
	DB	0d1H
	DB	060H
	DB	060H
	DB	060H
	DB	0d1H
	DB	060H
	DB	060H
	DB	060H
	DB	0d1H
	DB	060H
	DB	060H
	DB	060H
	DB	0d1H
	DB	060H
	DB	060H
	DB	060H
	DB	0d1H
	DB	060H
	DB	060H
	DB	060H
	DB	0d1H
	DB	060H
	DB	060H
	DB	060H
	DB	0d1H
	DB	060H
	DB	060H
	DB	060H
	DB	0d1H
	DB	060H
	DB	060H
	DB	060H
	DB	0d1H
	DB	060H
	DB	060H
	DB	060H
	DB	0d1H
	DB	060H
	DB	060H
	DB	060H
	DB	0d1H
	DB	060H
	DB	060H
	DB	060H
	DB	0d1H
	DB	060H
	DB	060H
	DB	060H
	DB	0d1H
	DB	060H
	DB	060H
	DB	060H
	DB	0d1H
	DB	060H
	DB	060H
	DB	060H
	DB	0d1H
	DB	060H
	DB	060H
	DB	060H
	DB	0d1H
	DB	060H
	DB	060H
	DB	060H
	DB	0d1H
	DB	060H
	DB	060H
	DB	060H
	DB	0d1H
	DB	060H
	DB	060H
	DB	060H
	DB	0d1H
	DB	060H
	DB	060H
	DB	060H
	DB	0d1H
	DB	060H
	DB	060H
	DB	060H
	DB	0d1H
	DB	060H
	DB	060H
	DB	060H
	DB	0d1H
	DB	060H
	DB	060H
	DB	060H
	DB	0d1H
	DB	060H
	DB	060H
	DB	060H
	DB	0d1H
	DB	060H
	DB	060H
	DB	060H
	DB	0d1H
	DB	060H
	DB	060H
	DB	060H
	DB	0d1H
	DB	060H
	DB	060H
	DB	060H
	DB	0d1H
	DB	060H
	DB	060H
	DB	060H
	DB	0d1H
	DB	060H
	DB	060H
	DB	060H
	DB	0d1H
	DB	060H
	DB	060H
	DB	060H
	DB	0d1H
	DB	060H
	DB	060H
	DB	060H
	DB	0d1H
	DB	060H
	DB	060H
	DB	060H
	DB	0d1H
	DB	060H
	DB	060H
	DB	060H
	DB	0d1H
	DB	060H
	DB	060H
	DB	060H
	DB	0d1H
	DB	060H
	DB	060H
	DB	060H
	DB	0d1H
	DB	060H
	DB	060H
	DB	060H
	DB	0d1H
	DB	060H
	DB	060H
	DB	060H
	DB	0d1H
	DB	060H
	DB	060H
	DB	060H
	DB	0d1H
	DB	060H
	DB	060H
	DB	060H
	DB	0d1H
	DB	060H
	DB	060H
	DB	060H
	DB	0d1H
	DB	060H
	DB	060H
	DB	060H
	DB	0d1H
	DB	060H
	DB	060H
	DB	060H
	DB	0d1H
	DB	060H
	DB	060H
	DB	060H
	DB	0d1H
	DB	060H
	DB	060H
	DB	060H
	DB	0d1H
	DB	060H
	DB	060H
	DB	060H
	DB	0d1H
	DB	060H
	DB	060H
	DB	060H
	DB	0d1H
	DB	060H
	DB	060H
	DB	060H
	DB	0d1H
	DB	060H
	DB	060H
	DB	060H
	DB	0d1H
	DB	060H
	DB	060H
	DB	060H
	DB	0d1H
	DB	060H
	DB	060H
	DB	060H
	DB	0d1H
	DB	060H
	DB	060H
	DB	060H
	DB	0d1H
	DB	060H
	DB	060H
	DB	060H
	DB	0d1H
	DB	060H
	DB	060H
	DB	060H
	DB	0d1H
	DB	060H
	DB	060H
	DB	060H
	DB	0d1H
	DB	060H
	DB	060H
	DB	060H
	DB	0d1H
	DB	060H
	DB	060H
	DB	060H
	DB	0d1H
	DB	060H
	DB	060H
	DB	060H
	DB	0d1H
	DB	060H
	DB	060H
	DB	060H
	DB	0d1H
	DB	060H
	DB	060H
	DB	060H
	DB	0d1H
	DB	060H
	DB	060H
	DB	060H
	DB	0d1H
	DB	060H
	DB	060H
	DB	060H
	DB	0d1H
	DB	060H
	DB	060H
	DB	060H
	DB	0d1H
	DB	060H
	DB	060H
	DB	060H
	DB	0d1H
	DB	060H
	DB	060H
	DB	060H
	DB	0d1H
	DB	060H
	DB	060H
	DB	060H
	DB	0d1H
	DB	060H
	DB	060H
	DB	060H
	DB	0d1H
	DB	060H
	DB	060H
	DB	060H
	DB	0d1H
	DB	060H
	DB	060H
	DB	060H
	DB	0d1H
	DB	060H
	DB	060H
	DB	060H
	DB	0d1H
	DB	060H
	DB	060H
	DB	060H
	DB	0d1H
	DB	060H
	DB	060H
	DB	060H
	DB	0d1H
	DB	060H
	DB	060H
	DB	060H
	DB	0d1H
	DB	0a8H
	DB	08cH
	DB	010H
	DB	0ffH
	DB	0a8H
	DB	08cH
	DB	010H
	DB	0ffH
	DB	0a8H
	DB	08cH
	DB	010H
	DB	0ffH
	DB	0a8H
	DB	08cH
	DB	010H
	DB	0ffH
	DB	060H
	DB	060H
	DB	060H
	DB	0d1H
	DB	060H
	DB	060H
	DB	060H
	DB	0d1H
	DB	060H
	DB	060H
	DB	060H
	DB	0d1H
	DB	060H
	DB	060H
	DB	060H
	DB	0d1H
	DB	060H
	DB	060H
	DB	060H
	DB	0d1H
	DB	060H
	DB	060H
	DB	060H
	DB	0d1H
	DB	060H
	DB	060H
	DB	060H
	DB	0d1H
	DB	060H
	DB	060H
	DB	060H
	DB	0d1H
	DB	060H
	DB	060H
	DB	060H
	DB	0d1H
	DB	060H
	DB	060H
	DB	060H
	DB	0d1H
	DB	060H
	DB	060H
	DB	060H
	DB	0d1H
	DB	060H
	DB	060H
	DB	060H
	DB	0d1H
	DB	060H
	DB	060H
	DB	060H
	DB	0d1H
	DB	060H
	DB	060H
	DB	060H
	DB	0d1H
	DB	060H
	DB	060H
	DB	060H
	DB	0d1H
	DB	060H
	DB	060H
	DB	060H
	DB	0d1H
	DB	060H
	DB	060H
	DB	060H
	DB	0d1H
	DB	060H
	DB	060H
	DB	060H
	DB	0d1H
	DB	060H
	DB	060H
	DB	060H
	DB	0d1H
	DB	060H
	DB	060H
	DB	060H
	DB	0d1H
	DB	060H
	DB	060H
	DB	060H
	DB	0d1H
	DB	060H
	DB	060H
	DB	060H
	DB	0d1H
	DB	060H
	DB	060H
	DB	060H
	DB	0d1H
	DB	060H
	DB	060H
	DB	060H
	DB	0d1H
	DB	060H
	DB	060H
	DB	060H
	DB	0d1H
	DB	060H
	DB	060H
	DB	060H
	DB	0d1H
	DB	060H
	DB	060H
	DB	060H
	DB	0d1H
	DB	060H
	DB	060H
	DB	060H
	DB	0d1H
	DB	060H
	DB	060H
	DB	060H
	DB	0d1H
	DB	060H
	DB	060H
	DB	060H
	DB	0d1H
	DB	060H
	DB	060H
	DB	060H
	DB	0d1H
	DB	060H
	DB	060H
	DB	060H
	DB	0d1H
	DB	060H
	DB	060H
	DB	060H
	DB	0d1H
	DB	060H
	DB	060H
	DB	060H
	DB	0d1H
	DB	060H
	DB	060H
	DB	060H
	DB	0d1H
	DB	060H
	DB	060H
	DB	060H
	DB	0d1H
	DB	060H
	DB	060H
	DB	060H
	DB	0d1H
	DB	060H
	DB	060H
	DB	060H
	DB	0d1H
	DB	060H
	DB	060H
	DB	060H
	DB	0d1H
	DB	060H
	DB	060H
	DB	060H
	DB	0d1H
	DB	060H
	DB	060H
	DB	060H
	DB	0d1H
	DB	060H
	DB	060H
	DB	060H
	DB	0d1H
	DB	060H
	DB	060H
	DB	060H
	DB	0d1H
	DB	060H
	DB	060H
	DB	060H
	DB	0d1H
	DB	060H
	DB	060H
	DB	060H
	DB	0d1H
	DB	060H
	DB	060H
	DB	060H
	DB	0d1H
	DB	060H
	DB	060H
	DB	060H
	DB	0d1H
	DB	060H
	DB	060H
	DB	060H
	DB	0d1H
	DB	060H
	DB	060H
	DB	060H
	DB	0d1H
	DB	060H
	DB	060H
	DB	060H
	DB	0d1H
	DB	060H
	DB	060H
	DB	060H
	DB	0d1H
	DB	060H
	DB	060H
	DB	060H
	DB	0d1H
	DB	060H
	DB	060H
	DB	060H
	DB	0d1H
	DB	060H
	DB	060H
	DB	060H
	DB	0d1H
	DB	060H
	DB	060H
	DB	060H
	DB	0d1H
	DB	060H
	DB	060H
	DB	060H
	DB	0d1H
	DB	060H
	DB	060H
	DB	060H
	DB	0d1H
	DB	060H
	DB	060H
	DB	060H
	DB	0d1H
	DB	060H
	DB	060H
	DB	060H
	DB	0d1H
	DB	060H
	DB	060H
	DB	060H
	DB	0d1H
	DB	060H
	DB	060H
	DB	060H
	DB	0d1H
	DB	060H
	DB	060H
	DB	060H
	DB	0d1H
	DB	060H
	DB	060H
	DB	060H
	DB	0d1H
	DB	060H
	DB	060H
	DB	060H
	DB	0d1H
	DB	060H
	DB	060H
	DB	060H
	DB	0d1H
	DB	060H
	DB	060H
	DB	060H
	DB	0d1H
	DB	060H
	DB	060H
	DB	060H
	DB	0d1H
	DB	060H
	DB	060H
	DB	060H
	DB	0d1H
	DB	060H
	DB	060H
	DB	060H
	DB	0d1H
	DB	060H
	DB	060H
	DB	060H
	DB	0d1H
	DB	060H
	DB	060H
	DB	060H
	DB	0d1H
	DB	060H
	DB	060H
	DB	060H
	DB	0d1H
	DB	060H
	DB	060H
	DB	060H
	DB	0d1H
	DB	060H
	DB	060H
	DB	060H
	DB	0d1H
	DB	060H
	DB	060H
	DB	060H
	DB	0d1H
	DB	060H
	DB	060H
	DB	060H
	DB	0d1H
	DB	060H
	DB	060H
	DB	060H
	DB	0d1H
	DB	060H
	DB	060H
	DB	060H
	DB	0d1H
	DB	060H
	DB	060H
	DB	060H
	DB	0d1H
	DB	060H
	DB	060H
	DB	060H
	DB	0d1H
	DB	060H
	DB	060H
	DB	060H
	DB	0d1H
	DB	060H
	DB	060H
	DB	060H
	DB	0d1H
	DB	060H
	DB	060H
	DB	060H
	DB	0d1H
	DB	060H
	DB	060H
	DB	060H
	DB	0d1H
	DB	060H
	DB	060H
	DB	060H
	DB	0d1H
	DB	060H
	DB	060H
	DB	060H
	DB	0d1H
	DB	060H
	DB	060H
	DB	060H
	DB	0d1H
	DB	060H
	DB	060H
	DB	060H
	DB	0d1H
	DB	060H
	DB	060H
	DB	060H
	DB	0d1H
	DB	060H
	DB	060H
	DB	060H
	DB	0d1H
	DB	060H
	DB	060H
	DB	060H
	DB	0d1H
	DB	060H
	DB	060H
	DB	060H
	DB	0d1H
	DB	060H
	DB	060H
	DB	060H
	DB	0d1H
	DB	060H
	DB	060H
	DB	060H
	DB	0d1H
	DB	060H
	DB	060H
	DB	060H
	DB	0d1H
	DB	060H
	DB	060H
	DB	060H
	DB	0d1H
	DB	060H
	DB	060H
	DB	060H
	DB	0d1H
	DB	060H
	DB	060H
	DB	060H
	DB	0d1H
	DB	060H
	DB	060H
	DB	060H
	DB	0d1H
	DB	060H
	DB	060H
	DB	060H
	DB	0d1H
	DB	060H
	DB	060H
	DB	060H
	DB	0d1H
	DB	060H
	DB	060H
	DB	060H
	DB	0d1H
	DB	060H
	DB	060H
	DB	060H
	DB	0d1H
	DB	060H
	DB	060H
	DB	060H
	DB	0d1H
	DB	060H
	DB	060H
	DB	060H
	DB	0d1H
	DB	060H
	DB	060H
	DB	060H
	DB	0d1H
	DB	060H
	DB	060H
	DB	060H
	DB	0d1H
	DB	060H
	DB	060H
	DB	060H
	DB	0d1H
	DB	060H
	DB	060H
	DB	060H
	DB	0d1H
	DB	060H
	DB	060H
	DB	060H
	DB	0d1H
	DB	060H
	DB	060H
	DB	060H
	DB	0d1H
	DB	060H
	DB	060H
	DB	060H
	DB	0d1H
	DB	060H
	DB	060H
	DB	060H
	DB	0d1H
	DB	060H
	DB	060H
	DB	060H
	DB	0d1H
	DB	060H
	DB	060H
	DB	060H
	DB	0d1H
	DB	060H
	DB	060H
	DB	060H
	DB	0d1H
	DB	060H
	DB	060H
	DB	060H
	DB	0d1H
	DB	060H
	DB	060H
	DB	060H
	DB	0d1H
	DB	060H
	DB	060H
	DB	060H
	DB	0d1H
	DB	060H
	DB	060H
	DB	060H
	DB	0d1H
	DB	060H
	DB	060H
	DB	060H
	DB	0d1H
	DB	060H
	DB	060H
	DB	060H
	DB	0d1H
	DB	0a8H
	DB	08cH
	DB	010H
	DB	0ffH
	DB	0a8H
	DB	08cH
	DB	010H
	DB	0ffH
	DB	0a8H
	DB	08cH
	DB	010H
	DB	0ffH
	DB	0a8H
	DB	08cH
	DB	010H
	DB	0ffH
	DB	060H
	DB	060H
	DB	060H
	DB	0d1H
	DB	060H
	DB	060H
	DB	060H
	DB	0d1H
	DB	060H
	DB	060H
	DB	060H
	DB	0d1H
	DB	060H
	DB	060H
	DB	060H
	DB	0d1H
	DB	060H
	DB	060H
	DB	060H
	DB	0d1H
	DB	060H
	DB	060H
	DB	060H
	DB	0d1H
	DB	060H
	DB	060H
	DB	060H
	DB	0d1H
	DB	060H
	DB	060H
	DB	060H
	DB	0d1H
	DB	060H
	DB	060H
	DB	060H
	DB	0d1H
	DB	060H
	DB	060H
	DB	060H
	DB	0d1H
	DB	060H
	DB	060H
	DB	060H
	DB	0d1H
	DB	060H
	DB	060H
	DB	060H
	DB	0d1H
	DB	060H
	DB	060H
	DB	060H
	DB	0d1H
	DB	060H
	DB	060H
	DB	060H
	DB	0d1H
	DB	060H
	DB	060H
	DB	060H
	DB	0d1H
	DB	060H
	DB	060H
	DB	060H
	DB	0d1H
	DB	060H
	DB	060H
	DB	060H
	DB	0d1H
	DB	060H
	DB	060H
	DB	060H
	DB	0d1H
	DB	060H
	DB	060H
	DB	060H
	DB	0d1H
	DB	060H
	DB	060H
	DB	060H
	DB	0d1H
	DB	060H
	DB	060H
	DB	060H
	DB	0d1H
	DB	060H
	DB	060H
	DB	060H
	DB	0d1H
	DB	060H
	DB	060H
	DB	060H
	DB	0d1H
	DB	060H
	DB	060H
	DB	060H
	DB	0d1H
	DB	060H
	DB	060H
	DB	060H
	DB	0d1H
	DB	060H
	DB	060H
	DB	060H
	DB	0d1H
	DB	060H
	DB	060H
	DB	060H
	DB	0d1H
	DB	060H
	DB	060H
	DB	060H
	DB	0d1H
	DB	060H
	DB	060H
	DB	060H
	DB	0d1H
	DB	060H
	DB	060H
	DB	060H
	DB	0d1H
	DB	060H
	DB	060H
	DB	060H
	DB	0d1H
	DB	060H
	DB	060H
	DB	060H
	DB	0d1H
	DB	060H
	DB	060H
	DB	060H
	DB	0d1H
	DB	060H
	DB	060H
	DB	060H
	DB	0d1H
	DB	060H
	DB	060H
	DB	060H
	DB	0d1H
	DB	060H
	DB	060H
	DB	060H
	DB	0d1H
	DB	060H
	DB	060H
	DB	060H
	DB	0d1H
	DB	060H
	DB	060H
	DB	060H
	DB	0d1H
	DB	060H
	DB	060H
	DB	060H
	DB	0d1H
	DB	060H
	DB	060H
	DB	060H
	DB	0d1H
	DB	060H
	DB	060H
	DB	060H
	DB	0d1H
	DB	060H
	DB	060H
	DB	060H
	DB	0d1H
	DB	060H
	DB	060H
	DB	060H
	DB	0d1H
	DB	060H
	DB	060H
	DB	060H
	DB	0d1H
	DB	060H
	DB	060H
	DB	060H
	DB	0d1H
	DB	060H
	DB	060H
	DB	060H
	DB	0d1H
	DB	060H
	DB	060H
	DB	060H
	DB	0d1H
	DB	060H
	DB	060H
	DB	060H
	DB	0d1H
	DB	060H
	DB	060H
	DB	060H
	DB	0d1H
	DB	060H
	DB	060H
	DB	060H
	DB	0d1H
	DB	060H
	DB	060H
	DB	060H
	DB	0d1H
	DB	060H
	DB	060H
	DB	060H
	DB	0d1H
	DB	060H
	DB	060H
	DB	060H
	DB	0d1H
	DB	060H
	DB	060H
	DB	060H
	DB	0d1H
	DB	060H
	DB	060H
	DB	060H
	DB	0d1H
	DB	060H
	DB	060H
	DB	060H
	DB	0d1H
	DB	060H
	DB	060H
	DB	060H
	DB	0d1H
	DB	060H
	DB	060H
	DB	060H
	DB	0d1H
	DB	060H
	DB	060H
	DB	060H
	DB	0d1H
	DB	060H
	DB	060H
	DB	060H
	DB	0d1H
	DB	060H
	DB	060H
	DB	060H
	DB	0d1H
	DB	060H
	DB	060H
	DB	060H
	DB	0d1H
	DB	060H
	DB	060H
	DB	060H
	DB	0d1H
	DB	060H
	DB	060H
	DB	060H
	DB	0d1H
	DB	060H
	DB	060H
	DB	060H
	DB	0d1H
	DB	060H
	DB	060H
	DB	060H
	DB	0d1H
	DB	060H
	DB	060H
	DB	060H
	DB	0d1H
	DB	060H
	DB	060H
	DB	060H
	DB	0d1H
	DB	060H
	DB	060H
	DB	060H
	DB	0d1H
	DB	060H
	DB	060H
	DB	060H
	DB	0d1H
	DB	060H
	DB	060H
	DB	060H
	DB	0d1H
	DB	060H
	DB	060H
	DB	060H
	DB	0d1H
	DB	060H
	DB	060H
	DB	060H
	DB	0d1H
	DB	060H
	DB	060H
	DB	060H
	DB	0d1H
	DB	060H
	DB	060H
	DB	060H
	DB	0d1H
	DB	060H
	DB	060H
	DB	060H
	DB	0d1H
	DB	060H
	DB	060H
	DB	060H
	DB	0d1H
	DB	060H
	DB	060H
	DB	060H
	DB	0d1H
	DB	060H
	DB	060H
	DB	060H
	DB	0d1H
	DB	060H
	DB	060H
	DB	060H
	DB	0d1H
	DB	060H
	DB	060H
	DB	060H
	DB	0d1H
	DB	060H
	DB	060H
	DB	060H
	DB	0d1H
	DB	060H
	DB	060H
	DB	060H
	DB	0d1H
	DB	060H
	DB	060H
	DB	060H
	DB	0d1H
	DB	060H
	DB	060H
	DB	060H
	DB	0d1H
	DB	060H
	DB	060H
	DB	060H
	DB	0d1H
	DB	060H
	DB	060H
	DB	060H
	DB	0d1H
	DB	060H
	DB	060H
	DB	060H
	DB	0d1H
	DB	060H
	DB	060H
	DB	060H
	DB	0d1H
	DB	060H
	DB	060H
	DB	060H
	DB	0d1H
	DB	060H
	DB	060H
	DB	060H
	DB	0d1H
	DB	060H
	DB	060H
	DB	060H
	DB	0d1H
	DB	060H
	DB	060H
	DB	060H
	DB	0d1H
	DB	060H
	DB	060H
	DB	060H
	DB	0d1H
	DB	060H
	DB	060H
	DB	060H
	DB	0d1H
	DB	060H
	DB	060H
	DB	060H
	DB	0d1H
	DB	060H
	DB	060H
	DB	060H
	DB	0d1H
	DB	060H
	DB	060H
	DB	060H
	DB	0d1H
	DB	060H
	DB	060H
	DB	060H
	DB	0d1H
	DB	060H
	DB	060H
	DB	060H
	DB	0d1H
	DB	060H
	DB	060H
	DB	060H
	DB	0d1H
	DB	060H
	DB	060H
	DB	060H
	DB	0d1H
	DB	060H
	DB	060H
	DB	060H
	DB	0d1H
	DB	060H
	DB	060H
	DB	060H
	DB	0d1H
	DB	060H
	DB	060H
	DB	060H
	DB	0d1H
	DB	060H
	DB	060H
	DB	060H
	DB	0d1H
	DB	060H
	DB	060H
	DB	060H
	DB	0d1H
	DB	060H
	DB	060H
	DB	060H
	DB	0d1H
	DB	060H
	DB	060H
	DB	060H
	DB	0d1H
	DB	060H
	DB	060H
	DB	060H
	DB	0d1H
	DB	060H
	DB	060H
	DB	060H
	DB	0d1H
	DB	060H
	DB	060H
	DB	060H
	DB	0d1H
	DB	060H
	DB	060H
	DB	060H
	DB	0d1H
	DB	060H
	DB	060H
	DB	060H
	DB	0d1H
	DB	060H
	DB	060H
	DB	060H
	DB	0d1H
	DB	060H
	DB	060H
	DB	060H
	DB	0d1H
	DB	060H
	DB	060H
	DB	060H
	DB	0d1H
	DB	060H
	DB	060H
	DB	060H
	DB	0d1H
	DB	060H
	DB	060H
	DB	060H
	DB	0d1H
	DB	060H
	DB	060H
	DB	060H
	DB	0d1H
	DB	060H
	DB	060H
	DB	060H
	DB	0d1H
	DB	060H
	DB	060H
	DB	060H
	DB	0d1H
	DB	0a8H
	DB	08cH
	DB	010H
	DB	0ffH
	DB	0a8H
	DB	08cH
	DB	010H
	DB	0ffH
	DB	0a8H
	DB	08cH
	DB	010H
	DB	0ffH
	DB	0a8H
	DB	08cH
	DB	010H
	DB	0ffH
	DB	060H
	DB	060H
	DB	060H
	DB	0d1H
	DB	060H
	DB	060H
	DB	060H
	DB	0d1H
	DB	060H
	DB	060H
	DB	060H
	DB	0d1H
