; Listing generated by Microsoft (R) Optimizing Compiler Version 19.30.30705.0 

	TITLE	D:\学习\毕业设计\方案1_GFX+底板\官方例程\DISPLAY\TouchGFX\build\Debug\obj\image_leftArrowDark.obj
	.686P
	.XMM
	include listing.inc
	.model	flat

INCLUDELIB MSVCRTD
INCLUDELIB OLDNAMES

PUBLIC	?image_leftarrowdark@@3QBEB			; image_leftarrowdark
msvcjmc	SEGMENT
__BA83647B_Config@hpp DB 01H
__72AEF7D2_image_leftArrowDark@cpp DB 01H
msvcjmc	ENDS
CONST	SEGMENT
?image_leftarrowdark@@3QBEB DB 0d0H			; image_leftarrowdark
	DB	0c4H
	DB	080H
	DB	0ffH
	DB	0a8H
	DB	090H
	DB	018H
	DB	0ffH
	DB	0a8H
	DB	090H
	DB	018H
	DB	0ffH
	DB	0a8H
	DB	090H
	DB	018H
	DB	0ffH
	DB	0a8H
	DB	090H
	DB	018H
	DB	0ffH
	DB	0a8H
	DB	090H
	DB	018H
	DB	0ffH
	DB	0a8H
	DB	090H
	DB	018H
	DB	0ffH
	DB	0a8H
	DB	090H
	DB	018H
	DB	0ffH
	DB	0b0H
	DB	098H
	DB	028H
	DB	0ffH
	DB	0f0H
	DB	0ecH
	DB	0d8H
	DB	0ffH
	DB	0f8H
	DB	0fcH
	DB	0f8H
	DB	00H
	DB	0f8H
	DB	0fcH
	DB	0f8H
	DB	00H
	DB	0f8H
	DB	0fcH
	DB	0f8H
	DB	00H
	DB	0f8H
	DB	0fcH
	DB	0f8H
	DB	00H
	DB	0f8H
	DB	0fcH
	DB	0f8H
	DB	00H
	DB	0f8H
	DB	0fcH
	DB	0f8H
	DB	00H
	DB	0f8H
	DB	0fcH
	DB	0f8H
	DB	00H
	DB	0f8H
	DB	0fcH
	DB	0f8H
	DB	00H
	DB	0f8H
	DB	0fcH
	DB	0f8H
	DB	00H
	DB	0f8H
	DB	0fcH
	DB	0f8H
	DB	00H
	DB	0f8H
	DB	0fcH
	DB	0f8H
	DB	00H
	DB	0f8H
	DB	0fcH
	DB	0f8H
	DB	00H
	DB	0f0H
	DB	0ecH
	DB	0d8H
	DB	0ffH
	DB	0b0H
	DB	098H
	DB	028H
	DB	0ffH
	DB	0a8H
	DB	090H
	DB	018H
	DB	0ffH
	DB	0a8H
	DB	090H
	DB	018H
	DB	0ffH
	DB	0a8H
	DB	090H
	DB	018H
	DB	0ffH
	DB	0a8H
	DB	090H
	DB	018H
	DB	0ffH
	DB	0a8H
	DB	090H
	DB	018H
	DB	0ffH
	DB	0a8H
	DB	090H
	DB	018H
	DB	0ffH
	DB	0a8H
	DB	090H
	DB	018H
	DB	0ffH
	DB	0d0H
	DB	0c4H
	DB	080H
	DB	0ffH
	DB	0f8H
	DB	0fcH
	DB	0f8H
	DB	00H
	DB	0d0H
	DB	0c0H
	DB	078H
	DB	0ffH
	DB	0a8H
	DB	08cH
	DB	010H
	DB	0ffH
	DB	0a8H
	DB	08cH
	DB	010H
	DB	0ffH
	DB	0a8H
	DB	08cH
	DB	010H
	DB	0ffH
	DB	0a8H
	DB	08cH
	DB	010H
	DB	0ffH
	DB	0a8H
	DB	08cH
	DB	010H
	DB	0ffH
	DB	0a8H
	DB	08cH
	DB	010H
	DB	0ffH
	DB	0a8H
	DB	08cH
	DB	010H
	DB	0ffH
	DB	0b0H
	DB	098H
	DB	028H
	DB	0ffH
	DB	0f0H
	DB	0ecH
	DB	0d8H
	DB	0ffH
	DB	0f8H
	DB	0fcH
	DB	0f8H
	DB	00H
	DB	0f8H
	DB	0fcH
	DB	0f8H
	DB	00H
	DB	0f8H
	DB	0fcH
	DB	0f8H
	DB	00H
	DB	0f8H
	DB	0fcH
	DB	0f8H
	DB	00H
	DB	0f8H
	DB	0fcH
	DB	0f8H
	DB	00H
	DB	0f8H
	DB	0fcH
	DB	0f8H
	DB	00H
	DB	0f8H
	DB	0fcH
	DB	0f8H
	DB	00H
	DB	0f8H
	DB	0fcH
	DB	0f8H
	DB	00H
	DB	0f8H
	DB	0fcH
	DB	0f8H
	DB	00H
	DB	0f8H
	DB	0fcH
	DB	0f8H
	DB	00H
	DB	0f0H
	DB	0ecH
	DB	0d8H
	DB	0ffH
	DB	0b0H
	DB	098H
	DB	028H
	DB	0ffH
	DB	0a8H
	DB	08cH
	DB	010H
	DB	0ffH
	DB	0a8H
	DB	08cH
	DB	010H
	DB	0ffH
	DB	0a8H
	DB	08cH
	DB	010H
	DB	0ffH
	DB	0a8H
	DB	08cH
	DB	010H
	DB	0ffH
	DB	0a8H
	DB	08cH
	DB	010H
	DB	0ffH
	DB	0a8H
	DB	08cH
	DB	010H
	DB	0ffH
	DB	0a8H
	DB	08cH
	DB	010H
	DB	0ffH
	DB	0d0H
	DB	0c0H
	DB	078H
	DB	0ffH
	DB	0f8H
	DB	0fcH
	DB	0f8H
	DB	00H
	DB	0f8H
	DB	0fcH
	DB	0f8H
	DB	00H
	DB	0f8H
	DB	0fcH
	DB	0f8H
	DB	00H
	DB	0d0H
	DB	0c0H
	DB	078H
	DB	0ffH
	DB	0a8H
	DB	08cH
	DB	010H
	DB	0ffH
	DB	0a8H
	DB	08cH
	DB	010H
	DB	0ffH
	DB	0a8H
	DB	08cH
	DB	010H
	DB	0ffH
	DB	0a8H
	DB	08cH
	DB	010H
	DB	0ffH
	DB	0a8H
	DB	08cH
	DB	010H
	DB	0ffH
	DB	0a8H
	DB	08cH
	DB	010H
	DB	0ffH
	DB	0a8H
	DB	08cH
	DB	010H
	DB	0ffH
	DB	0b0H
	DB	098H
	DB	028H
	DB	0ffH
	DB	0f0H
	DB	0ecH
	DB	0d8H
	DB	0ffH
	DB	0f8H
	DB	0fcH
	DB	0f8H
	DB	00H
	DB	0f8H
	DB	0fcH
	DB	0f8H
	DB	00H
	DB	0f8H
	DB	0fcH
	DB	0f8H
	DB	00H
	DB	0f8H
	DB	0fcH
	DB	0f8H
	DB	00H
	DB	0f8H
	DB	0fcH
	DB	0f8H
	DB	00H
	DB	0f8H
	DB	0fcH
	DB	0f8H
	DB	00H
	DB	0f8H
	DB	0fcH
	DB	0f8H
	DB	00H
	DB	0f8H
	DB	0fcH
	DB	0f8H
	DB	00H
	DB	0f0H
	DB	0ecH
	DB	0d8H
	DB	0ffH
	DB	0b0H
	DB	098H
	DB	028H
	DB	0ffH
	DB	0a8H
	DB	08cH
	DB	010H
	DB	0ffH
	DB	0a8H
	DB	08cH
	DB	010H
	DB	0ffH
	DB	0a8H
	DB	08cH
	DB	010H
	DB	0ffH
	DB	0a8H
	DB	08cH
	DB	010H
	DB	0ffH
	DB	0a8H
	DB	08cH
	DB	010H
	DB	0ffH
	DB	0a8H
	DB	08cH
	DB	010H
	DB	0ffH
	DB	0a8H
	DB	08cH
	DB	010H
	DB	0ffH
	DB	0d0H
	DB	0c0H
	DB	078H
	DB	0ffH
	DB	0f8H
	DB	0fcH
	DB	0f8H
	DB	00H
	DB	0f8H
	DB	0fcH
	DB	0f8H
	DB	00H
	DB	0f8H
	DB	0fcH
	DB	0f8H
	DB	00H
	DB	0f8H
	DB	0fcH
	DB	0f8H
	DB	00H
	DB	0f8H
	DB	0fcH
	DB	0f8H
	DB	00H
	DB	0d0H
	DB	0c0H
	DB	080H
	DB	0ffH
	DB	0a8H
	DB	08cH
	DB	010H
	DB	0ffH
	DB	0a8H
	DB	08cH
	DB	010H
	DB	0ffH
	DB	0a8H
	DB	08cH
	DB	010H
	DB	0ffH
	DB	0a8H
	DB	08cH
	DB	010H
	DB	0ffH
	DB	0a8H
	DB	08cH
	DB	010H
	DB	0ffH
	DB	0a8H
	DB	08cH
	DB	010H
	DB	0ffH
	DB	0a8H
	DB	08cH
	DB	010H
	DB	0ffH
	DB	0b0H
	DB	094H
	DB	020H
	DB	0ffH
	DB	0f0H
	DB	0ecH
	DB	0d8H
	DB	0ffH
	DB	0f8H
	DB	0fcH
	DB	0f8H
	DB	00H
	DB	0f8H
	DB	0fcH
	DB	0f8H
	DB	00H
	DB	0f8H
	DB	0fcH
	DB	0f8H
	DB	00H
	DB	0f8H
	DB	0fcH
	DB	0f8H
	DB	00H
	DB	0f8H
	DB	0fcH
	DB	0f8H
	DB	00H
	DB	0f8H
	DB	0fcH
	DB	0f8H
	DB	00H
	DB	0f0H
	DB	0ecH
	DB	0d8H
	DB	0ffH
	DB	0b0H
	DB	094H
	DB	020H
	DB	0ffH
	DB	0a8H
	DB	08cH
	DB	010H
	DB	0ffH
	DB	0a8H
	DB	08cH
	DB	010H
	DB	0ffH
	DB	0a8H
	DB	08cH
	DB	010H
	DB	0ffH
	DB	0a8H
	DB	08cH
	DB	010H
	DB	0ffH
	DB	0a8H
	DB	08cH
	DB	010H
	DB	0ffH
	DB	0a8H
	DB	08cH
	DB	010H
	DB	0ffH
	DB	0a8H
	DB	08cH
	DB	010H
	DB	0ffH
	DB	0d0H
	DB	0c0H
	DB	080H
	DB	0ffH
	DB	0f8H
	DB	0fcH
	DB	0f8H
	DB	00H
	DB	0f8H
	DB	0fcH
	DB	0f8H
	DB	00H
	DB	0f8H
	DB	0fcH
	DB	0f8H
	DB	00H
	DB	0f8H
	DB	0fcH
	DB	0f8H
	DB	00H
	DB	0f8H
	DB	0fcH
	DB	0f8H
	DB	00H
	DB	0f8H
	DB	0fcH
	DB	0f8H
	DB	00H
	DB	0f8H
	DB	0fcH
	DB	0f8H
	DB	00H
	DB	0d0H
	DB	0c0H
	DB	080H
	DB	0ffH
	DB	0a8H
	DB	08cH
	DB	010H
	DB	0ffH
	DB	0a8H
	DB	08cH
	DB	010H
	DB	0ffH
	DB	0a8H
	DB	08cH
	DB	010H
	DB	0ffH
	DB	0a8H
	DB	08cH
	DB	010H
	DB	0ffH
	DB	0a8H
	DB	08cH
	DB	010H
	DB	0ffH
	DB	0a8H
	DB	08cH
	DB	010H
	DB	0ffH
	DB	0a8H
	DB	08cH
	DB	010H
	DB	0ffH
	DB	0b0H
	DB	094H
	DB	020H
	DB	0ffH
	DB	0f0H
	DB	0ecH
	DB	0d8H
	DB	0ffH
	DB	0f8H
	DB	0fcH
	DB	0f8H
	DB	00H
	DB	0f8H
	DB	0fcH
	DB	0f8H
	DB	00H
	DB	0f8H
	DB	0fcH
	DB	0f8H
	DB	00H
	DB	0f8H
	DB	0fcH
	DB	0f8H
	DB	00H
	DB	0f0H
	DB	0ecH
	DB	0d8H
	DB	0ffH
	DB	0b0H
	DB	094H
	DB	020H
	DB	0ffH
	DB	0a8H
	DB	08cH
	DB	010H
	DB	0ffH
	DB	0a8H
	DB	08cH
	DB	010H
	DB	0ffH
	DB	0a8H
	DB	08cH
	DB	010H
	DB	0ffH
	DB	0a8H
	DB	08cH
	DB	010H
	DB	0ffH
	DB	0a8H
	DB	08cH
	DB	010H
	DB	0ffH
	DB	0a8H
	DB	08cH
	DB	010H
	DB	0ffH
	DB	0a8H
	DB	08cH
	DB	010H
	DB	0ffH
	DB	0d0H
	DB	0c0H
	DB	080H
	DB	0ffH
	DB	0f8H
	DB	0fcH
	DB	0f8H
	DB	00H
	DB	0f8H
	DB	0fcH
	DB	0f8H
	DB	00H
	DB	0f8H
	DB	0fcH
	DB	0f8H
	DB	00H
	DB	0f8H
	DB	0fcH
	DB	0f8H
	DB	00H
	DB	0f8H
	DB	0fcH
	DB	0f8H
	DB	00H
	DB	0f8H
	DB	0fcH
	DB	0f8H
	DB	00H
	DB	0f8H
	DB	0fcH
	DB	0f8H
	DB	00H
	DB	0f8H
	DB	0fcH
	DB	0f8H
	DB	00H
	DB	0f8H
	DB	0fcH
	DB	0f8H
	DB	00H
	DB	0d0H
	DB	0c4H
	DB	080H
	DB	0ffH
	DB	0a8H
	DB	08cH
	DB	010H
	DB	0ffH
	DB	0a8H
	DB	08cH
	DB	010H
	DB	0ffH
	DB	0a8H
	DB	08cH
	DB	010H
	DB	0ffH
	DB	0a8H
	DB	08cH
	DB	010H
	DB	0ffH
	DB	0a8H
	DB	08cH
	DB	010H
	DB	0ffH
	DB	0a8H
	DB	08cH
	DB	010H
	DB	0ffH
	DB	0a8H
	DB	08cH
	DB	010H
	DB	0ffH
	DB	0b0H
	DB	094H
	DB	020H
	DB	0ffH
	DB	0f0H
	DB	0ecH
	DB	0d8H
	DB	0ffH
	DB	0f8H
	DB	0fcH
	DB	0f8H
	DB	00H
	DB	0f8H
	DB	0fcH
	DB	0f8H
	DB	00H
	DB	0f0H
	DB	0ecH
	DB	0d8H
	DB	0ffH
	DB	0b0H
	DB	094H
	DB	020H
	DB	0ffH
	DB	0a8H
	DB	08cH
	DB	010H
	DB	0ffH
	DB	0a8H
	DB	08cH
	DB	010H
	DB	0ffH
	DB	0a8H
	DB	08cH
	DB	010H
	DB	0ffH
	DB	0a8H
	DB	08cH
	DB	010H
	DB	0ffH
	DB	0a8H
	DB	08cH
	DB	010H
	DB	0ffH
	DB	0a8H
	DB	08cH
	DB	010H
	DB	0ffH
	DB	0a8H
	DB	08cH
	DB	010H
	DB	0ffH
	DB	0d0H
	DB	0c4H
	DB	080H
	DB	0ffH
	DB	0f8H
	DB	0fcH
	DB	0f8H
	DB	00H
	DB	0f8H
	DB	0fcH
	DB	0f8H
	DB	00H
	DB	0f8H
	DB	0fcH
	DB	0f8H
	DB	00H
	DB	0f8H
	DB	0fcH
	DB	0f8H
	DB	00H
	DB	0f8H
	DB	0fcH
	DB	0f8H
	DB	00H
	DB	0f8H
	DB	0fcH
	DB	0f8H
	DB	00H
	DB	0f8H
	DB	0fcH
	DB	0f8H
	DB	00H
	DB	0f8H
	DB	0fcH
	DB	0f8H
	DB	00H
	DB	0f8H
	DB	0fcH
	DB	0f8H
	DB	00H
	DB	0f8H
	DB	0fcH
	DB	0f8H
	DB	00H
	DB	0f8H
	DB	0fcH
	DB	0f8H
	DB	00H
	DB	0d0H
	DB	0c4H
	DB	080H
	DB	0ffH
	DB	0a8H
	DB	08cH
	DB	010H
	DB	0ffH
	DB	0a8H
	DB	08cH
	DB	010H
	DB	0ffH
	DB	0a8H
	DB	08cH
	DB	010H
	DB	0ffH
	DB	0a8H
	DB	08cH
	DB	010H
	DB	0ffH
	DB	0a8H
	DB	08cH
	DB	010H
	DB	0ffH
	DB	0a8H
	DB	08cH
	DB	010H
	DB	0ffH
	DB	0a8H
	DB	08cH
	DB	010H
	DB	0ffH
	DB	0b0H
	DB	094H
	DB	020H
	DB	0ffH
	DB	0f0H
	DB	0ecH
	DB	0d8H
	DB	0ffH
	DB	0f0H
	DB	0ecH
	DB	0d8H
	DB	0ffH
	DB	0b0H
	DB	094H
	DB	020H
	DB	0ffH
	DB	0a8H
	DB	08cH
	DB	010H
	DB	0ffH
	DB	0a8H
	DB	08cH
	DB	010H
	DB	0ffH
	DB	0a8H
	DB	08cH
	DB	010H
	DB	0ffH
	DB	0a8H
	DB	08cH
	DB	010H
	DB	0ffH
	DB	0a8H
	DB	08cH
	DB	010H
	DB	0ffH
	DB	0a8H
	DB	08cH
	DB	010H
	DB	0ffH
	DB	0a8H
	DB	08cH
	DB	010H
	DB	0ffH
	DB	0d0H
	DB	0c4H
	DB	080H
	DB	0ffH
	DB	0f8H
	DB	0fcH
	DB	0f8H
	DB	00H
	DB	0f8H
	DB	0fcH
	DB	0f8H
	DB	00H
	DB	0f8H
	DB	0fcH
	DB	0f8H
	DB	00H
	DB	0f8H
	DB	0fcH
	DB	0f8H
	DB	00H
	DB	0f8H
	DB	0fcH
	DB	0f8H
	DB	00H
	DB	0f8H
	DB	0fcH
	DB	0f8H
	DB	00H
	DB	0f8H
	DB	0fcH
	DB	0f8H
	DB	00H
	DB	0f8H
	DB	0fcH
	DB	0f8H
	DB	00H
	DB	0f8H
	DB	0fcH
	DB	0f8H
	DB	00H
	DB	0f8H
	DB	0fcH
	DB	0f8H
	DB	00H
	DB	0f8H
	DB	0fcH
	DB	0f8H
	DB	00H
	DB	0f8H
	DB	0fcH
	DB	0f8H
	DB	00H
	DB	0f8H
	DB	0fcH
	DB	0f8H
	DB	00H
	DB	0d0H
	DB	0c4H
	DB	080H
	DB	0ffH
	DB	0a8H
	DB	08cH
	DB	010H
	DB	0ffH
	DB	0a8H
	DB	08cH
	DB	010H
	DB	0ffH
	DB	0a8H
	DB	08cH
	DB	010H
	DB	0ffH
	DB	0a8H
	DB	08cH
	DB	010H
	DB	0ffH
	DB	0a8H
	DB	08cH
	DB	010H
	DB	0ffH
	DB	0a8H
	DB	08cH
	DB	010H
	DB	0ffH
	DB	0a8H
	DB	08cH
	DB	010H
	DB	0ffH
	DB	0b0H
	DB	094H
	DB	020H
	DB	0ffH
	DB	0b0H
	DB	094H
	DB	020H
	DB	0ffH
	DB	0a8H
	DB	08cH
	DB	010H
	DB	0ffH
	DB	0a8H
	DB	08cH
	DB	010H
	DB	0ffH
	DB	0a8H
	DB	08cH
	DB	010H
	DB	0ffH
	DB	0a8H
	DB	08cH
	DB	010H
	DB	0ffH
	DB	0a8H
	DB	08cH
	DB	010H
	DB	0ffH
	DB	0a8H
	DB	08cH
	DB	010H
	DB	0ffH
	DB	0a8H
	DB	08cH
	DB	010H
	DB	0ffH
	DB	0d0H
	DB	0c4H
	DB	080H
	DB	0ffH
	DB	0f8H
	DB	0fcH
	DB	0f8H
	DB	00H
	DB	0f8H
	DB	0fcH
	DB	0f8H
	DB	00H
	DB	0f8H
	DB	0fcH
	DB	0f8H
	DB	00H
	DB	0f8H
	DB	0fcH
	DB	0f8H
	DB	00H
	DB	0f8H
	DB	0fcH
	DB	0f8H
	DB	00H
	DB	0f8H
	DB	0fcH
	DB	0f8H
	DB	00H
	DB	0f8H
	DB	0fcH
	DB	0f8H
	DB	00H
	DB	0f8H
	DB	0fcH
	DB	0f8H
	DB	00H
	DB	0f8H
	DB	0fcH
	DB	0f8H
	DB	00H
	DB	0f8H
	DB	0fcH
	DB	0f8H
	DB	00H
	DB	0f8H
	DB	0fcH
	DB	0f8H
	DB	00H
	DB	0f8H
	DB	0fcH
	DB	0f8H
	DB	00H
	DB	0f8H
	DB	0fcH
	DB	0f8H
	DB	00H
	DB	0f8H
	DB	0fcH
	DB	0f8H
	DB	00H
	DB	0f8H
	DB	0fcH
	DB	0f8H
	DB	00H
	DB	0d0H
	DB	0c4H
	DB	080H
	DB	0ffH
	DB	0a8H
	DB	08cH
	DB	010H
	DB	0ffH
	DB	0a8H
	DB	08cH
	DB	010H
	DB	0ffH
	DB	0a8H
	DB	08cH
	DB	010H
	DB	0ffH
	DB	0a8H
	DB	08cH
	DB	010H
	DB	0ffH
	DB	0a8H
	DB	08cH
	DB	010H
	DB	0ffH
	DB	0a8H
	DB	08cH
	DB	010H
	DB	0ffH
	DB	0a8H
	DB	08cH
	DB	010H
	DB	0ffH
	DB	0a8H
	DB	08cH
	DB	010H
	DB	0ffH
	DB	0a8H
	DB	08cH
	DB	010H
	DB	0ffH
	DB	0a8H
	DB	08cH
	DB	010H
	DB	0ffH
	DB	0a8H
	DB	08cH
	DB	010H
	DB	0ffH
	DB	0a8H
	DB	08cH
	DB	010H
	DB	0ffH
	DB	0a8H
	DB	08cH
	DB	010H
	DB	0ffH
	DB	0a8H
	DB	08cH
	DB	010H
	DB	0ffH
	DB	0d0H
	DB	0c4H
	DB	080H
	DB	0ffH
	DB	0f8H
	DB	0fcH
	DB	0f8H
	DB	00H
	DB	0f8H
	DB	0fcH
	DB	0f8H
	DB	00H
	DB	0f8H
	DB	0fcH
	DB	0f8H
	DB	00H
	DB	0f8H
	DB	0fcH
	DB	0f8H
	DB	00H
	DB	0f8H
	DB	0fcH
	DB	0f8H
	DB	00H
	DB	0f8H
	DB	0fcH
	DB	0f8H
	DB	00H
	DB	0f8H
	DB	0fcH
	DB	0f8H
	DB	00H
	DB	0f8H
	DB	0fcH
	DB	0f8H
	DB	00H
	DB	0f8H
	DB	0fcH
	DB	0f8H
	DB	00H
	DB	0f8H
	DB	0fcH
	DB	0f8H
	DB	00H
	DB	0f8H
	DB	0fcH
	DB	0f8H
	DB	00H
	DB	0f8H
	DB	0fcH
	DB	0f8H
	DB	00H
	DB	0f8H
	DB	0fcH
	DB	0f8H
	DB	00H
	DB	0f8H
	DB	0fcH
	DB	0f8H
	DB	00H
	DB	0f8H
	DB	0fcH
	DB	0f8H
	DB	00H
	DB	0f8H
	DB	0fcH
	DB	0f8H
	DB	00H
	DB	0f8H
	DB	0fcH
	DB	0f8H
	DB	00H
	DB	0d0H
	DB	0c4H
	DB	080H
	DB	0ffH
	DB	0a8H
	DB	08cH
	DB	010H
	DB	0ffH
	DB	0a8H
	DB	08cH
	DB	010H
	DB	0ffH
	DB	0a8H
	DB	08cH
	DB	010H
	DB	0ffH
	DB	0a8H
	DB	08cH
	DB	010H
	DB	0ffH
	DB	0a8H
	DB	08cH
	DB	010H
	DB	0ffH
	DB	0a8H
	DB	08cH
	DB	010H
	DB	0ffH
	DB	0a8H
	DB	08cH
	DB	010H
	DB	0ffH
	DB	0a8H
	DB	08cH
	DB	010H
	DB	0ffH
	DB	0a8H
	DB	08cH
	DB	010H
	DB	0ffH
	DB	0a8H
	DB	08cH
	DB	010H
	DB	0ffH
	DB	0a8H
	DB	08cH
	DB	010H
	DB	0ffH
	DB	0a8H
	DB	08cH
	DB	010H
	DB	0ffH
	DB	0d0H
	DB	0c4H
	DB	080H
	DB	0ffH
	DB	0f8H
	DB	0fcH
	DB	0f8H
	DB	00H
	DB	0f8H
	DB	0fcH
	DB	0f8H
	DB	00H
	DB	0f8H
	DB	0fcH
	DB	0f8H
	DB	00H
	DB	0f8H
	DB	0fcH
	DB	0f8H
	DB	00H
	DB	0f8H
	DB	0fcH
	DB	0f8H
	DB	00H
	DB	0f8H
	DB	0fcH
	DB	0f8H
	DB	00H
	DB	0f8H
	DB	0fcH
	DB	0f8H
	DB	00H
	DB	0f8H
	DB	0fcH
	DB	0f8H
	DB	00H
	DB	0f8H
	DB	0fcH
	DB	0f8H
	DB	00H
	DB	0f8H
	DB	0fcH
	DB	0f8H
	DB	00H
	DB	0f8H
	DB	0fcH
	DB	0f8H
	DB	00H
	DB	0f8H
	DB	0fcH
	DB	0f8H
	DB	00H
	DB	0f8H
	DB	0fcH
	DB	0f8H
	DB	00H
	DB	0f8H
	DB	0fcH
	DB	0f8H
	DB	00H
	DB	0f8H
	DB	0fcH
	DB	0f8H
	DB	00H
	DB	0f8H
	DB	0fcH
	DB	0f8H
	DB	00H
	DB	0f8H
	DB	0fcH
	DB	0f8H
	DB	00H
	DB	0f8H
	DB	0fcH
	DB	0f8H
	DB	00H
	DB	0f8H
	DB	0fcH
	DB	0f8H
	DB	00H
	DB	0d0H
	DB	0c4H
	DB	088H
	DB	0ffH
	DB	0a8H
	DB	08cH
	DB	010H
	DB	0ffH
	DB	0a8H
	DB	08cH
	DB	010H
	DB	0ffH
	DB	0a8H
	DB	08cH
	DB	010H
	DB	0ffH
	DB	0a8H
	DB	08cH
	DB	010H
	DB	0ffH
	DB	0a8H
	DB	08cH
	DB	010H
	DB	0ffH
	DB	0a8H
	DB	08cH
	DB	010H
	DB	0ffH
	DB	0a8H
	DB	08cH
	DB	010H
	DB	0ffH
	DB	0a8H
	DB	08cH
	DB	010H
	DB	0ffH
	DB	0a8H
	DB	08cH
	DB	010H
	DB	0ffH
	DB	0a8H
	DB	08cH
	DB	010H
	DB	0ffH
	DB	0d0H
	DB	0c4H
	DB	088H
	DB	0ffH
	DB	0f8H
	DB	0fcH
	DB	0f8H
	DB	00H
	DB	0f8H
	DB	0fcH
	DB	0f8H
	DB	00H
	DB	0f8H
	DB	0fcH
	DB	0f8H
	DB	00H
	DB	0f8H
	DB	0fcH
	DB	0f8H
	DB	00H
	DB	0f8H
	DB	0fcH
	DB	0f8H
	DB	00H
	DB	0f8H
	DB	0fcH
	DB	0f8H
	DB	00H
	DB	0f8H
	DB	0fcH
	DB	0f8H
	DB	00H
	DB	0f8H
	DB	0fcH
	DB	0f8H
	DB	00H
	DB	0f8H
	DB	0fcH
	DB	0f8H
	DB	00H
	DB	0f8H
	DB	0fcH
	DB	0f8H
	DB	00H
	DB	0f8H
	DB	0fcH
	DB	0f8H
	DB	00H
	DB	0f8H
	DB	0fcH
	DB	0f8H
	DB	00H
	DB	0f8H
	DB	0fcH
	DB	0f8H
	DB	00H
	DB	0f8H
	DB	0fcH
	DB	0f8H
	DB	00H
	DB	0f8H
	DB	0fcH
	DB	0f8H
	DB	00H
	DB	0f8H
	DB	0fcH
	DB	0f8H
	DB	00H
	DB	0f8H
	DB	0fcH
	DB	0f8H
	DB	00H
	DB	0f8H
	DB	0fcH
	DB	0f8H
	DB	00H
	DB	0f8H
	DB	0fcH
	DB	0f8H
	DB	00H
	DB	0f8H
	DB	0fcH
	DB	0f8H
	DB	00H
	DB	0f8H
	DB	0fcH
	DB	0f8H
	DB	00H
	DB	0d0H
	DB	0c4H
	DB	088H
	DB	0ffH
	DB	0a8H
	DB	08cH
	DB	010H
	DB	0ffH
	DB	0a8H
	DB	08cH
	DB	010H
	DB	0ffH
	DB	0a8H
	DB	08cH
	DB	010H
	DB	0ffH
	DB	0a8H
	DB	08cH
	DB	010H
	DB	0ffH
	DB	0a8H
	DB	08cH
	DB	010H
	DB	0ffH
	DB	0a8H
	DB	08cH
	DB	010H
	DB	0ffH
	DB	0a8H
	DB	08cH
	DB	010H
	DB	0ffH
	DB	0a8H
	DB	08cH
	DB	010H
	DB	0ffH
	DB	0d0H
	DB	0c4H
	DB	088H
	DB	0ffH
	DB	0f8H
	DB	0fcH
	DB	0f8H
	DB	00H
	DB	0f8H
	DB	0fcH
	DB	0f8H
	DB	00H
	DB	0f8H
	DB	0fcH
	DB	0f8H
	DB	00H
	DB	0f8H
	DB	0fcH
	DB	0f8H
	DB	00H
	DB	0f8H
	DB	0fcH
	DB	0f8H
	DB	00H
	DB	0f8H
	DB	0fcH
	DB	0f8H
	DB	00H
	DB	0f8H
	DB	0fcH
	DB	0f8H
	DB	00H
	DB	0f8H
	DB	0fcH
	DB	0f8H
	DB	00H
	DB	0f8H
	DB	0fcH
	DB	0f8H
	DB	00H
	DB	0f8H
	DB	0fcH
	DB	0f8H
	DB	00H
	DB	0f8H
	DB	0fcH
	DB	0f8H
	DB	00H
	DB	0f8H
	DB	0fcH
	DB	0f8H
	DB	00H
	DB	0f8H
	DB	0fcH
	DB	0f8H
	DB	00H
	DB	0f8H
	DB	0fcH
	DB	0f8H
	DB	00H
	DB	0f8H
	DB	0fcH
	DB	0f8H
	DB	00H
	DB	0f8H
	DB	0fcH
	DB	0f8H
	DB	00H
	DB	0f8H
	DB	0fcH
	DB	0f8H
	DB	00H
	DB	0f8H
	DB	0fcH
	DB	0f8H
	DB	00H
	DB	0f8H
	DB	0fcH
	DB	0f8H
	DB	00H
	DB	0f8H
	DB	0fcH
	DB	0f8H
	DB	00H
	DB	0f8H
	DB	0fcH
	DB	0f8H
	DB	00H
	DB	0f8H
	DB	0fcH
	DB	0f8H
	DB	00H
	DB	0f8H
	DB	0fcH
	DB	0f8H
	DB	00H
	DB	0d0H
	DB	0c8H
	DB	088H
	DB	0ffH
	DB	0a8H
	DB	08cH
	DB	010H
	DB	0ffH
	DB	0a8H
	DB	08cH
	DB	010H
	DB	0ffH
	DB	0a8H
	DB	08cH
	DB	010H
	DB	0ffH
	DB	0a8H
	DB	08cH
	DB	010H
	DB	0ffH
	DB	0a8H
	DB	08cH
	DB	010H
	DB	0ffH
	DB	0a8H
	DB	08cH
	DB	010H
	DB	0ffH
	DB	0d0H
	DB	0c8H
	DB	088H
	DB	0ffH
	DB	0f8H
	DB	0fcH
	DB	0f8H
	DB	00H
	DB	0f8H
	DB	0fcH
	DB	0f8H
	DB	00H
	DB	0f8H
	DB	0fcH
	DB	0f8H
	DB	00H
	DB	0f8H
	DB	0fcH
	DB	0f8H
	DB	00H
	DB	0f8H
	DB	0fcH
	DB	0f8H
	DB	00H
	DB	0f8H
	DB	0fcH
	DB	0f8H
	DB	00H
	DB	0f8H
	DB	0fcH
	DB	0f8H
	DB	00H
	DB	0f8H
	DB	0fcH
	DB	0f8H
	DB	00H
	DB	0f8H
	DB	0fcH
	DB	0f8H
	DB	00H
	DB	0f8H
	DB	0fcH
	DB	0f8H
	DB	00H
	DB	0f8H
	DB	0fcH
	DB	0f8H
	DB	00H
	DB	0f8H
	DB	0fcH
	DB	0f8H
	DB	00H
	DB	0f8H
	DB	0fcH
	DB	0f8H
	DB	00H
	DB	0f8H
	DB	0fcH
	DB	0f8H
	DB	00H
	DB	0f8H
	DB	0fcH
	DB	0f8H
	DB	00H
	DB	0f8H
	DB	0fcH
	DB	0f8H
	DB	00H
	DB	0f8H
	DB	0fcH
	DB	0f8H
	DB	00H
	DB	0f8H
	DB	0fcH
	DB	0f8H
	DB	00H
	DB	0f8H
	DB	0fcH
	DB	0f8H
	DB	00H
	DB	0f8H
	DB	0fcH
	DB	0f8H
	DB	00H
	DB	0f8H
	DB	0fcH
	DB	0f8H
	DB	00H
	DB	0f8H
	DB	0fcH
	DB	0f8H
	DB	00H
	DB	0f8H
	DB	0fcH
	DB	0f8H
	DB	00H
	DB	0f8H
	DB	0fcH
	DB	0f8H
	DB	00H
	DB	0f8H
	DB	0fcH
	DB	0f8H
	DB	00H
	DB	0d0H
	DB	0c8H
	DB	088H
	DB	0ffH
	DB	0a8H
	DB	08cH
	DB	010H
	DB	0ffH
	DB	0a8H
	DB	08cH
	DB	010H
	DB	0ffH
	DB	0a8H
	DB	08cH
	DB	010H
	DB	0ffH
	DB	0a8H
	DB	08cH
	DB	010H
	DB	0ffH
	DB	0d0H
	DB	0c8H
	DB	088H
	DB	0ffH
	DB	0f8H
	DB	0fcH
	DB	0f8H
	DB	00H
	DB	0f8H
	DB	0fcH
	DB	0f8H
	DB	00H
	DB	0f8H
	DB	0fcH
	DB	0f8H
	DB	00H
	DB	0f8H
	DB	0fcH
	DB	0f8H
	DB	00H
	DB	0f8H
	DB	0fcH
	DB	0f8H
	DB	00H
	DB	0f8H
	DB	0fcH
	DB	0f8H
	DB	00H
	DB	0f8H
	DB	0fcH
	DB	0f8H
	DB	00H
	DB	0f8H
	DB	0fcH
	DB	0f8H
	DB	00H
	DB	0f8H
	DB	0fcH
	DB	0f8H
	DB	00H
	DB	0f8H
	DB	0fcH
	DB	0f8H
	DB	00H
	DB	0f8H
	DB	0fcH
	DB	0f8H
	DB	00H
	DB	0f8H
	DB	0fcH
	DB	0f8H
	DB	00H
	DB	0f8H
	DB	0fcH
	DB	0f8H
	DB	00H
	DB	0f8H
	DB	0fcH
	DB	0f8H
	DB	00H
	DB	0f8H
	DB	0fcH
	DB	0f8H
	DB	00H
	DB	0f8H
	DB	0fcH
	DB	0f8H
	DB	00H
	DB	0f8H
	DB	0fcH
	DB	0f8H
	DB	00H
	DB	0f8H
	DB	0fcH
	DB	0f8H
	DB	00H
	DB	0f8H
	DB	0fcH
	DB	0f8H
	DB	00H
	DB	0f8H
	DB	0fcH
	DB	0f8H
	DB	00H
	DB	0f8H
	DB	0fcH
	DB	0f8H
	DB	00H
	DB	0f8H
	DB	0fcH
	DB	0f8H
	DB	00H
	DB	0f8H
	DB	0fcH
	DB	0f8H
	DB	00H
	DB	0f8H
	DB	0fcH
	DB	0f8H
	DB	00H
	DB	0f8H
	DB	0fcH
	DB	0f8H
	DB	00H
	DB	0f8H
	DB	0fcH
	DB	0f8H
	DB	00H
	DB	0f8H
	DB	0fcH
	DB	0f8H
	DB	00H
	DB	0d0H
	DB	0c8H
	DB	088H
	DB	0ffH
	DB	0a8H
	DB	08cH
	DB	010H
	DB	0ffH
	DB	0a8H
	DB	08cH
	DB	010H
	DB	0ffH
	DB	0d0H
	DB	0c8H
	DB	088H
	DB	0ffH
	DB	0f8H
	DB	0fcH
	DB	0f8H
	DB	00H
	DB	0f8H
	DB	0fcH
	DB	0f8H
	DB	00H
	DB	0f8H
	DB	0fcH
	DB	0f8H
	DB	00H
	DB	0f8H
	DB	0fcH
	DB	0f8H
	DB	00H
	DB	0f8H
	DB	0fcH
	DB	0f8H
	DB	00H
	DB	0f8H
	DB	0fcH
	DB	0f8H
	DB	00H
	DB	0f8H
	DB	0fcH
	DB	0f8H
	DB	00H
	DB	0f8H
	DB	0fcH
	DB	0f8H
	DB	00H
	DB	0f8H
	DB	0fcH
	DB	0f8H
	DB	00H
	DB	0f8H
	DB	0fcH
	DB	0f8H
	DB	00H
	DB	0f8H
	DB	0fcH
	DB	0f8H
	DB	00H
	DB	0f8H
	DB	0fcH
	DB	0f8H
	DB	00H
	DB	0f8H
	DB	0fcH
	DB	0f8H
	DB	00H
	DB	0f8H
	DB	0fcH
	DB	0f8H
	DB	00H
	DB	0f8H
	DB	0fcH
	DB	0f8H
	DB	00H
	DB	0f8H
	DB	0fcH
	DB	0f8H
	DB	00H
	DB	0f8H
	DB	0fcH
	DB	0f8H
	DB	00H
	DB	0f8H
	DB	0fcH
	DB	0f8H
	DB	00H
	DB	0f8H
	DB	0fcH
	DB	0f8H
	DB	00H
	DB	0f8H
	DB	0fcH
	DB	0f8H
	DB	00H
	DB	0f8H
	DB	0fcH
	DB	0f8H
	DB	00H
	DB	0f8H
	DB	0fcH
	DB	0f8H
	DB	00H
	DB	0f8H
	DB	0fcH
	DB	0f8H
	DB	00H
	DB	0f8H
	DB	0fcH
	DB	0f8H
	DB	00H
	DB	0f8H
	DB	0fcH
	DB	0f8H
	DB	00H
	DB	0f8H
	DB	0fcH
	DB	0f8H
	DB	00H
	DB	0f8H
	DB	0fcH
	DB	0f8H
	DB	00H
	DB	0f8H
	DB	0fcH
	DB	0f8H
	DB	00H
	DB	0f8H
	DB	0fcH
	DB	0f8H
	DB	00H
	DB	0d8H
	DB	0c8H
	DB	088H
	DB	0ffH
	DB	0d8H
	DB	0c8H
	DB	088H
	DB	0ffH
	DB	0f8H
	DB	0fcH
	DB	0f8H
	DB	00H
	DB	0f8H
	DB	0fcH
	DB	0f8H
	DB	00H
	DB	0f8H
	DB	0fcH
	DB	0f8H
	DB	00H
	DB	0f8H
	DB	0fcH
	DB	0f8H
	DB	00H
	DB	0f8H
	DB	0fcH
	DB	0f8H
	DB	00H
	DB	0f8H
	DB	0fcH
	DB	0f8H
	DB	00H
	DB	0f8H
	DB	0fcH
	DB	0f8H
	DB	00H
	DB	0f8H
	DB	0fcH
	DB	0f8H
	DB	00H
	DB	0f8H
	DB	0fcH
	DB	0f8H
	DB	00H
	DB	0f8H
	DB	0fcH
	DB	0f8H
	DB	00H
	DB	0f8H
	DB	0fcH
	DB	0f8H
	DB	00H
	DB	0f8H
	DB	0fcH
	DB	0f8H
	DB	00H
	DB	0f8H
	DB	0fcH
	DB	0f8H
	DB	00H
	DB	0f8H
	DB	0fcH
	DB	0f8H
	DB	00H
	DB	0f8H
	DB	0fcH
	DB	0f8H
	DB	00H
CONST	ENDS
END
