; Listing generated by Microsoft (R) Optimizing Compiler Version 19.30.30705.0 

	TITLE	D:\学习\毕业设计\方案1_GFX+底板\官方例程\DISPLAY\TouchGFX\build\Debug\obj\image_denmark-flag-small.obj
	.686P
	.XMM
	include listing.inc
	.model	flat

INCLUDELIB MSVCRTD
INCLUDELIB OLDNAMES

PUBLIC	?image_denmark_flag_small@@3QBEB		; image_denmark_flag_small
msvcjmc	SEGMENT
__BA83647B_Config@hpp DB 01H
__9FDE14A4_image_denmark-flag-small@cpp DB 01H
msvcjmc	ENDS
CONST	SEGMENT
?image_denmark_flag_small@@3QBEB DB 066H		; image_denmark_flag_small
	DB	0c0H
	DB	066H
	DB	0c0H
	DB	066H
	DB	0c0H
	DB	066H
	DB	0c0H
	DB	066H
	DB	0c0H
	DB	066H
	DB	0c0H
	DB	066H
	DB	0c0H
	DB	066H
	DB	0c0H
	DB	066H
	DB	0c0H
	DB	066H
	DB	0c0H
	DB	0d8H
	DB	0edH
	DB	0ffH
	DB	0ffH
	DB	0ffH
	DB	0ffH
	DB	0d8H
	DB	0edH
	DB	066H
	DB	0c0H
	DB	066H
	DB	0c0H
	DB	066H
	DB	0c0H
	DB	066H
	DB	0c0H
	DB	066H
	DB	0c0H
	DB	066H
	DB	0c0H
	DB	066H
	DB	0c0H
	DB	066H
	DB	0c0H
	DB	066H
	DB	0c0H
	DB	066H
	DB	0c0H
	DB	066H
	DB	0c0H
	DB	066H
	DB	0c0H
	DB	066H
	DB	0c0H
	DB	066H
	DB	0c0H
	DB	066H
	DB	0c0H
	DB	066H
	DB	0c0H
	DB	066H
	DB	0c0H
	DB	066H
	DB	0c0H
	DB	066H
	DB	0c0H
	DB	066H
	DB	0c0H
	DB	0d8H
	DB	0edH
	DB	0ffH
	DB	0ffH
	DB	0ffH
	DB	0ffH
	DB	0d8H
	DB	0edH
	DB	066H
	DB	0c0H
	DB	066H
	DB	0c0H
	DB	066H
	DB	0c0H
	DB	066H
	DB	0c0H
	DB	066H
	DB	0c0H
	DB	066H
	DB	0c0H
	DB	066H
	DB	0c0H
	DB	066H
	DB	0c0H
	DB	066H
	DB	0c0H
	DB	066H
	DB	0c0H
	DB	066H
	DB	0c0H
	DB	066H
	DB	0c0H
	DB	066H
	DB	0c0H
	DB	066H
	DB	0c0H
	DB	066H
	DB	0c0H
	DB	066H
	DB	0c0H
	DB	066H
	DB	0c0H
	DB	066H
	DB	0c0H
	DB	066H
	DB	0c0H
	DB	066H
	DB	0c0H
	DB	0d8H
	DB	0edH
	DB	0ffH
	DB	0ffH
	DB	0ffH
	DB	0ffH
	DB	0d8H
	DB	0edH
	DB	066H
	DB	0c0H
	DB	066H
	DB	0c0H
	DB	066H
	DB	0c0H
	DB	066H
	DB	0c0H
	DB	066H
	DB	0c0H
	DB	066H
	DB	0c0H
	DB	066H
	DB	0c0H
	DB	066H
	DB	0c0H
	DB	066H
	DB	0c0H
	DB	066H
	DB	0c0H
	DB	066H
	DB	0c0H
	DB	066H
	DB	0c0H
	DB	066H
	DB	0c0H
	DB	066H
	DB	0c0H
	DB	066H
	DB	0c0H
	DB	066H
	DB	0c0H
	DB	066H
	DB	0c0H
	DB	066H
	DB	0c0H
	DB	066H
	DB	0c0H
	DB	066H
	DB	0c0H
	DB	0d8H
	DB	0edH
	DB	0ffH
	DB	0ffH
	DB	0ffH
	DB	0ffH
	DB	0d8H
	DB	0edH
	DB	066H
	DB	0c0H
	DB	066H
	DB	0c0H
	DB	066H
	DB	0c0H
	DB	066H
	DB	0c0H
	DB	066H
	DB	0c0H
	DB	066H
	DB	0c0H
	DB	066H
	DB	0c0H
	DB	066H
	DB	0c0H
	DB	066H
	DB	0c0H
	DB	066H
	DB	0c0H
	DB	066H
	DB	0c0H
	DB	066H
	DB	0c0H
	DB	066H
	DB	0c0H
	DB	066H
	DB	0c0H
	DB	066H
	DB	0c0H
	DB	066H
	DB	0c0H
	DB	066H
	DB	0c0H
	DB	066H
	DB	0c0H
	DB	066H
	DB	0c0H
	DB	066H
	DB	0c0H
	DB	0d8H
	DB	0edH
	DB	0ffH
	DB	0ffH
	DB	0ffH
	DB	0ffH
	DB	0d8H
	DB	0edH
	DB	066H
	DB	0c0H
	DB	066H
	DB	0c0H
	DB	066H
	DB	0c0H
	DB	066H
	DB	0c0H
	DB	066H
	DB	0c0H
	DB	066H
	DB	0c0H
	DB	066H
	DB	0c0H
	DB	066H
	DB	0c0H
	DB	066H
	DB	0c0H
	DB	066H
	DB	0c0H
	DB	066H
	DB	0c0H
	DB	066H
	DB	0c0H
	DB	066H
	DB	0c0H
	DB	066H
	DB	0c0H
	DB	066H
	DB	0c0H
	DB	066H
	DB	0c0H
	DB	066H
	DB	0c0H
	DB	066H
	DB	0c0H
	DB	066H
	DB	0c0H
	DB	066H
	DB	0c0H
	DB	0d8H
	DB	0edH
	DB	0ffH
	DB	0ffH
	DB	0ffH
	DB	0ffH
	DB	0d8H
	DB	0edH
	DB	066H
	DB	0c0H
	DB	066H
	DB	0c0H
	DB	066H
	DB	0c0H
	DB	066H
	DB	0c0H
	DB	066H
	DB	0c0H
	DB	066H
	DB	0c0H
	DB	066H
	DB	0c0H
	DB	066H
	DB	0c0H
	DB	066H
	DB	0c0H
	DB	066H
	DB	0c0H
	DB	066H
	DB	0c0H
	DB	066H
	DB	0c0H
	DB	066H
	DB	0c0H
	DB	066H
	DB	0c0H
	DB	066H
	DB	0c0H
	DB	066H
	DB	0c0H
	DB	066H
	DB	0c0H
	DB	066H
	DB	0c0H
	DB	066H
	DB	0c0H
	DB	066H
	DB	0c0H
	DB	0d8H
	DB	0edH
	DB	0ffH
	DB	0ffH
	DB	0ffH
	DB	0ffH
	DB	0d8H
	DB	0edH
	DB	066H
	DB	0c0H
	DB	066H
	DB	0c0H
	DB	066H
	DB	0c0H
	DB	066H
	DB	0c0H
	DB	066H
	DB	0c0H
	DB	066H
	DB	0c0H
	DB	066H
	DB	0c0H
	DB	066H
	DB	0c0H
	DB	066H
	DB	0c0H
	DB	066H
	DB	0c0H
	DB	066H
	DB	0c0H
	DB	066H
	DB	0c0H
	DB	066H
	DB	0c0H
	DB	066H
	DB	0c0H
	DB	066H
	DB	0c0H
	DB	066H
	DB	0c0H
	DB	066H
	DB	0c0H
	DB	066H
	DB	0c0H
	DB	066H
	DB	0c0H
	DB	066H
	DB	0c0H
	DB	0d8H
	DB	0edH
	DB	0ffH
	DB	0ffH
	DB	0ffH
	DB	0ffH
	DB	0d8H
	DB	0edH
	DB	066H
	DB	0c0H
	DB	066H
	DB	0c0H
	DB	066H
	DB	0c0H
	DB	066H
	DB	0c0H
	DB	066H
	DB	0c0H
	DB	066H
	DB	0c0H
	DB	066H
	DB	0c0H
	DB	066H
	DB	0c0H
	DB	066H
	DB	0c0H
	DB	066H
	DB	0c0H
	DB	066H
	DB	0c0H
	DB	066H
	DB	0c0H
	DB	066H
	DB	0c0H
	DB	066H
	DB	0c0H
	DB	066H
	DB	0c0H
	DB	066H
	DB	0c0H
	DB	066H
	DB	0c0H
	DB	066H
	DB	0c0H
	DB	066H
	DB	0c0H
	DB	066H
	DB	0c0H
	DB	0d8H
	DB	0edH
	DB	0ffH
	DB	0ffH
	DB	0ffH
	DB	0ffH
	DB	0d8H
	DB	0edH
	DB	066H
	DB	0c0H
	DB	066H
	DB	0c0H
	DB	066H
	DB	0c0H
	DB	066H
	DB	0c0H
	DB	066H
	DB	0c0H
	DB	066H
	DB	0c0H
	DB	066H
	DB	0c0H
	DB	066H
	DB	0c0H
	DB	066H
	DB	0c0H
	DB	066H
	DB	0c0H
	DB	066H
	DB	0c0H
	DB	066H
	DB	0c0H
	DB	066H
	DB	0c0H
	DB	066H
	DB	0c0H
	DB	066H
	DB	0c0H
	DB	066H
	DB	0c0H
	DB	066H
	DB	0c0H
	DB	066H
	DB	0c0H
	DB	066H
	DB	0c0H
	DB	066H
	DB	0c0H
	DB	0d8H
	DB	0edH
	DB	0ffH
	DB	0ffH
	DB	0ffH
	DB	0ffH
	DB	0d8H
	DB	0edH
	DB	066H
	DB	0c0H
	DB	066H
	DB	0c0H
	DB	066H
	DB	0c0H
	DB	066H
	DB	0c0H
	DB	066H
	DB	0c0H
	DB	066H
	DB	0c0H
	DB	066H
	DB	0c0H
	DB	066H
	DB	0c0H
	DB	066H
	DB	0c0H
	DB	066H
	DB	0c0H
	DB	066H
	DB	0c0H
	DB	066H
	DB	0c0H
	DB	066H
	DB	0c0H
	DB	066H
	DB	0c0H
	DB	066H
	DB	0c0H
	DB	066H
	DB	0c0H
	DB	066H
	DB	0c0H
	DB	066H
	DB	0c0H
	DB	066H
	DB	0c0H
	DB	066H
	DB	0c0H
	DB	0d8H
	DB	0edH
	DB	0ffH
	DB	0ffH
	DB	0ffH
	DB	0ffH
	DB	0d8H
	DB	0edH
	DB	066H
	DB	0c0H
	DB	066H
	DB	0c0H
	DB	066H
	DB	0c0H
	DB	066H
	DB	0c0H
	DB	066H
	DB	0c0H
	DB	066H
	DB	0c0H
	DB	066H
	DB	0c0H
	DB	066H
	DB	0c0H
	DB	066H
	DB	0c0H
	DB	066H
	DB	0c0H
	DB	066H
	DB	0c0H
	DB	066H
	DB	0c0H
	DB	066H
	DB	0c0H
	DB	066H
	DB	0c0H
	DB	066H
	DB	0c0H
	DB	066H
	DB	0c0H
	DB	066H
	DB	0c0H
	DB	066H
	DB	0c0H
	DB	066H
	DB	0c0H
	DB	066H
	DB	0c0H
	DB	0d8H
	DB	0edH
	DB	0ffH
	DB	0ffH
	DB	0ffH
	DB	0ffH
	DB	0d8H
	DB	0edH
	DB	066H
	DB	0c0H
	DB	066H
	DB	0c0H
	DB	066H
	DB	0c0H
	DB	066H
	DB	0c0H
	DB	066H
	DB	0c0H
	DB	066H
	DB	0c0H
	DB	066H
	DB	0c0H
	DB	066H
	DB	0c0H
	DB	066H
	DB	0c0H
	DB	066H
	DB	0c0H
	DB	066H
	DB	0c0H
	DB	066H
	DB	0c0H
	DB	066H
	DB	0c0H
	DB	066H
	DB	0c0H
	DB	066H
	DB	0c0H
	DB	066H
	DB	0c0H
	DB	066H
	DB	0c0H
	DB	066H
	DB	0c0H
	DB	066H
	DB	0c0H
	DB	066H
	DB	0c0H
	DB	0d8H
	DB	0edH
	DB	0ffH
	DB	0ffH
	DB	0ffH
	DB	0ffH
	DB	0d8H
	DB	0edH
	DB	066H
	DB	0c0H
	DB	066H
	DB	0c0H
	DB	066H
	DB	0c0H
	DB	066H
	DB	0c0H
	DB	066H
	DB	0c0H
	DB	066H
	DB	0c0H
	DB	066H
	DB	0c0H
	DB	066H
	DB	0c0H
	DB	066H
	DB	0c0H
	DB	066H
	DB	0c0H
	DB	066H
	DB	0c0H
	DB	066H
	DB	0c0H
	DB	066H
	DB	0c0H
	DB	066H
	DB	0c0H
	DB	066H
	DB	0c0H
	DB	066H
	DB	0c0H
	DB	066H
	DB	0c0H
	DB	066H
	DB	0c0H
	DB	066H
	DB	0c0H
	DB	066H
	DB	0c0H
	DB	0d8H
	DB	0edH
	DB	0ffH
	DB	0ffH
	DB	0ffH
	DB	0ffH
	DB	0d8H
	DB	0edH
	DB	066H
	DB	0c0H
	DB	066H
	DB	0c0H
	DB	066H
	DB	0c0H
	DB	066H
	DB	0c0H
	DB	066H
	DB	0c0H
	DB	066H
	DB	0c0H
	DB	066H
	DB	0c0H
	DB	066H
	DB	0c0H
	DB	066H
	DB	0c0H
	DB	066H
	DB	0c0H
	DB	066H
	DB	0c0H
	DB	066H
	DB	0c0H
	DB	066H
	DB	0c0H
	DB	066H
	DB	0c0H
	DB	066H
	DB	0c0H
	DB	066H
	DB	0c0H
	DB	066H
	DB	0c0H
	DB	066H
	DB	0c0H
	DB	066H
	DB	0c0H
	DB	066H
	DB	0c0H
	DB	0d8H
	DB	0edH
	DB	0ffH
	DB	0ffH
	DB	0ffH
	DB	0ffH
	DB	0d8H
	DB	0edH
	DB	066H
	DB	0c0H
	DB	066H
	DB	0c0H
	DB	066H
	DB	0c0H
	DB	066H
	DB	0c0H
	DB	066H
	DB	0c0H
	DB	066H
	DB	0c0H
	DB	066H
	DB	0c0H
	DB	066H
	DB	0c0H
	DB	066H
	DB	0c0H
	DB	066H
	DB	0c0H
	DB	066H
	DB	0c0H
	DB	066H
	DB	0c0H
	DB	066H
	DB	0c0H
	DB	066H
	DB	0c0H
	DB	066H
	DB	0c0H
	DB	066H
	DB	0c0H
	DB	066H
	DB	0c0H
	DB	066H
	DB	0c0H
	DB	066H
	DB	0c0H
	DB	066H
	DB	0c0H
	DB	0d8H
	DB	0edH
	DB	0ffH
	DB	0ffH
	DB	0ffH
	DB	0ffH
	DB	0d8H
	DB	0edH
	DB	066H
	DB	0c0H
	DB	066H
	DB	0c0H
	DB	066H
	DB	0c0H
	DB	066H
	DB	0c0H
	DB	066H
	DB	0c0H
	DB	066H
	DB	0c0H
	DB	066H
	DB	0c0H
	DB	066H
	DB	0c0H
	DB	066H
	DB	0c0H
	DB	066H
	DB	0c0H
	DB	066H
	DB	0c0H
	DB	066H
	DB	0c0H
	DB	066H
	DB	0c0H
	DB	066H
	DB	0c0H
	DB	066H
	DB	0c0H
	DB	066H
	DB	0c0H
	DB	066H
	DB	0c0H
	DB	066H
	DB	0c0H
	DB	066H
	DB	0c0H
	DB	066H
	DB	0c0H
	DB	0d8H
	DB	0edH
	DB	0ffH
	DB	0ffH
	DB	0ffH
	DB	0ffH
	DB	0d8H
	DB	0edH
	DB	066H
	DB	0c0H
	DB	066H
	DB	0c0H
	DB	066H
	DB	0c0H
	DB	066H
	DB	0c0H
	DB	066H
	DB	0c0H
	DB	066H
	DB	0c0H
	DB	066H
	DB	0c0H
	DB	066H
	DB	0c0H
	DB	066H
	DB	0c0H
	DB	066H
	DB	0c0H
	DB	066H
	DB	0c0H
	DB	066H
	DB	0c0H
	DB	066H
	DB	0c0H
	DB	066H
	DB	0c0H
	DB	066H
	DB	0c0H
	DB	066H
	DB	0c0H
	DB	066H
	DB	0c0H
	DB	066H
	DB	0c0H
	DB	066H
	DB	0c0H
	DB	066H
	DB	0c0H
	DB	0d8H
	DB	0edH
	DB	0ffH
	DB	0ffH
	DB	0ffH
	DB	0ffH
	DB	0d8H
	DB	0edH
	DB	066H
	DB	0c0H
	DB	066H
	DB	0c0H
	DB	066H
	DB	0c0H
	DB	066H
	DB	0c0H
	DB	066H
	DB	0c0H
	DB	066H
	DB	0c0H
	DB	066H
	DB	0c0H
	DB	066H
	DB	0c0H
	DB	066H
	DB	0c0H
	DB	066H
	DB	0c0H
	DB	0d8H
	DB	0edH
	DB	0d8H
	DB	0edH
	DB	0d8H
	DB	0edH
	DB	0d8H
	DB	0edH
	DB	0d8H
	DB	0edH
	DB	0d8H
	DB	0edH
	DB	0d8H
	DB	0edH
	DB	0d8H
	DB	0edH
	DB	0d8H
	DB	0edH
	DB	0d8H
	DB	0edH
	DB	07dH
	DB	0ffH
	DB	0ffH
	DB	0ffH
	DB	0ffH
	DB	0ffH
	DB	07dH
	DB	0ffH
	DB	0d8H
	DB	0edH
	DB	0d8H
	DB	0edH
	DB	0d8H
	DB	0edH
	DB	0d8H
	DB	0edH
	DB	0d8H
	DB	0edH
	DB	0d8H
	DB	0edH
	DB	0d8H
	DB	0edH
	DB	0d8H
	DB	0edH
	DB	0d8H
	DB	0edH
	DB	0d8H
	DB	0edH
	DB	0ffH
	DB	0ffH
	DB	0ffH
	DB	0ffH
	DB	0ffH
	DB	0ffH
	DB	0ffH
	DB	0ffH
	DB	0ffH
	DB	0ffH
	DB	0ffH
	DB	0ffH
	DB	0ffH
	DB	0ffH
	DB	0ffH
	DB	0ffH
	DB	0ffH
	DB	0ffH
	DB	0ffH
	DB	0ffH
	DB	0ffH
	DB	0ffH
	DB	0ffH
	DB	0ffH
	DB	0ffH
	DB	0ffH
	DB	0ffH
	DB	0ffH
	DB	0ffH
	DB	0ffH
	DB	0ffH
	DB	0ffH
	DB	0ffH
	DB	0ffH
	DB	0ffH
	DB	0ffH
	DB	0ffH
	DB	0ffH
	DB	0ffH
	DB	0ffH
	DB	0ffH
	DB	0ffH
	DB	0ffH
	DB	0ffH
	DB	0ffH
	DB	0ffH
	DB	0ffH
	DB	0ffH
	DB	0ffH
	DB	0ffH
	DB	0ffH
	DB	0ffH
	DB	0ffH
	DB	0ffH
	DB	0ffH
	DB	0ffH
	DB	0ffH
	DB	0ffH
	DB	0ffH
	DB	0ffH
	DB	0ffH
	DB	0ffH
	DB	0ffH
	DB	0ffH
	DB	0ffH
	DB	0ffH
	DB	0ffH
	DB	0ffH
	DB	0ffH
	DB	0ffH
	DB	0ffH
	DB	0ffH
	DB	0ffH
	DB	0ffH
	DB	0ffH
	DB	0ffH
	DB	0ffH
	DB	0ffH
	DB	0ffH
	DB	0ffH
	DB	0ffH
	DB	0ffH
	DB	0ffH
	DB	0ffH
	DB	0ffH
	DB	0ffH
	DB	0ffH
	DB	0ffH
	DB	0ffH
	DB	0ffH
	DB	0ffH
	DB	0ffH
	DB	0ffH
	DB	0ffH
	DB	0ffH
	DB	0ffH
	DB	0f8H
	DB	0f5H
	DB	0f8H
	DB	0f5H
	DB	0f8H
	DB	0f5H
	DB	0f8H
	DB	0f5H
	DB	0f8H
	DB	0f5H
	DB	0f8H
	DB	0f5H
	DB	0f8H
	DB	0f5H
	DB	0f8H
	DB	0f5H
	DB	0f8H
	DB	0f5H
	DB	0f8H
	DB	0f5H
	DB	07dH
	DB	0ffH
	DB	0ffH
	DB	0ffH
	DB	0ffH
	DB	0ffH
	DB	07dH
	DB	0ffH
	DB	0f8H
	DB	0f5H
	DB	0f8H
	DB	0f5H
	DB	0f8H
	DB	0f5H
	DB	0f8H
	DB	0f5H
	DB	0f8H
	DB	0f5H
	DB	0f8H
	DB	0f5H
	DB	0f8H
	DB	0f5H
	DB	0f8H
	DB	0f5H
	DB	0f8H
	DB	0f5H
	DB	0f8H
	DB	0f5H
	DB	066H
	DB	0c0H
	DB	066H
	DB	0c0H
	DB	066H
	DB	0c0H
	DB	066H
	DB	0c0H
	DB	066H
	DB	0c0H
	DB	066H
	DB	0c0H
	DB	066H
	DB	0c0H
	DB	066H
	DB	0c0H
	DB	066H
	DB	0c0H
	DB	066H
	DB	0c0H
	DB	0d8H
	DB	0edH
	DB	0ffH
	DB	0ffH
	DB	0ffH
	DB	0ffH
	DB	0d8H
	DB	0edH
	DB	066H
	DB	0c0H
	DB	066H
	DB	0c0H
	DB	066H
	DB	0c0H
	DB	066H
	DB	0c0H
	DB	066H
	DB	0c0H
	DB	066H
	DB	0c0H
	DB	066H
	DB	0c0H
	DB	066H
	DB	0c0H
	DB	066H
	DB	0c0H
	DB	066H
	DB	0c0H
	DB	066H
	DB	0c0H
	DB	066H
	DB	0c0H
	DB	066H
	DB	0c0H
	DB	066H
	DB	0c0H
	DB	066H
	DB	0c0H
	DB	066H
	DB	0c0H
	DB	066H
	DB	0c0H
	DB	066H
	DB	0c0H
	DB	066H
	DB	0c0H
	DB	066H
	DB	0c0H
	DB	0d8H
	DB	0edH
	DB	0ffH
	DB	0ffH
	DB	0ffH
	DB	0ffH
	DB	0d8H
	DB	0edH
	DB	066H
	DB	0c0H
	DB	066H
	DB	0c0H
	DB	066H
	DB	0c0H
	DB	066H
	DB	0c0H
	DB	066H
	DB	0c0H
	DB	066H
	DB	0c0H
	DB	066H
	DB	0c0H
	DB	066H
	DB	0c0H
	DB	066H
	DB	0c0H
	DB	066H
	DB	0c0H
	DB	066H
	DB	0c0H
	DB	066H
	DB	0c0H
	DB	066H
	DB	0c0H
	DB	066H
	DB	0c0H
	DB	066H
	DB	0c0H
	DB	066H
	DB	0c0H
	DB	066H
	DB	0c0H
	DB	066H
	DB	0c0H
	DB	066H
	DB	0c0H
	DB	066H
	DB	0c0H
	DB	0d8H
	DB	0edH
	DB	0ffH
	DB	0ffH
	DB	0ffH
	DB	0ffH
	DB	0d8H
	DB	0edH
	DB	066H
	DB	0c0H
	DB	066H
	DB	0c0H
	DB	066H
	DB	0c0H
	DB	066H
	DB	0c0H
	DB	066H
	DB	0c0H
	DB	066H
	DB	0c0H
	DB	066H
	DB	0c0H
	DB	066H
	DB	0c0H
	DB	066H
	DB	0c0H
	DB	066H
	DB	0c0H
	DB	066H
	DB	0c0H
	DB	066H
	DB	0c0H
	DB	066H
	DB	0c0H
	DB	066H
	DB	0c0H
	DB	066H
	DB	0c0H
	DB	066H
	DB	0c0H
	DB	066H
	DB	0c0H
	DB	066H
	DB	0c0H
	DB	066H
	DB	0c0H
	DB	066H
	DB	0c0H
	DB	0d8H
	DB	0edH
	DB	0ffH
	DB	0ffH
	DB	0ffH
	DB	0ffH
	DB	0d8H
	DB	0edH
	DB	066H
	DB	0c0H
	DB	066H
	DB	0c0H
	DB	066H
	DB	0c0H
	DB	066H
	DB	0c0H
	DB	066H
	DB	0c0H
	DB	066H
	DB	0c0H
	DB	066H
	DB	0c0H
	DB	066H
	DB	0c0H
	DB	066H
	DB	0c0H
	DB	066H
	DB	0c0H
	DB	066H
	DB	0c0H
	DB	066H
	DB	0c0H
	DB	066H
	DB	0c0H
	DB	066H
	DB	0c0H
	DB	066H
	DB	0c0H
	DB	066H
	DB	0c0H
	DB	066H
	DB	0c0H
	DB	066H
	DB	0c0H
	DB	066H
	DB	0c0H
	DB	066H
	DB	0c0H
	DB	0d8H
	DB	0edH
	DB	0ffH
	DB	0ffH
	DB	0ffH
	DB	0ffH
	DB	0d8H
	DB	0edH
	DB	066H
	DB	0c0H
	DB	066H
	DB	0c0H
	DB	066H
	DB	0c0H
	DB	066H
	DB	0c0H
	DB	066H
	DB	0c0H
	DB	066H
	DB	0c0H
	DB	066H
	DB	0c0H
	DB	066H
	DB	0c0H
	DB	066H
	DB	0c0H
	DB	066H
	DB	0c0H
	DB	066H
	DB	0c0H
	DB	066H
	DB	0c0H
	DB	066H
	DB	0c0H
	DB	066H
	DB	0c0H
	DB	066H
	DB	0c0H
	DB	066H
	DB	0c0H
	DB	066H
	DB	0c0H
	DB	066H
	DB	0c0H
	DB	066H
	DB	0c0H
	DB	066H
	DB	0c0H
	DB	0d8H
	DB	0edH
	DB	0ffH
	DB	0ffH
	DB	0ffH
	DB	0ffH
	DB	0d8H
	DB	0edH
	DB	066H
	DB	0c0H
	DB	066H
	DB	0c0H
	DB	066H
	DB	0c0H
	DB	066H
	DB	0c0H
	DB	066H
	DB	0c0H
	DB	066H
	DB	0c0H
	DB	066H
	DB	0c0H
	DB	066H
	DB	0c0H
	DB	066H
	DB	0c0H
	DB	066H
	DB	0c0H
	DB	066H
	DB	0c0H
	DB	066H
	DB	0c0H
	DB	066H
	DB	0c0H
	DB	066H
	DB	0c0H
	DB	066H
	DB	0c0H
	DB	066H
	DB	0c0H
	DB	066H
	DB	0c0H
	DB	066H
	DB	0c0H
	DB	066H
	DB	0c0H
	DB	066H
	DB	0c0H
	DB	0d8H
	DB	0edH
	DB	0ffH
	DB	0ffH
	DB	0ffH
	DB	0ffH
	DB	0d8H
	DB	0edH
	DB	066H
	DB	0c0H
	DB	066H
	DB	0c0H
	DB	066H
	DB	0c0H
	DB	066H
	DB	0c0H
	DB	066H
	DB	0c0H
	DB	066H
	DB	0c0H
	DB	066H
	DB	0c0H
	DB	066H
	DB	0c0H
	DB	066H
	DB	0c0H
	DB	066H
	DB	0c0H
	DB	066H
	DB	0c0H
	DB	066H
	DB	0c0H
	DB	066H
	DB	0c0H
	DB	066H
	DB	0c0H
	DB	066H
	DB	0c0H
	DB	066H
	DB	0c0H
	DB	066H
	DB	0c0H
	DB	066H
	DB	0c0H
	DB	066H
	DB	0c0H
	DB	066H
	DB	0c0H
	DB	0d8H
	DB	0edH
	DB	0ffH
	DB	0ffH
	DB	0ffH
	DB	0ffH
	DB	0d8H
	DB	0edH
	DB	066H
	DB	0c0H
	DB	066H
	DB	0c0H
	DB	066H
	DB	0c0H
	DB	066H
	DB	0c0H
	DB	066H
	DB	0c0H
	DB	066H
	DB	0c0H
	DB	066H
	DB	0c0H
	DB	066H
	DB	0c0H
	DB	066H
	DB	0c0H
	DB	066H
	DB	0c0H
	DB	066H
	DB	0c0H
	DB	066H
	DB	0c0H
	DB	066H
	DB	0c0H
	DB	066H
	DB	0c0H
	DB	066H
	DB	0c0H
	DB	066H
	DB	0c0H
	DB	066H
	DB	0c0H
	DB	066H
	DB	0c0H
	DB	066H
	DB	0c0H
	DB	066H
	DB	0c0H
	DB	0d8H
	DB	0edH
	DB	0ffH
	DB	0ffH
	DB	0ffH
	DB	0ffH
	DB	0d8H
	DB	0edH
	DB	066H
	DB	0c0H
	DB	066H
	DB	0c0H
	DB	066H
	DB	0c0H
	DB	066H
	DB	0c0H
	DB	066H
	DB	0c0H
	DB	066H
	DB	0c0H
	DB	066H
	DB	0c0H
	DB	066H
	DB	0c0H
	DB	066H
	DB	0c0H
	DB	066H
	DB	0c0H
	DB	066H
	DB	0c0H
	DB	066H
	DB	0c0H
	DB	066H
	DB	0c0H
	DB	066H
	DB	0c0H
	DB	066H
	DB	0c0H
	DB	066H
	DB	0c0H
	DB	066H
	DB	0c0H
	DB	066H
	DB	0c0H
	DB	066H
	DB	0c0H
	DB	066H
	DB	0c0H
	DB	0d8H
	DB	0edH
	DB	0ffH
	DB	0ffH
	DB	0ffH
	DB	0ffH
	DB	0d8H
	DB	0edH
	DB	066H
	DB	0c0H
	DB	066H
	DB	0c0H
	DB	066H
	DB	0c0H
	DB	066H
	DB	0c0H
	DB	066H
	DB	0c0H
	DB	066H
	DB	0c0H
	DB	066H
	DB	0c0H
	DB	066H
	DB	0c0H
	DB	066H
	DB	0c0H
	DB	066H
	DB	0c0H
CONST	ENDS
END
