; Listing generated by Microsoft (R) Optimizing Compiler Version 19.30.30705.0 

	TITLE	D:\学习\毕业设计\方案1_GFX+底板\官方例程\DISPLAY\TouchGFX\build\Debug\obj\image_listBackground.obj
	.686P
	.XMM
	include listing.inc
	.model	flat

INCLUDELIB MSVCRTD
INCLUDELIB OLDNAMES

PUBLIC	?image_listbackground@@3QBEB			; image_listbackground
msvcjmc	SEGMENT
__BA83647B_Config@hpp DB 01H
__FC3C82AA_image_listBackground@cpp DB 01H
msvcjmc	ENDS
CONST	SEGMENT
?image_listbackground@@3QBEB DB 0c4H			; image_listbackground
	DB	08H
	DB	0c4H
	DB	08H
	DB	0e4H
	DB	08H
	DB	0c4H
	DB	08H
	DB	0c4H
	DB	08H
	DB	0c4H
	DB	08H
	DB	0c4H
	DB	08H
	DB	0c4H
	DB	08H
	DB	0c4H
	DB	08H
	DB	0e4H
	DB	08H
	DB	0c4H
	DB	08H
	DB	0c4H
	DB	08H
	DB	0c4H
	DB	08H
	DB	0c4H
	DB	08H
	DB	0c4H
	DB	08H
	DB	0c4H
	DB	08H
	DB	0c4H
	DB	08H
	DB	0c4H
	DB	08H
	DB	0c4H
	DB	08H
	DB	0c4H
	DB	08H
	DB	0c4H
	DB	08H
	DB	0c4H
	DB	08H
	DB	0c4H
	DB	08H
	DB	0c4H
	DB	08H
	DB	0c4H
	DB	08H
	DB	0c4H
	DB	08H
	DB	0e4H
	DB	08H
	DB	0e4H
	DB	08H
	DB	0c4H
	DB	08H
	DB	0c4H
	DB	08H
	DB	0c4H
	DB	08H
	DB	0c4H
	DB	08H
	DB	0e4H
	DB	08H
	DB	0c4H
	DB	08H
	DB	0c4H
	DB	08H
	DB	0c4H
	DB	08H
	DB	0c4H
	DB	08H
	DB	0c4H
	DB	08H
	DB	0c4H
	DB	08H
	DB	0c4H
	DB	08H
	DB	0c4H
	DB	08H
	DB	0c4H
	DB	08H
	DB	0c4H
	DB	08H
	DB	0c4H
	DB	08H
	DB	0c4H
	DB	08H
	DB	0c4H
	DB	08H
	DB	0c4H
	DB	08H
	DB	0c4H
	DB	08H
	DB	0c4H
	DB	08H
	DB	0c4H
	DB	08H
	DB	0c4H
	DB	08H
	DB	0e4H
	DB	08H
	DB	0e4H
	DB	08H
	DB	0c9H
	DB	011H
	DB	0c9H
	DB	011H
	DB	0c9H
	DB	011H
	DB	0c9H
	DB	011H
	DB	0c9H
	DB	011H
	DB	0c9H
	DB	011H
	DB	0c9H
	DB	011H
	DB	0c9H
	DB	011H
	DB	0c9H
	DB	011H
	DB	0c9H
	DB	011H
	DB	0c9H
	DB	011H
	DB	0c9H
	DB	011H
	DB	0c9H
	DB	011H
	DB	0c9H
	DB	011H
	DB	0c9H
	DB	011H
	DB	0c9H
	DB	011H
	DB	0c9H
	DB	011H
	DB	0c9H
	DB	011H
	DB	0c9H
	DB	011H
	DB	0c9H
	DB	011H
	DB	0c9H
	DB	011H
	DB	0c9H
	DB	011H
	DB	0c9H
	DB	011H
	DB	0c9H
	DB	011H
	DB	0c9H
	DB	011H
	DB	0c9H
	DB	011H
	DB	0c9H
	DB	011H
	DB	0c9H
	DB	011H
	DB	0c9H
	DB	011H
	DB	0c9H
	DB	011H
	DB	0c9H
	DB	011H
	DB	0c9H
	DB	011H
	DB	0a9H
	DB	011H
	DB	0a9H
	DB	011H
	DB	0a9H
	DB	011H
	DB	0a9H
	DB	011H
	DB	0a9H
	DB	011H
	DB	0a9H
	DB	011H
	DB	0a9H
	DB	011H
	DB	0a9H
	DB	011H
	DB	0a9H
	DB	011H
	DB	0a8H
	DB	011H
	DB	0a8H
	DB	011H
	DB	0a8H
	DB	011H
	DB	0a8H
	DB	011H
	DB	0a8H
	DB	011H
	DB	0a8H
	DB	011H
	DB	0a8H
	DB	011H
	DB	088H
	DB	011H
	DB	088H
	DB	011H
	DB	088H
	DB	011H
	DB	088H
	DB	011H
	DB	088H
	DB	011H
	DB	088H
	DB	011H
	DB	088H
	DB	011H
	DB	088H
	DB	011H
	DB	088H
	DB	011H
	DB	088H
	DB	011H
	DB	088H
	DB	011H
	DB	088H
	DB	011H
	DB	088H
	DB	011H
	DB	088H
	DB	011H
	DB	088H
	DB	011H
	DB	068H
	DB	011H
	DB	067H
	DB	011H
	DB	067H
	DB	011H
	DB	067H
	DB	011H
	DB	067H
	DB	011H
	DB	067H
	DB	011H
	DB	067H
	DB	011H
	DB	067H
	DB	011H
	DB	067H
	DB	011H
	DB	067H
	DB	011H
	DB	067H
	DB	011H
	DB	067H
	DB	011H
	DB	067H
	DB	011H
	DB	067H
	DB	011H
	DB	067H
	DB	011H
	DB	067H
	DB	011H
	DB	047H
	DB	011H
	DB	047H
	DB	011H
	DB	047H
	DB	011H
	DB	047H
	DB	011H
	DB	047H
	DB	011H
	DB	047H
	DB	011H
	DB	047H
	DB	011H
	DB	047H
	DB	011H
	DB	046H
	DB	09H
	DB	046H
	DB	09H
	DB	046H
	DB	09H
	DB	046H
	DB	09H
	DB	046H
	DB	09H
	DB	046H
	DB	09H
	DB	046H
	DB	09H
	DB	026H
	DB	09H
	DB	026H
	DB	09H
	DB	026H
	DB	09H
	DB	026H
	DB	09H
	DB	026H
	DB	09H
	DB	026H
	DB	09H
	DB	026H
	DB	09H
	DB	026H
	DB	09H
	DB	026H
	DB	09H
	DB	026H
	DB	09H
	DB	026H
	DB	09H
	DB	026H
	DB	09H
	DB	026H
	DB	09H
	DB	026H
	DB	09H
	DB	026H
	DB	09H
	DB	026H
	DB	09H
	DB	05H
	DB	09H
	DB	05H
	DB	09H
	DB	05H
	DB	09H
	DB	05H
	DB	09H
	DB	05H
	DB	09H
	DB	05H
	DB	09H
	DB	05H
	DB	09H
	DB	05H
	DB	09H
	DB	05H
	DB	09H
	DB	05H
	DB	09H
	DB	05H
	DB	09H
	DB	05H
	DB	09H
	DB	05H
	DB	09H
	DB	05H
	DB	09H
	DB	05H
	DB	09H
	DB	0e5H
	DB	08H
	DB	0e5H
	DB	08H
	DB	0e5H
	DB	08H
	DB	0e5H
	DB	08H
	DB	0e5H
	DB	08H
	DB	0e5H
	DB	08H
	DB	0e5H
	DB	08H
	DB	0e5H
	DB	08H
	DB	0e4H
	DB	08H
	DB	0e4H
	DB	08H
	DB	0e4H
	DB	08H
	DB	0e4H
	DB	08H
	DB	0e4H
	DB	08H
	DB	0e4H
	DB	08H
	DB	0e4H
	DB	08H
	DB	0e4H
	DB	08H
	DB	0c4H
	DB	08H
	DB	0c4H
	DB	08H
	DB	0c4H
	DB	08H
	DB	0c4H
	DB	08H
	DB	0c4H
	DB	08H
	DB	0c4H
	DB	08H
	DB	0c4H
	DB	08H
	DB	0c4H
	DB	08H
	DB	0c4H
	DB	08H
	DB	0c4H
	DB	08H
	DB	0c4H
	DB	08H
	DB	0c4H
	DB	08H
	DB	0c4H
	DB	08H
	DB	0c4H
	DB	08H
	DB	0c4H
	DB	08H
	DB	0c4H
	DB	08H
	DB	0a3H
	DB	08H
	DB	0a3H
	DB	08H
	DB	0a3H
	DB	08H
	DB	0a3H
	DB	00H
	DB	0a3H
	DB	00H
	DB	0a3H
	DB	00H
	DB	0a3H
	DB	00H
	DB	0a3H
	DB	00H
	DB	0a3H
	DB	00H
	DB	0a3H
	DB	00H
	DB	0a3H
	DB	00H
	DB	0a3H
	DB	00H
	DB	0a3H
	DB	00H
	DB	0a3H
	DB	00H
	DB	0a3H
	DB	00H
	DB	0a3H
	DB	00H
	DB	0a3H
	DB	00H
	DB	0a3H
	DB	00H
	DB	0a3H
	DB	00H
	DB	0a3H
	DB	00H
	DB	0a3H
	DB	00H
	DB	0a3H
	DB	00H
	DB	0a3H
	DB	00H
	DB	0a3H
	DB	00H
	DB	0a3H
	DB	00H
	DB	0a3H
	DB	00H
	DB	0a3H
	DB	00H
	DB	0a3H
	DB	00H
	DB	0a3H
	DB	00H
	DB	0a3H
	DB	00H
	DB	0e4H
	DB	08H
	DB	0e4H
	DB	08H
	DB	0c4H
	DB	08H
	DB	0c4H
	DB	08H
	DB	0c4H
	DB	08H
	DB	0c4H
	DB	08H
	DB	0c4H
	DB	08H
	DB	0e4H
	DB	08H
	DB	0e4H
	DB	08H
	DB	0c4H
	DB	08H
	DB	0c4H
	DB	08H
	DB	0c4H
	DB	08H
	DB	0c4H
	DB	08H
	DB	0c4H
	DB	08H
	DB	0c4H
	DB	08H
	DB	0c4H
	DB	08H
	DB	0e4H
	DB	08H
	DB	0c4H
	DB	08H
	DB	0e4H
	DB	08H
	DB	0c4H
	DB	08H
	DB	0e4H
	DB	08H
	DB	0c4H
	DB	08H
	DB	0e4H
	DB	08H
	DB	0e4H
	DB	08H
	DB	0c4H
	DB	08H
	DB	0c4H
	DB	08H
	DB	0c4H
	DB	08H
	DB	0c4H
	DB	08H
	DB	0e4H
	DB	08H
	DB	0c4H
	DB	08H
	DB	0c4H
	DB	08H
	DB	0e4H
	DB	08H
	DB	0e4H
	DB	08H
	DB	0e4H
	DB	08H
	DB	0c4H
	DB	08H
	DB	0c4H
	DB	08H
	DB	0c4H
	DB	08H
	DB	0c4H
	DB	08H
	DB	0e4H
	DB	08H
	DB	0c4H
	DB	08H
	DB	0c4H
	DB	08H
	DB	0c4H
	DB	08H
	DB	0c4H
	DB	08H
	DB	0c4H
	DB	08H
	DB	0c4H
	DB	08H
	DB	0c4H
	DB	08H
	DB	0c4H
	DB	08H
	DB	0c4H
	DB	08H
	DB	0c4H
	DB	08H
	DB	0c4H
	DB	08H
	DB	0c4H
	DB	08H
	DB	0e4H
	DB	08H
	DB	0e4H
	DB	08H
	DB	0c9H
	DB	011H
	DB	0c9H
	DB	011H
	DB	0c9H
	DB	011H
	DB	0c9H
	DB	011H
	DB	0c9H
	DB	011H
	DB	0c9H
	DB	011H
	DB	0c9H
	DB	011H
	DB	0c9H
	DB	011H
	DB	0c9H
	DB	011H
	DB	0c9H
	DB	011H
	DB	0c9H
	DB	011H
	DB	0c9H
	DB	011H
	DB	0c9H
	DB	011H
	DB	0c9H
	DB	011H
	DB	0c9H
	DB	011H
	DB	0c9H
	DB	011H
	DB	0c9H
	DB	011H
	DB	0c9H
	DB	011H
	DB	0c9H
	DB	011H
	DB	0c9H
	DB	011H
	DB	0c9H
	DB	011H
	DB	0c9H
	DB	011H
	DB	0c9H
	DB	011H
	DB	0c9H
	DB	011H
	DB	0c9H
	DB	011H
	DB	0c9H
	DB	011H
	DB	0c9H
	DB	011H
	DB	0c9H
	DB	011H
	DB	0c9H
	DB	011H
	DB	0c9H
	DB	011H
	DB	0c9H
	DB	011H
	DB	0c9H
	DB	011H
	DB	0a9H
	DB	011H
	DB	0a9H
	DB	011H
	DB	0a9H
	DB	011H
	DB	0a9H
	DB	011H
	DB	0a9H
	DB	011H
	DB	0a9H
	DB	011H
	DB	0a9H
	DB	011H
	DB	0a9H
	DB	011H
	DB	0a9H
	DB	011H
	DB	0a8H
	DB	011H
	DB	0a8H
	DB	011H
	DB	0a8H
	DB	011H
	DB	0a8H
	DB	011H
	DB	0a8H
	DB	011H
	DB	0a8H
	DB	011H
	DB	0a8H
	DB	011H
	DB	088H
	DB	011H
	DB	088H
	DB	011H
	DB	088H
	DB	011H
	DB	088H
	DB	011H
	DB	088H
	DB	011H
	DB	088H
	DB	011H
	DB	088H
	DB	011H
	DB	088H
	DB	011H
	DB	088H
	DB	011H
	DB	088H
	DB	011H
	DB	088H
	DB	011H
	DB	088H
	DB	011H
	DB	088H
	DB	011H
	DB	088H
	DB	011H
	DB	088H
	DB	011H
	DB	068H
	DB	011H
	DB	067H
	DB	011H
	DB	067H
	DB	011H
	DB	067H
	DB	011H
	DB	067H
	DB	011H
	DB	067H
	DB	011H
	DB	067H
	DB	011H
	DB	067H
	DB	011H
	DB	067H
	DB	011H
	DB	067H
	DB	011H
	DB	067H
	DB	011H
	DB	067H
	DB	011H
	DB	067H
	DB	011H
	DB	067H
	DB	011H
	DB	067H
	DB	011H
	DB	067H
	DB	011H
	DB	047H
	DB	011H
	DB	047H
	DB	011H
	DB	047H
	DB	011H
	DB	047H
	DB	011H
	DB	047H
	DB	011H
	DB	047H
	DB	011H
	DB	047H
	DB	011H
	DB	047H
	DB	011H
	DB	046H
	DB	09H
	DB	046H
	DB	09H
	DB	046H
	DB	09H
	DB	046H
	DB	09H
	DB	046H
	DB	09H
	DB	046H
	DB	09H
	DB	046H
	DB	09H
	DB	026H
	DB	09H
	DB	026H
	DB	09H
	DB	026H
	DB	09H
	DB	026H
	DB	09H
	DB	026H
	DB	09H
	DB	026H
	DB	09H
	DB	026H
	DB	09H
	DB	026H
	DB	09H
	DB	026H
	DB	09H
	DB	026H
	DB	09H
	DB	026H
	DB	09H
	DB	026H
	DB	09H
	DB	026H
	DB	09H
	DB	026H
	DB	09H
	DB	026H
	DB	09H
	DB	026H
	DB	09H
	DB	05H
	DB	09H
	DB	05H
	DB	09H
	DB	05H
	DB	09H
	DB	05H
	DB	09H
	DB	05H
	DB	09H
	DB	05H
	DB	09H
	DB	05H
	DB	09H
	DB	05H
	DB	09H
	DB	05H
	DB	09H
	DB	05H
	DB	09H
	DB	05H
	DB	09H
	DB	05H
	DB	09H
	DB	05H
	DB	09H
	DB	05H
	DB	09H
	DB	05H
	DB	09H
	DB	0e5H
	DB	08H
	DB	0e5H
	DB	08H
	DB	0e5H
	DB	08H
	DB	0e5H
	DB	08H
	DB	0e5H
	DB	08H
	DB	0e5H
	DB	08H
	DB	0e5H
	DB	08H
	DB	0e5H
	DB	08H
	DB	0e4H
	DB	08H
	DB	0e4H
	DB	08H
	DB	0e4H
	DB	08H
	DB	0e4H
	DB	08H
	DB	0e4H
	DB	08H
	DB	0e4H
	DB	08H
	DB	0e4H
	DB	08H
	DB	0e4H
	DB	08H
	DB	0e4H
	DB	08H
	DB	0c4H
	DB	08H
	DB	0c4H
	DB	08H
	DB	0c4H
	DB	08H
	DB	0c4H
	DB	08H
	DB	0c4H
	DB	08H
	DB	0c4H
	DB	08H
	DB	0c4H
	DB	08H
	DB	0c4H
	DB	08H
	DB	0c4H
	DB	08H
	DB	0c4H
	DB	08H
	DB	0c4H
	DB	08H
	DB	0c4H
	DB	08H
	DB	0c4H
	DB	08H
	DB	0c4H
	DB	08H
	DB	0c4H
	DB	08H
	DB	0a3H
	DB	08H
	DB	0a3H
	DB	08H
	DB	0a3H
	DB	08H
	DB	0a3H
	DB	00H
	DB	0a3H
	DB	00H
	DB	0a3H
	DB	00H
	DB	0a3H
	DB	00H
	DB	0a3H
	DB	00H
	DB	0a3H
	DB	00H
	DB	0a3H
	DB	00H
	DB	0a3H
	DB	00H
	DB	0a3H
	DB	00H
	DB	0a3H
	DB	00H
	DB	0a3H
	DB	00H
	DB	0a3H
	DB	00H
	DB	0a3H
	DB	00H
	DB	0a3H
	DB	00H
	DB	0a3H
	DB	00H
	DB	0a3H
	DB	00H
	DB	0a3H
	DB	00H
	DB	0a3H
	DB	00H
	DB	0a3H
	DB	00H
	DB	0a3H
	DB	00H
	DB	0a3H
	DB	00H
	DB	0a3H
	DB	00H
	DB	0a3H
	DB	00H
	DB	0a3H
	DB	00H
	DB	0a3H
	DB	00H
	DB	0a3H
	DB	00H
	DB	0a3H
	DB	00H
	DB	0e4H
	DB	08H
	DB	0c4H
	DB	08H
	DB	0c4H
	DB	08H
	DB	0e4H
	DB	08H
	DB	0e4H
	DB	08H
	DB	0e4H
	DB	08H
	DB	0c4H
	DB	08H
	DB	0c4H
	DB	08H
	DB	0c4H
	DB	08H
	DB	0e4H
	DB	08H
	DB	0c4H
	DB	08H
	DB	0e4H
	DB	08H
	DB	0c4H
	DB	08H
	DB	0e4H
	DB	08H
	DB	0c4H
	DB	08H
	DB	0e4H
	DB	08H
	DB	0e4H
	DB	08H
	DB	0c4H
	DB	08H
	DB	0c4H
	DB	08H
	DB	0c4H
	DB	08H
	DB	0e4H
	DB	08H
	DB	0c4H
	DB	08H
	DB	0c4H
	DB	08H
	DB	0c4H
	DB	08H
	DB	0e4H
	DB	08H
	DB	0e4H
	DB	08H
	DB	0c4H
	DB	08H
	DB	0c4H
	DB	08H
	DB	0c4H
	DB	08H
	DB	0e4H
	DB	08H
	DB	0e4H
	DB	08H
	DB	0e4H
	DB	08H
	DB	0c4H
	DB	08H
	DB	0e4H
	DB	08H
	DB	0c4H
	DB	08H
	DB	0c4H
	DB	08H
	DB	0c4H
	DB	08H
	DB	0c4H
	DB	08H
	DB	0c4H
	DB	08H
	DB	0c4H
	DB	08H
	DB	0e4H
	DB	08H
	DB	0c4H
	DB	08H
	DB	0c4H
	DB	08H
	DB	0e4H
	DB	08H
	DB	0c4H
	DB	08H
	DB	0c4H
	DB	08H
	DB	0e4H
	DB	08H
	DB	0c4H
	DB	08H
	DB	0c4H
	DB	08H
	DB	0e4H
	DB	08H
	DB	0c4H
	DB	08H
	DB	0e4H
	DB	08H
	DB	0e4H
	DB	08H
	DB	0c9H
	DB	011H
	DB	0c9H
	DB	011H
	DB	0c9H
	DB	011H
	DB	0c9H
	DB	011H
	DB	0c9H
	DB	011H
	DB	0c9H
	DB	011H
	DB	0c9H
	DB	011H
	DB	0c9H
	DB	011H
	DB	0c9H
	DB	011H
	DB	0c9H
	DB	011H
	DB	0c9H
	DB	011H
	DB	0c9H
	DB	011H
	DB	0c9H
	DB	011H
	DB	0c9H
	DB	011H
	DB	0c9H
	DB	011H
	DB	0c9H
	DB	011H
	DB	0c9H
	DB	011H
	DB	0c9H
	DB	011H
	DB	0c9H
	DB	011H
	DB	0c9H
	DB	011H
	DB	0c9H
	DB	011H
	DB	0c9H
	DB	011H
	DB	0c9H
	DB	011H
	DB	0c9H
	DB	011H
	DB	0c9H
	DB	011H
	DB	0c9H
	DB	011H
	DB	0c9H
	DB	011H
	DB	0c9H
	DB	011H
	DB	0c9H
	DB	011H
	DB	0c9H
	DB	011H
	DB	0c9H
	DB	011H
	DB	0c9H
	DB	011H
	DB	0a9H
	DB	011H
	DB	0a9H
	DB	011H
	DB	0a9H
	DB	011H
	DB	0a9H
	DB	011H
	DB	0a9H
	DB	011H
	DB	0a9H
	DB	011H
	DB	0a9H
	DB	011H
	DB	0a9H
	DB	011H
	DB	0a9H
	DB	011H
	DB	0a8H
	DB	011H
	DB	0a8H
	DB	011H
	DB	0a8H
	DB	011H
	DB	0a8H
	DB	011H
	DB	0a8H
	DB	011H
	DB	0a8H
	DB	011H
	DB	0a8H
	DB	011H
	DB	088H
	DB	011H
	DB	088H
	DB	011H
	DB	088H
	DB	011H
	DB	088H
	DB	011H
	DB	088H
	DB	011H
	DB	088H
	DB	011H
	DB	088H
	DB	011H
	DB	088H
	DB	011H
	DB	088H
	DB	011H
	DB	088H
	DB	011H
	DB	088H
	DB	011H
	DB	088H
	DB	011H
	DB	088H
	DB	011H
	DB	088H
	DB	011H
	DB	088H
	DB	011H
	DB	068H
	DB	011H
	DB	067H
	DB	011H
	DB	067H
	DB	011H
	DB	067H
	DB	011H
	DB	067H
	DB	011H
	DB	067H
	DB	011H
	DB	067H
	DB	011H
	DB	067H
	DB	011H
	DB	067H
	DB	011H
	DB	067H
	DB	011H
	DB	067H
	DB	011H
	DB	067H
	DB	011H
	DB	067H
	DB	011H
	DB	067H
	DB	011H
	DB	067H
	DB	011H
	DB	067H
	DB	011H
	DB	047H
	DB	011H
	DB	047H
	DB	011H
	DB	047H
	DB	011H
	DB	047H
	DB	011H
	DB	047H
	DB	011H
	DB	047H
	DB	011H
	DB	047H
	DB	011H
	DB	047H
	DB	011H
	DB	047H
	DB	09H
	DB	046H
	DB	09H
	DB	046H
	DB	09H
	DB	046H
	DB	09H
	DB	046H
	DB	09H
	DB	046H
	DB	09H
	DB	046H
	DB	09H
	DB	026H
	DB	09H
	DB	026H
	DB	09H
	DB	026H
	DB	09H
	DB	026H
	DB	09H
	DB	026H
	DB	09H
	DB	026H
	DB	09H
	DB	026H
	DB	09H
	DB	026H
	DB	09H
	DB	026H
	DB	09H
	DB	026H
	DB	09H
	DB	026H
	DB	09H
	DB	026H
	DB	09H
	DB	026H
	DB	09H
	DB	026H
	DB	09H
	DB	026H
	DB	09H
	DB	026H
	DB	09H
	DB	06H
	DB	09H
	DB	05H
	DB	09H
	DB	05H
	DB	09H
	DB	05H
	DB	09H
	DB	05H
	DB	09H
	DB	05H
	DB	09H
	DB	05H
	DB	09H
	DB	05H
	DB	09H
	DB	05H
	DB	09H
	DB	05H
	DB	09H
	DB	05H
	DB	09H
	DB	05H
	DB	09H
	DB	05H
	DB	09H
	DB	05H
	DB	09H
	DB	05H
	DB	09H
	DB	0e5H
	DB	08H
	DB	0e5H
	DB	08H
	DB	0e5H
	DB	08H
	DB	0e5H
	DB	08H
	DB	0e5H
	DB	08H
	DB	0e5H
	DB	08H
	DB	0e5H
	DB	08H
	DB	0e5H
	DB	08H
	DB	0e5H
	DB	08H
	DB	0e4H
	DB	08H
	DB	0e4H
	DB	08H
	DB	0e4H
	DB	08H
	DB	0e4H
	DB	08H
	DB	0e4H
	DB	08H
	DB	0e4H
	DB	08H
	DB	0e4H
	DB	08H
	DB	0e4H
	DB	08H
	DB	0c4H
	DB	08H
	DB	0c4H
	DB	08H
	DB	0c4H
	DB	08H
	DB	0c4H
	DB	08H
	DB	0c4H
	DB	08H
	DB	0c4H
	DB	08H
	DB	0c4H
	DB	08H
	DB	0c4H
	DB	08H
	DB	0c4H
	DB	08H
	DB	0c4H
	DB	08H
	DB	0c4H
	DB	08H
	DB	0c4H
	DB	08H
	DB	0c4H
	DB	08H
	DB	0c4H
	DB	08H
	DB	0c4H
	DB	08H
	DB	0a3H
	DB	08H
	DB	0a3H
	DB	08H
	DB	0a3H
	DB	08H
	DB	0a3H
	DB	00H
	DB	0a3H
	DB	00H
	DB	0a3H
	DB	00H
	DB	0a3H
	DB	00H
	DB	0a3H
	DB	00H
	DB	0a3H
	DB	00H
	DB	0a3H
	DB	00H
	DB	0a3H
	DB	00H
	DB	0a3H
	DB	00H
	DB	0a3H
	DB	00H
	DB	0a3H
	DB	00H
	DB	0a3H
	DB	00H
	DB	0a3H
	DB	00H
	DB	0a3H
	DB	00H
	DB	0a3H
	DB	00H
	DB	0a3H
	DB	00H
	DB	0a3H
	DB	00H
	DB	0a3H
	DB	00H
	DB	0a3H
	DB	00H
	DB	0a3H
	DB	00H
	DB	0a3H
	DB	00H
	DB	0a3H
	DB	00H
	DB	0a3H
	DB	00H
	DB	0a3H
	DB	00H
	DB	0a3H
	DB	00H
	DB	0a3H
	DB	00H
	DB	0a3H
	DB	00H
	DB	0e4H
	DB	08H
	DB	0e4H
	DB	08H
	DB	0c4H
	DB	08H
	DB	0e4H
	DB	08H
	DB	0e4H
	DB	08H
	DB	0e4H
	DB	08H
	DB	0e4H
	DB	08H
	DB	0e4H
	DB	08H
	DB	0e4H
	DB	08H
	DB	0e4H
	DB	08H
	DB	0e4H
	DB	08H
	DB	0e4H
	DB	08H
	DB	0c4H
	DB	08H
	DB	0c4H
	DB	08H
	DB	0c4H
	DB	08H
	DB	0e4H
	DB	08H
	DB	0e4H
	DB	08H
	DB	0c4H
	DB	08H
	DB	0e4H
	DB	08H
	DB	0e4H
	DB	08H
	DB	0e4H
	DB	08H
	DB	0e4H
	DB	08H
	DB	0c4H
	DB	08H
	DB	0e4H
	DB	08H
	DB	0e4H
	DB	08H
	DB	0e4H
	DB	08H
	DB	0e4H
	DB	08H
	DB	0c4H
	DB	08H
	DB	0c4H
	DB	08H
	DB	0e4H
	DB	08H
	DB	0c4H
	DB	08H
	DB	0c4H
	DB	08H
	DB	0c4H
	DB	08H
	DB	0e4H
	DB	08H
	DB	0e4H
	DB	08H
	DB	0e4H
	DB	08H
	DB	0e4H
	DB	08H
	DB	0c4H
	DB	08H
	DB	0e4H
	DB	08H
	DB	0e4H
	DB	08H
	DB	0e4H
	DB	08H
	DB	0c4H
	DB	08H
	DB	0e4H
	DB	08H
	DB	0c4H
	DB	08H
	DB	0e4H
	DB	08H
	DB	0c4H
	DB	08H
	DB	0c4H
	DB	08H
	DB	0e4H
	DB	08H
	DB	0e4H
	DB	08H
	DB	0e4H
	DB	08H
	DB	0e4H
	DB	08H
	DB	0e4H
	DB	08H
	DB	0e4H
	DB	08H
	DB	0c9H
	DB	011H
	DB	0c9H
	DB	011H
	DB	0c9H
	DB	011H
	DB	0c9H
	DB	011H
	DB	0c9H
	DB	011H
	DB	0c9H
	DB	011H
	DB	0c9H
	DB	011H
	DB	0c9H
	DB	011H
	DB	0c9H
	DB	011H
	DB	0c9H
	DB	011H
	DB	0c9H
	DB	011H
	DB	0c9H
	DB	011H
	DB	0c9H
	DB	011H
	DB	0c9H
	DB	011H
	DB	0c9H
	DB	011H
	DB	0c9H
	DB	011H
	DB	0c9H
	DB	011H
	DB	0c9H
	DB	011H
	DB	0c9H
	DB	011H
	DB	0c9H
	DB	011H
	DB	0c9H
	DB	011H
	DB	0c9H
	DB	011H
	DB	0c9H
	DB	011H
	DB	0c9H
	DB	011H
	DB	0c9H
	DB	011H
	DB	0c9H
	DB	011H
	DB	0c9H
	DB	011H
	DB	0c9H
	DB	011H
	DB	0c9H
	DB	011H
	DB	0c9H
	DB	011H
	DB	0c9H
	DB	011H
	DB	0c9H
	DB	011H
	DB	0a9H
	DB	011H
	DB	0a9H
	DB	011H
	DB	0a9H
	DB	011H
	DB	0a9H
	DB	011H
	DB	0a9H
	DB	011H
	DB	0a9H
	DB	011H
	DB	0a9H
	DB	011H
	DB	0a9H
	DB	011H
	DB	0a9H
	DB	011H
	DB	0a8H
	DB	011H
	DB	0a8H
	DB	011H
	DB	0a8H
	DB	011H
	DB	0a8H
	DB	011H
	DB	0a8H
	DB	011H
	DB	0a8H
	DB	011H
	DB	0a8H
	DB	011H
	DB	088H
	DB	011H
	DB	088H
	DB	011H
	DB	088H
	DB	011H
	DB	088H
	DB	011H
	DB	088H
	DB	011H
	DB	088H
	DB	011H
	DB	088H
	DB	011H
	DB	088H
	DB	011H
	DB	088H
	DB	011H
	DB	088H
	DB	011H
	DB	088H
	DB	011H
	DB	088H
	DB	011H
	DB	088H
	DB	011H
	DB	088H
	DB	011H
	DB	088H
	DB	011H
	DB	068H
	DB	011H
	DB	067H
	DB	011H
	DB	067H
	DB	011H
	DB	067H
	DB	011H
	DB	067H
	DB	011H
	DB	067H
	DB	011H
	DB	067H
	DB	011H
	DB	067H
	DB	011H
	DB	067H
	DB	011H
	DB	067H
	DB	011H
	DB	067H
	DB	011H
	DB	067H
	DB	011H
	DB	067H
	DB	011H
	DB	067H
	DB	011H
	DB	067H
	DB	011H
	DB	067H
	DB	011H
	DB	047H
	DB	011H
	DB	047H
	DB	011H
	DB	047H
	DB	011H
	DB	047H
	DB	011H
	DB	047H
	DB	011H
	DB	047H
	DB	011H
	DB	047H
	DB	011H
	DB	047H
	DB	011H
	DB	047H
	DB	09H
	DB	046H
	DB	09H
	DB	046H
	DB	09H
	DB	046H
	DB	09H
	DB	046H
	DB	09H
	DB	046H
	DB	09H
	DB	046H
	DB	09H
	DB	046H
	DB	09H
	DB	026H
	DB	09H
	DB	026H
	DB	09H
	DB	026H
	DB	09H
	DB	026H
	DB	09H
	DB	026H
	DB	09H
	DB	026H
	DB	09H
	DB	026H
	DB	09H
	DB	026H
	DB	09H
	DB	026H
	DB	09H
	DB	026H
	DB	09H
	DB	026H
	DB	09H
	DB	026H
	DB	09H
	DB	026H
	DB	09H
	DB	026H
	DB	09H
	DB	026H
	DB	09H
	DB	06H
	DB	09H
	DB	05H
	DB	09H
	DB	05H
	DB	09H
	DB	05H
	DB	09H
	DB	05H
	DB	09H
	DB	05H
	DB	09H
	DB	05H
	DB	09H
	DB	05H
	DB	09H
	DB	05H
	DB	09H
	DB	05H
	DB	09H
	DB	05H
	DB	09H
	DB	05H
	DB	09H
	DB	05H
	DB	09H
	DB	05H
	DB	09H
	DB	05H
	DB	09H
	DB	05H
	DB	09H
	DB	0e5H
	DB	08H
	DB	0e5H
	DB	08H
	DB	0e5H
	DB	08H
	DB	0e5H
	DB	08H
	DB	0e5H
	DB	08H
	DB	0e5H
	DB	08H
	DB	0e5H
	DB	08H
	DB	0e5H
	DB	08H
	DB	0e4H
	DB	08H
	DB	0e4H
	DB	08H
	DB	0e4H
	DB	08H
	DB	0e4H
	DB	08H
	DB	0e4H
	DB	08H
	DB	0e4H
	DB	08H
	DB	0e4H
	DB	08H
	DB	0e4H
	DB	08H
	DB	0c4H
	DB	08H
	DB	0c4H
	DB	08H
	DB	0c4H
	DB	08H
	DB	0c4H
	DB	08H
	DB	0c4H
	DB	08H
	DB	0c4H
	DB	08H
	DB	0c4H
	DB	08H
	DB	0c4H
	DB	08H
	DB	0c4H
	DB	08H
	DB	0c4H
	DB	08H
	DB	0c4H
	DB	08H
	DB	0c4H
	DB	08H
	DB	0c4H
	DB	08H
	DB	0c4H
	DB	08H
	DB	0c4H
	DB	08H
	DB	0a3H
	DB	08H
	DB	0a3H
	DB	08H
	DB	0a3H
	DB	08H
	DB	0a3H
	DB	00H
	DB	0a3H
	DB	00H
	DB	0a3H
	DB	00H
	DB	0a3H
	DB	00H
	DB	0a3H
	DB	00H
	DB	0a3H
	DB	00H
	DB	0a3H
	DB	00H
	DB	0a3H
	DB	00H
	DB	0a3H
	DB	00H
	DB	0a3H
	DB	00H
	DB	0a3H
	DB	00H
	DB	0a3H
	DB	00H
	DB	0a3H
	DB	00H
	DB	0a3H
	DB	00H
	DB	0a3H
	DB	00H
	DB	0a3H
	DB	00H
	DB	0a3H
	DB	00H
	DB	0a3H
	DB	00H
	DB	0a3H
	DB	00H
	DB	0a3H
	DB	00H
	DB	0a3H
	DB	00H
	DB	0a3H
	DB	00H
	DB	0a3H
	DB	00H
	DB	0a3H
	DB	00H
	DB	0a3H
	DB	00H
	DB	0a3H
	DB	00H
	DB	0a3H
	DB	00H
	DB	0e4H
	DB	08H
	DB	0c4H
	DB	08H
	DB	0e4H
	DB	08H
	DB	0c4H
	DB	08H
	DB	0c4H
	DB	08H
	DB	0e4H
	DB	08H
	DB	0e4H
	DB	08H
	DB	0c4H
	DB	08H
	DB	0e4H
	DB	08H
	DB	0e4H
	DB	08H
	DB	0e4H
	DB	08H
	DB	0e4H
	DB	08H
	DB	0e4H
	DB	08H
	DB	0c4H
	DB	08H
	DB	0c4H
	DB	08H
	DB	0e4H
	DB	08H
	DB	0e4H
	DB	08H
	DB	0c4H
	DB	08H
	DB	0e4H
	DB	08H
	DB	0e4H
	DB	08H
	DB	0e4H
	DB	08H
	DB	0e4H
	DB	08H
	DB	0e4H
	DB	08H
	DB	0e4H
	DB	08H
	DB	0e4H
	DB	08H
	DB	0e4H
	DB	08H
	DB	0e4H
	DB	08H
	DB	0e4H
	DB	08H
	DB	0e4H
	DB	08H
	DB	0c4H
	DB	08H
	DB	0c4H
	DB	08H
	DB	0e4H
	DB	08H
	DB	0c4H
	DB	08H
	DB	0e4H
	DB	08H
	DB	0e4H
	DB	08H
	DB	0c4H
	DB	08H
	DB	0e4H
	DB	08H
	DB	0e4H
	DB	08H
	DB	0e4H
	DB	08H
	DB	0e4H
	DB	08H
	DB	0e4H
	DB	08H
	DB	0c4H
	DB	08H
	DB	0e4H
	DB	08H
	DB	0c4H
	DB	08H
	DB	0c4H
	DB	08H
	DB	0e4H
	DB	08H
	DB	0c4H
	DB	08H
	DB	0c4H
	DB	08H
	DB	0c4H
	DB	08H
	DB	0c4H
	DB	08H
	DB	0c4H
	DB	08H
	DB	0e4H
	DB	08H
	DB	0e4H
	DB	08H
	DB	0c9H
	DB	011H
	DB	0c9H
	DB	011H
	DB	0c9H
	DB	011H
	DB	0c9H
	DB	011H
	DB	0c9H
	DB	011H
	DB	0c9H
	DB	011H
	DB	0c9H
	DB	011H
	DB	0c9H
	DB	011H
	DB	0c9H
	DB	011H
	DB	0c9H
	DB	011H
	DB	0c9H
	DB	011H
	DB	0c9H
	DB	011H
	DB	0c9H
	DB	011H
	DB	0c9H
	DB	011H
	DB	0c9H
	DB	011H
	DB	0c9H
	DB	011H
	DB	0c9H
	DB	011H
	DB	0c9H
	DB	011H
	DB	0c9H
	DB	011H
	DB	0c9H
	DB	011H
	DB	0c9H
	DB	011H
	DB	0c9H
	DB	011H
	DB	0c9H
	DB	011H
	DB	0c9H
	DB	011H
	DB	0c9H
	DB	011H
	DB	0c9H
	DB	011H
	DB	0c9H
	DB	011H
	DB	0c9H
	DB	011H
	DB	0c9H
	DB	011H
	DB	0c9H
	DB	011H
	DB	0c9H
	DB	011H
	DB	0c9H
	DB	011H
	DB	0a9H
	DB	011H
	DB	0a9H
	DB	011H
	DB	0a9H
	DB	011H
	DB	0a9H
	DB	011H
	DB	0a9H
	DB	011H
	DB	0a9H
	DB	011H
	DB	0a9H
	DB	011H
	DB	0a9H
	DB	011H
	DB	0a9H
	DB	011H
	DB	0a8H
	DB	011H
	DB	0a8H
	DB	011H
	DB	0a8H
	DB	011H
	DB	0a8H
	DB	011H
	DB	0a8H
	DB	011H
	DB	0a8H
	DB	011H
	DB	0a8H
	DB	011H
	DB	088H
	DB	011H
	DB	088H
	DB	011H
	DB	088H
	DB	011H
	DB	088H
	DB	011H
	DB	088H
	DB	011H
	DB	088H
	DB	011H
	DB	088H
	DB	011H
	DB	088H
	DB	011H
	DB	088H
	DB	011H
	DB	088H
	DB	011H
	DB	088H
	DB	011H
	DB	088H
	DB	011H
	DB	088H
	DB	011H
	DB	088H
	DB	011H
	DB	088H
	DB	011H
	DB	088H
	DB	011H
	DB	067H
	DB	011H
	DB	067H
	DB	011H
	DB	067H
	DB	011H
	DB	067H
	DB	011H
	DB	067H
	DB	011H
	DB	067H
	DB	011H
	DB	067H
	DB	011H
	DB	067H
	DB	011H
	DB	067H
	DB	011H
	DB	067H
	DB	011H
	DB	067H
	DB	011H
	DB	067H
	DB	011H
	DB	067H
	DB	011H
	DB	067H
	DB	011H
	DB	067H
	DB	011H
	DB	047H
	DB	011H
	DB	047H
	DB	011H
	DB	047H
	DB	011H
	DB	047H
	DB	011H
	DB	047H
	DB	011H
	DB	047H
	DB	011H
	DB	047H
	DB	011H
	DB	047H
	DB	011H
	DB	047H
	DB	09H
	DB	046H
	DB	09H
	DB	046H
	DB	09H
	DB	046H
	DB	09H
	DB	046H
	DB	09H
	DB	046H
	DB	09H
	DB	046H
	DB	09H
	DB	046H
	DB	09H
	DB	026H
	DB	09H
	DB	026H
	DB	09H
	DB	026H
	DB	09H
	DB	026H
	DB	09H
	DB	026H
	DB	09H
	DB	026H
	DB	09H
	DB	026H
	DB	09H
	DB	026H
	DB	09H
	DB	026H
	DB	09H
	DB	026H
	DB	09H
	DB	026H
	DB	09H
	DB	026H
	DB	09H
	DB	026H
	DB	09H
	DB	026H
	DB	09H
	DB	026H
	DB	09H
	DB	06H
	DB	09H
	DB	05H
	DB	09H
	DB	05H
	DB	09H
	DB	05H
	DB	09H
	DB	05H
	DB	09H
	DB	05H
	DB	09H
	DB	05H
	DB	09H
	DB	05H
	DB	09H
	DB	05H
	DB	09H
	DB	05H
	DB	09H
	DB	05H
	DB	09H
	DB	05H
	DB	09H
	DB	05H
	DB	09H
	DB	05H
	DB	09H
	DB	05H
	DB	09H
	DB	05H
	DB	09H
	DB	0e5H
	DB	08H
	DB	0e5H
	DB	08H
	DB	0e5H
	DB	08H
	DB	0e5H
	DB	08H
	DB	0e5H
	DB	08H
	DB	0e5H
	DB	08H
	DB	0e5H
	DB	08H
	DB	0e5H
	DB	08H
	DB	0e4H
	DB	08H
	DB	0e4H
	DB	08H
	DB	0e4H
	DB	08H
	DB	0e4H
	DB	08H
	DB	0e4H
	DB	08H
	DB	0e4H
	DB	08H
	DB	0e4H
	DB	08H
	DB	0e4H
	DB	08H
	DB	0c4H
	DB	08H
	DB	0c4H
	DB	08H
	DB	0c4H
	DB	08H
	DB	0c4H
	DB	08H
	DB	0c4H
	DB	08H
	DB	0c4H
	DB	08H
	DB	0c4H
	DB	08H
	DB	0c4H
	DB	08H
	DB	0c4H
	DB	08H
	DB	0c4H
	DB	08H
	DB	0c4H
	DB	08H
	DB	0c4H
	DB	08H
	DB	0c4H
	DB	08H
	DB	0c4H
	DB	08H
	DB	0c4H
	DB	08H
	DB	0a3H
	DB	08H
	DB	0a3H
	DB	08H
	DB	0a3H
	DB	08H
	DB	0a3H
	DB	00H
	DB	0a3H
	DB	00H
	DB	0a3H
	DB	00H
	DB	0a3H
	DB	00H
	DB	0a3H
	DB	00H
	DB	0a3H
	DB	00H
	DB	0a3H
	DB	00H
	DB	0a3H
	DB	00H
	DB	0a3H
	DB	00H
	DB	0a3H
	DB	00H
	DB	0a3H
	DB	00H
	DB	0a3H
	DB	00H
	DB	0a3H
	DB	00H
	DB	0a3H
	DB	00H
	DB	0a3H
	DB	00H
	DB	0a3H
	DB	00H
	DB	0a3H
	DB	00H
	DB	0a3H
	DB	00H
	DB	0a3H
	DB	00H
	DB	0a3H
	DB	00H
	DB	0a3H
	DB	00H
	DB	0a3H
	DB	00H
	DB	0a3H
	DB	00H
	DB	0a3H
	DB	00H
	DB	0a3H
	DB	00H
	DB	0a3H
	DB	00H
	DB	0a3H
	DB	00H
	DB	0e4H
	DB	08H
	DB	0e4H
	DB	08H
	DB	0e4H
	DB	08H
	DB	0e4H
	DB	08H
	DB	0e4H
	DB	08H
	DB	0e4H
	DB	08H
	DB	0c4H
	DB	08H
	DB	0e4H
	DB	08H
	DB	0e4H
	DB	08H
	DB	0e4H
	DB	08H
	DB	0e4H
	DB	08H
	DB	0e4H
	DB	08H
	DB	0e4H
	DB	08H
	DB	0e4H
	DB	08H
	DB	0c4H
	DB	08H
	DB	0e4H
	DB	08H
	DB	0e4H
	DB	08H
	DB	0e4H
	DB	08H
	DB	0e4H
	DB	08H
	DB	0e4H
	DB	08H
	DB	0e4H
	DB	08H
	DB	0e4H
	DB	08H
	DB	0e4H
	DB	08H
	DB	0e4H
	DB	08H
	DB	0e4H
	DB	08H
	DB	0e4H
	DB	08H
	DB	0e4H
	DB	08H
	DB	0e4H
	DB	08H
	DB	0e4H
	DB	08H
	DB	0e4H
	DB	08H
	DB	0e4H
	DB	08H
	DB	0e4H
	DB	08H
	DB	0e4H
	DB	08H
	DB	0e4H
	DB	08H
	DB	0e4H
	DB	08H
	DB	0c4H
	DB	08H
	DB	0e4H
	DB	08H
	DB	0c4H
	DB	08H
	DB	0e4H
	DB	08H
	DB	0e4H
	DB	08H
	DB	0e4H
	DB	08H
	DB	0e4H
	DB	08H
	DB	0e4H
	DB	08H
	DB	0e4H
	DB	08H
	DB	0e4H
	DB	08H
	DB	0e4H
	DB	08H
	DB	0e4H
	DB	08H
	DB	0e4H
	DB	08H
	DB	0c4H
	DB	08H
	DB	0e4H
	DB	08H
	DB	0e4H
	DB	08H
	DB	0e4H
	DB	08H
	DB	0e4H
	DB	08H
	DB	0c9H
	DB	011H
	DB	0c9H
	DB	011H
	DB	0c9H
	DB	011H
	DB	0c9H
	DB	011H
	DB	0c9H
	DB	011H
	DB	0c9H
	DB	011H
	DB	0c9H
	DB	011H
	DB	0c9H
	DB	011H
	DB	0c9H
	DB	011H
	DB	0c9H
	DB	011H
	DB	0c9H
	DB	011H
	DB	0c9H
	DB	011H
	DB	0c9H
	DB	011H
	DB	0c9H
	DB	011H
	DB	0c9H
	DB	011H
	DB	0c9H
	DB	011H
	DB	0c9H
	DB	011H
	DB	0c9H
	DB	011H
	DB	0c9H
	DB	011H
	DB	0c9H
	DB	011H
	DB	0c9H
	DB	011H
	DB	0c9H
	DB	011H
	DB	0c9H
	DB	011H
	DB	0c9H
	DB	011H
	DB	0c9H
	DB	011H
	DB	0c9H
	DB	011H
	DB	0c9H
	DB	011H
	DB	0c9H
	DB	011H
	DB	0c9H
	DB	011H
	DB	0c9H
	DB	011H
	DB	0c9H
	DB	011H
	DB	0c9H
	DB	011H
	DB	0c9H
	DB	011H
	DB	0a9H
	DB	011H
	DB	0a9H
	DB	011H
	DB	0a9H
	DB	011H
	DB	0a9H
	DB	011H
	DB	0a9H
	DB	011H
	DB	0a9H
	DB	011H
	DB	0a9H
	DB	011H
	DB	0a9H
	DB	011H
	DB	0a8H
	DB	011H
	DB	0a8H
	DB	011H
	DB	0a8H
	DB	011H
	DB	0a8H
	DB	011H
	DB	0a8H
	DB	011H
	DB	0a8H
	DB	011H
	DB	0a8H
	DB	011H
	DB	088H
	DB	011H
	DB	088H
	DB	011H
	DB	088H
	DB	011H
	DB	088H
	DB	011H
	DB	088H
	DB	011H
	DB	088H
	DB	011H
	DB	088H
	DB	011H
	DB	088H
	DB	011H
	DB	088H
	DB	011H
	DB	088H
	DB	011H
	DB	088H
	DB	011H
	DB	088H
	DB	011H
	DB	088H
	DB	011H
	DB	088H
	DB	011H
	DB	088H
	DB	011H
	DB	088H
	DB	011H
	DB	067H
	DB	011H
	DB	067H
	DB	011H
	DB	067H
	DB	011H
	DB	067H
	DB	011H
	DB	067H
	DB	011H
	DB	067H
	DB	011H
	DB	067H
	DB	011H
	DB	067H
	DB	011H
	DB	067H
	DB	011H
	DB	067H
	DB	011H
	DB	067H
	DB	011H
	DB	067H
	DB	011H
	DB	067H
	DB	011H
	DB	067H
	DB	011H
	DB	067H
	DB	011H
	DB	047H
	DB	011H
	DB	047H
	DB	011H
	DB	047H
	DB	011H
	DB	047H
	DB	011H
	DB	047H
	DB	011H
	DB	047H
	DB	011H
	DB	047H
	DB	011H
	DB	047H
	DB	011H
	DB	047H
	DB	09H
	DB	046H
	DB	09H
	DB	046H
	DB	09H
	DB	046H
	DB	09H
	DB	046H
	DB	09H
	DB	046H
	DB	09H
	DB	046H
	DB	09H
	DB	046H
	DB	09H
	DB	026H
	DB	09H
	DB	026H
	DB	09H
	DB	026H
	DB	09H
	DB	026H
	DB	09H
	DB	026H
	DB	09H
	DB	026H
	DB	09H
	DB	026H
	DB	09H
	DB	026H
	DB	09H
	DB	026H
	DB	09H
	DB	026H
	DB	09H
	DB	026H
	DB	09H
	DB	026H
	DB	09H
	DB	026H
	DB	09H
	DB	026H
	DB	09H
	DB	026H
	DB	09H
	DB	06H
	DB	09H
	DB	05H
	DB	09H
	DB	05H
	DB	09H
	DB	05H
	DB	09H
	DB	05H
	DB	09H
	DB	05H
	DB	09H
	DB	05H
	DB	09H
	DB	05H
	DB	09H
	DB	05H
	DB	09H
	DB	05H
	DB	09H
	DB	05H
	DB	09H
	DB	05H
	DB	09H
	DB	05H
	DB	09H
	DB	05H
	DB	09H
	DB	05H
	DB	09H
	DB	05H
	DB	09H
	DB	0e5H
	DB	08H
	DB	0e5H
	DB	08H
	DB	0e5H
	DB	08H
	DB	0e5H
	DB	08H
	DB	0e5H
	DB	08H
	DB	0e5H
	DB	08H
	DB	0e5H
	DB	08H
	DB	0e5H
	DB	08H
	DB	0e4H
	DB	08H
	DB	0e4H
	DB	08H
	DB	0e4H
	DB	08H
	DB	0e4H
	DB	08H
	DB	0e4H
	DB	08H
	DB	0e4H
	DB	08H
	DB	0e4H
	DB	08H
	DB	0e4H
	DB	08H
	DB	0c4H
	DB	08H
	DB	0c4H
	DB	08H
	DB	0c4H
	DB	08H
	DB	0c4H
	DB	08H
	DB	0c4H
	DB	08H
	DB	0c4H
	DB	08H
	DB	0c4H
	DB	08H
	DB	0c4H
	DB	08H
	DB	0c4H
	DB	08H
	DB	0c4H
	DB	08H
	DB	0c4H
	DB	08H
	DB	0c4H
	DB	08H
	DB	0c4H
	DB	08H
	DB	0c4H
	DB	08H
	DB	0c4H
	DB	08H
	DB	0a3H
	DB	08H
	DB	0a3H
	DB	08H
	DB	0a3H
	DB	08H
	DB	0a3H
	DB	00H
	DB	0a3H
	DB	00H
	DB	0a3H
	DB	00H
	DB	0a3H
	DB	00H
	DB	0a3H
	DB	00H
	DB	0a3H
	DB	00H
	DB	0a3H
	DB	00H
	DB	0a3H
	DB	00H
	DB	0a3H
	DB	00H
	DB	0a3H
	DB	00H
	DB	0a3H
	DB	00H
	DB	0a3H
	DB	00H
	DB	0a3H
	DB	00H
	DB	0a3H
	DB	00H
	DB	0a3H
	DB	00H
	DB	0a3H
	DB	00H
	DB	0a3H
	DB	00H
	DB	0a3H
	DB	00H
	DB	0a3H
	DB	00H
	DB	0a3H
	DB	00H
	DB	0a3H
	DB	00H
	DB	0a3H
	DB	00H
	DB	0a3H
	DB	00H
	DB	0a3H
	DB	00H
	DB	0a3H
	DB	00H
	DB	0a3H
	DB	00H
	DB	0a3H
	DB	00H
	DB	0e4H
	DB	08H
	DB	0e4H
	DB	08H
	DB	0e4H
	DB	08H
	DB	0e4H
	DB	08H
	DB	0e4H
	DB	08H
	DB	0e4H
	DB	08H
	DB	0e4H
	DB	08H
	DB	0e4H
	DB	08H
	DB	0e4H
	DB	08H
	DB	0c4H
	DB	08H
	DB	0e4H
	DB	08H
	DB	0e4H
	DB	08H
	DB	0e4H
	DB	08H
	DB	0e4H
	DB	08H
	DB	0e4H
	DB	08H
	DB	0e4H
	DB	08H
	DB	0e4H
	DB	08H
	DB	0e4H
	DB	08H
	DB	0e4H
	DB	08H
	DB	0e4H
	DB	08H
	DB	0e4H
	DB	08H
	DB	0e4H
	DB	08H
	DB	0e4H
	DB	08H
	DB	0c4H
	DB	08H
	DB	0e4H
	DB	08H
	DB	0e4H
	DB	08H
	DB	0e4H
	DB	08H
	DB	0e4H
	DB	08H
	DB	0e4H
	DB	08H
	DB	0e4H
	DB	08H
	DB	0e4H
	DB	08H
	DB	0c4H
	DB	08H
	DB	0e4H
	DB	08H
	DB	0e4H
	DB	08H
	DB	0e4H
	DB	08H
	DB	0e4H
	DB	08H
	DB	0e4H
	DB	08H
	DB	0e4H
	DB	08H
	DB	0e4H
	DB	08H
	DB	0e4H
	DB	08H
	DB	0e4H
	DB	08H
	DB	0c4H
	DB	08H
	DB	0e4H
	DB	08H
	DB	0e4H
	DB	08H
	DB	0e4H
	DB	08H
	DB	0e4H
	DB	08H
	DB	0e4H
	DB	08H
	DB	0e4H
	DB	08H
	DB	0e4H
	DB	08H
	DB	0e4H
	DB	08H
	DB	0e4H
	DB	08H
	DB	0e4H
	DB	08H
	DB	0e4H
	DB	08H
	DB	0c9H
	DB	011H
	DB	0c9H
	DB	011H
	DB	0c9H
	DB	011H
	DB	0c9H
	DB	011H
	DB	0c9H
	DB	011H
	DB	0c9H
	DB	011H
	DB	0c9H
	DB	011H
	DB	0c9H
	DB	011H
	DB	0c9H
	DB	011H
	DB	0c9H
	DB	011H
	DB	0c9H
	DB	011H
	DB	0c9H
	DB	011H
	DB	0c9H
	DB	011H
	DB	0c9H
	DB	011H
	DB	0c9H
	DB	011H
	DB	0c9H
	DB	011H
	DB	0c9H
	DB	011H
	DB	0c9H
	DB	011H
	DB	0c9H
	DB	011H
	DB	0c9H
	DB	011H
	DB	0c9H
	DB	011H
	DB	0c9H
	DB	011H
	DB	0c9H
	DB	011H
	DB	0c9H
	DB	011H
	DB	0c9H
	DB	011H
	DB	0c9H
	DB	011H
	DB	0c9H
	DB	011H
	DB	0c9H
	DB	011H
	DB	0c9H
	DB	011H
	DB	0c9H
	DB	011H
	DB	0c9H
	DB	011H
	DB	0c9H
	DB	011H
	DB	0c9H
	DB	011H
	DB	0a9H
	DB	011H
	DB	0a9H
	DB	011H
	DB	0a9H
	DB	011H
	DB	0a9H
	DB	011H
	DB	0a9H
	DB	011H
	DB	0a9H
	DB	011H
	DB	0a9H
	DB	011H
	DB	0a9H
	DB	011H
	DB	0a8H
	DB	011H
	DB	0a8H
	DB	011H
	DB	0a8H
	DB	011H
	DB	0a8H
	DB	011H
	DB	0a8H
	DB	011H
	DB	0a8H
	DB	011H
	DB	0a8H
	DB	011H
	DB	088H
	DB	011H
	DB	088H
	DB	011H
	DB	088H
	DB	011H
	DB	088H
	DB	011H
	DB	088H
	DB	011H
	DB	088H
	DB	011H
	DB	088H
	DB	011H
	DB	088H
	DB	011H
	DB	088H
	DB	011H
	DB	088H
	DB	011H
	DB	088H
	DB	011H
	DB	088H
	DB	011H
	DB	088H
	DB	011H
	DB	088H
	DB	011H
	DB	088H
	DB	011H
	DB	088H
	DB	011H
	DB	067H
	DB	011H
	DB	067H
	DB	011H
	DB	067H
	DB	011H
	DB	067H
	DB	011H
	DB	067H
	DB	011H
	DB	067H
	DB	011H
	DB	067H
	DB	011H
	DB	067H
	DB	011H
	DB	067H
	DB	011H
	DB	067H
	DB	011H
	DB	067H
	DB	011H
	DB	067H
	DB	011H
	DB	067H
	DB	011H
	DB	067H
	DB	011H
	DB	067H
	DB	011H
	DB	047H
	DB	011H
	DB	047H
	DB	011H
	DB	047H
	DB	011H
	DB	047H
	DB	011H
	DB	047H
	DB	011H
	DB	047H
	DB	011H
	DB	047H
	DB	011H
	DB	047H
	DB	011H
	DB	047H
	DB	09H
	DB	046H
	DB	09H
	DB	046H
	DB	09H
	DB	046H
	DB	09H
	DB	046H
	DB	09H
	DB	046H
	DB	09H
	DB	046H
	DB	09H
	DB	046H
	DB	09H
	DB	026H
	DB	09H
	DB	026H
	DB	09H
	DB	026H
	DB	09H
	DB	026H
	DB	09H
	DB	026H
	DB	09H
	DB	026H
	DB	09H
	DB	026H
	DB	09H
	DB	026H
	DB	09H
	DB	026H
	DB	09H
	DB	026H
	DB	09H
	DB	026H
	DB	09H
	DB	026H
	DB	09H
	DB	026H
	DB	09H
	DB	026H
	DB	09H
	DB	026H
	DB	09H
	DB	06H
	DB	09H
	DB	05H
	DB	09H
	DB	05H
	DB	09H
	DB	05H
	DB	09H
	DB	05H
	DB	09H
	DB	05H
	DB	09H
	DB	05H
	DB	09H
	DB	05H
	DB	09H
	DB	05H
	DB	09H
	DB	05H
	DB	09H
	DB	05H
	DB	09H
	DB	05H
	DB	09H
	DB	05H
	DB	09H
	DB	05H
	DB	09H
	DB	05H
	DB	09H
	DB	05H
	DB	09H
	DB	0e5H
	DB	08H
	DB	0e5H
	DB	08H
	DB	0e5H
	DB	08H
	DB	0e5H
	DB	08H
	DB	0e5H
	DB	08H
	DB	0e5H
	DB	08H
	DB	0e5H
	DB	08H
	DB	0e5H
	DB	08H
	DB	0e4H
	DB	08H
	DB	0e4H
	DB	08H
	DB	0e4H
	DB	08H
	DB	0e4H
	DB	08H
	DB	0e4H
	DB	08H
	DB	0e4H
	DB	08H
	DB	0e4H
	DB	08H
	DB	0e4H
	DB	08H
	DB	0c4H
	DB	08H
	DB	0c4H
	DB	08H
	DB	0c4H
	DB	08H
	DB	0c4H
	DB	08H
	DB	0c4H
	DB	08H
	DB	0c4H
	DB	08H
	DB	0c4H
	DB	08H
	DB	0c4H
	DB	08H
	DB	0c4H
	DB	08H
	DB	0c4H
	DB	08H
	DB	0c4H
	DB	08H
	DB	0c4H
	DB	08H
	DB	0c4H
	DB	08H
	DB	0c4H
	DB	08H
	DB	0c4H
	DB	08H
	DB	0a3H
	DB	08H
	DB	0a3H
	DB	08H
	DB	0a3H
	DB	08H
	DB	0a3H
	DB	00H
	DB	0a3H
	DB	00H
	DB	0a3H
	DB	00H
	DB	0a3H
	DB	00H
	DB	0a3H
	DB	00H
	DB	0a3H
	DB	00H
	DB	0a3H
	DB	00H
	DB	0a3H
	DB	00H
	DB	0a3H
	DB	00H
	DB	0a3H
	DB	00H
	DB	0a3H
	DB	00H
	DB	0a3H
	DB	00H
	DB	0a3H
	DB	00H
	DB	0a3H
	DB	00H
	DB	0a3H
	DB	00H
	DB	0a3H
	DB	00H
	DB	0a3H
	DB	00H
	DB	0a3H
	DB	00H
	DB	0a3H
	DB	00H
	DB	0a3H
	DB	00H
	DB	0a3H
	DB	00H
	DB	0a3H
	DB	00H
	DB	0a3H
	DB	00H
	DB	0a3H
	DB	00H
	DB	0a3H
	DB	00H
	DB	0a3H
	DB	00H
	DB	0a3H
	DB	00H
	DB	0e4H
	DB	08H
	DB	0e4H
	DB	08H
	DB	0e4H
	DB	08H
	DB	0e4H
	DB	08H
	DB	0e4H
	DB	08H
	DB	0e4H
	DB	08H
	DB	0e4H
	DB	08H
	DB	0e4H
	DB	08H
	DB	0e4H
	DB	08H
	DB	0e4H
	DB	08H
	DB	0e4H
	DB	08H
	DB	0e4H
	DB	08H
	DB	0e4H
	DB	08H
	DB	0e4H
	DB	08H
	DB	0e4H
	DB	08H
	DB	0e4H
	DB	08H
	DB	0e4H
	DB	08H
	DB	0e4H
	DB	08H
	DB	0e4H
	DB	08H
	DB	0e4H
	DB	08H
	DB	0e4H
	DB	08H
	DB	0e4H
	DB	08H
	DB	0e4H
	DB	08H
	DB	0e4H
	DB	08H
	DB	0e4H
	DB	08H
	DB	0e4H
	DB	08H
	DB	0e4H
	DB	08H
	DB	0e4H
	DB	08H
	DB	0e4H
	DB	08H
	DB	0e4H
	DB	08H
	DB	0e4H
	DB	08H
	DB	0e4H
	DB	08H
	DB	0c4H
	DB	08H
	DB	0e4H
	DB	08H
	DB	0e4H
	DB	08H
	DB	0e4H
	DB	08H
	DB	0e4H
	DB	08H
	DB	0e4H
	DB	08H
	DB	0e4H
	DB	08H
	DB	0e4H
	DB	08H
	DB	0e4H
	DB	08H
	DB	0e4H
	DB	08H
	DB	0e4H
	DB	08H
	DB	0e4H
	DB	08H
	DB	0e4H
	DB	08H
	DB	0e4H
	DB	08H
	DB	0e4H
	DB	08H
	DB	0e4H
	DB	08H
	DB	0e4H
	DB	08H
	DB	0e4H
	DB	08H
	DB	0e4H
	DB	08H
	DB	0e4H
	DB	08H
	DB	0e4H
	DB	08H
	DB	0c9H
	DB	011H
	DB	0c9H
	DB	011H
	DB	0c9H
	DB	011H
	DB	0c9H
	DB	011H
	DB	0c9H
	DB	011H
	DB	0c9H
	DB	011H
	DB	0c9H
	DB	011H
	DB	0c9H
	DB	011H
	DB	0c9H
	DB	011H
	DB	0c9H
	DB	011H
	DB	0c9H
	DB	011H
	DB	0c9H
	DB	011H
	DB	0c9H
	DB	011H
	DB	0c9H
	DB	011H
	DB	0c9H
	DB	011H
	DB	0c9H
	DB	011H
	DB	0c9H
	DB	011H
	DB	0c9H
	DB	011H
	DB	0c9H
	DB	011H
	DB	0c9H
	DB	011H
	DB	0c9H
	DB	011H
	DB	0c9H
	DB	011H
	DB	0c9H
	DB	011H
	DB	0c9H
	DB	011H
	DB	0c9H
	DB	011H
	DB	0c9H
	DB	011H
	DB	0c9H
	DB	011H
	DB	0c9H
	DB	011H
	DB	0c9H
	DB	011H
	DB	0c9H
	DB	011H
	DB	0c9H
	DB	011H
	DB	0c9H
	DB	011H
	DB	0c9H
	DB	011H
	DB	0a9H
	DB	011H
	DB	0a9H
	DB	011H
	DB	0a9H
	DB	011H
	DB	0a9H
	DB	011H
	DB	0a9H
	DB	011H
	DB	0a9H
	DB	011H
	DB	0a9H
	DB	011H
	DB	0a9H
	DB	011H
	DB	0a8H
	DB	011H
	DB	0a8H
	DB	011H
	DB	0a8H
	DB	011H
	DB	0a8H
	DB	011H
	DB	0a8H
	DB	011H
	DB	0a8H
	DB	011H
	DB	0a8H
	DB	011H
	DB	088H
	DB	011H
	DB	088H
	DB	011H
	DB	088H
	DB	011H
	DB	088H
	DB	011H
	DB	088H
	DB	011H
	DB	088H
	DB	011H
	DB	088H
	DB	011H
	DB	088H
	DB	011H
	DB	088H
	DB	011H
	DB	088H
	DB	011H
	DB	088H
	DB	011H
	DB	088H
	DB	011H
	DB	088H
	DB	011H
	DB	088H
	DB	011H
	DB	088H
	DB	011H
	DB	088H
	DB	011H
	DB	067H
	DB	011H
	DB	067H
	DB	011H
	DB	067H
	DB	011H
	DB	067H
	DB	011H
	DB	067H
	DB	011H
	DB	067H
	DB	011H
	DB	067H
	DB	011H
	DB	067H
	DB	011H
	DB	067H
	DB	011H
	DB	067H
	DB	011H
	DB	067H
	DB	011H
	DB	067H
	DB	011H
	DB	067H
	DB	011H
	DB	067H
	DB	011H
	DB	067H
	DB	011H
	DB	047H
	DB	011H
	DB	047H
	DB	011H
	DB	047H
	DB	011H
	DB	047H
	DB	011H
	DB	047H
	DB	011H
	DB	047H
	DB	011H
	DB	047H
	DB	011H
	DB	047H
	DB	011H
	DB	047H
	DB	09H
	DB	046H
	DB	09H
	DB	046H
	DB	09H
	DB	046H
	DB	09H
	DB	046H
	DB	09H
	DB	046H
	DB	09H
	DB	046H
	DB	09H
	DB	046H
	DB	09H
	DB	026H
	DB	09H
	DB	026H
	DB	09H
	DB	026H
	DB	09H
	DB	026H
	DB	09H
	DB	026H
	DB	09H
	DB	026H
	DB	09H
	DB	026H
	DB	09H
	DB	026H
	DB	09H
	DB	026H
	DB	09H
	DB	026H
	DB	09H
	DB	026H
	DB	09H
	DB	026H
	DB	09H
	DB	026H
	DB	09H
	DB	026H
	DB	09H
	DB	026H
	DB	09H
	DB	06H
	DB	09H
	DB	05H
	DB	09H
	DB	05H
	DB	09H
	DB	05H
	DB	09H
	DB	05H
	DB	09H
	DB	05H
	DB	09H
	DB	05H
	DB	09H
	DB	05H
	DB	09H
	DB	05H
	DB	09H
	DB	05H
	DB	09H
	DB	05H
	DB	09H
	DB	05H
	DB	09H
	DB	05H
	DB	09H
	DB	05H
	DB	09H
	DB	05H
	DB	09H
	DB	05H
	DB	09H
	DB	0e5H
	DB	08H
	DB	0e5H
	DB	08H
	DB	0e5H
	DB	08H
	DB	0e5H
	DB	08H
	DB	0e5H
	DB	08H
	DB	0e5H
	DB	08H
	DB	0e5H
	DB	08H
	DB	0e5H
	DB	08H
	DB	0e4H
	DB	08H
	DB	0e4H
	DB	08H
	DB	0e4H
	DB	08H
	DB	0e4H
	DB	08H
	DB	0e4H
	DB	08H
	DB	0e4H
	DB	08H
	DB	0e4H
	DB	08H
	DB	0e4H
	DB	08H
	DB	0c4H
	DB	08H
	DB	0c4H
	DB	08H
	DB	0c4H
	DB	08H
	DB	0c4H
	DB	08H
	DB	0c4H
	DB	08H
	DB	0c4H
	DB	08H
	DB	0c4H
	DB	08H
	DB	0c4H
	DB	08H
	DB	0c4H
	DB	08H
	DB	0c4H
	DB	08H
	DB	0c4H
	DB	08H
	DB	0c4H
	DB	08H
	DB	0c4H
	DB	08H
	DB	0c4H
	DB	08H
	DB	0c4H
	DB	08H
	DB	0a3H
	DB	08H
	DB	0a3H
	DB	08H
	DB	0a3H
	DB	08H
	DB	0a3H
	DB	00H
	DB	0a3H
	DB	00H
	DB	0a3H
	DB	00H
	DB	0a3H
	DB	00H
	DB	0a3H
	DB	00H
	DB	0a3H
	DB	00H
	DB	0a3H
	DB	00H
	DB	0a3H
	DB	00H
	DB	0a3H
	DB	00H
	DB	0a3H
	DB	00H
	DB	0a3H
	DB	00H
	DB	0a3H
	DB	00H
	DB	0a3H
	DB	00H
	DB	0a3H
	DB	00H
	DB	0a3H
	DB	00H
	DB	0a3H
	DB	00H
	DB	0a3H
	DB	00H
	DB	0a3H
	DB	00H
	DB	0a3H
	DB	00H
	DB	0a3H
	DB	00H
	DB	0a3H
	DB	00H
	DB	0a3H
	DB	00H
	DB	0a3H
	DB	00H
	DB	0a3H
	DB	00H
	DB	0a3H
	DB	00H
	DB	0a3H
	DB	00H
	DB	0a3H
	DB	00H
	DB	0e4H
	DB	08H
	DB	0e4H
	DB	08H
	DB	0e4H
	DB	08H
	DB	0e4H
	DB	08H
	DB	0e4H
	DB	08H
	DB	0e4H
	DB	08H
	DB	0e4H
	DB	08H
	DB	0e4H
	DB	08H
	DB	0e4H
	DB	08H
	DB	0e4H
	DB	08H
	DB	0e4H
	DB	08H
	DB	0e4H
	DB	08H
	DB	0e4H
	DB	08H
	DB	0e4H
	DB	08H
	DB	0e4H
	DB	08H
	DB	0e4H
	DB	08H
	DB	0e4H
	DB	08H
	DB	0e4H
	DB	08H
	DB	0e4H
	DB	08H
	DB	0e4H
	DB	08H
	DB	0e4H
	DB	08H
	DB	0e4H
	DB	08H
	DB	0e4H
	DB	08H
	DB	0e4H
	DB	08H
	DB	0e4H
	DB	08H
	DB	0e4H
	DB	08H
	DB	0e4H
	DB	08H
	DB	0e4H
	DB	08H
	DB	0e4H
	DB	08H
	DB	0e4H
	DB	08H
	DB	0e4H
	DB	08H
	DB	0e4H
	DB	08H
	DB	0e4H
	DB	08H
	DB	0e4H
	DB	08H
	DB	0e4H
	DB	08H
	DB	0e4H
	DB	08H
	DB	0e4H
	DB	08H
	DB	0e4H
	DB	08H
	DB	0e4H
	DB	08H
	DB	0e4H
	DB	08H
	DB	0e4H
	DB	08H
	DB	0e4H
	DB	08H
	DB	0e4H
	DB	08H
	DB	0e4H
	DB	08H
	DB	0e4H
	DB	08H
	DB	0e4H
	DB	08H
	DB	0e4H
	DB	08H
	DB	0e4H
	DB	08H
	DB	0e4H
	DB	08H
	DB	0e4H
	DB	08H
	DB	0e4H
	DB	08H
	DB	0e4H
	DB	08H
	DB	0e4H
	DB	08H
	DB	0c9H
	DB	011H
	DB	0c9H
	DB	011H
	DB	0c9H
	DB	011H
	DB	0c9H
	DB	011H
	DB	0c9H
	DB	011H
	DB	0c9H
	DB	011H
	DB	0c9H
	DB	011H
	DB	0c9H
	DB	011H
	DB	0c9H
	DB	011H
	DB	0c9H
	DB	011H
	DB	0c9H
	DB	011H
	DB	0c9H
	DB	011H
	DB	0c9H
	DB	011H
	DB	0c9H
	DB	011H
	DB	0c9H
	DB	011H
	DB	0c9H
	DB	011H
	DB	0c9H
	DB	011H
	DB	0c9H
	DB	011H
	DB	0c9H
	DB	011H
	DB	0c9H
	DB	011H
	DB	0c9H
	DB	011H
	DB	0c9H
	DB	011H
	DB	0c9H
	DB	011H
	DB	0c9H
	DB	011H
	DB	0c9H
	DB	011H
	DB	0c9H
	DB	011H
	DB	0c9H
	DB	011H
	DB	0c9H
	DB	011H
	DB	0c9H
	DB	011H
	DB	0c9H
	DB	011H
	DB	0c9H
	DB	011H
	DB	0c9H
	DB	011H
	DB	0c9H
	DB	011H
	DB	0a9H
	DB	011H
	DB	0a9H
	DB	011H
	DB	0a9H
	DB	011H
	DB	0a9H
	DB	011H
	DB	0a9H
	DB	011H
	DB	0a9H
	DB	011H
	DB	0a9H
	DB	011H
	DB	0a9H
	DB	011H
	DB	0a8H
	DB	011H
	DB	0a8H
	DB	011H
	DB	0a8H
	DB	011H
	DB	0a8H
	DB	011H
	DB	0a8H
	DB	011H
	DB	0a8H
	DB	011H
	DB	0a8H
	DB	011H
	DB	088H
	DB	011H
	DB	088H
	DB	011H
	DB	088H
	DB	011H
	DB	088H
	DB	011H
	DB	088H
	DB	011H
	DB	088H
	DB	011H
	DB	088H
	DB	011H
	DB	088H
	DB	011H
	DB	088H
	DB	011H
	DB	088H
	DB	011H
	DB	088H
	DB	011H
	DB	088H
	DB	011H
	DB	088H
	DB	011H
	DB	088H
	DB	011H
	DB	088H
	DB	011H
	DB	088H
	DB	011H
	DB	067H
	DB	011H
	DB	067H
	DB	011H
	DB	067H
	DB	011H
	DB	067H
	DB	011H
	DB	067H
	DB	011H
	DB	067H
	DB	011H
	DB	067H
	DB	011H
	DB	067H
	DB	011H
	DB	067H
	DB	011H
	DB	067H
	DB	011H
	DB	067H
	DB	011H
	DB	067H
	DB	011H
	DB	067H
	DB	011H
	DB	067H
	DB	011H
	DB	067H
	DB	011H
	DB	047H
	DB	011H
	DB	047H
	DB	011H
	DB	047H
	DB	011H
	DB	047H
	DB	011H
	DB	047H
	DB	011H
	DB	047H
	DB	011H
	DB	047H
	DB	011H
	DB	047H
	DB	011H
	DB	047H
	DB	09H
	DB	046H
	DB	09H
	DB	046H
	DB	09H
	DB	046H
	DB	09H
	DB	046H
	DB	09H
	DB	046H
	DB	09H
	DB	046H
	DB	09H
	DB	046H
	DB	09H
	DB	026H
	DB	09H
	DB	026H
	DB	09H
	DB	026H
	DB	09H
	DB	026H
	DB	09H
	DB	026H
	DB	09H
	DB	026H
	DB	09H
	DB	026H
	DB	09H
	DB	026H
	DB	09H
	DB	026H
	DB	09H
	DB	026H
	DB	09H
	DB	026H
	DB	09H
	DB	026H
	DB	09H
	DB	026H
	DB	09H
	DB	026H
	DB	09H
	DB	026H
	DB	09H
	DB	06H
	DB	09H
	DB	05H
	DB	09H
	DB	05H
	DB	09H
	DB	05H
	DB	09H
	DB	05H
	DB	09H
	DB	05H
	DB	09H
	DB	05H
	DB	09H
	DB	05H
	DB	09H
	DB	05H
	DB	09H
	DB	05H
	DB	09H
	DB	05H
	DB	09H
	DB	05H
	DB	09H
	DB	05H
	DB	09H
	DB	05H
	DB	09H
	DB	05H
	DB	09H
	DB	05H
	DB	09H
	DB	0e5H
	DB	08H
	DB	0e5H
	DB	08H
	DB	0e5H
	DB	08H
	DB	0e5H
	DB	08H
	DB	0e5H
	DB	08H
	DB	0e5H
	DB	08H
	DB	0e5H
	DB	08H
	DB	0e5H
	DB	08H
	DB	0e4H
	DB	08H
	DB	0e4H
	DB	08H
	DB	0e4H
	DB	08H
	DB	0e4H
	DB	08H
	DB	0e4H
	DB	08H
	DB	0e4H
	DB	08H
	DB	0e4H
	DB	08H
	DB	0e4H
	DB	08H
	DB	0c4H
	DB	08H
	DB	0c4H
	DB	08H
	DB	0c4H
	DB	08H
	DB	0c4H
	DB	08H
	DB	0c4H
	DB	08H
	DB	0c4H
	DB	08H
	DB	0c4H
	DB	08H
	DB	0c4H
	DB	08H
	DB	0c4H
	DB	08H
	DB	0c4H
	DB	08H
	DB	0c4H
	DB	08H
	DB	0c4H
	DB	08H
	DB	0c4H
	DB	08H
	DB	0c4H
	DB	08H
	DB	0c4H
	DB	08H
	DB	0a3H
	DB	08H
	DB	0a3H
	DB	08H
	DB	0a3H
	DB	08H
	DB	0a3H
	DB	00H
	DB	0a3H
	DB	00H
	DB	0a3H
	DB	00H
	DB	0a3H
	DB	00H
	DB	0a3H
	DB	00H
	DB	0a3H
	DB	00H
	DB	0a3H
	DB	00H
	DB	0a3H
	DB	00H
	DB	0a3H
	DB	00H
	DB	0a3H
	DB	00H
	DB	0a3H
	DB	00H
	DB	0a3H
	DB	00H
	DB	0a3H
	DB	00H
	DB	0a3H
	DB	00H
	DB	0a3H
	DB	00H
	DB	0a3H
	DB	00H
	DB	0a3H
	DB	00H
	DB	0a3H
	DB	00H
	DB	0a3H
	DB	00H
	DB	0a3H
	DB	00H
	DB	0a3H
	DB	00H
	DB	0a3H
	DB	00H
	DB	0a3H
	DB	00H
	DB	0a3H
	DB	00H
	DB	0a3H
	DB	00H
	DB	0a3H
	DB	00H
	DB	0a3H
	DB	00H
	DB	0e4H
	DB	08H
	DB	0e4H
	DB	08H
	DB	0e4H
	DB	08H
	DB	0e4H
	DB	08H
	DB	0e4H
	DB	08H
	DB	0e4H
	DB	08H
	DB	0e4H
	DB	08H
	DB	0e4H
	DB	08H
	DB	0e4H
	DB	08H
	DB	0e4H
	DB	08H
	DB	0e4H
	DB	08H
	DB	0e4H
	DB	08H
	DB	0e4H
	DB	08H
	DB	0e4H
	DB	08H
	DB	0e4H
	DB	08H
	DB	0e4H
	DB	08H
	DB	0e4H
	DB	08H
	DB	0e4H
	DB	08H
	DB	0e4H
	DB	08H
	DB	0e4H
	DB	08H
	DB	0e4H
	DB	08H
	DB	0e4H
	DB	08H
	DB	0e4H
	DB	08H
	DB	0e4H
	DB	08H
	DB	0e4H
	DB	08H
	DB	0e4H
	DB	08H
	DB	0e4H
	DB	08H
	DB	0e4H
	DB	08H
	DB	0e4H
	DB	08H
	DB	0e4H
	DB	08H
	DB	0e4H
	DB	08H
	DB	0e4H
	DB	08H
	DB	0e4H
	DB	08H
	DB	0e4H
	DB	08H
	DB	0e4H
	DB	08H
	DB	0e4H
	DB	08H
	DB	0e4H
	DB	08H
	DB	0e4H
	DB	08H
	DB	0e4H
	DB	08H
	DB	0e4H
	DB	08H
	DB	0e4H
	DB	08H
	DB	0e4H
	DB	08H
	DB	0e4H
	DB	08H
	DB	0e4H
	DB	08H
	DB	0e4H
	DB	08H
	DB	0e4H
	DB	08H
	DB	0e4H
	DB	08H
	DB	0e4H
	DB	08H
	DB	0e4H
	DB	08H
	DB	0e4H
	DB	08H
	DB	0e4H
	DB	08H
	DB	0e4H
	DB	08H
	DB	0e4H
	DB	08H
	DB	0c9H
	DB	011H
	DB	0c9H
	DB	011H
	DB	0c9H
	DB	011H
	DB	0c9H
	DB	011H
	DB	0c9H
	DB	011H
	DB	0c9H
	DB	011H
	DB	0c9H
	DB	011H
	DB	0c9H
	DB	011H
	DB	0c9H
	DB	011H
	DB	0c9H
	DB	011H
	DB	0c9H
	DB	011H
	DB	0c9H
	DB	011H
	DB	0c9H
	DB	011H
	DB	0c9H
	DB	011H
	DB	0c9H
	DB	011H
	DB	0c9H
	DB	011H
	DB	0c9H
	DB	011H
	DB	0c9H
	DB	011H
	DB	0c9H
	DB	011H
	DB	0c9H
	DB	011H
	DB	0c9H
	DB	011H
	DB	0c9H
	DB	011H
	DB	0c9H
	DB	011H
	DB	0c9H
	DB	011H
	DB	0c9H
	DB	011H
	DB	0c9H
	DB	011H
	DB	0c9H
	DB	011H
	DB	0c9H
	DB	011H
	DB	0c9H
	DB	011H
	DB	0c9H
	DB	011H
	DB	0c9H
	DB	011H
	DB	0c9H
	DB	011H
	DB	0c9H
	DB	011H
	DB	0a9H
	DB	011H
	DB	0a9H
	DB	011H
	DB	0a9H
	DB	011H
	DB	0a9H
	DB	011H
	DB	0a9H
	DB	011H
	DB	0a9H
	DB	011H
	DB	0a9H
	DB	011H
	DB	0a9H
	DB	011H
	DB	0a8H
	DB	011H
	DB	0a8H
	DB	011H
	DB	0a8H
	DB	011H
	DB	0a8H
	DB	011H
	DB	0a8H
	DB	011H
	DB	0a8H
	DB	011H
	DB	0a8H
	DB	011H
	DB	088H
	DB	011H
	DB	088H
	DB	011H
	DB	088H
	DB	011H
	DB	088H
	DB	011H
	DB	088H
	DB	011H
	DB	088H
	DB	011H
	DB	088H
	DB	011H
	DB	088H
	DB	011H
	DB	088H
	DB	011H
	DB	088H
	DB	011H
	DB	088H
	DB	011H
	DB	088H
	DB	011H
	DB	088H
	DB	011H
	DB	088H
	DB	011H
	DB	088H
	DB	011H
	DB	088H
	DB	011H
	DB	067H
	DB	011H
	DB	067H
	DB	011H
	DB	067H
	DB	011H
	DB	067H
	DB	011H
	DB	067H
	DB	011H
	DB	067H
	DB	011H
	DB	067H
	DB	011H
	DB	067H
	DB	011H
	DB	067H
	DB	011H
	DB	067H
	DB	011H
	DB	067H
	DB	011H
	DB	067H
	DB	011H
	DB	067H
	DB	011H
	DB	067H
	DB	011H
	DB	067H
	DB	011H
	DB	047H
	DB	011H
	DB	047H
	DB	011H
	DB	047H
	DB	011H
	DB	047H
	DB	011H
	DB	047H
	DB	011H
	DB	047H
	DB	011H
	DB	047H
	DB	011H
	DB	047H
	DB	011H
	DB	047H
	DB	09H
	DB	046H
	DB	09H
	DB	046H
	DB	09H
	DB	046H
	DB	09H
	DB	046H
	DB	09H
	DB	046H
	DB	09H
	DB	046H
	DB	09H
	DB	046H
	DB	09H
	DB	026H
	DB	09H
	DB	026H
	DB	09H
	DB	026H
	DB	09H
	DB	026H
	DB	09H
	DB	026H
	DB	09H
	DB	026H
	DB	09H
	DB	026H
	DB	09H
	DB	026H
	DB	09H
	DB	026H
	DB	09H
	DB	026H
	DB	09H
	DB	026H
	DB	09H
	DB	026H
	DB	09H
	DB	026H
	DB	09H
	DB	026H
	DB	09H
	DB	026H
	DB	09H
	DB	06H
	DB	09H
	DB	05H
	DB	09H
	DB	05H
	DB	09H
	DB	05H
	DB	09H
	DB	05H
	DB	09H
	DB	05H
	DB	09H
	DB	05H
	DB	09H
	DB	05H
	DB	09H
	DB	05H
	DB	09H
	DB	05H
	DB	09H
	DB	05H
	DB	09H
	DB	05H
	DB	09H
	DB	05H
	DB	09H
	DB	05H
	DB	09H
	DB	05H
	DB	09H
	DB	05H
	DB	09H
	DB	0e5H
	DB	08H
	DB	0e5H
	DB	08H
	DB	0e5H
	DB	08H
	DB	0e5H
	DB	08H
	DB	0e5H
	DB	08H
	DB	0e5H
	DB	08H
	DB	0e5H
	DB	08H
	DB	0e5H
	DB	08H
	DB	0e4H
	DB	08H
	DB	0e4H
	DB	08H
	DB	0e4H
	DB	08H
	DB	0e4H
	DB	08H
	DB	0e4H
	DB	08H
	DB	0e4H
	DB	08H
	DB	0e4H
	DB	08H
	DB	0e4H
	DB	08H
	DB	0c4H
	DB	08H
	DB	0c4H
	DB	08H
	DB	0c4H
	DB	08H
	DB	0c4H
	DB	08H
	DB	0c4H
	DB	08H
	DB	0c4H
	DB	08H
	DB	0c4H
	DB	08H
	DB	0c4H
	DB	08H
	DB	0c4H
	DB	08H
	DB	0c4H
	DB	08H
	DB	0c4H
	DB	08H
	DB	0c4H
	DB	08H
	DB	0c4H
	DB	08H
	DB	0c4H
	DB	08H
	DB	0c4H
	DB	08H
	DB	0a3H
	DB	08H
	DB	0a3H
	DB	08H
	DB	0a3H
	DB	08H
	DB	0a3H
	DB	00H
	DB	0a3H
	DB	00H
	DB	0a3H
	DB	00H
	DB	0a3H
	DB	00H
	DB	0a3H
	DB	00H
	DB	0a3H
	DB	00H
	DB	0a3H
	DB	00H
	DB	0a3H
	DB	00H
	DB	0a3H
	DB	00H
	DB	0a3H
	DB	00H
	DB	0a3H
	DB	00H
	DB	0a3H
	DB	00H
	DB	0a3H
	DB	00H
	DB	0a3H
	DB	00H
	DB	0a3H
	DB	00H
	DB	0a3H
	DB	00H
	DB	0a3H
	DB	00H
	DB	0a3H
	DB	00H
	DB	0a3H
	DB	00H
	DB	0a3H
	DB	00H
	DB	0a3H
	DB	00H
	DB	0a3H
	DB	00H
	DB	0a3H
	DB	00H
	DB	0a3H
	DB	00H
	DB	0a3H
	DB	00H
	DB	0a3H
	DB	00H
	DB	0a3H
	DB	00H
	DB	0e4H
	DB	08H
	DB	0e4H
	DB	08H
	DB	0e4H
	DB	08H
	DB	0e4H
	DB	08H
	DB	0e4H
	DB	08H
	DB	0e4H
	DB	08H
	DB	0e4H
	DB	08H
	DB	0e4H
	DB	08H
	DB	0e4H
	DB	08H
	DB	0e4H
	DB	08H
	DB	0e4H
	DB	08H
	DB	0e4H
	DB	08H
	DB	0e4H
	DB	08H
	DB	0e4H
	DB	08H
	DB	0e4H
	DB	08H
	DB	0e4H
	DB	08H
	DB	0e4H
	DB	08H
	DB	0e4H
	DB	08H
	DB	0e4H
	DB	08H
	DB	0e4H
	DB	08H
	DB	0e4H
	DB	08H
	DB	0e4H
	DB	08H
	DB	0e4H
	DB	08H
	DB	0e4H
	DB	08H
	DB	0e4H
	DB	08H
	DB	0e4H
	DB	08H
	DB	0e4H
	DB	08H
	DB	0e4H
	DB	08H
	DB	0e4H
	DB	08H
	DB	0e4H
	DB	08H
	DB	0e4H
	DB	08H
	DB	0e4H
	DB	08H
	DB	0e4H
	DB	08H
	DB	0e4H
	DB	08H
	DB	0e4H
	DB	08H
	DB	0e4H
	DB	08H
	DB	0e4H
	DB	08H
	DB	0e4H
	DB	08H
	DB	0e4H
	DB	08H
	DB	0e4H
	DB	08H
	DB	0e4H
	DB	08H
	DB	0e4H
	DB	08H
	DB	0e4H
	DB	08H
	DB	0e4H
	DB	08H
	DB	0e4H
	DB	08H
	DB	0e4H
	DB	08H
	DB	0e4H
	DB	08H
	DB	0e4H
	DB	08H
	DB	0e4H
	DB	08H
	DB	0e4H
	DB	08H
	DB	0e4H
	DB	08H
	DB	0e4H
	DB	08H
	DB	0e4H
	DB	08H
	DB	0c9H
	DB	011H
	DB	0c9H
	DB	011H
	DB	0c9H
	DB	011H
	DB	0c9H
	DB	011H
	DB	0c9H
	DB	011H
	DB	0c9H
	DB	011H
	DB	0c9H
	DB	011H
	DB	0c9H
	DB	011H
	DB	0c9H
	DB	011H
	DB	0c9H
	DB	011H
	DB	0c9H
	DB	011H
	DB	0c9H
	DB	011H
	DB	0c9H
	DB	011H
	DB	0c9H
	DB	011H
	DB	0c9H
	DB	011H
	DB	0c9H
	DB	011H
	DB	0c9H
	DB	011H
	DB	0c9H
	DB	011H
	DB	0c9H
	DB	011H
	DB	0c9H
	DB	011H
	DB	0c9H
	DB	011H
	DB	0c9H
	DB	011H
	DB	0c9H
	DB	011H
	DB	0c9H
	DB	011H
	DB	0c9H
	DB	011H
	DB	0c9H
	DB	011H
	DB	0c9H
	DB	011H
	DB	0c9H
	DB	011H
	DB	0c9H
	DB	011H
	DB	0c9H
	DB	011H
	DB	0c9H
	DB	011H
	DB	0c9H
	DB	011H
	DB	0c9H
	DB	011H
	DB	0a9H
	DB	011H
	DB	0a9H
	DB	011H
	DB	0a9H
	DB	011H
	DB	0a9H
	DB	011H
	DB	0a9H
	DB	011H
	DB	0a9H
	DB	011H
	DB	0a9H
	DB	011H
	DB	0a9H
	DB	011H
	DB	0a8H
	DB	011H
	DB	0a8H
	DB	011H
	DB	0a8H
	DB	011H
	DB	0a8H
	DB	011H
	DB	0a8H
	DB	011H
	DB	0a8H
	DB	011H
	DB	0a8H
	DB	011H
	DB	088H
	DB	011H
	DB	088H
	DB	011H
	DB	088H
	DB	011H
	DB	088H
	DB	011H
	DB	088H
	DB	011H
	DB	088H
	DB	011H
	DB	088H
	DB	011H
	DB	088H
	DB	011H
	DB	088H
	DB	011H
	DB	088H
	DB	011H
	DB	088H
	DB	011H
	DB	088H
	DB	011H
	DB	088H
	DB	011H
	DB	088H
	DB	011H
	DB	088H
	DB	011H
	DB	088H
	DB	011H
	DB	067H
	DB	011H
	DB	067H
	DB	011H
	DB	067H
	DB	011H
	DB	067H
	DB	011H
	DB	067H
	DB	011H
	DB	067H
	DB	011H
	DB	067H
	DB	011H
	DB	067H
	DB	011H
	DB	067H
	DB	011H
	DB	067H
	DB	011H
	DB	067H
	DB	011H
	DB	067H
	DB	011H
	DB	067H
	DB	011H
	DB	067H
	DB	011H
	DB	067H
	DB	011H
	DB	047H
	DB	011H
	DB	047H
	DB	011H
	DB	047H
	DB	011H
	DB	047H
	DB	011H
	DB	047H
	DB	011H
	DB	047H
	DB	011H
	DB	047H
	DB	011H
	DB	047H
	DB	011H
	DB	047H
	DB	09H
	DB	046H
	DB	09H
	DB	046H
	DB	09H
	DB	046H
	DB	09H
	DB	046H
	DB	09H
	DB	046H
	DB	09H
	DB	046H
	DB	09H
	DB	046H
	DB	09H
	DB	026H
	DB	09H
	DB	026H
	DB	09H
	DB	026H
	DB	09H
	DB	026H
	DB	09H
	DB	026H
	DB	09H
	DB	026H
	DB	09H
	DB	026H
	DB	09H
	DB	026H
	DB	09H
	DB	026H
	DB	09H
	DB	026H
	DB	09H
	DB	026H
	DB	09H
	DB	026H
	DB	09H
	DB	026H
	DB	09H
	DB	026H
	DB	09H
	DB	026H
	DB	09H
	DB	06H
	DB	09H
	DB	05H
	DB	09H
	DB	05H
	DB	09H
	DB	05H
	DB	09H
	DB	05H
	DB	09H
	DB	05H
	DB	09H
	DB	05H
	DB	09H
	DB	05H
	DB	09H
	DB	05H
	DB	09H
	DB	05H
	DB	09H
	DB	05H
	DB	09H
	DB	05H
	DB	09H
	DB	05H
	DB	09H
	DB	05H
	DB	09H
	DB	05H
	DB	09H
	DB	05H
	DB	09H
	DB	0e5H
	DB	08H
	DB	0e5H
	DB	08H
	DB	0e5H
	DB	08H
	DB	0e5H
	DB	08H
	DB	0e5H
	DB	08H
	DB	0e5H
	DB	08H
	DB	0e5H
	DB	08H
	DB	0e5H
	DB	08H
	DB	0e4H
	DB	08H
	DB	0e4H
	DB	08H
	DB	0e4H
	DB	08H
	DB	0e4H
	DB	08H
	DB	0e4H
	DB	08H
	DB	0e4H
	DB	08H
	DB	0e4H
	DB	08H
	DB	0e4H
	DB	08H
	DB	0c4H
	DB	08H
	DB	0c4H
	DB	08H
	DB	0c4H
	DB	08H
	DB	0c4H
	DB	08H
	DB	0c4H
	DB	08H
	DB	0c4H
	DB	08H
	DB	0c4H
	DB	08H
	DB	0c4H
	DB	08H
	DB	0c4H
	DB	08H
	DB	0c4H
	DB	08H
	DB	0c4H
	DB	08H
	DB	0c4H
	DB	08H
	DB	0c4H
	DB	08H
	DB	0c4H
	DB	08H
	DB	0c4H
	DB	08H
	DB	0a3H
	DB	08H
	DB	0a3H
	DB	08H
	DB	0a3H
	DB	08H
	DB	0a3H
	DB	00H
	DB	0a3H
	DB	00H
	DB	0a3H
	DB	00H
	DB	0a3H
	DB	00H
	DB	0a3H
	DB	00H
	DB	0a3H
	DB	00H
	DB	0a3H
	DB	00H
	DB	0a3H
	DB	00H
	DB	0a3H
	DB	00H
	DB	0a3H
	DB	00H
	DB	0a3H
	DB	00H
	DB	0a3H
	DB	00H
	DB	0a3H
	DB	00H
	DB	0a3H
	DB	00H
	DB	0a3H
	DB	00H
	DB	0a3H
	DB	00H
	DB	0a3H
	DB	00H
	DB	0a3H
	DB	00H
	DB	0a3H
	DB	00H
	DB	0a3H
	DB	00H
	DB	0a3H
	DB	00H
	DB	0a3H
	DB	00H
	DB	0a3H
	DB	00H
	DB	0a3H
	DB	00H
	DB	0a3H
	DB	00H
	DB	0a3H
	DB	00H
	DB	0a3H
	DB	00H
	DB	0e4H
	DB	08H
	DB	0e4H
	DB	08H
	DB	0e5H
	DB	08H
	DB	0e4H
	DB	08H
	DB	0e4H
	DB	08H
	DB	0e4H
	DB	08H
	DB	0e4H
	DB	08H
	DB	0e5H
	DB	08H
	DB	0e4H
	DB	08H
	DB	0e4H
	DB	08H
	DB	0e4H
	DB	08H
	DB	0e4H
	DB	08H
	DB	0e4H
	DB	08H
	DB	0e4H
	DB	08H
	DB	0e4H
	DB	08H
	DB	0e4H
	DB	08H
	DB	0e4H
	DB	08H
	DB	0e4H
	DB	08H
	DB	0e4H
	DB	08H
	DB	0e4H
	DB	08H
	DB	0e4H
	DB	08H
	DB	0e4H
	DB	08H
	DB	0e4H
	DB	08H
	DB	0e4H
	DB	08H
	DB	0e4H
	DB	08H
	DB	0e4H
	DB	08H
	DB	0e4H
	DB	08H
	DB	0e4H
	DB	08H
	DB	0e4H
	DB	08H
	DB	0e4H
	DB	08H
	DB	0e4H
	DB	08H
	DB	0e4H
	DB	08H
	DB	0e4H
	DB	08H
	DB	0e4H
	DB	08H
	DB	0e4H
	DB	08H
	DB	0e4H
	DB	08H
	DB	0e4H
	DB	08H
	DB	0e4H
	DB	08H
	DB	0e4H
	DB	08H
	DB	0e4H
	DB	08H
	DB	0e4H
	DB	08H
	DB	0e4H
	DB	08H
	DB	0e4H
	DB	08H
	DB	0e4H
	DB	08H
	DB	0e4H
	DB	08H
	DB	0e4H
	DB	08H
	DB	0e4H
	DB	08H
	DB	0e4H
	DB	08H
	DB	0e4H
	DB	08H
	DB	0e4H
	DB	08H
	DB	0e4H
	DB	08H
	DB	0e4H
	DB	08H
	DB	0e4H
	DB	08H
	DB	0c9H
	DB	011H
	DB	0c9H
	DB	011H
	DB	0c9H
	DB	011H
	DB	0c9H
	DB	011H
	DB	0c9H
	DB	011H
	DB	0c9H
	DB	011H
	DB	0c9H
	DB	011H
	DB	0c9H
	DB	011H
	DB	0c9H
	DB	011H
	DB	0c9H
	DB	011H
	DB	0c9H
	DB	011H
	DB	0c9H
	DB	011H
	DB	0c9H
	DB	011H
	DB	0c9H
	DB	011H
	DB	0c9H
	DB	011H
	DB	0c9H
	DB	011H
	DB	0c9H
	DB	011H
	DB	0c9H
	DB	011H
	DB	0c9H
	DB	011H
	DB	0c9H
	DB	011H
	DB	0c9H
	DB	011H
	DB	0c9H
	DB	011H
	DB	0c9H
	DB	011H
	DB	0c9H
	DB	011H
	DB	0c9H
	DB	011H
	DB	0c9H
	DB	011H
	DB	0c9H
	DB	011H
	DB	0c9H
	DB	011H
	DB	0c9H
	DB	011H
	DB	0c9H
	DB	011H
	DB	0c9H
	DB	011H
	DB	0c9H
	DB	011H
	DB	0c9H
	DB	011H
	DB	0a9H
	DB	011H
	DB	0a9H
	DB	011H
	DB	0a9H
	DB	011H
	DB	0a9H
	DB	011H
	DB	0a9H
	DB	011H
	DB	0a9H
	DB	011H
	DB	0a9H
	DB	011H
	DB	0a9H
	DB	011H
	DB	0a8H
	DB	011H
	DB	0a8H
	DB	011H
	DB	0a8H
	DB	011H
	DB	0a8H
	DB	011H
	DB	0a8H
	DB	011H
	DB	0a8H
	DB	011H
	DB	0a8H
	DB	011H
	DB	088H
	DB	011H
	DB	088H
	DB	011H
	DB	088H
	DB	011H
	DB	088H
	DB	011H
	DB	088H
	DB	011H
	DB	088H
	DB	011H
	DB	088H
	DB	011H
	DB	088H
	DB	011H
	DB	088H
	DB	011H
	DB	088H
	DB	011H
	DB	088H
	DB	011H
	DB	088H
	DB	011H
	DB	088H
	DB	011H
	DB	088H
	DB	011H
	DB	088H
	DB	011H
	DB	088H
	DB	011H
	DB	067H
	DB	011H
	DB	067H
	DB	011H
	DB	067H
	DB	011H
	DB	067H
	DB	011H
	DB	067H
	DB	011H
	DB	067H
	DB	011H
	DB	067H
	DB	011H
	DB	067H
	DB	011H
	DB	067H
	DB	011H
	DB	067H
	DB	011H
	DB	067H
	DB	011H
	DB	067H
	DB	011H
	DB	067H
	DB	011H
	DB	067H
	DB	011H
	DB	067H
	DB	011H
	DB	047H
	DB	011H
	DB	047H
	DB	011H
	DB	047H
	DB	011H
	DB	047H
	DB	011H
	DB	047H
	DB	011H
	DB	047H
	DB	011H
	DB	047H
	DB	011H
	DB	047H
	DB	011H
	DB	047H
	DB	09H
	DB	046H
	DB	09H
	DB	046H
	DB	09H
	DB	046H
	DB	09H
	DB	046H
	DB	09H
	DB	046H
	DB	09H
	DB	046H
	DB	09H
	DB	046H
	DB	09H
	DB	026H
	DB	09H
	DB	026H
	DB	09H
	DB	026H
	DB	09H
	DB	026H
	DB	09H
	DB	026H
	DB	09H
	DB	026H
	DB	09H
	DB	026H
	DB	09H
	DB	026H
	DB	09H
	DB	026H
	DB	09H
	DB	026H
	DB	09H
	DB	026H
	DB	09H
	DB	026H
	DB	09H
	DB	026H
	DB	09H
	DB	026H
	DB	09H
	DB	026H
	DB	09H
	DB	06H
	DB	09H
	DB	05H
	DB	09H
	DB	05H
	DB	09H
	DB	05H
	DB	09H
	DB	05H
	DB	09H
	DB	05H
	DB	09H
	DB	05H
	DB	09H
	DB	05H
	DB	09H
	DB	05H
	DB	09H
	DB	05H
	DB	09H
	DB	05H
	DB	09H
	DB	05H
	DB	09H
	DB	05H
	DB	09H
	DB	05H
	DB	09H
	DB	05H
	DB	09H
	DB	05H
	DB	09H
	DB	0e5H
	DB	08H
	DB	0e5H
	DB	08H
	DB	0e5H
	DB	08H
	DB	0e5H
	DB	08H
	DB	0e5H
	DB	08H
	DB	0e5H
	DB	08H
	DB	0e5H
	DB	08H
	DB	0e5H
	DB	08H
	DB	0e4H
	DB	08H
	DB	0e4H
	DB	08H
	DB	0e4H
	DB	08H
	DB	0e4H
	DB	08H
	DB	0e4H
	DB	08H
	DB	0e4H
	DB	08H
	DB	0e4H
	DB	08H
	DB	0e4H
	DB	08H
	DB	0c4H
	DB	08H
	DB	0c4H
	DB	08H
	DB	0c4H
	DB	08H
	DB	0c4H
	DB	08H
	DB	0c4H
	DB	08H
	DB	0c4H
	DB	08H
	DB	0c4H
	DB	08H
	DB	0c4H
	DB	08H
	DB	0c4H
	DB	08H
	DB	0c4H
	DB	08H
	DB	0c4H
	DB	08H
	DB	0c4H
	DB	08H
	DB	0c4H
	DB	08H
	DB	0c4H
	DB	08H
	DB	0c4H
	DB	08H
	DB	0a3H
	DB	08H
	DB	0a3H
	DB	08H
	DB	0a3H
	DB	08H
	DB	0a3H
	DB	00H
	DB	0a3H
	DB	00H
	DB	0a3H
	DB	00H
	DB	0a3H
	DB	00H
	DB	0a3H
	DB	00H
	DB	0a3H
	DB	00H
	DB	0a3H
	DB	00H
	DB	0a3H
	DB	00H
	DB	0a3H
	DB	00H
	DB	0a3H
	DB	00H
	DB	0a3H
	DB	00H
	DB	0a3H
	DB	00H
	DB	0a3H
	DB	00H
	DB	0a3H
	DB	00H
	DB	0a3H
	DB	00H
	DB	0a3H
	DB	00H
	DB	0a3H
	DB	00H
	DB	0a3H
	DB	00H
	DB	0a3H
	DB	00H
	DB	0a3H
	DB	00H
	DB	0a3H
	DB	00H
	DB	0a3H
	DB	00H
	DB	0a3H
	DB	00H
	DB	0a3H
	DB	00H
	DB	0a3H
	DB	00H
	DB	0a3H
	DB	00H
	DB	0a3H
	DB	00H
	DB	0e4H
	DB	08H
	DB	0e4H
	DB	08H
	DB	0e4H
	DB	08H
	DB	0e4H
	DB	08H
	DB	0e4H
	DB	08H
	DB	0e5H
	DB	08H
	DB	0e4H
	DB	08H
	DB	0e4H
	DB	08H
	DB	0e4H
	DB	08H
	DB	0e5H
	DB	08H
	DB	0e5H
	DB	08H
	DB	0e5H
	DB	08H
	DB	0e4H
	DB	08H
	DB	0e4H
	DB	08H
	DB	0e4H
	DB	08H
	DB	0e4H
	DB	08H
	DB	0e4H
	DB	08H
	DB	0e4H
	DB	08H
	DB	0e4H
	DB	08H
	DB	0e4H
	DB	08H
	DB	0e4H
	DB	08H
	DB	0e4H
	DB	08H
	DB	0e4H
	DB	08H
	DB	0e4H
	DB	08H
	DB	0e5H
	DB	08H
	DB	0e4H
	DB	08H
	DB	0e4H
	DB	08H
	DB	0e4H
	DB	08H
	DB	0e4H
	DB	08H
	DB	0e4H
	DB	08H
	DB	0e4H
	DB	08H
	DB	0e4H
	DB	08H
	DB	0e4H
	DB	08H
	DB	0e4H
	DB	08H
	DB	0e4H
	DB	08H
	DB	0e4H
	DB	08H
	DB	0e4H
	DB	08H
	DB	0e4H
	DB	08H
	DB	0e4H
	DB	08H
	DB	0e5H
	DB	08H
	DB	0e4H
	DB	08H
	DB	0e4H
	DB	08H
	DB	0e4H
	DB	08H
	DB	0e4H
	DB	08H
	DB	0e4H
	DB	08H
	DB	0e4H
	DB	08H
	DB	0e4H
	DB	08H
	DB	0e4H
	DB	08H
	DB	0e4H
	DB	08H
	DB	0e4H
	DB	08H
	DB	0e4H
	DB	08H
	DB	0e4H
	DB	08H
	DB	0e4H
	DB	08H
	DB	0c9H
	DB	011H
	DB	0c9H
	DB	011H
	DB	0c9H
	DB	011H
	DB	0c9H
	DB	011H
	DB	0c9H
	DB	011H
	DB	0c9H
	DB	011H
	DB	0c9H
	DB	011H
	DB	0c9H
	DB	011H
	DB	0c9H
	DB	011H
	DB	0c9H
	DB	011H
	DB	0c9H
	DB	011H
	DB	0c9H
	DB	011H
	DB	0c9H
	DB	011H
	DB	0c9H
	DB	011H
	DB	0c9H
	DB	011H
	DB	0c9H
	DB	011H
	DB	0c9H
	DB	011H
	DB	0c9H
	DB	011H
	DB	0c9H
	DB	011H
	DB	0c9H
	DB	011H
	DB	0c9H
	DB	011H
	DB	0c9H
	DB	011H
	DB	0c9H
	DB	011H
	DB	0c9H
	DB	011H
	DB	0c9H
	DB	011H
	DB	0c9H
	DB	011H
	DB	0c9H
	DB	011H
	DB	0c9H
	DB	011H
	DB	0c9H
	DB	011H
	DB	0c9H
	DB	011H
	DB	0c9H
	DB	011H
	DB	0c9H
	DB	011H
	DB	0c9H
	DB	011H
	DB	0a9H
	DB	011H
	DB	0a9H
	DB	011H
	DB	0a9H
	DB	011H
	DB	0a9H
	DB	011H
	DB	0a9H
	DB	011H
	DB	0a9H
	DB	011H
	DB	0a9H
	DB	011H
	DB	0a9H
	DB	011H
	DB	0a8H
	DB	011H
	DB	0a8H
	DB	011H
	DB	0a8H
	DB	011H
	DB	0a8H
	DB	011H
	DB	0a8H
	DB	011H
	DB	0a8H
	DB	011H
	DB	0a8H
	DB	011H
	DB	088H
	DB	011H
	DB	088H
	DB	011H
	DB	088H
	DB	011H
	DB	088H
	DB	011H
	DB	088H
	DB	011H
	DB	088H
	DB	011H
	DB	088H
	DB	011H
	DB	088H
	DB	011H
	DB	088H
	DB	011H
	DB	088H
	DB	011H
	DB	088H
	DB	011H
	DB	088H
	DB	011H
	DB	088H
	DB	011H
	DB	088H
	DB	011H
	DB	088H
	DB	011H
	DB	088H
	DB	011H
	DB	067H
	DB	011H
	DB	067H
	DB	011H
	DB	067H
	DB	011H
	DB	067H
	DB	011H
	DB	067H
	DB	011H
	DB	067H
	DB	011H
	DB	067H
	DB	011H
	DB	067H
	DB	011H
	DB	067H
	DB	011H
	DB	067H
	DB	011H
	DB	067H
	DB	011H
	DB	067H
	DB	011H
	DB	067H
	DB	011H
	DB	067H
	DB	011H
	DB	067H
	DB	011H
	DB	047H
	DB	011H
	DB	047H
	DB	011H
	DB	047H
	DB	011H
	DB	047H
	DB	011H
	DB	047H
	DB	011H
	DB	047H
	DB	011H
	DB	047H
	DB	011H
	DB	047H
	DB	011H
	DB	047H
	DB	09H
	DB	046H
	DB	09H
	DB	046H
	DB	09H
	DB	046H
	DB	09H
	DB	046H
	DB	09H
	DB	046H
	DB	09H
	DB	046H
	DB	09H
	DB	046H
	DB	09H
	DB	026H
	DB	09H
	DB	026H
	DB	09H
	DB	026H
	DB	09H
	DB	026H
	DB	09H
	DB	026H
	DB	09H
	DB	026H
	DB	09H
	DB	026H
	DB	09H
	DB	026H
	DB	09H
	DB	026H
	DB	09H
	DB	026H
	DB	09H
	DB	026H
	DB	09H
	DB	026H
	DB	09H
	DB	026H
	DB	09H
	DB	026H
	DB	09H
	DB	026H
	DB	09H
	DB	06H
	DB	09H
	DB	05H
	DB	09H
	DB	05H
	DB	09H
	DB	05H
	DB	09H
	DB	05H
	DB	09H
	DB	05H
	DB	09H
	DB	05H
	DB	09H
	DB	05H
	DB	09H
	DB	05H
	DB	09H
	DB	05H
	DB	09H
	DB	05H
	DB	09H
	DB	05H
	DB	09H
	DB	05H
	DB	09H
	DB	05H
	DB	09H
	DB	05H
	DB	09H
	DB	05H
	DB	09H
	DB	0e5H
	DB	08H
	DB	0e5H
	DB	08H
	DB	0e5H
	DB	08H
	DB	0e5H
	DB	08H
	DB	0e5H
	DB	08H
	DB	0e5H
	DB	08H
	DB	0e5H
	DB	08H
	DB	0e5H
	DB	08H
	DB	0e4H
	DB	08H
	DB	0e4H
	DB	08H
	DB	0e4H
	DB	08H
	DB	0e4H
	DB	08H
	DB	0e4H
	DB	08H
	DB	0e4H
	DB	08H
	DB	0e4H
	DB	08H
	DB	0e4H
	DB	08H
	DB	0c4H
	DB	08H
	DB	0c4H
	DB	08H
	DB	0c4H
	DB	08H
	DB	0c4H
	DB	08H
	DB	0c4H
	DB	08H
	DB	0c4H
	DB	08H
	DB	0c4H
	DB	08H
	DB	0c4H
	DB	08H
	DB	0c4H
	DB	08H
	DB	0c4H
	DB	08H
	DB	0c4H
	DB	08H
	DB	0c4H
	DB	08H
	DB	0c4H
	DB	08H
	DB	0c4H
	DB	08H
	DB	0c4H
	DB	08H
	DB	0c4H
	DB	08H
	DB	0a3H
	DB	08H
	DB	0a3H
	DB	08H
	DB	0a3H
	DB	00H
	DB	0a3H
	DB	00H
	DB	0a3H
	DB	00H
	DB	0a3H
	DB	00H
	DB	0a3H
	DB	00H
	DB	0a3H
	DB	00H
	DB	0a3H
	DB	00H
	DB	0a3H
	DB	00H
	DB	0a3H
	DB	00H
	DB	0a3H
	DB	00H
	DB	0a3H
	DB	00H
	DB	0a3H
	DB	00H
	DB	0a3H
	DB	00H
	DB	0a3H
	DB	00H
	DB	0a3H
	DB	00H
	DB	0a3H
	DB	00H
	DB	0a3H
	DB	00H
	DB	0a3H
	DB	00H
	DB	0a3H
	DB	00H
	DB	0a3H
	DB	00H
	DB	0a3H
	DB	00H
	DB	0a3H
	DB	00H
	DB	0a3H
	DB	00H
	DB	0a3H
	DB	00H
	DB	0a3H
	DB	00H
	DB	0a3H
	DB	00H
	DB	0a3H
	DB	00H
	DB	0e5H
	DB	08H
	DB	0e4H
	DB	08H
	DB	0e5H
	DB	08H
	DB	0e4H
	DB	08H
	DB	0e4H
	DB	08H
	DB	0e4H
	DB	08H
	DB	0e4H
	DB	08H
	DB	0e4H
	DB	08H
	DB	0e4H
	DB	08H
	DB	0e5H
	DB	08H
	DB	0e5H
	DB	08H
	DB	0e5H
	DB	08H
	DB	0e4H
	DB	08H
	DB	0e4H
	DB	08H
	DB	0e4H
	DB	08H
	DB	0e5H
	DB	08H
	DB	0e5H
	DB	08H
	DB	0e4H
	DB	08H
	DB	0e4H
	DB	08H
	DB	0e4H
	DB	08H
	DB	0e4H
	DB	08H
	DB	0e5H
	DB	08H
	DB	0e4H
	DB	08H
	DB	0e5H
	DB	08H
	DB	0e4H
	DB	08H
	DB	0e4H
	DB	08H
	DB	0e4H
	DB	08H
	DB	0e4H
	DB	08H
	DB	0e5H
	DB	08H
	DB	0e4H
	DB	08H
	DB	0e4H
	DB	08H
	DB	0e4H
	DB	08H
	DB	0e4H
	DB	08H
	DB	0e4H
	DB	08H
	DB	0e4H
	DB	08H
	DB	0e4H
	DB	08H
	DB	0e4H
	DB	08H
	DB	0e4H
	DB	08H
	DB	0e4H
	DB	08H
	DB	0e4H
	DB	08H
	DB	0e4H
	DB	08H
	DB	0e5H
	DB	08H
	DB	0e4H
	DB	08H
	DB	0e4H
	DB	08H
	DB	0e4H
	DB	08H
	DB	0e4H
	DB	08H
	DB	0e4H
	DB	08H
	DB	0e4H
	DB	08H
	DB	0e4H
	DB	08H
	DB	0e4H
	DB	08H
	DB	0e4H
	DB	08H
	DB	0e4H
	DB	08H
	DB	0e4H
	DB	08H
	DB	0c9H
	DB	011H
	DB	0c9H
	DB	011H
	DB	0c9H
	DB	011H
	DB	0c9H
	DB	011H
	DB	0c9H
	DB	011H
	DB	0c9H
	DB	011H
	DB	0c9H
	DB	011H
	DB	0c9H
	DB	011H
	DB	0c9H
	DB	011H
	DB	0c9H
	DB	011H
	DB	0c9H
	DB	011H
	DB	0c9H
	DB	011H
	DB	0c9H
	DB	011H
	DB	0c9H
	DB	011H
	DB	0c9H
	DB	011H
	DB	0c9H
	DB	011H
	DB	0c9H
	DB	011H
	DB	0c9H
	DB	011H
	DB	0c9H
	DB	011H
	DB	0c9H
	DB	011H
	DB	0c9H
	DB	011H
	DB	0c9H
	DB	011H
	DB	0c9H
	DB	011H
	DB	0c9H
	DB	011H
	DB	0c9H
	DB	011H
	DB	0c9H
	DB	011H
	DB	0c9H
	DB	011H
	DB	0c9H
	DB	011H
	DB	0c9H
	DB	011H
	DB	0c9H
	DB	011H
	DB	0c9H
	DB	011H
	DB	0c9H
	DB	011H
	DB	0c9H
	DB	011H
	DB	0a9H
	DB	011H
	DB	0a9H
	DB	011H
	DB	0a9H
	DB	011H
	DB	0a9H
	DB	011H
	DB	0a9H
	DB	011H
	DB	0a9H
	DB	011H
	DB	0a9H
	DB	011H
	DB	0a9H
	DB	011H
	DB	0a8H
	DB	011H
	DB	0a8H
	DB	011H
	DB	0a8H
	DB	011H
	DB	0a8H
	DB	011H
	DB	0a8H
	DB	011H
	DB	0a8H
	DB	011H
	DB	0a8H
	DB	011H
	DB	088H
	DB	011H
	DB	088H
	DB	011H
	DB	088H
	DB	011H
	DB	088H
	DB	011H
	DB	088H
	DB	011H
	DB	088H
	DB	011H
	DB	088H
	DB	011H
	DB	088H
	DB	011H
	DB	088H
	DB	011H
	DB	088H
	DB	011H
	DB	088H
	DB	011H
	DB	088H
	DB	011H
	DB	088H
	DB	011H
	DB	088H
	DB	011H
	DB	088H
	DB	011H
	DB	088H
	DB	011H
	DB	067H
	DB	011H
	DB	067H
	DB	011H
	DB	067H
	DB	011H
	DB	067H
	DB	011H
	DB	067H
	DB	011H
	DB	067H
	DB	011H
	DB	067H
	DB	011H
	DB	067H
	DB	011H
	DB	067H
	DB	011H
	DB	067H
	DB	011H
	DB	067H
	DB	011H
	DB	067H
	DB	011H
	DB	067H
	DB	011H
	DB	067H
	DB	011H
	DB	067H
	DB	011H
	DB	047H
	DB	011H
	DB	047H
	DB	011H
	DB	047H
	DB	011H
	DB	047H
	DB	011H
	DB	047H
	DB	011H
	DB	047H
	DB	011H
	DB	047H
	DB	011H
	DB	047H
	DB	011H
	DB	047H
	DB	09H
	DB	046H
	DB	09H
	DB	046H
	DB	09H
	DB	046H
	DB	09H
	DB	046H
	DB	09H
	DB	046H
	DB	09H
	DB	046H
	DB	09H
	DB	046H
	DB	09H
	DB	026H
	DB	09H
	DB	026H
	DB	09H
	DB	026H
	DB	09H
	DB	026H
	DB	09H
	DB	026H
	DB	09H
	DB	026H
	DB	09H
	DB	026H
	DB	09H
	DB	026H
	DB	09H
	DB	026H
	DB	09H
	DB	026H
	DB	09H
	DB	026H
	DB	09H
	DB	026H
	DB	09H
	DB	026H
	DB	09H
	DB	026H
	DB	09H
	DB	026H
	DB	09H
	DB	06H
	DB	09H
	DB	05H
	DB	09H
	DB	05H
	DB	09H
	DB	05H
	DB	09H
	DB	05H
	DB	09H
	DB	05H
	DB	09H
	DB	05H
	DB	09H
	DB	05H
	DB	09H
	DB	05H
	DB	09H
	DB	05H
	DB	09H
	DB	05H
	DB	09H
	DB	05H
	DB	09H
	DB	05H
	DB	09H
	DB	05H
	DB	09H
	DB	05H
	DB	09H
	DB	05H
	DB	09H
	DB	0e5H
	DB	08H
	DB	0e5H
	DB	08H
	DB	0e5H
	DB	08H
	DB	0e5H
	DB	08H
	DB	0e5H
	DB	08H
	DB	0e5H
	DB	08H
	DB	0e5H
	DB	08H
	DB	0e5H
	DB	08H
	DB	0e4H
	DB	08H
	DB	0e4H
	DB	08H
	DB	0e4H
	DB	08H
	DB	0e4H
	DB	08H
	DB	0e4H
	DB	08H
	DB	0e4H
	DB	08H
	DB	0e4H
	DB	08H
	DB	0e4H
	DB	08H
	DB	0c4H
	DB	08H
	DB	0c4H
	DB	08H
	DB	0c4H
	DB	08H
	DB	0c4H
	DB	08H
	DB	0c4H
	DB	08H
	DB	0c4H
	DB	08H
	DB	0c4H
	DB	08H
	DB	0c4H
	DB	08H
	DB	0c4H
	DB	08H
	DB	0c4H
	DB	08H
	DB	0c4H
	DB	08H
	DB	0c4H
	DB	08H
	DB	0c4H
	DB	08H
	DB	0c4H
	DB	08H
	DB	0c4H
	DB	08H
	DB	0c4H
	DB	08H
	DB	0a3H
	DB	08H
	DB	0a3H
	DB	08H
	DB	0a3H
	DB	00H
	DB	0a3H
	DB	00H
	DB	0a3H
	DB	00H
	DB	0a3H
	DB	00H
	DB	0a3H
	DB	00H
	DB	0a3H
	DB	00H
	DB	0a3H
	DB	00H
	DB	0a3H
	DB	00H
	DB	0a3H
	DB	00H
	DB	0a3H
	DB	00H
	DB	0a3H
	DB	00H
	DB	0a3H
	DB	00H
	DB	0a3H
	DB	00H
	DB	0a3H
	DB	00H
	DB	0a3H
	DB	00H
	DB	0a3H
	DB	00H
	DB	0a3H
	DB	00H
	DB	0a3H
	DB	00H
	DB	0a3H
	DB	00H
	DB	0a3H
	DB	00H
	DB	0a3H
	DB	00H
	DB	0a3H
	DB	00H
	DB	0a3H
	DB	00H
	DB	0a3H
	DB	00H
	DB	0a3H
	DB	00H
	DB	0a3H
	DB	00H
	DB	0a3H
	DB	00H
	DB	0e5H
	DB	08H
	DB	0e4H
	DB	08H
	DB	0e4H
	DB	08H
	DB	0e4H
	DB	08H
	DB	0e5H
	DB	08H
	DB	0e5H
	DB	08H
	DB	0e5H
	DB	08H
	DB	0e5H
	DB	08H
	DB	0e4H
	DB	08H
	DB	0e4H
	DB	08H
	DB	0e5H
	DB	08H
	DB	0e5H
	DB	08H
	DB	0e5H
	DB	08H
	DB	0e5H
	DB	08H
	DB	0e5H
	DB	08H
	DB	0e5H
	DB	08H
	DB	0e5H
	DB	08H
	DB	0e4H
	DB	08H
	DB	0e4H
	DB	08H
	DB	0e4H
	DB	08H
	DB	0e4H
	DB	08H
	DB	0e4H
	DB	08H
	DB	0e5H
	DB	08H
	DB	0e4H
	DB	08H
	DB	0e5H
	DB	08H
	DB	0e5H
	DB	08H
	DB	0e4H
	DB	08H
	DB	0e5H
	DB	08H
	DB	0e4H
	DB	08H
	DB	0e5H
	DB	08H
	DB	0e4H
	DB	08H
	DB	0e5H
	DB	08H
	DB	0e4H
	DB	08H
	DB	0e4H
	DB	08H
	DB	0e4H
	DB	08H
	DB	0e4H
	DB	08H
	DB	0e4H
	DB	08H
	DB	0e4H
	DB	08H
	DB	0e4H
	DB	08H
	DB	0e5H
	DB	08H
	DB	0e4H
	DB	08H
	DB	0e5H
	DB	08H
	DB	0e4H
	DB	08H
	DB	0e5H
	DB	08H
	DB	0e5H
	DB	08H
	DB	0e4H
	DB	08H
	DB	0e5H
	DB	08H
	DB	0e4H
	DB	08H
	DB	0e4H
	DB	08H
	DB	0e4H
	DB	08H
	DB	0e4H
	DB	08H
	DB	0e4H
	DB	08H
	DB	0e4H
	DB	08H
	DB	0c9H
	DB	011H
	DB	0c9H
	DB	011H
	DB	0c9H
	DB	011H
	DB	0c9H
	DB	011H
	DB	0c9H
	DB	011H
	DB	0c9H
	DB	011H
	DB	0c9H
	DB	011H
	DB	0c9H
	DB	011H
	DB	0c9H
	DB	011H
	DB	0c9H
	DB	011H
	DB	0c9H
	DB	011H
	DB	0c9H
	DB	011H
	DB	0c9H
	DB	011H
	DB	0c9H
	DB	011H
	DB	0c9H
	DB	011H
	DB	0c9H
	DB	011H
	DB	0c9H
	DB	011H
	DB	0c9H
	DB	011H
	DB	0c9H
	DB	011H
	DB	0c9H
	DB	011H
	DB	0c9H
	DB	011H
	DB	0c9H
	DB	011H
	DB	0c9H
	DB	011H
	DB	0c9H
	DB	011H
	DB	0c9H
	DB	011H
	DB	0c9H
	DB	011H
	DB	0c9H
	DB	011H
	DB	0c9H
	DB	011H
	DB	0c9H
	DB	011H
	DB	0c9H
	DB	011H
	DB	0c9H
	DB	011H
	DB	0c9H
	DB	011H
	DB	0c9H
	DB	011H
	DB	0a9H
	DB	011H
	DB	0a9H
	DB	011H
	DB	0a9H
	DB	011H
	DB	0a9H
	DB	011H
	DB	0a9H
	DB	011H
	DB	0a9H
	DB	011H
	DB	0a9H
	DB	011H
	DB	0a9H
	DB	011H
	DB	0a9H
	DB	011H
	DB	0a8H
	DB	011H
	DB	0a8H
	DB	011H
	DB	0a8H
	DB	011H
	DB	0a8H
	DB	011H
	DB	0a8H
	DB	011H
	DB	0a8H
	DB	011H
	DB	088H
	DB	011H
	DB	088H
	DB	011H
	DB	088H
	DB	011H
	DB	088H
	DB	011H
	DB	088H
	DB	011H
	DB	088H
	DB	011H
	DB	088H
	DB	011H
	DB	088H
	DB	011H
	DB	088H
	DB	011H
	DB	088H
	DB	011H
	DB	088H
	DB	011H
	DB	088H
	DB	011H
	DB	088H
	DB	011H
	DB	088H
	DB	011H
	DB	088H
	DB	011H
	DB	088H
	DB	011H
	DB	068H
	DB	011H
	DB	067H
	DB	011H
	DB	067H
	DB	011H
	DB	067H
	DB	011H
	DB	067H
	DB	011H
	DB	067H
	DB	011H
	DB	067H
	DB	011H
	DB	067H
	DB	011H
	DB	067H
	DB	011H
	DB	067H
	DB	011H
	DB	067H
	DB	011H
	DB	067H
	DB	011H
	DB	067H
	DB	011H
	DB	067H
	DB	011H
	DB	067H
	DB	011H
	DB	067H
	DB	011H
	DB	047H
	DB	011H
	DB	047H
	DB	011H
	DB	047H
	DB	011H
	DB	047H
	DB	011H
	DB	047H
	DB	011H
	DB	047H
	DB	011H
	DB	047H
	DB	011H
	DB	047H
	DB	011H
	DB	046H
	DB	09H
	DB	046H
	DB	09H
	DB	046H
	DB	09H
	DB	046H
	DB	09H
	DB	046H
	DB	09H
	DB	046H
	DB	09H
	DB	046H
	DB	09H
	DB	026H
	DB	09H
	DB	026H
	DB	09H
	DB	026H
	DB	09H
	DB	026H
	DB	09H
	DB	026H
	DB	09H
	DB	026H
	DB	09H
	DB	026H
	DB	09H
	DB	026H
	DB	09H
	DB	026H
	DB	09H
	DB	026H
	DB	09H
	DB	026H
	DB	09H
	DB	026H
	DB	09H
	DB	026H
	DB	09H
	DB	026H
	DB	09H
	DB	026H
	DB	09H
	DB	026H
	DB	09H
	DB	05H
	DB	09H
	DB	05H
	DB	09H
	DB	05H
	DB	09H
	DB	05H
	DB	09H
	DB	05H
	DB	09H
	DB	05H
	DB	09H
	DB	05H
	DB	09H
	DB	05H
	DB	09H
	DB	05H
	DB	09H
	DB	05H
	DB	09H
	DB	05H
	DB	09H
	DB	05H
	DB	09H
	DB	05H
	DB	09H
	DB	05H
	DB	09H
	DB	05H
	DB	09H
	DB	0e5H
	DB	08H
	DB	0e5H
	DB	08H
	DB	0e5H
	DB	08H
	DB	0e5H
	DB	08H
	DB	0e5H
	DB	08H
	DB	0e5H
	DB	08H
	DB	0e5H
	DB	08H
	DB	0e5H
	DB	08H
	DB	0e4H
	DB	08H
	DB	0e4H
	DB	08H
	DB	0e4H
	DB	08H
	DB	0e4H
	DB	08H
	DB	0e4H
	DB	08H
	DB	0e4H
	DB	08H
	DB	0e4H
	DB	08H
	DB	0e4H
	DB	08H
	DB	0c4H
	DB	08H
	DB	0c4H
	DB	08H
	DB	0c4H
	DB	08H
	DB	0c4H
	DB	08H
	DB	0c4H
	DB	08H
	DB	0c4H
	DB	08H
	DB	0c4H
	DB	08H
	DB	0c4H
	DB	08H
	DB	0c4H
	DB	08H
	DB	0c4H
	DB	08H
	DB	0c4H
	DB	08H
	DB	0c4H
	DB	08H
	DB	0c4H
	DB	08H
	DB	0c4H
	DB	08H
	DB	0c4H
	DB	08H
	DB	0c4H
	DB	08H
	DB	0a3H
	DB	08H
	DB	0a3H
	DB	08H
	DB	0a3H
	DB	00H
	DB	0a3H
	DB	00H
	DB	0a3H
	DB	00H
	DB	0a3H
	DB	00H
	DB	0a3H
	DB	00H
	DB	0a3H
	DB	00H
	DB	0a3H
	DB	00H
	DB	0a3H
	DB	00H
	DB	0a3H
	DB	00H
	DB	0a3H
	DB	00H
	DB	0a3H
	DB	00H
	DB	0a3H
	DB	00H
	DB	0a3H
	DB	00H
	DB	0a3H
	DB	00H
	DB	0a3H
	DB	00H
	DB	0a3H
	DB	00H
	DB	0a3H
	DB	00H
	DB	0a3H
	DB	00H
	DB	0a3H
	DB	00H
	DB	0a3H
	DB	00H
	DB	0a3H
	DB	00H
	DB	0a3H
	DB	00H
	DB	0a3H
	DB	00H
	DB	0a3H
	DB	00H
	DB	0a3H
	DB	00H
	DB	0a3H
	DB	00H
	DB	0a3H
	DB	00H
	DB	0e5H
	DB	08H
	DB	0e5H
	DB	08H
	DB	0e5H
	DB	08H
	DB	0e5H
	DB	08H
	DB	0e5H
	DB	08H
	DB	0e4H
	DB	08H
	DB	0e5H
	DB	08H
	DB	0e5H
	DB	08H
	DB	0e5H
	DB	08H
	DB	0e5H
	DB	08H
	DB	0e4H
	DB	08H
	DB	0e5H
	DB	08H
	DB	0e4H
	DB	08H
	DB	0e4H
	DB	08H
	DB	0e5H
	DB	08H
	DB	0e5H
	DB	08H
	DB	0e5H
	DB	08H
	DB	0e5H
	DB	08H
	DB	0e5H
	DB	08H
	DB	0e5H
	DB	08H
	DB	0e5H
	DB	08H
	DB	0e5H
	DB	08H
	DB	0e5H
	DB	08H
	DB	0e4H
	DB	08H
	DB	0e5H
	DB	08H
	DB	0e4H
	DB	08H
	DB	0e4H
	DB	08H
	DB	0e5H
	DB	08H
	DB	0e5H
	DB	08H
	DB	0e4H
	DB	08H
	DB	0e4H
	DB	08H
	DB	0e4H
	DB	08H
	DB	0e5H
	DB	08H
	DB	0e5H
	DB	08H
	DB	0e5H
	DB	08H
	DB	0e4H
	DB	08H
	DB	0e5H
	DB	08H
	DB	0e5H
	DB	08H
	DB	0e4H
	DB	08H
	DB	0e4H
	DB	08H
	DB	0e4H
	DB	08H
	DB	0e5H
	DB	08H
	DB	0e5H
	DB	08H
	DB	0e5H
	DB	08H
	DB	0e5H
	DB	08H
	DB	0e5H
	DB	08H
	DB	0e5H
	DB	08H
	DB	0e5H
	DB	08H
	DB	0e4H
	DB	08H
	DB	0e5H
	DB	08H
	DB	0e5H
	DB	08H
	DB	0e4H
	DB	08H
	DB	0e4H
	DB	08H
	DB	0c9H
	DB	011H
	DB	0c9H
	DB	011H
	DB	0c9H
	DB	011H
	DB	0c9H
	DB	011H
	DB	0c9H
	DB	011H
	DB	0c9H
	DB	011H
	DB	0c9H
	DB	011H
	DB	0c9H
	DB	011H
	DB	0c9H
	DB	011H
	DB	0c9H
	DB	011H
	DB	0c9H
	DB	011H
	DB	0c9H
	DB	011H
	DB	0c9H
	DB	011H
	DB	0c9H
	DB	011H
	DB	0c9H
	DB	011H
	DB	0c9H
	DB	011H
	DB	0c9H
	DB	011H
	DB	0c9H
	DB	011H
	DB	0c9H
	DB	011H
	DB	0c9H
	DB	011H
	DB	0c9H
	DB	011H
	DB	0c9H
	DB	011H
	DB	0c9H
	DB	011H
	DB	0c9H
	DB	011H
	DB	0c9H
	DB	011H
	DB	0c9H
	DB	011H
	DB	0c9H
	DB	011H
	DB	0c9H
	DB	011H
	DB	0c9H
	DB	011H
	DB	0c9H
	DB	011H
	DB	0c9H
	DB	011H
	DB	0c9H
	DB	011H
	DB	0c9H
	DB	011H
	DB	0a9H
	DB	011H
	DB	0a9H
	DB	011H
	DB	0a9H
	DB	011H
	DB	0a9H
	DB	011H
	DB	0a9H
	DB	011H
	DB	0a9H
	DB	011H
	DB	0a9H
	DB	011H
	DB	0a9H
	DB	011H
	DB	0a9H
	DB	011H
	DB	0a8H
	DB	011H
	DB	0a8H
	DB	011H
	DB	0a8H
	DB	011H
	DB	0a8H
	DB	011H
	DB	0a8H
	DB	011H
	DB	0a8H
	DB	011H
	DB	0a8H
	DB	011H
	DB	088H
	DB	011H
	DB	088H
	DB	011H
	DB	088H
	DB	011H
	DB	088H
	DB	011H
	DB	088H
	DB	011H
	DB	088H
	DB	011H
	DB	088H
	DB	011H
	DB	088H
	DB	011H
	DB	088H
	DB	011H
	DB	088H
	DB	011H
	DB	088H
	DB	011H
	DB	088H
	DB	011H
	DB	088H
	DB	011H
	DB	088H
	DB	011H
	DB	088H
	DB	011H
	DB	068H
	DB	011H
	DB	067H
	DB	011H
	DB	067H
	DB	011H
	DB	067H
	DB	011H
	DB	067H
	DB	011H
	DB	067H
	DB	011H
	DB	067H
	DB	011H
	DB	067H
	DB	011H
	DB	067H
	DB	011H
	DB	067H
	DB	011H
	DB	067H
	DB	011H
	DB	067H
	DB	011H
	DB	067H
	DB	011H
	DB	067H
	DB	011H
	DB	067H
	DB	011H
	DB	067H
	DB	011H
	DB	047H
	DB	011H
	DB	047H
	DB	011H
	DB	047H
	DB	011H
	DB	047H
	DB	011H
	DB	047H
	DB	011H
	DB	047H
	DB	011H
	DB	047H
	DB	011H
	DB	047H
	DB	011H
	DB	046H
	DB	09H
	DB	046H
	DB	09H
	DB	046H
	DB	09H
	DB	046H
	DB	09H
	DB	046H
	DB	09H
	DB	046H
	DB	09H
	DB	046H
	DB	09H
	DB	026H
	DB	09H
	DB	026H
	DB	09H
	DB	026H
	DB	09H
	DB	026H
	DB	09H
	DB	026H
	DB	09H
	DB	026H
	DB	09H
	DB	026H
	DB	09H
	DB	026H
	DB	09H
	DB	026H
	DB	09H
	DB	026H
	DB	09H
	DB	026H
	DB	09H
	DB	026H
	DB	09H
	DB	026H
	DB	09H
	DB	026H
	DB	09H
	DB	026H
	DB	09H
	DB	026H
	DB	09H
	DB	05H
	DB	09H
	DB	05H
	DB	09H
	DB	05H
	DB	09H
	DB	05H
	DB	09H
	DB	05H
	DB	09H
	DB	05H
	DB	09H
	DB	05H
	DB	09H
	DB	05H
	DB	09H
	DB	05H
	DB	09H
	DB	05H
	DB	09H
	DB	05H
	DB	09H
	DB	05H
	DB	09H
	DB	05H
	DB	09H
	DB	05H
	DB	09H
	DB	05H
	DB	09H
	DB	0e5H
	DB	08H
	DB	0e5H
	DB	08H
	DB	0e5H
	DB	08H
	DB	0e5H
	DB	08H
	DB	0e5H
	DB	08H
	DB	0e5H
	DB	08H
	DB	0e5H
	DB	08H
	DB	0e5H
	DB	08H
	DB	0e4H
	DB	08H
	DB	0e4H
	DB	08H
	DB	0e4H
	DB	08H
	DB	0e4H
	DB	08H
	DB	0e4H
	DB	08H
	DB	0e4H
	DB	08H
	DB	0e4H
	DB	08H
	DB	0e4H
	DB	08H
	DB	0c4H
	DB	08H
	DB	0c4H
	DB	08H
	DB	0c4H
	DB	08H
	DB	0c4H
	DB	08H
	DB	0c4H
	DB	08H
	DB	0c4H
	DB	08H
	DB	0c4H
	DB	08H
	DB	0c4H
	DB	08H
	DB	0c4H
	DB	08H
	DB	0c4H
	DB	08H
	DB	0c4H
	DB	08H
	DB	0c4H
	DB	08H
	DB	0c4H
	DB	08H
	DB	0c4H
	DB	08H
	DB	0c4H
	DB	08H
	DB	0c4H
	DB	08H
	DB	0a3H
	DB	08H
	DB	0a3H
	DB	08H
	DB	0a3H
	DB	00H
	DB	0a3H
	DB	00H
	DB	0a3H
	DB	00H
	DB	0a3H
	DB	00H
	DB	0a3H
	DB	00H
	DB	0a3H
	DB	00H
	DB	0a3H
	DB	00H
	DB	0a3H
	DB	00H
	DB	0a3H
	DB	00H
	DB	0a3H
	DB	00H
	DB	0a3H
	DB	00H
	DB	0a3H
	DB	00H
	DB	0a3H
	DB	00H
	DB	0a3H
	DB	00H
	DB	0a3H
	DB	00H
	DB	0a3H
	DB	00H
	DB	0a3H
	DB	00H
	DB	0a3H
	DB	00H
	DB	0a3H
	DB	00H
	DB	0a3H
	DB	00H
	DB	0a3H
	DB	00H
	DB	0a3H
	DB	00H
	DB	0a3H
	DB	00H
	DB	0a3H
	DB	00H
	DB	0a3H
	DB	00H
	DB	0a3H
	DB	00H
	DB	0a3H
	DB	00H
	DB	0e5H
	DB	08H
	DB	0e4H
	DB	08H
	DB	0e5H
	DB	08H
	DB	0e5H
	DB	08H
	DB	0e5H
	DB	08H
	DB	0e5H
	DB	08H
	DB	0e5H
	DB	08H
	DB	0e5H
	DB	08H
	DB	0e5H
	DB	08H
	DB	0e5H
	DB	08H
	DB	0e5H
	DB	08H
	DB	0e5H
	DB	08H
	DB	0e5H
	DB	08H
	DB	0e5H
	DB	08H
	DB	0e5H
	DB	08H
	DB	0e5H
	DB	08H
	DB	0e5H
	DB	08H
	DB	0e5H
	DB	08H
	DB	0e5H
	DB	08H
	DB	0e5H
	DB	08H
	DB	0e5H
	DB	08H
	DB	0e5H
	DB	08H
	DB	0e5H
	DB	08H
	DB	0e5H
	DB	08H
	DB	0e5H
	DB	08H
	DB	0e5H
	DB	08H
	DB	0e5H
	DB	08H
	DB	0e5H
	DB	08H
	DB	0e5H
	DB	08H
	DB	0e5H
	DB	08H
	DB	0e5H
	DB	08H
	DB	0e5H
	DB	08H
	DB	0e5H
	DB	08H
	DB	0e5H
	DB	08H
	DB	0e5H
	DB	08H
	DB	0e4H
	DB	08H
	DB	0e5H
	DB	08H
	DB	0e5H
	DB	08H
	DB	0e4H
	DB	08H
	DB	0e5H
	DB	08H
	DB	0e5H
	DB	08H
	DB	0e5H
	DB	08H
	DB	0e5H
	DB	08H
	DB	0e5H
	DB	08H
	DB	0e4H
	DB	08H
	DB	0e5H
	DB	08H
	DB	0e5H
	DB	08H
	DB	0e4H
	DB	08H
	DB	0e5H
	DB	08H
	DB	0e4H
	DB	08H
	DB	0e5H
	DB	08H
	DB	0e4H
	DB	08H
	DB	0e4H
	DB	08H
	DB	0c9H
	DB	011H
	DB	0c9H
	DB	011H
	DB	0c9H
	DB	011H
	DB	0c9H
	DB	011H
	DB	0c9H
	DB	011H
	DB	0c9H
	DB	011H
	DB	0c9H
	DB	011H
	DB	0c9H
	DB	011H
	DB	0c9H
	DB	011H
	DB	0c9H
	DB	011H
	DB	0c9H
	DB	011H
	DB	0c9H
	DB	011H
	DB	0c9H
	DB	011H
	DB	0c9H
	DB	011H
	DB	0c9H
	DB	011H
	DB	0c9H
	DB	011H
	DB	0c9H
	DB	011H
	DB	0c9H
	DB	011H
	DB	0c9H
	DB	011H
	DB	0c9H
	DB	011H
	DB	0c9H
	DB	011H
	DB	0c9H
	DB	011H
	DB	0c9H
	DB	011H
	DB	0c9H
	DB	011H
	DB	0c9H
	DB	011H
	DB	0c9H
	DB	011H
	DB	0c9H
	DB	011H
	DB	0c9H
	DB	011H
	DB	0c9H
	DB	011H
	DB	0c9H
	DB	011H
	DB	0c9H
	DB	011H
	DB	0c9H
	DB	011H
	DB	0c9H
	DB	011H
	DB	0a9H
	DB	011H
	DB	0a9H
	DB	011H
	DB	0a9H
	DB	011H
	DB	0a9H
	DB	011H
	DB	0a9H
	DB	011H
	DB	0a9H
	DB	011H
	DB	0a9H
	DB	011H
	DB	0a9H
	DB	011H
	DB	0a9H
	DB	011H
	DB	0a8H
	DB	011H
	DB	0a8H
	DB	011H
	DB	0a8H
	DB	011H
	DB	0a8H
	DB	011H
	DB	0a8H
	DB	011H
	DB	0a8H
	DB	011H
	DB	0a8H
	DB	011H
	DB	088H
	DB	011H
	DB	088H
	DB	011H
	DB	088H
	DB	011H
	DB	088H
	DB	011H
	DB	088H
	DB	011H
	DB	088H
	DB	011H
	DB	088H
	DB	011H
	DB	088H
	DB	011H
	DB	088H
	DB	011H
	DB	088H
	DB	011H
	DB	088H
	DB	011H
	DB	088H
	DB	011H
	DB	088H
	DB	011H
	DB	088H
	DB	011H
	DB	088H
	DB	011H
	DB	068H
	DB	011H
	DB	067H
	DB	011H
	DB	067H
	DB	011H
	DB	067H
	DB	011H
	DB	067H
	DB	011H
	DB	067H
	DB	011H
	DB	067H
	DB	011H
	DB	067H
	DB	011H
	DB	067H
	DB	011H
	DB	067H
	DB	011H
	DB	067H
	DB	011H
	DB	067H
	DB	011H
	DB	067H
	DB	011H
	DB	067H
	DB	011H
	DB	067H
	DB	011H
	DB	067H
	DB	011H
	DB	047H
	DB	011H
	DB	047H
	DB	011H
	DB	047H
	DB	011H
	DB	047H
	DB	011H
	DB	047H
	DB	011H
	DB	047H
	DB	011H
	DB	047H
	DB	011H
	DB	047H
	DB	011H
	DB	046H
	DB	09H
	DB	046H
	DB	09H
	DB	046H
	DB	09H
	DB	046H
	DB	09H
	DB	046H
	DB	09H
	DB	046H
	DB	09H
	DB	046H
	DB	09H
	DB	026H
	DB	09H
	DB	026H
	DB	09H
	DB	026H
	DB	09H
	DB	026H
	DB	09H
	DB	026H
	DB	09H
	DB	026H
	DB	09H
	DB	026H
	DB	09H
	DB	026H
	DB	09H
	DB	026H
	DB	09H
	DB	026H
	DB	09H
	DB	026H
	DB	09H
	DB	026H
	DB	09H
	DB	026H
	DB	09H
	DB	026H
	DB	09H
	DB	026H
	DB	09H
	DB	026H
	DB	09H
	DB	05H
	DB	09H
	DB	05H
	DB	09H
	DB	05H
	DB	09H
	DB	05H
	DB	09H
	DB	05H
	DB	09H
	DB	05H
	DB	09H
	DB	05H
	DB	09H
	DB	05H
	DB	09H
	DB	05H
	DB	09H
	DB	05H
	DB	09H
	DB	05H
	DB	09H
	DB	05H
	DB	09H
	DB	05H
	DB	09H
	DB	05H
	DB	09H
	DB	05H
	DB	09H
	DB	0e5H
	DB	08H
	DB	0e5H
	DB	08H
	DB	0e5H
	DB	08H
	DB	0e5H
	DB	08H
	DB	0e5H
	DB	08H
	DB	0e5H
	DB	08H
	DB	0e5H
	DB	08H
	DB	0e5H
	DB	08H
	DB	0e4H
	DB	08H
	DB	0e4H
	DB	08H
	DB	0e4H
	DB	08H
	DB	0e4H
	DB	08H
	DB	0e4H
	DB	08H
	DB	0e4H
	DB	08H
	DB	0e4H
	DB	08H
	DB	0e4H
	DB	08H
	DB	0c4H
	DB	08H
	DB	0c4H
	DB	08H
	DB	0c4H
	DB	08H
	DB	0c4H
	DB	08H
	DB	0c4H
	DB	08H
	DB	0c4H
	DB	08H
	DB	0c4H
	DB	08H
	DB	0c4H
	DB	08H
	DB	0c4H
	DB	08H
	DB	0c4H
	DB	08H
	DB	0c4H
	DB	08H
	DB	0c4H
	DB	08H
	DB	0c4H
	DB	08H
	DB	0c4H
	DB	08H
	DB	0c4H
	DB	08H
	DB	0c4H
	DB	08H
	DB	0a3H
	DB	08H
	DB	0a3H
	DB	08H
	DB	0a3H
	DB	00H
	DB	0a3H
	DB	00H
	DB	0a3H
	DB	00H
	DB	0a3H
	DB	00H
	DB	0a3H
	DB	00H
	DB	0a3H
	DB	00H
	DB	0a3H
	DB	00H
	DB	0a3H
	DB	00H
	DB	0a3H
	DB	00H
	DB	0a3H
	DB	00H
	DB	0a3H
	DB	00H
	DB	0a3H
	DB	00H
	DB	0a3H
	DB	00H
	DB	0a3H
	DB	00H
	DB	0a3H
	DB	00H
	DB	0a3H
	DB	00H
	DB	0a3H
	DB	00H
	DB	0a3H
	DB	00H
	DB	0a3H
	DB	00H
	DB	0a3H
	DB	00H
	DB	0a3H
	DB	00H
	DB	0a3H
	DB	00H
	DB	0a3H
	DB	00H
	DB	0a3H
	DB	00H
	DB	0a3H
	DB	00H
	DB	0a3H
	DB	00H
	DB	0a3H
	DB	00H
	DB	0e5H
	DB	08H
	DB	0e5H
	DB	08H
	DB	0e5H
	DB	08H
	DB	0e5H
	DB	08H
	DB	0e5H
	DB	08H
	DB	0e5H
	DB	08H
	DB	0e5H
	DB	08H
	DB	0e5H
	DB	08H
	DB	0e5H
	DB	08H
	DB	0e5H
	DB	08H
	DB	0e5H
	DB	08H
	DB	0e5H
	DB	08H
	DB	0e5H
	DB	08H
	DB	0e5H
	DB	08H
	DB	0e5H
	DB	08H
	DB	0e4H
	DB	08H
	DB	0e5H
	DB	08H
	DB	0e5H
	DB	08H
	DB	0e5H
	DB	08H
	DB	0e5H
	DB	08H
	DB	0e5H
	DB	08H
	DB	0e5H
	DB	08H
	DB	0e5H
	DB	08H
	DB	0e5H
	DB	08H
	DB	0e5H
	DB	08H
	DB	0e5H
	DB	08H
	DB	0e5H
	DB	08H
	DB	0e5H
	DB	08H
	DB	0e5H
	DB	08H
	DB	0e5H
	DB	08H
	DB	0e5H
	DB	08H
	DB	0e5H
	DB	08H
	DB	0e5H
	DB	08H
	DB	0e5H
	DB	08H
	DB	0e5H
	DB	08H
	DB	0e5H
	DB	08H
	DB	0e5H
	DB	08H
	DB	0e5H
	DB	08H
	DB	0e5H
	DB	08H
	DB	0e5H
	DB	08H
	DB	0e5H
	DB	08H
	DB	0e5H
	DB	08H
	DB	0e5H
	DB	08H
	DB	0e5H
	DB	08H
	DB	0e5H
	DB	08H
	DB	0e5H
	DB	08H
	DB	0e5H
	DB	08H
	DB	0e5H
	DB	08H
	DB	0e5H
	DB	08H
	DB	0e5H
	DB	08H
	DB	0e5H
	DB	08H
	DB	0e4H
	DB	08H
	DB	0e4H
	DB	08H
	DB	0c9H
	DB	011H
	DB	0c9H
	DB	011H
	DB	0c9H
	DB	011H
	DB	0c9H
	DB	011H
	DB	0c9H
	DB	011H
	DB	0c9H
	DB	011H
	DB	0c9H
	DB	011H
	DB	0c9H
	DB	011H
	DB	0c9H
	DB	011H
	DB	0c9H
	DB	011H
	DB	0c9H
	DB	011H
	DB	0c9H
	DB	011H
	DB	0c9H
	DB	011H
	DB	0c9H
	DB	011H
	DB	0c9H
	DB	011H
	DB	0c9H
	DB	011H
	DB	0c9H
	DB	011H
	DB	0c9H
	DB	011H
	DB	0c9H
	DB	011H
	DB	0c9H
	DB	011H
	DB	0c9H
	DB	011H
	DB	0c9H
	DB	011H
	DB	0c9H
	DB	011H
	DB	0c9H
	DB	011H
	DB	0c9H
	DB	011H
	DB	0c9H
	DB	011H
	DB	0c9H
	DB	011H
	DB	0c9H
	DB	011H
	DB	0c9H
	DB	011H
	DB	0c9H
	DB	011H
	DB	0c9H
	DB	011H
	DB	0c9H
	DB	011H
	DB	0c9H
	DB	011H
	DB	0a9H
	DB	011H
	DB	0a9H
	DB	011H
	DB	0a9H
	DB	011H
	DB	0a9H
	DB	011H
	DB	0a9H
	DB	011H
	DB	0a9H
	DB	011H
	DB	0a9H
	DB	011H
	DB	0a9H
	DB	011H
	DB	0a9H
	DB	011H
	DB	0a8H
	DB	011H
	DB	0a8H
	DB	011H
	DB	0a8H
	DB	011H
	DB	0a8H
	DB	011H
	DB	0a8H
	DB	011H
	DB	0a8H
	DB	011H
	DB	0a8H
	DB	011H
	DB	088H
	DB	011H
	DB	088H
	DB	011H
	DB	088H
	DB	011H
	DB	088H
	DB	011H
	DB	088H
	DB	011H
	DB	088H
	DB	011H
	DB	088H
	DB	011H
	DB	088H
	DB	011H
	DB	088H
	DB	011H
	DB	088H
	DB	011H
	DB	088H
	DB	011H
	DB	088H
	DB	011H
	DB	088H
	DB	011H
	DB	088H
	DB	011H
	DB	088H
	DB	011H
	DB	068H
	DB	011H
	DB	067H
	DB	011H
	DB	067H
	DB	011H
	DB	067H
	DB	011H
	DB	067H
	DB	011H
	DB	067H
	DB	011H
	DB	067H
	DB	011H
	DB	067H
	DB	011H
	DB	067H
	DB	011H
	DB	067H
	DB	011H
	DB	067H
	DB	011H
	DB	067H
	DB	011H
	DB	067H
	DB	011H
	DB	067H
	DB	011H
	DB	067H
	DB	011H
	DB	067H
	DB	011H
	DB	047H
	DB	011H
	DB	047H
	DB	011H
	DB	047H
	DB	011H
	DB	047H
	DB	011H
	DB	047H
	DB	011H
	DB	047H
	DB	011H
	DB	047H
	DB	011H
	DB	047H
	DB	011H
	DB	046H
	DB	09H
	DB	046H
	DB	09H
	DB	046H
	DB	09H
	DB	046H
	DB	09H
	DB	046H
	DB	09H
	DB	046H
	DB	09H
	DB	046H
	DB	09H
	DB	026H
	DB	09H
	DB	026H
	DB	09H
	DB	026H
	DB	09H
	DB	026H
	DB	09H
	DB	026H
	DB	09H
	DB	026H
	DB	09H
	DB	026H
	DB	09H
	DB	026H
	DB	09H
	DB	026H
	DB	09H
	DB	026H
	DB	09H
	DB	026H
	DB	09H
	DB	026H
	DB	09H
	DB	026H
	DB	09H
	DB	026H
	DB	09H
	DB	026H
	DB	09H
	DB	026H
	DB	09H
	DB	05H
	DB	09H
	DB	05H
	DB	09H
	DB	05H
	DB	09H
	DB	05H
	DB	09H
	DB	05H
	DB	09H
	DB	05H
	DB	09H
	DB	05H
	DB	09H
	DB	05H
	DB	09H
	DB	05H
	DB	09H
	DB	05H
	DB	09H
	DB	05H
	DB	09H
	DB	05H
	DB	09H
	DB	05H
	DB	09H
	DB	05H
	DB	09H
	DB	05H
	DB	09H
	DB	0e5H
	DB	08H
	DB	0e5H
	DB	08H
	DB	0e5H
	DB	08H
	DB	0e5H
	DB	08H
	DB	0e5H
	DB	08H
	DB	0e5H
	DB	08H
	DB	0e5H
	DB	08H
	DB	0e5H
	DB	08H
	DB	0e4H
	DB	08H
	DB	0e4H
	DB	08H
	DB	0e4H
	DB	08H
	DB	0e4H
	DB	08H
	DB	0e4H
	DB	08H
	DB	0e4H
	DB	08H
	DB	0e4H
	DB	08H
	DB	0e4H
	DB	08H
	DB	0c4H
	DB	08H
	DB	0c4H
	DB	08H
	DB	0c4H
	DB	08H
	DB	0c4H
	DB	08H
	DB	0c4H
	DB	08H
	DB	0c4H
	DB	08H
	DB	0c4H
	DB	08H
	DB	0c4H
	DB	08H
	DB	0c4H
	DB	08H
	DB	0c4H
	DB	08H
	DB	0c4H
	DB	08H
	DB	0c4H
	DB	08H
	DB	0c4H
	DB	08H
	DB	0c4H
	DB	08H
	DB	0c4H
	DB	08H
	DB	0c4H
	DB	08H
	DB	0a3H
	DB	08H
	DB	0a3H
	DB	08H
	DB	0a3H
	DB	00H
	DB	0a3H
	DB	00H
	DB	0a3H
	DB	00H
	DB	0a3H
	DB	00H
	DB	0a3H
	DB	00H
	DB	0a3H
	DB	00H
	DB	0a3H
	DB	00H
	DB	0a3H
	DB	00H
	DB	0a3H
	DB	00H
	DB	0a3H
	DB	00H
	DB	0a3H
	DB	00H
	DB	0a3H
	DB	00H
	DB	0a3H
	DB	00H
	DB	0a3H
	DB	00H
	DB	0a3H
	DB	00H
	DB	0a3H
	DB	00H
	DB	0a3H
	DB	00H
	DB	0a3H
	DB	00H
	DB	0a3H
	DB	00H
	DB	0a3H
	DB	00H
	DB	0a3H
	DB	00H
	DB	0a3H
	DB	00H
	DB	0a3H
	DB	00H
	DB	0a3H
	DB	00H
	DB	0a3H
	DB	00H
	DB	0a3H
	DB	00H
	DB	0a3H
	DB	00H
	DB	0e5H
	DB	08H
	DB	0e5H
	DB	08H
	DB	0e5H
	DB	08H
	DB	0e5H
	DB	08H
	DB	0e5H
	DB	08H
	DB	0e5H
	DB	08H
	DB	0e5H
	DB	08H
	DB	0e5H
	DB	08H
	DB	0e5H
	DB	08H
	DB	0e5H
	DB	08H
	DB	0e5H
	DB	08H
	DB	0e5H
	DB	08H
	DB	0e5H
	DB	08H
	DB	0e5H
	DB	08H
	DB	0e5H
	DB	08H
	DB	0e5H
	DB	08H
	DB	0e5H
	DB	08H
	DB	0e5H
	DB	08H
	DB	0e5H
	DB	08H
	DB	0e5H
	DB	08H
	DB	0e5H
	DB	08H
	DB	0e5H
	DB	08H
	DB	0e5H
	DB	08H
	DB	0e5H
	DB	08H
	DB	0e5H
	DB	08H
	DB	0e5H
	DB	08H
	DB	0e5H
	DB	08H
	DB	0e5H
	DB	08H
	DB	0e5H
	DB	08H
	DB	0e5H
	DB	08H
	DB	0e5H
	DB	08H
	DB	0e5H
	DB	08H
	DB	0e5H
	DB	08H
	DB	0e5H
	DB	08H
	DB	0e5H
	DB	08H
	DB	0e5H
	DB	08H
	DB	0e5H
	DB	08H
	DB	0e5H
	DB	08H
	DB	0e5H
	DB	08H
	DB	0e5H
	DB	08H
	DB	0e5H
	DB	08H
	DB	0e5H
	DB	08H
	DB	0e5H
	DB	08H
	DB	0e5H
	DB	08H
	DB	0e5H
	DB	08H
	DB	0e5H
	DB	08H
	DB	0e5H
	DB	08H
	DB	0e5H
	DB	08H
	DB	0e5H
	DB	08H
	DB	0e5H
	DB	08H
	DB	0e5H
	DB	08H
	DB	0e4H
	DB	08H
	DB	0e4H
	DB	08H
	DB	0c9H
	DB	011H
	DB	0c9H
	DB	011H
	DB	0c9H
	DB	011H
	DB	0c9H
	DB	011H
	DB	0c9H
	DB	011H
	DB	0c9H
	DB	011H
	DB	0c9H
	DB	011H
	DB	0c9H
	DB	011H
	DB	0c9H
	DB	011H
	DB	0c9H
	DB	011H
	DB	0c9H
	DB	011H
	DB	0c9H
	DB	011H
	DB	0c9H
	DB	011H
	DB	0c9H
	DB	011H
	DB	0c9H
	DB	011H
	DB	0c9H
	DB	011H
	DB	0c9H
	DB	011H
	DB	0c9H
	DB	011H
	DB	0c9H
	DB	011H
	DB	0c9H
	DB	011H
	DB	0c9H
	DB	011H
	DB	0c9H
	DB	011H
	DB	0c9H
	DB	011H
	DB	0c9H
	DB	011H
	DB	0c9H
	DB	011H
	DB	0c9H
	DB	011H
	DB	0c9H
	DB	011H
	DB	0c9H
	DB	011H
	DB	0c9H
	DB	011H
	DB	0c9H
	DB	011H
	DB	0c9H
	DB	011H
	DB	0c9H
	DB	011H
	DB	0c9H
	DB	011H
	DB	0a9H
	DB	011H
	DB	0a9H
	DB	011H
	DB	0a9H
	DB	011H
	DB	0a9H
	DB	011H
	DB	0a9H
	DB	011H
	DB	0a9H
	DB	011H
	DB	0a9H
	DB	011H
	DB	0a9H
	DB	011H
	DB	0a9H
	DB	011H
	DB	0a8H
	DB	011H
	DB	0a8H
	DB	011H
	DB	0a8H
	DB	011H
	DB	0a8H
	DB	011H
	DB	0a8H
	DB	011H
	DB	0a8H
	DB	011H
	DB	0a8H
	DB	011H
	DB	088H
	DB	011H
	DB	088H
	DB	011H
	DB	088H
	DB	011H
	DB	088H
	DB	011H
	DB	088H
	DB	011H
	DB	088H
	DB	011H
	DB	088H
	DB	011H
	DB	088H
	DB	011H
	DB	088H
	DB	011H
	DB	088H
	DB	011H
	DB	088H
	DB	011H
	DB	088H
	DB	011H
	DB	088H
	DB	011H
	DB	088H
	DB	011H
	DB	088H
	DB	011H
	DB	068H
	DB	011H
	DB	067H
	DB	011H
	DB	067H
	DB	011H
	DB	067H
	DB	011H
	DB	067H
	DB	011H
	DB	067H
	DB	011H
	DB	067H
	DB	011H
	DB	067H
	DB	011H
	DB	067H
	DB	011H
	DB	067H
	DB	011H
	DB	067H
	DB	011H
	DB	067H
	DB	011H
	DB	067H
	DB	011H
	DB	067H
	DB	011H
	DB	067H
	DB	011H
	DB	067H
	DB	011H
	DB	047H
	DB	011H
	DB	047H
	DB	011H
	DB	047H
	DB	011H
	DB	047H
	DB	011H
	DB	047H
	DB	011H
	DB	047H
	DB	011H
	DB	047H
	DB	011H
	DB	047H
	DB	011H
	DB	046H
	DB	09H
	DB	046H
	DB	09H
	DB	046H
	DB	09H
	DB	046H
	DB	09H
	DB	046H
	DB	09H
	DB	046H
	DB	09H
	DB	046H
	DB	09H
	DB	026H
	DB	09H
	DB	026H
	DB	09H
	DB	026H
	DB	09H
	DB	026H
	DB	09H
	DB	026H
	DB	09H
	DB	026H
	DB	09H
	DB	026H
	DB	09H
	DB	026H
	DB	09H
	DB	026H
	DB	09H
	DB	026H
	DB	09H
	DB	026H
	DB	09H
	DB	026H
	DB	09H
	DB	026H
	DB	09H
	DB	026H
	DB	09H
	DB	026H
	DB	09H
	DB	026H
	DB	09H
	DB	05H
	DB	09H
	DB	05H
	DB	09H
	DB	05H
	DB	09H
	DB	05H
	DB	09H
	DB	05H
	DB	09H
	DB	05H
	DB	09H
	DB	05H
	DB	09H
	DB	05H
	DB	09H
	DB	05H
	DB	09H
	DB	05H
	DB	09H
	DB	05H
	DB	09H
	DB	05H
	DB	09H
	DB	05H
	DB	09H
	DB	05H
	DB	09H
	DB	05H
	DB	09H
	DB	0e5H
	DB	08H
	DB	0e5H
	DB	08H
	DB	0e5H
	DB	08H
	DB	0e5H
	DB	08H
	DB	0e5H
	DB	08H
	DB	0e5H
	DB	08H
	DB	0e5H
	DB	08H
	DB	0e5H
	DB	08H
	DB	0e4H
	DB	08H
	DB	0e4H
	DB	08H
	DB	0e4H
	DB	08H
	DB	0e4H
	DB	08H
	DB	0e4H
	DB	08H
	DB	0e4H
	DB	08H
	DB	0e4H
	DB	08H
	DB	0e4H
	DB	08H
	DB	0c4H
	DB	08H
	DB	0c4H
	DB	08H
	DB	0c4H
	DB	08H
	DB	0c4H
	DB	08H
	DB	0c4H
	DB	08H
	DB	0c4H
	DB	08H
	DB	0c4H
	DB	08H
	DB	0c4H
	DB	08H
	DB	0c4H
	DB	08H
	DB	0c4H
	DB	08H
	DB	0c4H
	DB	08H
	DB	0c4H
	DB	08H
	DB	0c4H
	DB	08H
	DB	0c4H
	DB	08H
	DB	0c4H
	DB	08H
	DB	0c4H
	DB	08H
	DB	0a3H
	DB	08H
	DB	0a3H
	DB	08H
	DB	0a3H
	DB	00H
	DB	0a3H
	DB	00H
	DB	0a3H
	DB	00H
	DB	0a3H
	DB	00H
	DB	0a3H
	DB	00H
	DB	0a3H
	DB	00H
	DB	0a3H
	DB	00H
	DB	0a3H
	DB	00H
	DB	0a3H
	DB	00H
	DB	0a3H
	DB	00H
	DB	0a3H
	DB	00H
	DB	0a3H
	DB	00H
	DB	0a3H
	DB	00H
	DB	0a3H
	DB	00H
	DB	0a3H
	DB	00H
	DB	0a3H
	DB	00H
	DB	0a3H
	DB	00H
	DB	0a3H
	DB	00H
	DB	0a3H
	DB	00H
	DB	0a3H
	DB	00H
	DB	0a3H
	DB	00H
	DB	0a3H
	DB	00H
	DB	0a3H
	DB	00H
	DB	0a3H
	DB	00H
	DB	0a3H
	DB	00H
	DB	0a3H
	DB	00H
	DB	0a3H
	DB	00H
	DB	0e5H
	DB	08H
	DB	0e5H
	DB	08H
	DB	0e5H
	DB	08H
	DB	0e5H
	DB	08H
	DB	0e5H
	DB	08H
	DB	0e5H
	DB	08H
	DB	0e5H
	DB	08H
	DB	0e5H
	DB	08H
	DB	0e5H
	DB	08H
	DB	0e5H
	DB	08H
	DB	0e5H
	DB	08H
	DB	0e5H
	DB	08H
	DB	0e5H
	DB	08H
	DB	0e5H
	DB	08H
	DB	0e5H
	DB	08H
	DB	0e5H
	DB	08H
	DB	0e5H
	DB	08H
	DB	0e5H
	DB	08H
	DB	0e5H
	DB	08H
	DB	0e5H
	DB	08H
	DB	0e5H
	DB	08H
	DB	0e5H
	DB	08H
	DB	0e5H
	DB	08H
	DB	0e5H
	DB	08H
	DB	0e5H
	DB	08H
	DB	0e5H
	DB	08H
	DB	0e5H
	DB	08H
	DB	0e5H
	DB	08H
	DB	0e5H
	DB	08H
	DB	0e5H
	DB	08H
	DB	0e5H
	DB	08H
	DB	0e5H
	DB	08H
	DB	0e5H
	DB	08H
	DB	0e5H
	DB	08H
	DB	0e5H
	DB	08H
	DB	0e5H
	DB	08H
	DB	0e5H
	DB	08H
	DB	0e5H
	DB	08H
	DB	0e5H
	DB	08H
	DB	0e5H
	DB	08H
	DB	0e5H
	DB	08H
	DB	0e5H
	DB	08H
	DB	0e5H
	DB	08H
	DB	0e5H
	DB	08H
	DB	0e5H
	DB	08H
	DB	0e5H
	DB	08H
	DB	0e5H
	DB	08H
	DB	0e5H
	DB	08H
	DB	0e5H
	DB	08H
	DB	0e5H
	DB	08H
	DB	0e5H
	DB	08H
	DB	0e4H
	DB	08H
	DB	0e4H
	DB	08H
	DB	0c9H
	DB	011H
	DB	0c9H
	DB	011H
	DB	0c9H
	DB	011H
	DB	0c9H
	DB	011H
	DB	0c9H
	DB	011H
	DB	0c9H
	DB	011H
	DB	0c9H
	DB	011H
	DB	0c9H
	DB	011H
	DB	0c9H
	DB	011H
	DB	0c9H
	DB	011H
	DB	0c9H
	DB	011H
	DB	0c9H
	DB	011H
	DB	0c9H
	DB	011H
	DB	0c9H
	DB	011H
	DB	0c9H
	DB	011H
	DB	0c9H
	DB	011H
	DB	0c9H
	DB	011H
	DB	0c9H
	DB	011H
	DB	0c9H
	DB	011H
	DB	0c9H
	DB	011H
	DB	0c9H
	DB	011H
	DB	0c9H
	DB	011H
	DB	0c9H
	DB	011H
	DB	0c9H
	DB	011H
	DB	0c9H
	DB	011H
	DB	0c9H
	DB	011H
	DB	0c9H
	DB	011H
	DB	0c9H
	DB	011H
	DB	0c9H
	DB	011H
	DB	0c9H
	DB	011H
	DB	0c9H
	DB	011H
	DB	0c9H
	DB	011H
	DB	0c9H
	DB	011H
	DB	0a9H
	DB	011H
	DB	0a9H
	DB	011H
	DB	0a9H
	DB	011H
	DB	0a9H
	DB	011H
	DB	0a9H
	DB	011H
	DB	0a9H
	DB	011H
	DB	0a9H
	DB	011H
	DB	0a9H
	DB	011H
	DB	0a9H
	DB	011H
	DB	0a8H
	DB	011H
	DB	0a8H
	DB	011H
	DB	0a8H
	DB	011H
	DB	0a8H
	DB	011H
	DB	0a8H
	DB	011H
	DB	0a8H
	DB	011H
	DB	0a8H
	DB	011H
	DB	088H
	DB	011H
	DB	088H
	DB	011H
	DB	088H
	DB	011H
	DB	088H
	DB	011H
	DB	088H
	DB	011H
	DB	088H
	DB	011H
	DB	088H
	DB	011H
	DB	088H
	DB	011H
	DB	088H
	DB	011H
	DB	088H
	DB	011H
	DB	088H
	DB	011H
	DB	088H
	DB	011H
	DB	088H
	DB	011H
	DB	088H
	DB	011H
	DB	088H
	DB	011H
	DB	068H
	DB	011H
	DB	067H
	DB	011H
	DB	067H
	DB	011H
	DB	067H
	DB	011H
	DB	067H
	DB	011H
	DB	067H
	DB	011H
	DB	067H
	DB	011H
	DB	067H
	DB	011H
	DB	067H
	DB	011H
	DB	067H
	DB	011H
	DB	067H
	DB	011H
	DB	067H
	DB	011H
	DB	067H
	DB	011H
	DB	067H
	DB	011H
	DB	067H
	DB	011H
	DB	067H
	DB	011H
	DB	047H
	DB	011H
	DB	047H
	DB	011H
	DB	047H
	DB	011H
	DB	047H
	DB	011H
	DB	047H
	DB	011H
	DB	047H
	DB	011H
	DB	047H
	DB	011H
	DB	047H
	DB	011H
	DB	046H
	DB	09H
	DB	046H
	DB	09H
	DB	046H
	DB	09H
	DB	046H
	DB	09H
	DB	046H
	DB	09H
	DB	046H
	DB	09H
	DB	046H
	DB	09H
	DB	026H
	DB	09H
	DB	026H
	DB	09H
	DB	026H
	DB	09H
	DB	026H
	DB	09H
	DB	026H
	DB	09H
	DB	026H
	DB	09H
	DB	026H
	DB	09H
	DB	026H
	DB	09H
	DB	026H
	DB	09H
	DB	026H
	DB	09H
	DB	026H
	DB	09H
	DB	026H
	DB	09H
	DB	026H
	DB	09H
	DB	026H
	DB	09H
	DB	026H
	DB	09H
	DB	026H
	DB	09H
	DB	05H
	DB	09H
	DB	05H
	DB	09H
	DB	05H
	DB	09H
	DB	05H
	DB	09H
	DB	05H
	DB	09H
	DB	05H
	DB	09H
	DB	05H
	DB	09H
	DB	05H
	DB	09H
	DB	05H
	DB	09H
	DB	05H
	DB	09H
	DB	05H
	DB	09H
	DB	05H
	DB	09H
	DB	05H
	DB	09H
	DB	05H
	DB	09H
	DB	05H
	DB	09H
	DB	0e5H
	DB	08H
	DB	0e5H
	DB	08H
	DB	0e5H
	DB	08H
	DB	0e5H
	DB	08H
	DB	0e5H
	DB	08H
	DB	0e5H
	DB	08H
	DB	0e5H
	DB	08H
	DB	0e5H
	DB	08H
	DB	0e4H
	DB	08H
	DB	0e4H
	DB	08H
	DB	0e4H
	DB	08H
	DB	0e4H
	DB	08H
	DB	0e4H
	DB	08H
	DB	0e4H
	DB	08H
	DB	0e4H
	DB	08H
	DB	0e4H
	DB	08H
	DB	0c4H
	DB	08H
	DB	0c4H
	DB	08H
	DB	0c4H
	DB	08H
	DB	0c4H
	DB	08H
	DB	0c4H
	DB	08H
	DB	0c4H
	DB	08H
	DB	0c4H
	DB	08H
	DB	0c4H
	DB	08H
	DB	0c4H
	DB	08H
	DB	0c4H
	DB	08H
	DB	0c4H
	DB	08H
	DB	0c4H
	DB	08H
	DB	0c4H
	DB	08H
	DB	0c4H
	DB	08H
	DB	0c4H
	DB	08H
	DB	0c4H
	DB	08H
	DB	0a3H
	DB	08H
	DB	0a3H
	DB	08H
	DB	0a3H
	DB	08H
	DB	0a3H
	DB	00H
	DB	0a3H
	DB	00H
	DB	0a3H
	DB	00H
	DB	0a3H
	DB	00H
	DB	0a3H
	DB	00H
	DB	0a3H
	DB	00H
	DB	0a3H
	DB	00H
	DB	0a3H
	DB	00H
	DB	0a3H
	DB	00H
	DB	0a3H
	DB	00H
	DB	0a3H
	DB	00H
	DB	0a3H
	DB	00H
	DB	0a3H
	DB	00H
	DB	0a3H
	DB	00H
	DB	0a3H
	DB	00H
	DB	0a3H
	DB	00H
	DB	0a3H
	DB	00H
	DB	0a3H
	DB	00H
	DB	0a3H
	DB	00H
	DB	0a3H
	DB	00H
	DB	0a3H
	DB	00H
	DB	0a3H
	DB	00H
	DB	0a3H
	DB	00H
	DB	0a3H
	DB	00H
	DB	0a3H
	DB	00H
	DB	0a3H
	DB	00H
	DB	05H
	DB	09H
	DB	0e5H
	DB	08H
	DB	0e5H
	DB	08H
	DB	05H
	DB	09H
	DB	0e5H
	DB	08H
	DB	0e5H
	DB	08H
	DB	0e5H
	DB	08H
	DB	0e5H
	DB	08H
	DB	0e5H
	DB	08H
	DB	0e5H
	DB	08H
	DB	0e5H
	DB	08H
	DB	0e5H
	DB	08H
	DB	0e5H
	DB	08H
	DB	0e5H
	DB	08H
	DB	0e5H
	DB	08H
	DB	0e5H
	DB	08H
	DB	0e5H
	DB	08H
	DB	0e5H
	DB	08H
	DB	0e5H
	DB	08H
	DB	0e5H
	DB	08H
	DB	0e5H
	DB	08H
	DB	0e5H
	DB	08H
	DB	0e5H
	DB	08H
	DB	0e5H
	DB	08H
	DB	0e5H
	DB	08H
	DB	0e5H
	DB	08H
	DB	0e5H
	DB	08H
	DB	0e5H
	DB	08H
	DB	0e5H
	DB	08H
	DB	0e5H
	DB	08H
	DB	0e5H
	DB	08H
	DB	0e5H
	DB	08H
	DB	0e5H
	DB	08H
	DB	0e5H
	DB	08H
	DB	0e5H
	DB	08H
	DB	0e5H
	DB	08H
	DB	0e5H
	DB	08H
	DB	0e5H
	DB	08H
	DB	0e5H
	DB	08H
	DB	0e5H
	DB	08H
	DB	0e5H
	DB	08H
	DB	0e5H
	DB	08H
	DB	0e5H
	DB	08H
	DB	0e5H
	DB	08H
	DB	0e5H
	DB	08H
	DB	0e5H
	DB	08H
	DB	0e5H
	DB	08H
	DB	0e5H
	DB	08H
	DB	0e5H
	DB	08H
	DB	0e5H
	DB	08H
	DB	0e5H
	DB	08H
	DB	0e4H
	DB	08H
	DB	0e4H
	DB	08H
	DB	0c9H
	DB	011H
	DB	0c9H
	DB	011H
	DB	0c9H
	DB	011H
	DB	0c9H
	DB	011H
	DB	0c9H
	DB	011H
	DB	0c9H
	DB	011H
	DB	0c9H
	DB	011H
	DB	0c9H
	DB	011H
	DB	0c9H
	DB	011H
	DB	0c9H
	DB	011H
	DB	0c9H
	DB	011H
	DB	0c9H
	DB	011H
	DB	0c9H
	DB	011H
	DB	0c9H
	DB	011H
	DB	0c9H
	DB	011H
	DB	0c9H
	DB	011H
	DB	0c9H
	DB	011H
	DB	0c9H
	DB	011H
	DB	0c9H
	DB	011H
	DB	0c9H
	DB	011H
	DB	0c9H
	DB	011H
	DB	0c9H
	DB	011H
	DB	0c9H
	DB	011H
	DB	0c9H
	DB	011H
	DB	0c9H
	DB	011H
	DB	0c9H
	DB	011H
	DB	0c9H
	DB	011H
	DB	0c9H
	DB	011H
	DB	0c9H
	DB	011H
	DB	0c9H
	DB	011H
	DB	0c9H
	DB	011H
	DB	0c9H
	DB	011H
	DB	0c9H
	DB	011H
	DB	0a9H
	DB	011H
	DB	0a9H
	DB	011H
	DB	0a9H
	DB	011H
	DB	0a9H
	DB	011H
	DB	0a9H
	DB	011H
	DB	0a9H
	DB	011H
	DB	0a9H
	DB	011H
	DB	0a9H
	DB	011H
	DB	0a9H
	DB	011H
	DB	0a8H
	DB	011H
	DB	0a8H
	DB	011H
	DB	0a8H
	DB	011H
	DB	0a8H
	DB	011H
	DB	0a8H
	DB	011H
	DB	0a8H
	DB	011H
	DB	0a8H
	DB	011H
	DB	088H
	DB	011H
	DB	088H
	DB	011H
	DB	088H
	DB	011H
	DB	088H
	DB	011H
	DB	088H
	DB	011H
	DB	088H
	DB	011H
	DB	088H
	DB	011H
	DB	088H
	DB	011H
	DB	088H
	DB	011H
	DB	088H
	DB	011H
	DB	088H
	DB	011H
	DB	088H
	DB	011H
	DB	088H
	DB	011H
	DB	088H
	DB	011H
	DB	088H
	DB	011H
	DB	068H
	DB	011H
	DB	067H
	DB	011H
	DB	067H
	DB	011H
	DB	067H
	DB	011H
	DB	067H
	DB	011H
	DB	067H
	DB	011H
	DB	067H
	DB	011H
	DB	067H
	DB	011H
	DB	067H
	DB	011H
	DB	067H
	DB	011H
	DB	067H
	DB	011H
	DB	067H
	DB	011H
	DB	067H
	DB	011H
	DB	067H
	DB	011H
	DB	067H
	DB	011H
	DB	067H
	DB	011H
	DB	047H
	DB	011H
	DB	047H
	DB	011H
	DB	047H
	DB	011H
	DB	047H
	DB	011H
	DB	047H
	DB	011H
	DB	047H
	DB	011H
	DB	047H
	DB	011H
	DB	047H
	DB	011H
	DB	046H
	DB	09H
	DB	046H
	DB	09H
	DB	046H
	DB	09H
	DB	046H
	DB	09H
	DB	046H
	DB	09H
	DB	046H
	DB	09H
	DB	046H
	DB	09H
	DB	026H
	DB	09H
	DB	026H
	DB	09H
	DB	026H
	DB	09H
	DB	026H
	DB	09H
	DB	026H
	DB	09H
	DB	026H
	DB	09H
	DB	026H
	DB	09H
	DB	026H
	DB	09H
	DB	026H
	DB	09H
	DB	026H
	DB	09H
	DB	026H
	DB	09H
	DB	026H
	DB	09H
	DB	026H
	DB	09H
	DB	026H
	DB	09H
	DB	026H
	DB	09H
	DB	026H
	DB	09H
	DB	05H
	DB	09H
	DB	05H
	DB	09H
	DB	05H
	DB	09H
	DB	05H
	DB	09H
	DB	05H
	DB	09H
	DB	05H
	DB	09H
	DB	05H
	DB	09H
	DB	05H
	DB	09H
	DB	05H
	DB	09H
	DB	05H
	DB	09H
	DB	05H
	DB	09H
	DB	05H
	DB	09H
	DB	05H
	DB	09H
	DB	05H
	DB	09H
	DB	05H
	DB	09H
	DB	0e5H
	DB	08H
	DB	0e5H
	DB	08H
	DB	0e5H
	DB	08H
	DB	0e5H
	DB	08H
	DB	0e5H
	DB	08H
	DB	0e5H
	DB	08H
	DB	0e5H
	DB	08H
	DB	0e5H
	DB	08H
	DB	0e4H
	DB	08H
	DB	0e4H
	DB	08H
	DB	0e4H
	DB	08H
	DB	0e4H
	DB	08H
	DB	0e4H
	DB	08H
	DB	0e4H
	DB	08H
	DB	0e4H
	DB	08H
	DB	0e4H
	DB	08H
	DB	0c4H
	DB	08H
	DB	0c4H
	DB	08H
	DB	0c4H
	DB	08H
	DB	0c4H
	DB	08H
	DB	0c4H
	DB	08H
	DB	0c4H
	DB	08H
	DB	0c4H
	DB	08H
	DB	0c4H
	DB	08H
	DB	0c4H
	DB	08H
	DB	0c4H
	DB	08H
	DB	0c4H
	DB	08H
	DB	0c4H
	DB	08H
	DB	0c4H
	DB	08H
	DB	0c4H
	DB	08H
	DB	0c4H
	DB	08H
	DB	0c4H
	DB	08H
	DB	0a3H
	DB	08H
	DB	0a3H
	DB	08H
	DB	0a3H
	DB	08H
	DB	0a3H
	DB	00H
	DB	0a3H
	DB	00H
	DB	0a3H
	DB	00H
	DB	0a3H
	DB	00H
	DB	0a3H
	DB	00H
	DB	0a3H
	DB	00H
	DB	0a3H
	DB	00H
	DB	0a3H
	DB	00H
	DB	0a3H
	DB	00H
	DB	0a3H
	DB	00H
	DB	0a3H
	DB	00H
	DB	0a3H
	DB	00H
	DB	0a3H
	DB	00H
	DB	0a3H
	DB	00H
	DB	0a3H
	DB	00H
	DB	0a3H
	DB	00H
	DB	0a3H
	DB	00H
	DB	0a3H
	DB	00H
	DB	0a3H
	DB	00H
	DB	0a3H
	DB	00H
	DB	0a3H
	DB	00H
	DB	0a3H
	DB	00H
	DB	0a3H
	DB	00H
	DB	0a3H
	DB	00H
	DB	0a3H
	DB	00H
	DB	0a3H
	DB	00H
	DB	0e5H
	DB	08H
	DB	0e5H
	DB	08H
	DB	0e5H
	DB	08H
	DB	0e5H
	DB	08H
	DB	0e5H
	DB	08H
	DB	0e5H
	DB	08H
	DB	0e5H
	DB	08H
	DB	0e5H
	DB	08H
	DB	0e5H
	DB	08H
	DB	05H
	DB	09H
	DB	0e5H
	DB	08H
	DB	0e5H
	DB	08H
	DB	0e5H
	DB	08H
	DB	0e5H
	DB	08H
	DB	0e5H
	DB	08H
	DB	0e5H
	DB	08H
	DB	0e5H
	DB	08H
	DB	0e5H
	DB	08H
	DB	0e5H
	DB	08H
	DB	0e5H
	DB	08H
	DB	0e5H
	DB	08H
	DB	0e5H
	DB	08H
	DB	0e5H
	DB	08H
	DB	0e5H
	DB	08H
	DB	0e5H
	DB	08H
	DB	0e5H
	DB	08H
	DB	0e5H
	DB	08H
	DB	0e5H
	DB	08H
	DB	0e5H
	DB	08H
	DB	05H
	DB	09H
	DB	0e5H
	DB	08H
	DB	0e5H
	DB	08H
	DB	0e5H
	DB	08H
	DB	0e5H
	DB	08H
	DB	0e5H
	DB	08H
	DB	0e5H
	DB	08H
	DB	0e5H
	DB	08H
	DB	0e5H
	DB	08H
	DB	0e5H
	DB	08H
	DB	0e5H
	DB	08H
	DB	0e5H
	DB	08H
	DB	0e5H
	DB	08H
	DB	0e5H
	DB	08H
	DB	0e5H
	DB	08H
	DB	0e5H
	DB	08H
	DB	0e5H
	DB	08H
	DB	0e5H
	DB	08H
	DB	0e5H
	DB	08H
	DB	0e5H
	DB	08H
	DB	0e5H
	DB	08H
	DB	0e5H
	DB	08H
	DB	0e4H
	DB	08H
	DB	0e4H
	DB	08H
	DB	0c9H
	DB	011H
	DB	0c9H
	DB	011H
	DB	0c9H
	DB	011H
	DB	0c9H
	DB	011H
	DB	0c9H
	DB	011H
	DB	0c9H
	DB	011H
	DB	0c9H
	DB	011H
	DB	0c9H
	DB	011H
	DB	0c9H
	DB	011H
	DB	0c9H
	DB	011H
	DB	0c9H
	DB	011H
	DB	0c9H
	DB	011H
	DB	0c9H
	DB	011H
	DB	0c9H
	DB	011H
	DB	0c9H
	DB	011H
	DB	0c9H
	DB	011H
	DB	0c9H
	DB	011H
	DB	0c9H
	DB	011H
	DB	0c9H
	DB	011H
	DB	0c9H
	DB	011H
	DB	0c9H
	DB	011H
	DB	0c9H
	DB	011H
	DB	0c9H
	DB	011H
	DB	0c9H
	DB	011H
	DB	0c9H
	DB	011H
	DB	0c9H
	DB	011H
	DB	0c9H
	DB	011H
	DB	0c9H
	DB	011H
	DB	0c9H
	DB	011H
	DB	0c9H
	DB	011H
	DB	0c9H
	DB	011H
	DB	0c9H
	DB	011H
	DB	0c9H
	DB	011H
	DB	0a9H
	DB	011H
	DB	0a9H
	DB	011H
	DB	0a9H
	DB	011H
	DB	0a9H
	DB	011H
	DB	0a9H
	DB	011H
	DB	0a9H
	DB	011H
	DB	0a9H
	DB	011H
	DB	0a9H
	DB	011H
	DB	0a9H
	DB	011H
	DB	0a8H
	DB	011H
	DB	0a8H
	DB	011H
	DB	0a8H
	DB	011H
	DB	0a8H
	DB	011H
	DB	0a8H
	DB	011H
	DB	0a8H
	DB	011H
	DB	0a8H
	DB	011H
	DB	088H
	DB	011H
	DB	088H
	DB	011H
	DB	088H
	DB	011H
	DB	088H
	DB	011H
	DB	088H
	DB	011H
	DB	088H
	DB	011H
	DB	088H
	DB	011H
	DB	088H
	DB	011H
	DB	088H
	DB	011H
	DB	088H
	DB	011H
	DB	088H
	DB	011H
	DB	088H
	DB	011H
	DB	088H
	DB	011H
	DB	088H
	DB	011H
	DB	088H
	DB	011H
	DB	068H
	DB	011H
	DB	067H
	DB	011H
	DB	067H
	DB	011H
	DB	067H
	DB	011H
	DB	067H
	DB	011H
	DB	067H
	DB	011H
	DB	067H
	DB	011H
	DB	067H
	DB	011H
	DB	067H
	DB	011H
	DB	067H
	DB	011H
	DB	067H
	DB	011H
	DB	067H
	DB	011H
	DB	067H
	DB	011H
	DB	067H
	DB	011H
	DB	067H
	DB	011H
	DB	067H
	DB	011H
	DB	047H
	DB	011H
	DB	047H
	DB	011H
	DB	047H
	DB	011H
	DB	047H
	DB	011H
	DB	047H
	DB	011H
	DB	047H
	DB	011H
	DB	047H
	DB	011H
	DB	047H
	DB	011H
	DB	046H
	DB	09H
	DB	046H
	DB	09H
	DB	046H
	DB	09H
	DB	046H
	DB	09H
	DB	046H
	DB	09H
	DB	046H
	DB	09H
	DB	046H
	DB	09H
	DB	026H
	DB	09H
	DB	026H
	DB	09H
	DB	026H
	DB	09H
	DB	026H
	DB	09H
	DB	026H
	DB	09H
	DB	026H
	DB	09H
	DB	026H
	DB	09H
	DB	026H
	DB	09H
	DB	026H
	DB	09H
	DB	026H
	DB	09H
	DB	026H
	DB	09H
	DB	026H
	DB	09H
	DB	026H
	DB	09H
	DB	026H
	DB	09H
	DB	026H
	DB	09H
	DB	026H
	DB	09H
	DB	05H
	DB	09H
	DB	05H
	DB	09H
	DB	05H
	DB	09H
	DB	05H
	DB	09H
	DB	05H
	DB	09H
	DB	05H
	DB	09H
	DB	05H
	DB	09H
	DB	05H
	DB	09H
	DB	05H
	DB	09H
	DB	05H
	DB	09H
	DB	05H
	DB	09H
	DB	05H
	DB	09H
	DB	05H
	DB	09H
	DB	05H
	DB	09H
	DB	05H
	DB	09H
	DB	0e5H
	DB	08H
	DB	0e5H
	DB	08H
	DB	0e5H
	DB	08H
	DB	0e5H
	DB	08H
	DB	0e5H
	DB	08H
	DB	0e5H
	DB	08H
	DB	0e5H
	DB	08H
	DB	0e5H
	DB	08H
	DB	0e4H
	DB	08H
	DB	0e4H
	DB	08H
	DB	0e4H
	DB	08H
	DB	0e4H
	DB	08H
	DB	0e4H
	DB	08H
	DB	0e4H
	DB	08H
	DB	0e4H
	DB	08H
	DB	0e4H
	DB	08H
	DB	0c4H
	DB	08H
	DB	0c4H
	DB	08H
	DB	0c4H
	DB	08H
	DB	0c4H
	DB	08H
	DB	0c4H
	DB	08H
	DB	0c4H
	DB	08H
	DB	0c4H
	DB	08H
	DB	0c4H
	DB	08H
	DB	0c4H
	DB	08H
	DB	0c4H
	DB	08H
	DB	0c4H
	DB	08H
	DB	0c4H
	DB	08H
	DB	0c4H
	DB	08H
	DB	0c4H
	DB	08H
	DB	0c4H
	DB	08H
	DB	0c4H
	DB	08H
	DB	0a3H
	DB	08H
	DB	0a3H
	DB	08H
	DB	0a3H
	DB	08H
	DB	0a3H
	DB	00H
	DB	0a3H
	DB	00H
	DB	0a3H
	DB	00H
	DB	0a3H
	DB	00H
	DB	0a3H
	DB	00H
	DB	0a3H
	DB	00H
	DB	0a3H
	DB	00H
	DB	0a3H
	DB	00H
	DB	0a3H
	DB	00H
	DB	0a3H
	DB	00H
	DB	0a3H
	DB	00H
	DB	0a3H
	DB	00H
	DB	0a3H
	DB	00H
	DB	0a3H
	DB	00H
	DB	0a3H
	DB	00H
	DB	0a3H
	DB	00H
	DB	0a3H
	DB	00H
	DB	0a3H
	DB	00H
	DB	0a3H
	DB	00H
	DB	0a3H
	DB	00H
	DB	0a3H
	DB	00H
	DB	0a3H
	DB	00H
	DB	0a3H
	DB	00H
	DB	0a3H
	DB	00H
	DB	0a3H
	DB	00H
	DB	0a3H
	DB	00H
	DB	0e5H
	DB	08H
	DB	05H
	DB	09H
	DB	0e5H
	DB	08H
	DB	05H
	DB	09H
	DB	0e5H
	DB	08H
	DB	0e5H
	DB	08H
	DB	0e5H
	DB	08H
	DB	05H
	DB	09H
	DB	0e5H
	DB	08H
	DB	0e5H
	DB	08H
	DB	0e5H
	DB	08H
	DB	0e5H
	DB	08H
	DB	0e5H
	DB	08H
	DB	05H
	DB	09H
	DB	0e5H
	DB	08H
	DB	0e5H
	DB	08H
	DB	0e5H
	DB	08H
	DB	0e5H
	DB	08H
	DB	05H
	DB	09H
	DB	0e5H
	DB	08H
	DB	0e5H
	DB	08H
	DB	0e5H
	DB	08H
	DB	0e5H
	DB	08H
	DB	0e5H
	DB	08H
	DB	0e5H
	DB	08H
	DB	0e5H
	DB	08H
	DB	0e5H
	DB	08H
	DB	0e5H
	DB	08H
	DB	0e5H
	DB	08H
	DB	0e5H
	DB	08H
	DB	05H
	DB	09H
	DB	0e5H
	DB	08H
	DB	0e5H
	DB	08H
	DB	0e5H
	DB	08H
	DB	0e5H
	DB	08H
	DB	0e5H
	DB	08H
	DB	0e5H
	DB	08H
	DB	05H
	DB	09H
	DB	0e5H
	DB	08H
	DB	0e5H
	DB	08H
	DB	0e5H
	DB	08H
	DB	0e5H
	DB	08H
	DB	0e5H
	DB	08H
	DB	0e5H
	DB	08H
	DB	0e5H
	DB	08H
	DB	0e5H
	DB	08H
	DB	0e5H
	DB	08H
	DB	0e5H
	DB	08H
	DB	0e5H
	DB	08H
	DB	0e5H
	DB	08H
	DB	0e5H
	DB	08H
	DB	0e4H
	DB	08H
	DB	0e4H
	DB	08H
	DB	0c9H
	DB	011H
	DB	0c9H
	DB	011H
	DB	0c9H
	DB	011H
	DB	0c9H
	DB	011H
	DB	0c9H
	DB	011H
	DB	0c9H
	DB	011H
	DB	0c9H
	DB	011H
	DB	0c9H
	DB	011H
	DB	0c9H
	DB	011H
	DB	0c9H
	DB	011H
	DB	0c9H
	DB	011H
	DB	0c9H
	DB	011H
	DB	0c9H
	DB	011H
	DB	0c9H
	DB	011H
	DB	0c9H
	DB	011H
	DB	0c9H
	DB	011H
	DB	0c9H
	DB	011H
	DB	0c9H
	DB	011H
	DB	0c9H
	DB	011H
	DB	0c9H
	DB	011H
	DB	0c9H
	DB	011H
	DB	0c9H
	DB	011H
	DB	0c9H
	DB	011H
	DB	0c9H
	DB	011H
	DB	0c9H
	DB	011H
	DB	0c9H
	DB	011H
	DB	0c9H
	DB	011H
	DB	0c9H
	DB	011H
	DB	0c9H
	DB	011H
	DB	0c9H
	DB	011H
	DB	0c9H
	DB	011H
	DB	0c9H
	DB	011H
	DB	0c9H
	DB	011H
	DB	0a9H
	DB	011H
	DB	0a9H
	DB	011H
	DB	0a9H
	DB	011H
	DB	0a9H
	DB	011H
	DB	0a9H
	DB	011H
	DB	0a9H
	DB	011H
	DB	0a9H
	DB	011H
	DB	0a9H
	DB	011H
	DB	0a9H
	DB	011H
	DB	0a8H
	DB	011H
	DB	0a8H
	DB	011H
	DB	0a8H
	DB	011H
	DB	0a8H
	DB	011H
	DB	0a8H
	DB	011H
	DB	0a8H
	DB	011H
	DB	0a8H
	DB	011H
	DB	088H
	DB	011H
	DB	088H
	DB	011H
	DB	088H
	DB	011H
	DB	088H
	DB	011H
	DB	088H
	DB	011H
	DB	088H
	DB	011H
	DB	088H
	DB	011H
	DB	088H
	DB	011H
	DB	088H
	DB	011H
	DB	088H
	DB	011H
	DB	088H
	DB	011H
	DB	088H
	DB	011H
	DB	088H
	DB	011H
	DB	088H
	DB	011H
	DB	088H
	DB	011H
	DB	068H
	DB	011H
	DB	067H
	DB	011H
	DB	067H
	DB	011H
	DB	067H
	DB	011H
	DB	067H
	DB	011H
	DB	067H
	DB	011H
	DB	067H
	DB	011H
	DB	067H
	DB	011H
	DB	067H
	DB	011H
	DB	067H
	DB	011H
	DB	067H
	DB	011H
	DB	067H
	DB	011H
	DB	067H
	DB	011H
	DB	067H
	DB	011H
	DB	067H
	DB	011H
	DB	067H
	DB	011H
	DB	047H
	DB	011H
	DB	047H
	DB	011H
	DB	047H
	DB	011H
	DB	047H
	DB	011H
	DB	047H
	DB	011H
	DB	047H
	DB	011H
	DB	047H
	DB	011H
	DB	047H
	DB	011H
	DB	046H
	DB	09H
	DB	046H
	DB	09H
	DB	046H
	DB	09H
	DB	046H
	DB	09H
	DB	046H
	DB	09H
	DB	046H
	DB	09H
	DB	046H
	DB	09H
	DB	026H
	DB	09H
	DB	026H
	DB	09H
	DB	026H
	DB	09H
	DB	026H
	DB	09H
	DB	026H
	DB	09H
	DB	026H
	DB	09H
	DB	026H
	DB	09H
	DB	026H
	DB	09H
	DB	026H
	DB	09H
	DB	026H
	DB	09H
	DB	026H
	DB	09H
	DB	026H
	DB	09H
	DB	026H
	DB	09H
	DB	026H
	DB	09H
	DB	026H
	DB	09H
	DB	026H
	DB	09H
	DB	05H
	DB	09H
	DB	05H
	DB	09H
	DB	05H
	DB	09H
	DB	05H
	DB	09H
	DB	05H
	DB	09H
	DB	05H
	DB	09H
	DB	05H
	DB	09H
	DB	05H
	DB	09H
	DB	05H
	DB	09H
	DB	05H
	DB	09H
	DB	05H
	DB	09H
	DB	05H
	DB	09H
	DB	05H
	DB	09H
	DB	05H
	DB	09H
	DB	05H
	DB	09H
	DB	0e5H
	DB	08H
	DB	0e5H
	DB	08H
	DB	0e5H
	DB	08H
	DB	0e5H
	DB	08H
	DB	0e5H
	DB	08H
	DB	0e5H
	DB	08H
	DB	0e5H
	DB	08H
	DB	0e5H
	DB	08H
	DB	0e4H
	DB	08H
	DB	0e4H
	DB	08H
	DB	0e4H
	DB	08H
	DB	0e4H
	DB	08H
	DB	0e4H
	DB	08H
	DB	0e4H
	DB	08H
	DB	0e4H
	DB	08H
	DB	0e4H
	DB	08H
	DB	0c4H
	DB	08H
	DB	0c4H
	DB	08H
	DB	0c4H
	DB	08H
	DB	0c4H
	DB	08H
	DB	0c4H
	DB	08H
	DB	0c4H
	DB	08H
	DB	0c4H
	DB	08H
	DB	0c4H
	DB	08H
	DB	0c4H
	DB	08H
	DB	0c4H
	DB	08H
	DB	0c4H
	DB	08H
	DB	0c4H
	DB	08H
	DB	0c4H
	DB	08H
	DB	0c4H
	DB	08H
	DB	0c4H
	DB	08H
	DB	0c4H
	DB	08H
	DB	0a3H
	DB	08H
	DB	0a3H
	DB	08H
	DB	0a3H
	DB	08H
	DB	0a3H
	DB	00H
	DB	0a3H
	DB	00H
	DB	0a3H
	DB	00H
	DB	0a3H
	DB	00H
	DB	0a3H
	DB	00H
	DB	0a3H
	DB	00H
	DB	0a3H
	DB	00H
	DB	0a3H
	DB	00H
	DB	0a3H
	DB	00H
	DB	0a3H
	DB	00H
	DB	0a3H
	DB	00H
	DB	0a3H
	DB	00H
	DB	0a3H
	DB	00H
	DB	0a3H
	DB	00H
	DB	0a3H
	DB	00H
	DB	0a3H
	DB	00H
	DB	0a3H
	DB	00H
	DB	0a3H
	DB	00H
	DB	0a3H
	DB	00H
	DB	0a3H
	DB	00H
	DB	0a3H
	DB	00H
	DB	0a3H
	DB	00H
	DB	0a3H
	DB	00H
	DB	0a3H
	DB	00H
	DB	0a3H
	DB	00H
	DB	0a3H
	DB	00H
	DB	05H
	DB	09H
	DB	05H
	DB	09H
	DB	05H
	DB	09H
	DB	0e5H
	DB	08H
	DB	05H
	DB	09H
	DB	05H
	DB	09H
	DB	0e5H
	DB	08H
	DB	0e5H
	DB	08H
	DB	0e5H
	DB	08H
	DB	05H
	DB	09H
	DB	05H
	DB	09H
	DB	0e5H
	DB	08H
	DB	05H
	DB	09H
	DB	05H
	DB	09H
	DB	0e5H
	DB	08H
	DB	0e5H
	DB	08H
	DB	0e5H
	DB	08H
	DB	05H
	DB	09H
	DB	0e5H
	DB	08H
	DB	05H
	DB	09H
	DB	0e5H
	DB	08H
	DB	05H
	DB	09H
	DB	0e5H
	DB	08H
	DB	0e5H
	DB	08H
	DB	05H
	DB	09H
	DB	0e5H
	DB	08H
	DB	0e5H
	DB	08H
	DB	05H
	DB	09H
	DB	0e5H
	DB	08H
	DB	0e5H
	DB	08H
	DB	0e5H
	DB	08H
	DB	0e5H
	DB	08H
	DB	0e5H
	DB	08H
	DB	0e5H
	DB	08H
	DB	0e5H
	DB	08H
	DB	05H
	DB	09H
	DB	0e5H
	DB	08H
	DB	0e5H
	DB	08H
	DB	05H
	DB	09H
	DB	0e5H
	DB	08H
	DB	0e5H
	DB	08H
	DB	0e5H
	DB	08H
	DB	0e5H
	DB	08H
	DB	0e5H
	DB	08H
	DB	05H
	DB	09H
	DB	05H
	DB	09H
	DB	0e5H
	DB	08H
	DB	0e5H
	DB	08H
	DB	0e5H
	DB	08H
	DB	0e5H
	DB	08H
	DB	0e5H
	DB	08H
	DB	0e4H
	DB	08H
	DB	0e4H
	DB	08H
	DB	0c9H
	DB	011H
	DB	0c9H
	DB	011H
	DB	0c9H
	DB	011H
	DB	0c9H
	DB	011H
	DB	0c9H
	DB	011H
	DB	0c9H
	DB	011H
	DB	0c9H
	DB	011H
	DB	0c9H
	DB	011H
	DB	0c9H
	DB	011H
	DB	0c9H
	DB	011H
	DB	0c9H
	DB	011H
	DB	0c9H
	DB	011H
	DB	0c9H
	DB	011H
	DB	0c9H
	DB	011H
	DB	0c9H
	DB	011H
	DB	0c9H
	DB	011H
	DB	0c9H
	DB	011H
	DB	0c9H
	DB	011H
	DB	0c9H
	DB	011H
	DB	0c9H
	DB	011H
	DB	0c9H
	DB	011H
	DB	0c9H
	DB	011H
	DB	0c9H
	DB	011H
	DB	0c9H
	DB	011H
	DB	0c9H
	DB	011H
	DB	0c9H
	DB	011H
	DB	0c9H
	DB	011H
	DB	0c9H
	DB	011H
	DB	0c9H
	DB	011H
	DB	0c9H
	DB	011H
	DB	0c9H
	DB	011H
	DB	0c9H
	DB	011H
	DB	0c9H
	DB	011H
	DB	0a9H
	DB	011H
	DB	0a9H
	DB	011H
	DB	0a9H
	DB	011H
	DB	0a9H
	DB	011H
	DB	0a9H
	DB	011H
	DB	0a9H
	DB	011H
	DB	0a9H
	DB	011H
	DB	0a9H
	DB	011H
	DB	0a9H
	DB	011H
	DB	0a8H
	DB	011H
	DB	0a8H
	DB	011H
	DB	0a8H
	DB	011H
	DB	0a8H
	DB	011H
	DB	0a8H
	DB	011H
	DB	0a8H
	DB	011H
	DB	0a8H
	DB	011H
	DB	088H
	DB	011H
	DB	088H
	DB	011H
	DB	088H
	DB	011H
	DB	088H
	DB	011H
	DB	088H
	DB	011H
	DB	088H
	DB	011H
	DB	088H
	DB	011H
	DB	088H
	DB	011H
	DB	088H
	DB	011H
	DB	088H
	DB	011H
	DB	088H
	DB	011H
	DB	088H
	DB	011H
	DB	088H
	DB	011H
	DB	088H
	DB	011H
	DB	088H
	DB	011H
	DB	068H
	DB	011H
	DB	067H
	DB	011H
	DB	067H
	DB	011H
	DB	067H
	DB	011H
	DB	067H
	DB	011H
	DB	067H
	DB	011H
	DB	067H
	DB	011H
	DB	067H
	DB	011H
	DB	067H
	DB	011H
	DB	067H
	DB	011H
	DB	067H
	DB	011H
	DB	067H
	DB	011H
	DB	067H
	DB	011H
	DB	067H
	DB	011H
	DB	067H
	DB	011H
	DB	067H
	DB	011H
	DB	047H
	DB	011H
	DB	047H
	DB	011H
	DB	047H
	DB	011H
	DB	047H
	DB	011H
	DB	047H
	DB	011H
	DB	047H
	DB	011H
	DB	047H
	DB	011H
	DB	047H
	DB	011H
	DB	046H
	DB	09H
	DB	046H
	DB	09H
	DB	046H
	DB	09H
	DB	046H
	DB	09H
	DB	046H
	DB	09H
	DB	046H
	DB	09H
	DB	046H
	DB	09H
	DB	026H
	DB	09H
	DB	026H
	DB	09H
	DB	026H
	DB	09H
	DB	026H
	DB	09H
	DB	026H
	DB	09H
	DB	026H
	DB	09H
	DB	026H
	DB	09H
	DB	026H
	DB	09H
	DB	026H
	DB	09H
	DB	026H
	DB	09H
	DB	026H
	DB	09H
	DB	026H
	DB	09H
	DB	026H
	DB	09H
	DB	026H
	DB	09H
	DB	026H
	DB	09H
	DB	026H
	DB	09H
	DB	05H
	DB	09H
	DB	05H
	DB	09H
	DB	05H
	DB	09H
	DB	05H
	DB	09H
	DB	05H
	DB	09H
	DB	05H
	DB	09H
	DB	05H
	DB	09H
	DB	05H
	DB	09H
	DB	05H
	DB	09H
	DB	05H
	DB	09H
	DB	05H
	DB	09H
	DB	05H
	DB	09H
	DB	05H
	DB	09H
	DB	05H
	DB	09H
	DB	05H
	DB	09H
	DB	0e5H
	DB	08H
	DB	0e5H
	DB	08H
	DB	0e5H
	DB	08H
	DB	0e5H
	DB	08H
	DB	0e5H
	DB	08H
	DB	0e5H
	DB	08H
	DB	0e5H
	DB	08H
	DB	0e5H
	DB	08H
	DB	0e4H
	DB	08H
	DB	0e4H
	DB	08H
	DB	0e4H
	DB	08H
	DB	0e4H
	DB	08H
	DB	0e4H
	DB	08H
	DB	0e4H
	DB	08H
	DB	0e4H
	DB	08H
	DB	0e4H
	DB	08H
	DB	0e4H
	DB	08H
	DB	0c4H
	DB	08H
	DB	0c4H
	DB	08H
	DB	0c4H
	DB	08H
	DB	0c4H
	DB	08H
	DB	0c4H
	DB	08H
	DB	0c4H
	DB	08H
	DB	0c4H
	DB	08H
	DB	0c4H
	DB	08H
	DB	0c4H
	DB	08H
	DB	0c4H
	DB	08H
	DB	0c4H
	DB	08H
	DB	0c4H
	DB	08H
	DB	0c4H
	DB	08H
	DB	0c4H
	DB	08H
	DB	0c4H
	DB	08H
	DB	0a3H
	DB	08H
	DB	0a3H
	DB	08H
	DB	0a3H
	DB	08H
	DB	0a3H
	DB	00H
	DB	0a3H
	DB	00H
	DB	0a3H
	DB	00H
	DB	0a3H
	DB	00H
	DB	0a3H
	DB	00H
	DB	0a3H
	DB	00H
	DB	0a3H
	DB	00H
	DB	0a3H
	DB	00H
	DB	0a3H
	DB	00H
	DB	0a3H
	DB	00H
	DB	0a3H
	DB	00H
	DB	0a3H
	DB	00H
	DB	0a3H
	DB	00H
	DB	0a3H
	DB	00H
	DB	0a3H
	DB	00H
	DB	0a3H
	DB	00H
	DB	0a3H
	DB	00H
	DB	0a3H
	DB	00H
	DB	0a3H
	DB	00H
	DB	0a3H
	DB	00H
	DB	0a3H
	DB	00H
	DB	0a3H
	DB	00H
	DB	0a3H
	DB	00H
	DB	0a3H
	DB	00H
	DB	0a3H
	DB	00H
	DB	0a3H
	DB	00H
	DB	0e5H
	DB	08H
	DB	0e5H
	DB	08H
	DB	0e5H
	DB	08H
	DB	05H
	DB	09H
	DB	0e5H
	DB	08H
	DB	0e5H
	DB	08H
	DB	05H
	DB	09H
	DB	05H
	DB	09H
	DB	0e5H
	DB	08H
	DB	05H
	DB	09H
	DB	05H
	DB	09H
	DB	0e5H
	DB	08H
	DB	0e5H
	DB	08H
	DB	05H
	DB	09H
	DB	0e5H
	DB	08H
	DB	05H
	DB	09H
	DB	0e5H
	DB	08H
	DB	0e5H
	DB	08H
	DB	0e5H
	DB	08H
	DB	05H
	DB	09H
	DB	05H
	DB	09H
	DB	05H
	DB	09H
	DB	05H
	DB	09H
	DB	0e5H
	DB	08H
	DB	0e5H
	DB	08H
	DB	0e5H
	DB	08H
	DB	0e5H
	DB	08H
	DB	05H
	DB	09H
	DB	0e5H
	DB	08H
	DB	05H
	DB	09H
	DB	05H
	DB	09H
	DB	0e5H
	DB	08H
	DB	05H
	DB	09H
	DB	0e5H
	DB	08H
	DB	0e5H
	DB	08H
	DB	05H
	DB	09H
	DB	0e5H
	DB	08H
	DB	0e5H
	DB	08H
	DB	05H
	DB	09H
	DB	05H
	DB	09H
	DB	0e5H
	DB	08H
	DB	05H
	DB	09H
	DB	0e5H
	DB	08H
	DB	0e5H
	DB	08H
	DB	0e5H
	DB	08H
	DB	0e5H
	DB	08H
	DB	05H
	DB	09H
	DB	05H
	DB	09H
	DB	05H
	DB	09H
	DB	05H
	DB	09H
	DB	05H
	DB	09H
	DB	0e4H
	DB	08H
	DB	0e4H
	DB	08H
	DB	0c9H
	DB	011H
	DB	0c9H
	DB	011H
	DB	0c9H
	DB	011H
	DB	0c9H
	DB	011H
	DB	0c9H
	DB	011H
	DB	0c9H
	DB	011H
	DB	0c9H
	DB	011H
	DB	0c9H
	DB	011H
	DB	0c9H
	DB	011H
	DB	0c9H
	DB	011H
	DB	0c9H
	DB	011H
	DB	0c9H
	DB	011H
	DB	0c9H
	DB	011H
	DB	0c9H
	DB	011H
	DB	0c9H
	DB	011H
	DB	0c9H
	DB	011H
	DB	0c9H
	DB	011H
	DB	0c9H
	DB	011H
	DB	0c9H
	DB	011H
	DB	0c9H
	DB	011H
	DB	0c9H
	DB	011H
	DB	0c9H
	DB	011H
	DB	0c9H
	DB	011H
	DB	0c9H
	DB	011H
	DB	0c9H
	DB	011H
	DB	0c9H
	DB	011H
	DB	0c9H
	DB	011H
	DB	0c9H
	DB	011H
	DB	0c9H
	DB	011H
	DB	0c9H
	DB	011H
	DB	0c9H
	DB	011H
	DB	0c9H
	DB	011H
	DB	0c9H
	DB	011H
	DB	0a9H
	DB	011H
	DB	0a9H
	DB	011H
	DB	0a9H
	DB	011H
	DB	0a9H
	DB	011H
	DB	0a9H
	DB	011H
	DB	0a9H
	DB	011H
	DB	0a9H
	DB	011H
	DB	0a9H
	DB	011H
	DB	0a9H
	DB	011H
	DB	0a8H
	DB	011H
	DB	0a8H
	DB	011H
	DB	0a8H
	DB	011H
	DB	0a8H
	DB	011H
	DB	0a8H
	DB	011H
	DB	0a8H
	DB	011H
	DB	0a8H
	DB	011H
	DB	088H
	DB	011H
	DB	088H
	DB	011H
	DB	088H
	DB	011H
	DB	088H
	DB	011H
	DB	088H
	DB	011H
	DB	088H
	DB	011H
	DB	088H
	DB	011H
	DB	088H
	DB	011H
	DB	088H
	DB	011H
	DB	088H
	DB	011H
	DB	088H
	DB	011H
	DB	088H
	DB	011H
	DB	088H
	DB	011H
	DB	088H
	DB	011H
	DB	088H
	DB	011H
	DB	068H
	DB	011H
	DB	067H
	DB	011H
	DB	067H
	DB	011H
	DB	067H
	DB	011H
	DB	067H
	DB	011H
	DB	067H
	DB	011H
	DB	067H
	DB	011H
	DB	067H
	DB	011H
	DB	067H
	DB	011H
	DB	067H
	DB	011H
	DB	067H
	DB	011H
	DB	067H
	DB	011H
	DB	067H
	DB	011H
	DB	067H
	DB	011H
	DB	067H
	DB	011H
	DB	067H
	DB	011H
	DB	047H
	DB	011H
	DB	047H
	DB	011H
	DB	047H
	DB	011H
	DB	047H
	DB	011H
	DB	047H
	DB	011H
	DB	047H
	DB	011H
	DB	047H
	DB	011H
	DB	047H
	DB	011H
	DB	047H
	DB	09H
	DB	046H
	DB	09H
	DB	046H
	DB	09H
	DB	046H
	DB	09H
	DB	046H
	DB	09H
	DB	046H
	DB	09H
	DB	046H
	DB	09H
	DB	026H
	DB	09H
	DB	026H
	DB	09H
	DB	026H
	DB	09H
	DB	026H
	DB	09H
	DB	026H
	DB	09H
	DB	026H
	DB	09H
	DB	026H
	DB	09H
	DB	026H
	DB	09H
	DB	026H
	DB	09H
	DB	026H
	DB	09H
	DB	026H
	DB	09H
	DB	026H
	DB	09H
	DB	026H
	DB	09H
	DB	026H
	DB	09H
	DB	026H
	DB	09H
	DB	026H
	DB	09H
	DB	06H
	DB	09H
	DB	05H
	DB	09H
	DB	05H
	DB	09H
	DB	05H
	DB	09H
	DB	05H
	DB	09H
	DB	05H
	DB	09H
	DB	05H
	DB	09H
	DB	05H
	DB	09H
	DB	05H
	DB	09H
	DB	05H
	DB	09H
	DB	05H
	DB	09H
	DB	05H
	DB	09H
	DB	05H
	DB	09H
	DB	05H
	DB	09H
	DB	05H
	DB	09H
	DB	05H
	DB	09H
	DB	0e5H
	DB	08H
	DB	0e5H
	DB	08H
	DB	0e5H
	DB	08H
	DB	0e5H
	DB	08H
	DB	0e5H
	DB	08H
	DB	0e5H
	DB	08H
	DB	0e5H
	DB	08H
	DB	0e5H
	DB	08H
	DB	0e4H
	DB	08H
	DB	0e4H
	DB	08H
	DB	0e4H
	DB	08H
	DB	0e4H
	DB	08H
	DB	0e4H
	DB	08H
	DB	0e4H
	DB	08H
	DB	0e4H
	DB	08H
	DB	0e4H
	DB	08H
	DB	0c4H
	DB	08H
	DB	0c4H
	DB	08H
	DB	0c4H
	DB	08H
	DB	0c4H
	DB	08H
	DB	0c4H
	DB	08H
	DB	0c4H
	DB	08H
	DB	0c4H
	DB	08H
	DB	0c4H
	DB	08H
	DB	0c4H
	DB	08H
	DB	0c4H
	DB	08H
	DB	0c4H
	DB	08H
	DB	0c4H
	DB	08H
	DB	0c4H
	DB	08H
	DB	0c4H
	DB	08H
	DB	0c4H
	DB	08H
	DB	0a3H
	DB	08H
	DB	0a3H
	DB	08H
	DB	0a3H
	DB	08H
	DB	0a3H
	DB	00H
	DB	0a3H
	DB	00H
	DB	0a3H
	DB	00H
	DB	0a3H
	DB	00H
	DB	0a3H
	DB	00H
	DB	0a3H
	DB	00H
	DB	0a3H
	DB	00H
	DB	0a3H
	DB	00H
	DB	0a3H
	DB	00H
	DB	0a3H
	DB	00H
	DB	0a3H
	DB	00H
	DB	0a3H
	DB	00H
	DB	0a3H
	DB	00H
	DB	0a3H
	DB	00H
	DB	0a3H
	DB	00H
	DB	0a3H
	DB	00H
	DB	0a3H
	DB	00H
	DB	0a3H
	DB	00H
	DB	0a3H
	DB	00H
	DB	0a3H
	DB	00H
	DB	0a3H
	DB	00H
	DB	0a3H
	DB	00H
	DB	0a3H
	DB	00H
	DB	0a3H
	DB	00H
	DB	0a3H
	DB	00H
	DB	0a3H
	DB	00H
	DB	0e5H
	DB	08H
	DB	05H
	DB	09H
	DB	05H
	DB	09H
	DB	0e5H
	DB	08H
	DB	05H
	DB	09H
	DB	05H
	DB	09H
	DB	05H
	DB	09H
	DB	0e5H
	DB	08H
	DB	05H
	DB	09H
	DB	05H
	DB	09H
	DB	05H
	DB	09H
	DB	05H
	DB	09H
	DB	05H
	DB	09H
	DB	0e5H
	DB	08H
	DB	05H
	DB	09H
	DB	0e5H
	DB	08H
	DB	0e5H
	DB	08H
	DB	05H
	DB	09H
	DB	05H
	DB	09H
	DB	05H
	DB	09H
	DB	05H
	DB	09H
	DB	0e5H
	DB	08H
	DB	05H
	DB	09H
	DB	0e5H
	DB	08H
	DB	05H
	DB	09H
	DB	0e5H
	DB	08H
	DB	05H
	DB	09H
	DB	05H
	DB	09H
	DB	05H
	DB	09H
	DB	05H
	DB	09H
	DB	05H
	DB	09H
	DB	0e5H
	DB	08H
	DB	05H
	DB	09H
	DB	05H
	DB	09H
	DB	05H
	DB	09H
	DB	05H
	DB	09H
	DB	05H
	DB	09H
	DB	05H
	DB	09H
	DB	0e5H
	DB	08H
	DB	0e5H
	DB	08H
	DB	0e5H
	DB	08H
	DB	0e5H
	DB	08H
	DB	05H
	DB	09H
	DB	05H
	DB	09H
	DB	0e5H
	DB	08H
	DB	0e5H
	DB	08H
	DB	0e5H
	DB	08H
	DB	05H
	DB	09H
	DB	05H
	DB	09H
	DB	05H
	DB	09H
	DB	0e5H
	DB	08H
	DB	0e4H
	DB	08H
	DB	0e4H
	DB	08H
	DB	0c9H
	DB	011H
	DB	0c9H
	DB	011H
	DB	0c9H
	DB	011H
	DB	0c9H
	DB	011H
	DB	0c9H
	DB	011H
	DB	0c9H
	DB	011H
	DB	0c9H
	DB	011H
	DB	0c9H
	DB	011H
	DB	0c9H
	DB	011H
	DB	0c9H
	DB	011H
	DB	0c9H
	DB	011H
	DB	0c9H
	DB	011H
	DB	0c9H
	DB	011H
	DB	0c9H
	DB	011H
	DB	0c9H
	DB	011H
	DB	0c9H
	DB	011H
	DB	0c9H
	DB	011H
	DB	0c9H
	DB	011H
	DB	0c9H
	DB	011H
	DB	0c9H
	DB	011H
	DB	0c9H
	DB	011H
	DB	0c9H
	DB	011H
	DB	0c9H
	DB	011H
	DB	0c9H
	DB	011H
	DB	0c9H
	DB	011H
	DB	0c9H
	DB	011H
	DB	0c9H
	DB	011H
	DB	0c9H
	DB	011H
	DB	0c9H
	DB	011H
	DB	0c9H
	DB	011H
	DB	0c9H
	DB	011H
	DB	0c9H
	DB	011H
	DB	0c9H
	DB	011H
	DB	0a9H
	DB	011H
	DB	0a9H
	DB	011H
	DB	0a9H
	DB	011H
	DB	0a9H
	DB	011H
	DB	0a9H
	DB	011H
	DB	0a9H
	DB	011H
	DB	0a9H
	DB	011H
	DB	0a9H
	DB	011H
	DB	0a9H
	DB	011H
	DB	0a8H
	DB	011H
	DB	0a8H
	DB	011H
	DB	0a8H
	DB	011H
	DB	0a8H
	DB	011H
	DB	0a8H
	DB	011H
	DB	0a8H
	DB	011H
	DB	0a8H
	DB	011H
	DB	088H
	DB	011H
	DB	088H
	DB	011H
	DB	088H
	DB	011H
	DB	088H
	DB	011H
	DB	088H
	DB	011H
	DB	088H
	DB	011H
	DB	088H
	DB	011H
	DB	088H
	DB	011H
	DB	088H
	DB	011H
	DB	088H
	DB	011H
	DB	088H
	DB	011H
	DB	088H
	DB	011H
	DB	088H
	DB	011H
	DB	088H
	DB	011H
	DB	088H
	DB	011H
	DB	068H
	DB	011H
	DB	067H
	DB	011H
	DB	067H
	DB	011H
	DB	067H
	DB	011H
	DB	067H
	DB	011H
	DB	067H
	DB	011H
	DB	067H
	DB	011H
	DB	067H
	DB	011H
	DB	067H
	DB	011H
	DB	067H
	DB	011H
	DB	067H
	DB	011H
	DB	067H
	DB	011H
	DB	067H
	DB	011H
	DB	067H
	DB	011H
	DB	067H
	DB	011H
	DB	067H
	DB	011H
	DB	047H
	DB	011H
	DB	047H
	DB	011H
	DB	047H
	DB	011H
	DB	047H
	DB	011H
	DB	047H
	DB	011H
	DB	047H
	DB	011H
	DB	047H
	DB	011H
	DB	047H
	DB	011H
	DB	047H
	DB	09H
	DB	046H
	DB	09H
	DB	046H
	DB	09H
	DB	046H
	DB	09H
	DB	046H
	DB	09H
	DB	046H
	DB	09H
	DB	046H
	DB	09H
	DB	046H
	DB	09H
	DB	026H
	DB	09H
	DB	026H
	DB	09H
	DB	026H
	DB	09H
	DB	026H
	DB	09H
	DB	026H
	DB	09H
	DB	026H
	DB	09H
	DB	026H
	DB	09H
	DB	026H
	DB	09H
	DB	026H
	DB	09H
	DB	026H
	DB	09H
	DB	026H
	DB	09H
	DB	026H
	DB	09H
	DB	026H
	DB	09H
	DB	026H
	DB	09H
	DB	026H
	DB	09H
	DB	06H
	DB	09H
	DB	05H
	DB	09H
	DB	05H
	DB	09H
	DB	05H
	DB	09H
	DB	05H
	DB	09H
	DB	05H
	DB	09H
	DB	05H
	DB	09H
	DB	05H
	DB	09H
	DB	05H
	DB	09H
	DB	05H
	DB	09H
	DB	05H
	DB	09H
	DB	05H
	DB	09H
	DB	05H
	DB	09H
	DB	05H
	DB	09H
	DB	05H
	DB	09H
	DB	05H
	DB	09H
	DB	0e5H
	DB	08H
	DB	0e5H
	DB	08H
	DB	0e5H
	DB	08H
	DB	0e5H
	DB	08H
	DB	0e5H
	DB	08H
	DB	0e5H
	DB	08H
	DB	0e5H
	DB	08H
	DB	0e5H
	DB	08H
	DB	0e4H
	DB	08H
	DB	0e4H
	DB	08H
	DB	0e4H
	DB	08H
	DB	0e4H
	DB	08H
	DB	0e4H
	DB	08H
	DB	0e4H
	DB	08H
	DB	0e4H
	DB	08H
	DB	0e4H
	DB	08H
	DB	0c4H
	DB	08H
	DB	0c4H
	DB	08H
	DB	0c4H
	DB	08H
	DB	0c4H
	DB	08H
	DB	0c4H
	DB	08H
	DB	0c4H
	DB	08H
	DB	0c4H
	DB	08H
	DB	0c4H
	DB	08H
	DB	0c4H
	DB	08H
	DB	0c4H
	DB	08H
	DB	0c4H
	DB	08H
	DB	0c4H
	DB	08H
	DB	0c4H
	DB	08H
	DB	0c4H
	DB	08H
	DB	0c4H
	DB	08H
	DB	0a3H
	DB	08H
	DB	0a3H
	DB	08H
	DB	0a3H
	DB	08H
	DB	0a3H
	DB	00H
	DB	0a3H
	DB	00H
	DB	0a3H
	DB	00H
	DB	0a3H
	DB	00H
	DB	0a3H
	DB	00H
	DB	0a3H
	DB	00H
	DB	0a3H
	DB	00H
	DB	0a3H
	DB	00H
	DB	0a3H
	DB	00H
	DB	0a3H
	DB	00H
	DB	0a3H
	DB	00H
	DB	0a3H
	DB	00H
	DB	0a3H
	DB	00H
	DB	0a3H
	DB	00H
	DB	0a3H
	DB	00H
	DB	0a3H
	DB	00H
	DB	0a3H
	DB	00H
	DB	0a3H
	DB	00H
	DB	0a3H
	DB	00H
	DB	0a3H
	DB	00H
	DB	0a3H
	DB	00H
	DB	0a3H
	DB	00H
	DB	0a3H
	DB	00H
	DB	0a3H
	DB	00H
	DB	0a3H
	DB	00H
	DB	0a3H
	DB	00H
	DB	05H
	DB	09H
	DB	05H
	DB	09H
	DB	05H
	DB	09H
	DB	05H
	DB	09H
	DB	05H
	DB	09H
	DB	05H
	DB	09H
	DB	05H
	DB	09H
	DB	05H
	DB	09H
	DB	05H
	DB	09H
	DB	05H
	DB	09H
	DB	05H
	DB	09H
	DB	05H
	DB	09H
	DB	05H
	DB	09H
	DB	05H
	DB	09H
	DB	0e5H
	DB	08H
	DB	05H
	DB	09H
	DB	05H
	DB	09H
	DB	05H
	DB	09H
	DB	05H
	DB	09H
	DB	0e5H
	DB	08H
	DB	05H
	DB	09H
	DB	05H
	DB	09H
	DB	05H
	DB	09H
	DB	05H
	DB	09H
	DB	05H
	DB	09H
	DB	0e5H
	DB	08H
	DB	05H
	DB	09H
	DB	05H
	DB	09H
	DB	05H
	DB	09H
	DB	05H
	DB	09H
	DB	05H
	DB	09H
	DB	0e5H
	DB	08H
	DB	05H
	DB	09H
	DB	0e5H
	DB	08H
	DB	05H
	DB	09H
	DB	05H
	DB	09H
	DB	05H
	DB	09H
	DB	05H
	DB	09H
	DB	0e5H
	DB	08H
	DB	05H
	DB	09H
	DB	05H
	DB	09H
	DB	05H
	DB	09H
	DB	05H
	DB	09H
	DB	05H
	DB	09H
	DB	05H
	DB	09H
	DB	05H
	DB	09H
	DB	05H
	DB	09H
	DB	05H
	DB	09H
	DB	05H
	DB	09H
	DB	05H
	DB	09H
	DB	0e5H
	DB	08H
	DB	0e4H
	DB	08H
	DB	0e4H
	DB	08H
	DB	0c9H
	DB	011H
	DB	0c9H
	DB	011H
	DB	0c9H
	DB	011H
	DB	0c9H
	DB	011H
	DB	0c9H
	DB	011H
	DB	0c9H
	DB	011H
	DB	0c9H
	DB	011H
	DB	0c9H
	DB	011H
	DB	0c9H
	DB	011H
	DB	0c9H
	DB	011H
	DB	0c9H
	DB	011H
	DB	0c9H
	DB	011H
	DB	0c9H
	DB	011H
	DB	0c9H
	DB	011H
	DB	0c9H
	DB	011H
	DB	0c9H
	DB	011H
	DB	0c9H
	DB	011H
	DB	0c9H
	DB	011H
	DB	0c9H
	DB	011H
	DB	0c9H
	DB	011H
	DB	0c9H
	DB	011H
	DB	0c9H
	DB	011H
	DB	0c9H
	DB	011H
	DB	0c9H
	DB	011H
	DB	0c9H
	DB	011H
	DB	0c9H
	DB	011H
	DB	0c9H
	DB	011H
	DB	0c9H
	DB	011H
	DB	0c9H
	DB	011H
	DB	0c9H
	DB	011H
	DB	0c9H
	DB	011H
	DB	0c9H
	DB	011H
	DB	0c9H
	DB	011H
	DB	0c9H
	DB	011H
	DB	0a9H
	DB	011H
	DB	0a9H
	DB	011H
	DB	0a9H
	DB	011H
	DB	0a9H
	DB	011H
	DB	0a9H
	DB	011H
	DB	0a9H
	DB	011H
	DB	0a9H
	DB	011H
	DB	0a9H
	DB	011H
	DB	0a8H
	DB	011H
	DB	0a8H
	DB	011H
	DB	0a8H
	DB	011H
	DB	0a8H
	DB	011H
	DB	0a8H
	DB	011H
	DB	0a8H
	DB	011H
	DB	0a8H
	DB	011H
	DB	088H
	DB	011H
	DB	088H
	DB	011H
	DB	088H
	DB	011H
	DB	088H
	DB	011H
	DB	088H
	DB	011H
	DB	088H
	DB	011H
	DB	088H
	DB	011H
	DB	088H
	DB	011H
	DB	088H
	DB	011H
	DB	088H
	DB	011H
	DB	088H
	DB	011H
	DB	088H
	DB	011H
	DB	088H
	DB	011H
	DB	088H
	DB	011H
	DB	088H
	DB	011H
	DB	088H
	DB	011H
	DB	067H
	DB	011H
	DB	067H
	DB	011H
	DB	067H
	DB	011H
	DB	067H
	DB	011H
	DB	067H
	DB	011H
	DB	067H
	DB	011H
	DB	067H
	DB	011H
	DB	067H
	DB	011H
	DB	067H
	DB	011H
	DB	067H
	DB	011H
	DB	067H
	DB	011H
	DB	067H
	DB	011H
	DB	067H
	DB	011H
	DB	067H
	DB	011H
	DB	067H
	DB	011H
	DB	047H
	DB	011H
	DB	047H
	DB	011H
	DB	047H
	DB	011H
	DB	047H
	DB	011H
	DB	047H
	DB	011H
	DB	047H
	DB	011H
	DB	047H
	DB	011H
	DB	047H
	DB	011H
	DB	047H
	DB	09H
	DB	046H
	DB	09H
	DB	046H
	DB	09H
	DB	046H
	DB	09H
	DB	046H
	DB	09H
	DB	046H
	DB	09H
	DB	046H
	DB	09H
	DB	046H
	DB	09H
	DB	026H
	DB	09H
	DB	026H
	DB	09H
	DB	026H
	DB	09H
	DB	026H
	DB	09H
	DB	026H
	DB	09H
	DB	026H
	DB	09H
	DB	026H
	DB	09H
	DB	026H
	DB	09H
	DB	026H
	DB	09H
	DB	026H
	DB	09H
	DB	026H
	DB	09H
	DB	026H
	DB	09H
	DB	026H
	DB	09H
	DB	026H
	DB	09H
	DB	026H
	DB	09H
	DB	06H
	DB	09H
	DB	05H
	DB	09H
	DB	05H
	DB	09H
	DB	05H
	DB	09H
	DB	05H
	DB	09H
	DB	05H
	DB	09H
	DB	05H
	DB	09H
	DB	05H
	DB	09H
	DB	05H
	DB	09H
	DB	05H
	DB	09H
	DB	05H
	DB	09H
	DB	05H
	DB	09H
	DB	05H
	DB	09H
	DB	05H
	DB	09H
	DB	05H
	DB	09H
	DB	05H
	DB	09H
	DB	0e5H
	DB	08H
	DB	0e5H
	DB	08H
	DB	0e5H
	DB	08H
	DB	0e5H
	DB	08H
	DB	0e5H
	DB	08H
	DB	0e5H
	DB	08H
	DB	0e5H
	DB	08H
	DB	0e5H
	DB	08H
	DB	0e4H
	DB	08H
	DB	0e4H
	DB	08H
	DB	0e4H
	DB	08H
	DB	0e4H
	DB	08H
	DB	0e4H
	DB	08H
	DB	0e4H
	DB	08H
	DB	0e4H
	DB	08H
	DB	0e4H
	DB	08H
	DB	0c4H
	DB	08H
	DB	0c4H
	DB	08H
	DB	0c4H
	DB	08H
	DB	0c4H
	DB	08H
	DB	0c4H
	DB	08H
	DB	0c4H
	DB	08H
	DB	0c4H
	DB	08H
	DB	0c4H
	DB	08H
	DB	0c4H
	DB	08H
	DB	0c4H
	DB	08H
	DB	0c4H
	DB	08H
	DB	0c4H
	DB	08H
	DB	0c4H
	DB	08H
	DB	0c4H
	DB	08H
	DB	0c4H
	DB	08H
	DB	0a3H
	DB	08H
	DB	0a3H
	DB	08H
	DB	0a3H
	DB	08H
	DB	0a3H
	DB	00H
	DB	0a3H
	DB	00H
	DB	0a3H
	DB	00H
	DB	0a3H
	DB	00H
	DB	0a3H
	DB	00H
	DB	0a3H
	DB	00H
	DB	0a3H
	DB	00H
	DB	0a3H
	DB	00H
	DB	0a3H
	DB	00H
	DB	0a3H
	DB	00H
	DB	0a3H
	DB	00H
	DB	0a3H
	DB	00H
	DB	0a3H
	DB	00H
	DB	0a3H
	DB	00H
	DB	0a3H
	DB	00H
	DB	0a3H
	DB	00H
	DB	0a3H
	DB	00H
	DB	0a3H
	DB	00H
	DB	0a3H
	DB	00H
	DB	0a3H
	DB	00H
	DB	0a3H
	DB	00H
	DB	0a3H
	DB	00H
	DB	0a3H
	DB	00H
	DB	0a3H
	DB	00H
	DB	0a3H
	DB	00H
	DB	0a3H
	DB	00H
	DB	05H
	DB	09H
	DB	05H
	DB	09H
	DB	05H
	DB	09H
	DB	05H
	DB	09H
	DB	05H
	DB	09H
	DB	05H
	DB	09H
	DB	05H
	DB	09H
	DB	05H
	DB	09H
	DB	05H
	DB	09H
	DB	05H
	DB	09H
	DB	05H
	DB	09H
	DB	05H
	DB	09H
	DB	05H
	DB	09H
	DB	05H
	DB	09H
	DB	05H
	DB	09H
	DB	05H
	DB	09H
	DB	05H
	DB	09H
	DB	0e5H
	DB	08H
	DB	05H
	DB	09H
	DB	05H
	DB	09H
	DB	05H
	DB	09H
	DB	05H
	DB	09H
	DB	05H
	DB	09H
	DB	05H
	DB	09H
	DB	05H
	DB	09H
	DB	05H
	DB	09H
	DB	0e5H
	DB	08H
	DB	0e5H
	DB	08H
	DB	05H
	DB	09H
	DB	05H
	DB	09H
	DB	05H
	DB	09H
	DB	05H
	DB	09H
	DB	05H
	DB	09H
	DB	05H
	DB	09H
	DB	05H
	DB	09H
	DB	05H
	DB	09H
	DB	05H
	DB	09H
	DB	05H
	DB	09H
	DB	05H
	DB	09H
	DB	05H
	DB	09H
	DB	05H
	DB	09H
	DB	05H
	DB	09H
	DB	0e5H
	DB	08H
	DB	05H
	DB	09H
	DB	05H
	DB	09H
	DB	05H
	DB	09H
	DB	05H
	DB	09H
	DB	05H
	DB	09H
	DB	05H
	DB	09H
	DB	05H
	DB	09H
	DB	0e5H
	DB	08H
	DB	0e4H
	DB	08H
	DB	0e4H
	DB	08H
	DB	0c9H
	DB	011H
	DB	0c9H
	DB	011H
	DB	0c9H
	DB	011H
	DB	0c9H
	DB	011H
	DB	0c9H
	DB	011H
	DB	0c9H
	DB	011H
	DB	0c9H
	DB	011H
	DB	0c9H
	DB	011H
	DB	0c9H
	DB	011H
	DB	0c9H
	DB	011H
	DB	0c9H
	DB	011H
	DB	0c9H
	DB	011H
	DB	0c9H
	DB	011H
	DB	0c9H
	DB	011H
	DB	0c9H
	DB	011H
	DB	0c9H
	DB	011H
	DB	0c9H
	DB	011H
	DB	0c9H
	DB	011H
	DB	0c9H
	DB	011H
	DB	0c9H
	DB	011H
	DB	0c9H
	DB	011H
	DB	0c9H
	DB	011H
	DB	0c9H
	DB	011H
	DB	0c9H
	DB	011H
	DB	0c9H
	DB	011H
	DB	0c9H
	DB	011H
	DB	0c9H
	DB	011H
	DB	0c9H
	DB	011H
	DB	0c9H
	DB	011H
	DB	0c9H
	DB	011H
	DB	0c9H
	DB	011H
	DB	0c9H
	DB	011H
	DB	0c9H
	DB	011H
	DB	0c9H
	DB	011H
	DB	0a9H
	DB	011H
	DB	0a9H
	DB	011H
	DB	0a9H
	DB	011H
	DB	0a9H
	DB	011H
	DB	0a9H
	DB	011H
	DB	0a9H
	DB	011H
	DB	0a9H
	DB	011H
	DB	0a9H
	DB	011H
	DB	0a8H
	DB	011H
	DB	0a8H
	DB	011H
	DB	0a8H
	DB	011H
	DB	0a8H
	DB	011H
	DB	0a8H
	DB	011H
	DB	0a8H
	DB	011H
	DB	0a8H
	DB	011H
	DB	088H
	DB	011H
	DB	088H
	DB	011H
	DB	088H
	DB	011H
	DB	088H
	DB	011H
	DB	088H
	DB	011H
	DB	088H
	DB	011H
	DB	088H
	DB	011H
	DB	088H
	DB	011H
	DB	088H
	DB	011H
	DB	088H
	DB	011H
	DB	088H
	DB	011H
	DB	088H
	DB	011H
	DB	088H
	DB	011H
	DB	088H
	DB	011H
	DB	088H
	DB	011H
	DB	088H
	DB	011H
	DB	067H
	DB	011H
	DB	067H
	DB	011H
	DB	067H
	DB	011H
	DB	067H
	DB	011H
	DB	067H
	DB	011H
	DB	067H
	DB	011H
	DB	067H
	DB	011H
	DB	067H
	DB	011H
	DB	067H
	DB	011H
	DB	067H
	DB	011H
	DB	067H
	DB	011H
	DB	067H
	DB	011H
	DB	067H
	DB	011H
	DB	067H
	DB	011H
	DB	067H
	DB	011H
	DB	047H
	DB	011H
	DB	047H
	DB	011H
	DB	047H
	DB	011H
	DB	047H
	DB	011H
	DB	047H
	DB	011H
	DB	047H
	DB	011H
	DB	047H
	DB	011H
	DB	047H
	DB	011H
	DB	047H
	DB	09H
	DB	046H
	DB	09H
	DB	046H
	DB	09H
	DB	046H
	DB	09H
	DB	046H
	DB	09H
	DB	046H
	DB	09H
	DB	046H
	DB	09H
	DB	046H
	DB	09H
	DB	026H
	DB	09H
	DB	026H
	DB	09H
	DB	026H
	DB	09H
	DB	026H
	DB	09H
	DB	026H
	DB	09H
	DB	026H
	DB	09H
	DB	026H
	DB	09H
	DB	026H
	DB	09H
	DB	026H
	DB	09H
	DB	026H
	DB	09H
	DB	026H
	DB	09H
	DB	026H
	DB	09H
	DB	026H
	DB	09H
	DB	026H
	DB	09H
	DB	026H
	DB	09H
	DB	06H
	DB	09H
	DB	05H
	DB	09H
	DB	05H
	DB	09H
	DB	05H
	DB	09H
	DB	05H
	DB	09H
	DB	05H
	DB	09H
	DB	05H
	DB	09H
	DB	05H
	DB	09H
	DB	05H
	DB	09H
	DB	05H
	DB	09H
	DB	05H
	DB	09H
	DB	05H
	DB	09H
	DB	05H
	DB	09H
	DB	05H
	DB	09H
	DB	05H
	DB	09H
	DB	05H
	DB	09H
	DB	0e5H
	DB	08H
	DB	0e5H
	DB	08H
	DB	0e5H
	DB	08H
	DB	0e5H
	DB	08H
	DB	0e5H
	DB	08H
	DB	0e5H
	DB	08H
	DB	0e5H
	DB	08H
	DB	0e5H
	DB	08H
	DB	0e4H
	DB	08H
	DB	0e4H
	DB	08H
	DB	0e4H
	DB	08H
	DB	0e4H
	DB	08H
	DB	0e4H
	DB	08H
	DB	0e4H
	DB	08H
	DB	0e4H
	DB	08H
	DB	0e4H
	DB	08H
	DB	0c4H
	DB	08H
	DB	0c4H
	DB	08H
	DB	0c4H
	DB	08H
	DB	0c4H
	DB	08H
	DB	0c4H
	DB	08H
	DB	0c4H
	DB	08H
	DB	0c4H
	DB	08H
	DB	0c4H
	DB	08H
	DB	0c4H
	DB	08H
	DB	0c4H
	DB	08H
	DB	0c4H
	DB	08H
	DB	0c4H
	DB	08H
	DB	0c4H
	DB	08H
	DB	0c4H
	DB	08H
	DB	0c4H
	DB	08H
	DB	0a3H
	DB	08H
	DB	0a3H
	DB	08H
	DB	0a3H
	DB	08H
	DB	0a3H
	DB	00H
	DB	0a3H
	DB	00H
	DB	0a3H
	DB	00H
	DB	0a3H
	DB	00H
	DB	0a3H
	DB	00H
	DB	0a3H
	DB	00H
	DB	0a3H
	DB	00H
	DB	0a3H
	DB	00H
	DB	0a3H
	DB	00H
	DB	0a3H
	DB	00H
	DB	0a3H
	DB	00H
	DB	0a3H
	DB	00H
	DB	0a3H
	DB	00H
	DB	0a3H
	DB	00H
	DB	0a3H
	DB	00H
	DB	0a3H
	DB	00H
	DB	0a3H
	DB	00H
	DB	0a3H
	DB	00H
	DB	0a3H
	DB	00H
	DB	0a3H
	DB	00H
	DB	0a3H
	DB	00H
	DB	0a3H
	DB	00H
	DB	0a3H
	DB	00H
	DB	0a3H
	DB	00H
	DB	0a3H
	DB	00H
	DB	0a3H
	DB	00H
	DB	05H
	DB	09H
	DB	05H
	DB	09H
	DB	05H
	DB	09H
	DB	05H
	DB	09H
	DB	05H
	DB	09H
	DB	05H
	DB	09H
	DB	05H
	DB	09H
	DB	05H
	DB	09H
	DB	05H
	DB	09H
	DB	05H
	DB	09H
	DB	05H
	DB	09H
	DB	05H
	DB	09H
	DB	05H
	DB	09H
	DB	05H
	DB	09H
	DB	05H
	DB	09H
	DB	05H
	DB	09H
	DB	05H
	DB	09H
	DB	05H
	DB	09H
	DB	05H
	DB	09H
	DB	05H
	DB	09H
	DB	05H
	DB	09H
	DB	05H
	DB	09H
	DB	05H
	DB	09H
	DB	05H
	DB	09H
	DB	05H
	DB	09H
	DB	05H
	DB	09H
	DB	05H
	DB	09H
	DB	05H
	DB	09H
	DB	05H
	DB	09H
	DB	05H
	DB	09H
	DB	05H
	DB	09H
	DB	05H
	DB	09H
	DB	05H
	DB	09H
	DB	05H
	DB	09H
	DB	05H
	DB	09H
	DB	05H
	DB	09H
	DB	05H
	DB	09H
	DB	05H
	DB	09H
	DB	05H
	DB	09H
	DB	05H
	DB	09H
	DB	05H
	DB	09H
	DB	05H
	DB	09H
	DB	05H
	DB	09H
	DB	05H
	DB	09H
	DB	05H
	DB	09H
	DB	05H
	DB	09H
	DB	05H
	DB	09H
	DB	05H
	DB	09H
	DB	05H
	DB	09H
	DB	05H
	DB	09H
	DB	05H
	DB	09H
	DB	0e4H
	DB	08H
	DB	0e4H
	DB	08H
	DB	0c9H
	DB	011H
	DB	0c9H
	DB	011H
	DB	0c9H
	DB	011H
	DB	0c9H
	DB	011H
	DB	0c9H
	DB	011H
	DB	0c9H
	DB	011H
	DB	0c9H
	DB	011H
	DB	0c9H
	DB	011H
	DB	0c9H
	DB	011H
	DB	0c9H
	DB	011H
	DB	0c9H
	DB	011H
	DB	0c9H
	DB	011H
	DB	0c9H
	DB	011H
	DB	0c9H
	DB	011H
	DB	0c9H
	DB	011H
	DB	0c9H
	DB	011H
	DB	0c9H
	DB	011H
	DB	0c9H
	DB	011H
	DB	0c9H
	DB	011H
	DB	0c9H
	DB	011H
	DB	0c9H
	DB	011H
	DB	0c9H
	DB	011H
	DB	0c9H
	DB	011H
	DB	0c9H
	DB	011H
	DB	0c9H
	DB	011H
	DB	0c9H
	DB	011H
	DB	0c9H
	DB	011H
	DB	0c9H
	DB	011H
	DB	0c9H
	DB	011H
	DB	0c9H
	DB	011H
	DB	0c9H
	DB	011H
	DB	0c9H
	DB	011H
	DB	0c9H
	DB	011H
	DB	0c9H
	DB	011H
	DB	0a9H
	DB	011H
	DB	0a9H
	DB	011H
	DB	0a9H
	DB	011H
	DB	0a9H
	DB	011H
	DB	0a9H
	DB	011H
	DB	0a9H
	DB	011H
	DB	0a9H
	DB	011H
	DB	0a9H
	DB	011H
	DB	0a8H
	DB	011H
	DB	0a8H
	DB	011H
	DB	0a8H
	DB	011H
	DB	0a8H
	DB	011H
	DB	0a8H
	DB	011H
	DB	0a8H
	DB	011H
	DB	0a8H
	DB	011H
	DB	088H
	DB	011H
	DB	088H
	DB	011H
	DB	088H
	DB	011H
	DB	088H
	DB	011H
	DB	088H
	DB	011H
	DB	088H
	DB	011H
	DB	088H
	DB	011H
	DB	088H
	DB	011H
	DB	088H
	DB	011H
	DB	088H
	DB	011H
	DB	088H
	DB	011H
	DB	088H
	DB	011H
	DB	088H
	DB	011H
	DB	088H
	DB	011H
	DB	088H
	DB	011H
	DB	088H
	DB	011H
	DB	067H
	DB	011H
	DB	067H
	DB	011H
	DB	067H
	DB	011H
	DB	067H
	DB	011H
	DB	067H
	DB	011H
	DB	067H
	DB	011H
	DB	067H
	DB	011H
	DB	067H
	DB	011H
	DB	067H
	DB	011H
	DB	067H
	DB	011H
	DB	067H
	DB	011H
	DB	067H
	DB	011H
	DB	067H
	DB	011H
	DB	067H
	DB	011H
	DB	067H
	DB	011H
	DB	047H
	DB	011H
	DB	047H
	DB	011H
	DB	047H
	DB	011H
	DB	047H
	DB	011H
	DB	047H
	DB	011H
	DB	047H
	DB	011H
	DB	047H
	DB	011H
	DB	047H
	DB	011H
	DB	047H
	DB	09H
	DB	046H
	DB	09H
	DB	046H
	DB	09H
	DB	046H
	DB	09H
	DB	046H
	DB	09H
	DB	046H
	DB	09H
	DB	046H
	DB	09H
	DB	046H
	DB	09H
	DB	026H
	DB	09H
	DB	026H
	DB	09H
	DB	026H
	DB	09H
	DB	026H
	DB	09H
	DB	026H
	DB	09H
	DB	026H
	DB	09H
	DB	026H
	DB	09H
	DB	026H
	DB	09H
	DB	026H
	DB	09H
	DB	026H
	DB	09H
	DB	026H
	DB	09H
	DB	026H
	DB	09H
	DB	026H
	DB	09H
	DB	026H
	DB	09H
	DB	026H
	DB	09H
	DB	06H
	DB	09H
	DB	05H
	DB	09H
	DB	05H
	DB	09H
	DB	05H
	DB	09H
	DB	05H
	DB	09H
	DB	05H
	DB	09H
	DB	05H
	DB	09H
	DB	05H
	DB	09H
	DB	05H
	DB	09H
	DB	05H
	DB	09H
	DB	05H
	DB	09H
	DB	05H
	DB	09H
	DB	05H
	DB	09H
	DB	05H
	DB	09H
	DB	05H
	DB	09H
	DB	05H
	DB	09H
	DB	0e5H
	DB	08H
	DB	0e5H
	DB	08H
	DB	0e5H
	DB	08H
	DB	0e5H
	DB	08H
	DB	0e5H
	DB	08H
	DB	0e5H
	DB	08H
	DB	0e5H
	DB	08H
	DB	0e5H
	DB	08H
	DB	0e4H
	DB	08H
	DB	0e4H
	DB	08H
	DB	0e4H
	DB	08H
	DB	0e4H
	DB	08H
	DB	0e4H
	DB	08H
	DB	0e4H
	DB	08H
	DB	0e4H
	DB	08H
	DB	0e4H
	DB	08H
	DB	0c4H
	DB	08H
	DB	0c4H
	DB	08H
	DB	0c4H
	DB	08H
	DB	0c4H
	DB	08H
	DB	0c4H
	DB	08H
	DB	0c4H
	DB	08H
	DB	0c4H
	DB	08H
	DB	0c4H
	DB	08H
	DB	0c4H
	DB	08H
	DB	0c4H
	DB	08H
	DB	0c4H
	DB	08H
	DB	0c4H
	DB	08H
	DB	0c4H
	DB	08H
	DB	0c4H
	DB	08H
	DB	0c4H
	DB	08H
	DB	0a3H
	DB	08H
	DB	0a3H
	DB	08H
	DB	0a3H
	DB	08H
	DB	0a3H
	DB	00H
	DB	0a3H
	DB	00H
	DB	0a3H
	DB	00H
	DB	0a3H
	DB	00H
	DB	0a3H
	DB	00H
	DB	0a3H
	DB	00H
	DB	0a3H
	DB	00H
	DB	0a3H
	DB	00H
	DB	0a3H
	DB	00H
	DB	0a3H
	DB	00H
	DB	0a3H
	DB	00H
	DB	0a3H
	DB	00H
	DB	0a3H
	DB	00H
	DB	0a3H
	DB	00H
	DB	0a3H
	DB	00H
	DB	0a3H
	DB	00H
	DB	0a3H
	DB	00H
	DB	0a3H
	DB	00H
	DB	0a3H
	DB	00H
	DB	0a3H
	DB	00H
	DB	0a3H
	DB	00H
	DB	0a3H
	DB	00H
	DB	0a3H
	DB	00H
	DB	0a3H
	DB	00H
	DB	0a3H
	DB	00H
	DB	0a3H
	DB	00H
	DB	05H
	DB	09H
	DB	05H
	DB	09H
	DB	05H
	DB	09H
	DB	05H
	DB	09H
	DB	05H
	DB	09H
	DB	05H
	DB	09H
	DB	05H
	DB	09H
	DB	05H
	DB	09H
	DB	05H
	DB	09H
	DB	05H
	DB	09H
	DB	05H
	DB	09H
	DB	05H
	DB	09H
	DB	05H
	DB	09H
	DB	05H
	DB	09H
	DB	05H
	DB	09H
	DB	05H
	DB	09H
	DB	05H
	DB	09H
	DB	05H
	DB	09H
	DB	05H
	DB	09H
	DB	05H
	DB	09H
	DB	05H
	DB	09H
	DB	05H
	DB	09H
	DB	05H
	DB	09H
	DB	05H
	DB	09H
	DB	05H
	DB	09H
	DB	05H
	DB	09H
	DB	05H
	DB	09H
	DB	05H
	DB	09H
	DB	05H
	DB	09H
	DB	05H
	DB	09H
	DB	05H
	DB	09H
	DB	05H
	DB	09H
	DB	05H
	DB	09H
	DB	05H
	DB	09H
	DB	05H
	DB	09H
	DB	05H
	DB	09H
	DB	05H
	DB	09H
	DB	05H
	DB	09H
	DB	05H
	DB	09H
	DB	05H
	DB	09H
	DB	05H
	DB	09H
	DB	05H
	DB	09H
	DB	05H
	DB	09H
	DB	05H
	DB	09H
	DB	05H
	DB	09H
	DB	05H
	DB	09H
	DB	05H
	DB	09H
	DB	05H
	DB	09H
	DB	05H
	DB	09H
	DB	05H
	DB	09H
	DB	05H
	DB	09H
	DB	0e4H
	DB	08H
	DB	0e4H
	DB	08H
	DB	0c9H
	DB	011H
	DB	0c9H
	DB	011H
	DB	0c9H
	DB	011H
	DB	0c9H
	DB	011H
	DB	0c9H
	DB	011H
	DB	0c9H
	DB	011H
	DB	0c9H
	DB	011H
	DB	0c9H
	DB	011H
	DB	0c9H
	DB	011H
	DB	0c9H
	DB	011H
	DB	0c9H
	DB	011H
	DB	0c9H
	DB	011H
	DB	0c9H
	DB	011H
	DB	0c9H
	DB	011H
	DB	0c9H
	DB	011H
	DB	0c9H
	DB	011H
	DB	0c9H
	DB	011H
	DB	0c9H
	DB	011H
	DB	0c9H
	DB	011H
	DB	0c9H
	DB	011H
	DB	0c9H
	DB	011H
	DB	0c9H
	DB	011H
	DB	0c9H
	DB	011H
	DB	0c9H
	DB	011H
	DB	0c9H
	DB	011H
	DB	0c9H
	DB	011H
	DB	0c9H
	DB	011H
	DB	0c9H
	DB	011H
	DB	0c9H
	DB	011H
	DB	0c9H
	DB	011H
	DB	0c9H
	DB	011H
	DB	0c9H
	DB	011H
	DB	0c9H
	DB	011H
	DB	0c9H
	DB	011H
	DB	0a9H
	DB	011H
	DB	0a9H
	DB	011H
	DB	0a9H
	DB	011H
	DB	0a9H
	DB	011H
	DB	0a9H
	DB	011H
	DB	0a9H
	DB	011H
	DB	0a9H
	DB	011H
	DB	0a9H
	DB	011H
	DB	0a8H
	DB	011H
	DB	0a8H
	DB	011H
	DB	0a8H
	DB	011H
	DB	0a8H
	DB	011H
	DB	0a8H
	DB	011H
	DB	0a8H
	DB	011H
	DB	0a8H
	DB	011H
	DB	088H
	DB	011H
	DB	088H
	DB	011H
	DB	088H
	DB	011H
	DB	088H
	DB	011H
	DB	088H
	DB	011H
	DB	088H
	DB	011H
	DB	088H
	DB	011H
	DB	088H
	DB	011H
	DB	088H
	DB	011H
	DB	088H
	DB	011H
	DB	088H
	DB	011H
	DB	088H
	DB	011H
	DB	088H
	DB	011H
	DB	088H
	DB	011H
	DB	088H
	DB	011H
	DB	088H
	DB	011H
	DB	067H
	DB	011H
	DB	067H
	DB	011H
	DB	067H
	DB	011H
	DB	067H
	DB	011H
	DB	067H
	DB	011H
	DB	067H
	DB	011H
	DB	067H
	DB	011H
	DB	067H
	DB	011H
	DB	067H
	DB	011H
	DB	067H
	DB	011H
	DB	067H
	DB	011H
	DB	067H
	DB	011H
	DB	067H
	DB	011H
	DB	067H
	DB	011H
	DB	067H
	DB	011H
	DB	047H
	DB	011H
	DB	047H
	DB	011H
	DB	047H
	DB	011H
	DB	047H
	DB	011H
	DB	047H
	DB	011H
	DB	047H
	DB	011H
	DB	047H
	DB	011H
	DB	047H
	DB	011H
	DB	047H
	DB	09H
	DB	046H
	DB	09H
	DB	046H
	DB	09H
	DB	046H
	DB	09H
	DB	046H
	DB	09H
	DB	046H
	DB	09H
	DB	046H
	DB	09H
	DB	046H
	DB	09H
	DB	026H
	DB	09H
	DB	026H
	DB	09H
	DB	026H
	DB	09H
	DB	026H
	DB	09H
	DB	026H
	DB	09H
	DB	026H
	DB	09H
	DB	026H
	DB	09H
	DB	026H
	DB	09H
	DB	026H
	DB	09H
	DB	026H
	DB	09H
	DB	026H
	DB	09H
	DB	026H
	DB	09H
	DB	026H
	DB	09H
	DB	026H
	DB	09H
	DB	026H
	DB	09H
	DB	06H
	DB	09H
	DB	05H
	DB	09H
	DB	05H
	DB	09H
	DB	05H
	DB	09H
	DB	05H
	DB	09H
	DB	05H
	DB	09H
	DB	05H
	DB	09H
	DB	05H
	DB	09H
	DB	05H
	DB	09H
	DB	05H
	DB	09H
	DB	05H
	DB	09H
	DB	05H
	DB	09H
	DB	05H
	DB	09H
	DB	05H
	DB	09H
	DB	05H
	DB	09H
	DB	05H
	DB	09H
	DB	0e5H
	DB	08H
	DB	0e5H
	DB	08H
	DB	0e5H
	DB	08H
	DB	0e5H
	DB	08H
	DB	0e5H
	DB	08H
	DB	0e5H
	DB	08H
	DB	0e5H
	DB	08H
	DB	0e5H
	DB	08H
	DB	0e4H
	DB	08H
	DB	0e4H
	DB	08H
	DB	0e4H
	DB	08H
	DB	0e4H
	DB	08H
	DB	0e4H
	DB	08H
	DB	0e4H
	DB	08H
	DB	0e4H
	DB	08H
	DB	0e4H
	DB	08H
	DB	0c4H
	DB	08H
	DB	0c4H
	DB	08H
	DB	0c4H
	DB	08H
	DB	0c4H
	DB	08H
	DB	0c4H
	DB	08H
	DB	0c4H
	DB	08H
	DB	0c4H
	DB	08H
	DB	0c4H
	DB	08H
	DB	0c4H
	DB	08H
	DB	0c4H
	DB	08H
	DB	0c4H
	DB	08H
	DB	0c4H
	DB	08H
	DB	0c4H
	DB	08H
	DB	0c4H
	DB	08H
	DB	0c4H
	DB	08H
	DB	0a3H
	DB	08H
	DB	0a3H
	DB	08H
	DB	0a3H
	DB	08H
	DB	0a3H
	DB	00H
	DB	0a3H
	DB	00H
	DB	0a3H
	DB	00H
	DB	0a3H
	DB	00H
	DB	0a3H
	DB	00H
	DB	0a3H
	DB	00H
	DB	0a3H
	DB	00H
	DB	0a3H
	DB	00H
	DB	0a3H
	DB	00H
	DB	0a3H
	DB	00H
	DB	0a3H
	DB	00H
	DB	0a3H
	DB	00H
	DB	0a3H
	DB	00H
	DB	0a3H
	DB	00H
	DB	0a3H
	DB	00H
	DB	0a3H
	DB	00H
	DB	0a3H
	DB	00H
	DB	0a3H
	DB	00H
	DB	0a3H
	DB	00H
	DB	0a3H
	DB	00H
	DB	0a3H
	DB	00H
	DB	0a3H
	DB	00H
	DB	0a3H
	DB	00H
	DB	0a3H
	DB	00H
	DB	0a3H
	DB	00H
	DB	0a3H
	DB	00H
	DB	05H
	DB	09H
	DB	05H
	DB	09H
	DB	05H
	DB	09H
	DB	05H
	DB	09H
	DB	05H
	DB	09H
	DB	05H
	DB	09H
	DB	05H
	DB	09H
	DB	05H
	DB	09H
	DB	05H
	DB	09H
	DB	05H
	DB	09H
	DB	05H
	DB	09H
	DB	05H
	DB	09H
	DB	05H
	DB	09H
	DB	05H
	DB	09H
	DB	05H
	DB	09H
	DB	05H
	DB	09H
	DB	05H
	DB	09H
	DB	05H
	DB	09H
	DB	05H
	DB	09H
	DB	05H
	DB	09H
	DB	05H
	DB	09H
	DB	05H
	DB	09H
	DB	05H
	DB	09H
	DB	05H
	DB	09H
	DB	05H
	DB	09H
	DB	05H
	DB	09H
	DB	05H
	DB	09H
	DB	05H
	DB	09H
	DB	05H
	DB	09H
	DB	05H
	DB	09H
	DB	05H
	DB	09H
	DB	05H
	DB	09H
	DB	05H
	DB	09H
	DB	05H
	DB	09H
	DB	05H
	DB	09H
	DB	05H
	DB	09H
	DB	05H
	DB	09H
	DB	05H
	DB	09H
	DB	05H
	DB	09H
	DB	05H
	DB	09H
	DB	05H
	DB	09H
	DB	05H
	DB	09H
	DB	05H
	DB	09H
	DB	05H
	DB	09H
	DB	05H
	DB	09H
	DB	05H
	DB	09H
	DB	05H
	DB	09H
	DB	05H
	DB	09H
	DB	05H
	DB	09H
	DB	05H
	DB	09H
	DB	05H
	DB	09H
	DB	0e4H
	DB	08H
	DB	0e4H
	DB	08H
	DB	0c9H
	DB	011H
	DB	0c9H
	DB	011H
	DB	0c9H
	DB	011H
	DB	0c9H
	DB	011H
	DB	0c9H
	DB	011H
	DB	0c9H
	DB	011H
	DB	0c9H
	DB	011H
	DB	0c9H
	DB	011H
	DB	0c9H
	DB	011H
	DB	0c9H
	DB	011H
	DB	0c9H
	DB	011H
	DB	0c9H
	DB	011H
	DB	0c9H
	DB	011H
	DB	0c9H
	DB	011H
	DB	0c9H
	DB	011H
	DB	0c9H
	DB	011H
	DB	0c9H
	DB	011H
	DB	0c9H
	DB	011H
	DB	0c9H
	DB	011H
	DB	0c9H
	DB	011H
	DB	0c9H
	DB	011H
	DB	0c9H
	DB	011H
	DB	0c9H
	DB	011H
	DB	0c9H
	DB	011H
	DB	0c9H
	DB	011H
	DB	0c9H
	DB	011H
	DB	0c9H
	DB	011H
	DB	0c9H
	DB	011H
	DB	0c9H
	DB	011H
	DB	0c9H
	DB	011H
	DB	0c9H
	DB	011H
	DB	0c9H
	DB	011H
	DB	0c9H
	DB	011H
	DB	0c9H
	DB	011H
	DB	0a9H
	DB	011H
	DB	0a9H
	DB	011H
	DB	0a9H
	DB	011H
	DB	0a9H
	DB	011H
	DB	0a9H
	DB	011H
	DB	0a9H
	DB	011H
	DB	0a9H
	DB	011H
	DB	0a9H
	DB	011H
	DB	0a8H
	DB	011H
	DB	0a8H
	DB	011H
	DB	0a8H
	DB	011H
	DB	0a8H
	DB	011H
	DB	0a8H
	DB	011H
	DB	0a8H
	DB	011H
	DB	0a8H
	DB	011H
	DB	088H
	DB	011H
	DB	088H
	DB	011H
	DB	088H
	DB	011H
	DB	088H
	DB	011H
	DB	088H
	DB	011H
	DB	088H
	DB	011H
	DB	088H
	DB	011H
	DB	088H
	DB	011H
	DB	088H
	DB	011H
	DB	088H
	DB	011H
	DB	088H
	DB	011H
	DB	088H
	DB	011H
	DB	088H
	DB	011H
	DB	088H
	DB	011H
	DB	088H
	DB	011H
	DB	088H
	DB	011H
	DB	067H
	DB	011H
	DB	067H
	DB	011H
	DB	067H
	DB	011H
	DB	067H
	DB	011H
	DB	067H
	DB	011H
	DB	067H
	DB	011H
	DB	067H
	DB	011H
	DB	067H
	DB	011H
	DB	067H
	DB	011H
	DB	067H
	DB	011H
	DB	067H
	DB	011H
	DB	067H
	DB	011H
	DB	067H
	DB	011H
	DB	067H
	DB	011H
	DB	067H
	DB	011H
	DB	047H
	DB	011H
	DB	047H
	DB	011H
	DB	047H
	DB	011H
	DB	047H
	DB	011H
	DB	047H
	DB	011H
	DB	047H
	DB	011H
	DB	047H
	DB	011H
	DB	047H
	DB	011H
	DB	047H
	DB	09H
	DB	046H
	DB	09H
	DB	046H
	DB	09H
	DB	046H
	DB	09H
	DB	046H
	DB	09H
	DB	046H
	DB	09H
	DB	046H
	DB	09H
	DB	046H
	DB	09H
	DB	026H
	DB	09H
	DB	026H
	DB	09H
	DB	026H
	DB	09H
	DB	026H
	DB	09H
	DB	026H
	DB	09H
	DB	026H
	DB	09H
	DB	026H
	DB	09H
	DB	026H
	DB	09H
	DB	026H
	DB	09H
	DB	026H
	DB	09H
	DB	026H
	DB	09H
	DB	026H
	DB	09H
	DB	026H
	DB	09H
	DB	026H
	DB	09H
	DB	026H
	DB	09H
	DB	06H
	DB	09H
	DB	05H
	DB	09H
	DB	05H
	DB	09H
	DB	05H
	DB	09H
	DB	05H
	DB	09H
	DB	05H
	DB	09H
	DB	05H
	DB	09H
	DB	05H
	DB	09H
	DB	05H
	DB	09H
	DB	05H
	DB	09H
	DB	05H
	DB	09H
	DB	05H
	DB	09H
	DB	05H
	DB	09H
	DB	05H
	DB	09H
	DB	05H
	DB	09H
	DB	05H
	DB	09H
	DB	0e5H
	DB	08H
	DB	0e5H
	DB	08H
	DB	0e5H
	DB	08H
	DB	0e5H
	DB	08H
	DB	0e5H
	DB	08H
	DB	0e5H
	DB	08H
	DB	0e5H
	DB	08H
	DB	0e5H
	DB	08H
	DB	0e4H
	DB	08H
	DB	0e4H
	DB	08H
	DB	0e4H
	DB	08H
	DB	0e4H
	DB	08H
	DB	0e4H
	DB	08H
	DB	0e4H
	DB	08H
	DB	0e4H
	DB	08H
	DB	0e4H
	DB	08H
	DB	0c4H
	DB	08H
	DB	0c4H
	DB	08H
	DB	0c4H
	DB	08H
	DB	0c4H
	DB	08H
	DB	0c4H
	DB	08H
	DB	0c4H
	DB	08H
	DB	0c4H
	DB	08H
	DB	0c4H
	DB	08H
	DB	0c4H
	DB	08H
	DB	0c4H
	DB	08H
	DB	0c4H
	DB	08H
	DB	0c4H
	DB	08H
	DB	0c4H
	DB	08H
	DB	0c4H
	DB	08H
	DB	0c4H
	DB	08H
	DB	0a3H
	DB	08H
	DB	0a3H
	DB	08H
	DB	0a3H
	DB	08H
	DB	0a3H
	DB	00H
	DB	0a3H
	DB	00H
	DB	0a3H
	DB	00H
	DB	0a3H
	DB	00H
	DB	0a3H
	DB	00H
	DB	0a3H
	DB	00H
	DB	0a3H
	DB	00H
	DB	0a3H
	DB	00H
	DB	0a3H
	DB	00H
	DB	0a3H
	DB	00H
	DB	0a3H
	DB	00H
	DB	0a3H
	DB	00H
	DB	0a3H
	DB	00H
	DB	0a3H
	DB	00H
	DB	0a3H
	DB	00H
	DB	0a3H
	DB	00H
	DB	0a3H
	DB	00H
	DB	0a3H
	DB	00H
	DB	0a3H
	DB	00H
	DB	0a3H
	DB	00H
	DB	0a3H
	DB	00H
	DB	0a3H
	DB	00H
	DB	0a3H
	DB	00H
	DB	0a3H
	DB	00H
	DB	0a3H
	DB	00H
	DB	0a3H
	DB	00H
	DB	05H
	DB	09H
	DB	05H
	DB	09H
	DB	05H
	DB	09H
	DB	05H
	DB	09H
	DB	05H
	DB	09H
	DB	05H
	DB	09H
	DB	05H
	DB	09H
	DB	05H
	DB	09H
	DB	05H
	DB	09H
	DB	05H
	DB	09H
	DB	05H
	DB	09H
	DB	05H
	DB	09H
	DB	05H
	DB	09H
	DB	05H
	DB	09H
	DB	05H
	DB	09H
	DB	05H
	DB	09H
	DB	05H
	DB	09H
	DB	05H
	DB	09H
	DB	05H
	DB	09H
	DB	05H
	DB	09H
	DB	05H
	DB	09H
	DB	05H
	DB	09H
	DB	05H
	DB	09H
	DB	05H
	DB	09H
	DB	05H
	DB	09H
	DB	05H
	DB	09H
	DB	05H
	DB	09H
	DB	05H
	DB	09H
	DB	05H
	DB	09H
	DB	05H
	DB	09H
	DB	05H
	DB	09H
	DB	05H
	DB	09H
	DB	05H
	DB	09H
	DB	05H
	DB	09H
	DB	05H
	DB	09H
	DB	05H
	DB	09H
	DB	05H
	DB	09H
	DB	05H
	DB	09H
	DB	05H
	DB	09H
	DB	05H
	DB	09H
	DB	05H
	DB	09H
	DB	05H
	DB	09H
	DB	05H
	DB	09H
	DB	05H
	DB	09H
	DB	05H
	DB	09H
	DB	05H
	DB	09H
	DB	05H
	DB	09H
	DB	05H
	DB	09H
	DB	05H
	DB	09H
	DB	05H
	DB	09H
	DB	05H
	DB	09H
	DB	0e4H
	DB	08H
	DB	0e4H
	DB	08H
	DB	0c9H
	DB	011H
	DB	0c9H
	DB	011H
	DB	0c9H
	DB	011H
	DB	0c9H
	DB	011H
	DB	0c9H
	DB	011H
	DB	0c9H
	DB	011H
	DB	0c9H
	DB	011H
	DB	0c9H
	DB	011H
	DB	0c9H
	DB	011H
	DB	0c9H
	DB	011H
	DB	0c9H
	DB	011H
	DB	0c9H
	DB	011H
	DB	0c9H
	DB	011H
	DB	0c9H
	DB	011H
	DB	0c9H
	DB	011H
	DB	0c9H
	DB	011H
	DB	0c9H
	DB	011H
	DB	0c9H
	DB	011H
	DB	0c9H
	DB	011H
	DB	0c9H
	DB	011H
	DB	0c9H
	DB	011H
	DB	0c9H
	DB	011H
	DB	0c9H
	DB	011H
	DB	0c9H
	DB	011H
	DB	0c9H
	DB	011H
	DB	0c9H
	DB	011H
	DB	0c9H
	DB	011H
	DB	0c9H
	DB	011H
	DB	0c9H
	DB	011H
	DB	0c9H
	DB	011H
	DB	0c9H
	DB	011H
	DB	0c9H
	DB	011H
	DB	0c9H
	DB	011H
	DB	0c9H
	DB	011H
	DB	0a9H
	DB	011H
	DB	0a9H
	DB	011H
	DB	0a9H
	DB	011H
	DB	0a9H
	DB	011H
	DB	0a9H
	DB	011H
	DB	0a9H
	DB	011H
	DB	0a9H
	DB	011H
	DB	0a9H
	DB	011H
	DB	0a8H
	DB	011H
	DB	0a8H
	DB	011H
	DB	0a8H
	DB	011H
	DB	0a8H
	DB	011H
	DB	0a8H
	DB	011H
	DB	0a8H
	DB	011H
	DB	0a8H
	DB	011H
	DB	088H
	DB	011H
	DB	088H
	DB	011H
	DB	088H
	DB	011H
	DB	088H
	DB	011H
	DB	088H
	DB	011H
	DB	088H
	DB	011H
	DB	088H
	DB	011H
	DB	088H
	DB	011H
	DB	088H
	DB	011H
	DB	088H
	DB	011H
	DB	088H
	DB	011H
	DB	088H
	DB	011H
	DB	088H
	DB	011H
	DB	088H
	DB	011H
	DB	088H
	DB	011H
	DB	088H
	DB	011H
	DB	067H
	DB	011H
	DB	067H
	DB	011H
	DB	067H
	DB	011H
	DB	067H
	DB	011H
	DB	067H
	DB	011H
	DB	067H
	DB	011H
	DB	067H
	DB	011H
	DB	067H
	DB	011H
	DB	067H
	DB	011H
	DB	067H
	DB	011H
	DB	067H
	DB	011H
	DB	067H
	DB	011H
	DB	067H
	DB	011H
	DB	067H
	DB	011H
	DB	067H
	DB	011H
	DB	047H
	DB	011H
	DB	047H
	DB	011H
	DB	047H
	DB	011H
	DB	047H
	DB	011H
	DB	047H
	DB	011H
	DB	047H
	DB	011H
	DB	047H
	DB	011H
	DB	047H
	DB	011H
	DB	047H
	DB	09H
	DB	046H
	DB	09H
	DB	046H
	DB	09H
	DB	046H
	DB	09H
	DB	046H
	DB	09H
	DB	046H
	DB	09H
	DB	046H
	DB	09H
	DB	046H
	DB	09H
	DB	026H
	DB	09H
	DB	026H
	DB	09H
	DB	026H
	DB	09H
	DB	026H
	DB	09H
	DB	026H
	DB	09H
	DB	026H
	DB	09H
	DB	026H
	DB	09H
	DB	026H
	DB	09H
	DB	026H
	DB	09H
	DB	026H
	DB	09H
	DB	026H
	DB	09H
	DB	026H
	DB	09H
	DB	026H
	DB	09H
	DB	026H
	DB	09H
	DB	026H
	DB	09H
	DB	06H
	DB	09H
	DB	05H
	DB	09H
	DB	05H
	DB	09H
	DB	05H
	DB	09H
	DB	05H
	DB	09H
	DB	05H
	DB	09H
	DB	05H
	DB	09H
	DB	05H
	DB	09H
	DB	05H
	DB	09H
	DB	05H
	DB	09H
	DB	05H
	DB	09H
	DB	05H
	DB	09H
	DB	05H
	DB	09H
	DB	05H
	DB	09H
	DB	05H
	DB	09H
	DB	05H
	DB	09H
	DB	0e5H
	DB	08H
	DB	0e5H
	DB	08H
	DB	0e5H
	DB	08H
	DB	0e5H
	DB	08H
	DB	0e5H
	DB	08H
	DB	0e5H
	DB	08H
	DB	0e5H
	DB	08H
	DB	0e5H
	DB	08H
	DB	0e4H
	DB	08H
	DB	0e4H
	DB	08H
	DB	0e4H
	DB	08H
	DB	0e4H
	DB	08H
	DB	0e4H
	DB	08H
	DB	0e4H
	DB	08H
	DB	0e4H
	DB	08H
	DB	0e4H
	DB	08H
	DB	0c4H
	DB	08H
	DB	0c4H
	DB	08H
	DB	0c4H
	DB	08H
	DB	0c4H
	DB	08H
	DB	0c4H
	DB	08H
	DB	0c4H
	DB	08H
	DB	0c4H
	DB	08H
	DB	0c4H
	DB	08H
	DB	0c4H
	DB	08H
	DB	0c4H
	DB	08H
	DB	0c4H
	DB	08H
	DB	0c4H
	DB	08H
	DB	0c4H
	DB	08H
	DB	0c4H
	DB	08H
	DB	0c4H
	DB	08H
	DB	0a3H
	DB	08H
	DB	0a3H
	DB	08H
	DB	0a3H
	DB	08H
	DB	0a3H
	DB	00H
	DB	0a3H
	DB	00H
	DB	0a3H
	DB	00H
	DB	0a3H
	DB	00H
	DB	0a3H
	DB	00H
	DB	0a3H
	DB	00H
	DB	0a3H
	DB	00H
	DB	0a3H
	DB	00H
	DB	0a3H
	DB	00H
	DB	0a3H
	DB	00H
	DB	0a3H
	DB	00H
	DB	0a3H
	DB	00H
	DB	0a3H
	DB	00H
	DB	0a3H
	DB	00H
	DB	0a3H
	DB	00H
	DB	0a3H
	DB	00H
	DB	0a3H
	DB	00H
	DB	0a3H
	DB	00H
	DB	0a3H
	DB	00H
	DB	0a3H
	DB	00H
	DB	0a3H
	DB	00H
	DB	0a3H
	DB	00H
	DB	0a3H
	DB	00H
	DB	0a3H
	DB	00H
	DB	0a3H
	DB	00H
	DB	0a3H
	DB	00H
	DB	05H
	DB	09H
	DB	05H
	DB	09H
	DB	05H
	DB	09H
	DB	05H
	DB	09H
	DB	05H
	DB	09H
	DB	05H
	DB	09H
	DB	05H
	DB	09H
	DB	05H
	DB	09H
	DB	05H
	DB	09H
	DB	05H
	DB	09H
	DB	05H
	DB	09H
	DB	05H
	DB	09H
	DB	05H
	DB	09H
	DB	05H
	DB	09H
	DB	05H
	DB	09H
	DB	05H
	DB	09H
	DB	05H
	DB	09H
	DB	05H
	DB	09H
	DB	05H
	DB	09H
	DB	05H
	DB	09H
	DB	05H
	DB	09H
	DB	05H
	DB	09H
	DB	05H
	DB	09H
	DB	05H
	DB	09H
	DB	05H
	DB	09H
	DB	05H
	DB	09H
	DB	05H
	DB	09H
	DB	05H
	DB	09H
	DB	05H
	DB	09H
	DB	05H
	DB	09H
	DB	05H
	DB	09H
	DB	05H
	DB	09H
	DB	05H
	DB	09H
	DB	05H
	DB	09H
	DB	05H
	DB	09H
	DB	05H
	DB	09H
	DB	05H
	DB	09H
	DB	05H
	DB	09H
	DB	05H
	DB	09H
	DB	05H
	DB	09H
	DB	05H
	DB	09H
	DB	05H
	DB	09H
	DB	05H
	DB	09H
	DB	05H
	DB	09H
	DB	05H
	DB	09H
	DB	05H
	DB	09H
	DB	05H
	DB	09H
	DB	05H
	DB	09H
	DB	05H
	DB	09H
	DB	05H
	DB	09H
	DB	05H
	DB	09H
	DB	0e4H
	DB	08H
	DB	0e4H
	DB	08H
	DB	0c9H
	DB	011H
	DB	0c9H
	DB	011H
	DB	0c9H
	DB	011H
	DB	0c9H
	DB	011H
	DB	0c9H
	DB	011H
	DB	0c9H
	DB	011H
	DB	0c9H
	DB	011H
	DB	0c9H
	DB	011H
	DB	0c9H
	DB	011H
	DB	0c9H
	DB	011H
	DB	0c9H
	DB	011H
	DB	0c9H
	DB	011H
	DB	0c9H
	DB	011H
	DB	0c9H
	DB	011H
	DB	0c9H
	DB	011H
	DB	0c9H
	DB	011H
	DB	0c9H
	DB	011H
	DB	0c9H
	DB	011H
	DB	0c9H
	DB	011H
	DB	0c9H
	DB	011H
	DB	0c9H
	DB	011H
	DB	0c9H
	DB	011H
	DB	0c9H
	DB	011H
	DB	0c9H
	DB	011H
	DB	0c9H
	DB	011H
	DB	0c9H
	DB	011H
	DB	0c9H
	DB	011H
	DB	0c9H
	DB	011H
	DB	0c9H
	DB	011H
	DB	0c9H
	DB	011H
	DB	0c9H
	DB	011H
	DB	0c9H
	DB	011H
	DB	0c9H
	DB	011H
	DB	0c9H
	DB	011H
	DB	0a9H
	DB	011H
	DB	0a9H
	DB	011H
	DB	0a9H
	DB	011H
	DB	0a9H
	DB	011H
	DB	0a9H
	DB	011H
	DB	0a9H
	DB	011H
	DB	0a9H
	DB	011H
	DB	0a9H
	DB	011H
	DB	0a8H
	DB	011H
	DB	0a8H
	DB	011H
	DB	0a8H
	DB	011H
	DB	0a8H
	DB	011H
	DB	0a8H
	DB	011H
	DB	0a8H
	DB	011H
	DB	0a8H
	DB	011H
	DB	088H
	DB	011H
	DB	088H
	DB	011H
	DB	088H
	DB	011H
	DB	088H
	DB	011H
	DB	088H
	DB	011H
	DB	088H
	DB	011H
	DB	088H
	DB	011H
	DB	088H
	DB	011H
	DB	088H
	DB	011H
	DB	088H
	DB	011H
	DB	088H
	DB	011H
	DB	088H
	DB	011H
	DB	088H
	DB	011H
	DB	088H
	DB	011H
	DB	088H
	DB	011H
	DB	088H
	DB	011H
	DB	067H
	DB	011H
	DB	067H
	DB	011H
	DB	067H
	DB	011H
	DB	067H
	DB	011H
	DB	067H
	DB	011H
	DB	067H
	DB	011H
	DB	067H
	DB	011H
	DB	067H
	DB	011H
	DB	067H
	DB	011H
	DB	067H
	DB	011H
	DB	067H
	DB	011H
	DB	067H
	DB	011H
	DB	067H
	DB	011H
	DB	067H
	DB	011H
	DB	067H
	DB	011H
	DB	047H
	DB	011H
	DB	047H
	DB	011H
	DB	047H
	DB	011H
	DB	047H
	DB	011H
	DB	047H
	DB	011H
	DB	047H
	DB	011H
	DB	047H
	DB	011H
	DB	047H
	DB	011H
	DB	047H
	DB	09H
	DB	046H
	DB	09H
	DB	046H
	DB	09H
	DB	046H
	DB	09H
	DB	046H
	DB	09H
	DB	046H
	DB	09H
	DB	046H
	DB	09H
	DB	046H
	DB	09H
	DB	026H
	DB	09H
	DB	026H
	DB	09H
	DB	026H
	DB	09H
	DB	026H
	DB	09H
	DB	026H
	DB	09H
	DB	026H
	DB	09H
	DB	026H
	DB	09H
	DB	026H
	DB	09H
	DB	026H
	DB	09H
	DB	026H
	DB	09H
	DB	026H
	DB	09H
	DB	026H
	DB	09H
	DB	026H
	DB	09H
	DB	026H
	DB	09H
	DB	026H
	DB	09H
	DB	06H
	DB	09H
	DB	05H
	DB	09H
	DB	05H
	DB	09H
	DB	05H
	DB	09H
	DB	05H
	DB	09H
	DB	05H
	DB	09H
	DB	05H
	DB	09H
	DB	05H
	DB	09H
	DB	05H
	DB	09H
	DB	05H
	DB	09H
	DB	05H
	DB	09H
	DB	05H
	DB	09H
	DB	05H
	DB	09H
	DB	05H
	DB	09H
	DB	05H
	DB	09H
	DB	05H
	DB	09H
	DB	0e5H
	DB	08H
	DB	0e5H
	DB	08H
	DB	0e5H
	DB	08H
	DB	0e5H
	DB	08H
	DB	0e5H
	DB	08H
	DB	0e5H
	DB	08H
	DB	0e5H
	DB	08H
	DB	0e5H
	DB	08H
	DB	0e4H
	DB	08H
	DB	0e4H
	DB	08H
	DB	0e4H
	DB	08H
	DB	0e4H
	DB	08H
	DB	0e4H
	DB	08H
	DB	0e4H
	DB	08H
	DB	0e4H
	DB	08H
	DB	0e4H
	DB	08H
	DB	0c4H
	DB	08H
	DB	0c4H
	DB	08H
	DB	0c4H
	DB	08H
	DB	0c4H
	DB	08H
	DB	0c4H
	DB	08H
	DB	0c4H
	DB	08H
	DB	0c4H
	DB	08H
	DB	0c4H
	DB	08H
	DB	0c4H
	DB	08H
	DB	0c4H
	DB	08H
	DB	0c4H
	DB	08H
	DB	0c4H
	DB	08H
	DB	0c4H
	DB	08H
	DB	0c4H
	DB	08H
	DB	0c4H
	DB	08H
	DB	0a3H
	DB	08H
	DB	0a3H
	DB	08H
	DB	0a3H
	DB	08H
	DB	0a3H
	DB	00H
	DB	0a3H
	DB	00H
	DB	0a3H
	DB	00H
	DB	0a3H
	DB	00H
	DB	0a3H
	DB	00H
	DB	0a3H
	DB	00H
	DB	0a3H
	DB	00H
	DB	0a3H
	DB	00H
	DB	0a3H
	DB	00H
	DB	0a3H
	DB	00H
	DB	0a3H
	DB	00H
	DB	0a3H
	DB	00H
	DB	0a3H
	DB	00H
	DB	0a3H
	DB	00H
	DB	0a3H
	DB	00H
	DB	0a3H
	DB	00H
	DB	0a3H
	DB	00H
	DB	0a3H
	DB	00H
	DB	0a3H
	DB	00H
	DB	0a3H
	DB	00H
	DB	0a3H
	DB	00H
	DB	0a3H
	DB	00H
	DB	0a3H
	DB	00H
	DB	0a3H
	DB	00H
	DB	0a3H
	DB	00H
	DB	0a3H
	DB	00H
	DB	05H
	DB	09H
	DB	05H
	DB	09H
	DB	05H
	DB	09H
	DB	05H
	DB	09H
	DB	05H
	DB	09H
	DB	05H
	DB	09H
	DB	05H
	DB	09H
	DB	05H
	DB	09H
	DB	05H
	DB	09H
	DB	05H
	DB	09H
	DB	05H
	DB	09H
	DB	05H
	DB	09H
	DB	05H
	DB	09H
	DB	05H
	DB	09H
	DB	05H
	DB	09H
	DB	05H
	DB	09H
	DB	05H
	DB	09H
	DB	05H
	DB	09H
	DB	05H
	DB	09H
	DB	05H
	DB	09H
	DB	05H
	DB	09H
	DB	05H
	DB	09H
	DB	05H
	DB	09H
	DB	05H
	DB	09H
	DB	05H
	DB	09H
	DB	05H
	DB	09H
	DB	05H
	DB	09H
	DB	05H
	DB	09H
	DB	05H
	DB	09H
	DB	05H
	DB	09H
	DB	05H
	DB	09H
	DB	05H
	DB	09H
	DB	05H
	DB	09H
	DB	05H
	DB	09H
	DB	05H
	DB	09H
	DB	05H
	DB	09H
	DB	05H
	DB	09H
	DB	05H
	DB	09H
	DB	05H
	DB	09H
	DB	05H
	DB	09H
	DB	05H
	DB	09H
	DB	05H
	DB	09H
	DB	05H
	DB	09H
	DB	05H
	DB	09H
	DB	05H
	DB	09H
	DB	05H
	DB	09H
	DB	05H
	DB	09H
	DB	05H
	DB	09H
	DB	05H
	DB	09H
	DB	05H
	DB	09H
	DB	05H
	DB	09H
	DB	0e4H
	DB	08H
	DB	0e4H
	DB	08H
	DB	0c9H
	DB	011H
	DB	0c9H
	DB	011H
	DB	0c9H
	DB	011H
	DB	0c9H
	DB	011H
	DB	0c9H
	DB	011H
	DB	0c9H
	DB	011H
	DB	0c9H
	DB	011H
	DB	0c9H
	DB	011H
	DB	0c9H
	DB	011H
	DB	0c9H
	DB	011H
	DB	0c9H
	DB	011H
	DB	0c9H
	DB	011H
	DB	0c9H
	DB	011H
	DB	0c9H
	DB	011H
	DB	0c9H
	DB	011H
	DB	0c9H
	DB	011H
	DB	0c9H
	DB	011H
	DB	0c9H
	DB	011H
	DB	0c9H
	DB	011H
	DB	0c9H
	DB	011H
	DB	0c9H
	DB	011H
	DB	0c9H
	DB	011H
	DB	0c9H
	DB	011H
	DB	0c9H
	DB	011H
	DB	0c9H
	DB	011H
	DB	0c9H
	DB	011H
	DB	0c9H
	DB	011H
	DB	0c9H
	DB	011H
	DB	0c9H
	DB	011H
	DB	0c9H
	DB	011H
	DB	0c9H
	DB	011H
	DB	0c9H
	DB	011H
	DB	0c9H
	DB	011H
	DB	0c9H
	DB	011H
	DB	0a9H
	DB	011H
	DB	0a9H
	DB	011H
	DB	0a9H
	DB	011H
	DB	0a9H
	DB	011H
	DB	0a9H
	DB	011H
	DB	0a9H
	DB	011H
	DB	0a9H
	DB	011H
	DB	0a9H
	DB	011H
	DB	0a8H
	DB	011H
	DB	0a8H
	DB	011H
	DB	0a8H
	DB	011H
	DB	0a8H
	DB	011H
	DB	0a8H
	DB	011H
	DB	0a8H
	DB	011H
	DB	0a8H
	DB	011H
	DB	088H
	DB	011H
	DB	088H
	DB	011H
	DB	088H
	DB	011H
	DB	088H
	DB	011H
	DB	088H
	DB	011H
	DB	088H
	DB	011H
	DB	088H
	DB	011H
	DB	088H
	DB	011H
	DB	088H
	DB	011H
	DB	088H
	DB	011H
	DB	088H
	DB	011H
	DB	088H
	DB	011H
	DB	088H
	DB	011H
	DB	088H
	DB	011H
	DB	088H
	DB	011H
	DB	088H
	DB	011H
	DB	067H
	DB	011H
	DB	067H
	DB	011H
	DB	067H
	DB	011H
	DB	067H
	DB	011H
	DB	067H
	DB	011H
	DB	067H
	DB	011H
	DB	067H
	DB	011H
	DB	067H
	DB	011H
	DB	067H
	DB	011H
	DB	067H
	DB	011H
	DB	067H
	DB	011H
	DB	067H
	DB	011H
	DB	067H
	DB	011H
	DB	067H
	DB	011H
	DB	067H
	DB	011H
	DB	047H
	DB	011H
	DB	047H
	DB	011H
	DB	047H
	DB	011H
	DB	047H
	DB	011H
	DB	047H
	DB	011H
	DB	047H
	DB	011H
	DB	047H
	DB	011H
	DB	047H
	DB	011H
	DB	047H
	DB	09H
	DB	046H
	DB	09H
	DB	046H
	DB	09H
	DB	046H
	DB	09H
	DB	046H
	DB	09H
	DB	046H
	DB	09H
	DB	046H
	DB	09H
	DB	046H
	DB	09H
	DB	026H
	DB	09H
	DB	026H
	DB	09H
	DB	026H
	DB	09H
	DB	026H
	DB	09H
	DB	026H
	DB	09H
	DB	026H
	DB	09H
	DB	026H
	DB	09H
	DB	026H
	DB	09H
	DB	026H
	DB	09H
	DB	026H
	DB	09H
	DB	026H
	DB	09H
	DB	026H
	DB	09H
	DB	026H
	DB	09H
	DB	026H
	DB	09H
	DB	026H
	DB	09H
	DB	06H
	DB	09H
	DB	05H
	DB	09H
	DB	05H
	DB	09H
	DB	05H
	DB	09H
	DB	05H
	DB	09H
	DB	05H
	DB	09H
	DB	05H
	DB	09H
	DB	05H
	DB	09H
	DB	05H
	DB	09H
	DB	05H
	DB	09H
	DB	05H
	DB	09H
	DB	05H
	DB	09H
	DB	05H
	DB	09H
	DB	05H
	DB	09H
	DB	05H
	DB	09H
	DB	05H
	DB	09H
	DB	0e5H
	DB	08H
	DB	0e5H
	DB	08H
	DB	0e5H
	DB	08H
	DB	0e5H
	DB	08H
	DB	0e5H
	DB	08H
	DB	0e5H
	DB	08H
	DB	0e5H
	DB	08H
	DB	0e5H
	DB	08H
	DB	0e4H
	DB	08H
	DB	0e4H
	DB	08H
	DB	0e4H
	DB	08H
	DB	0e4H
	DB	08H
	DB	0e4H
	DB	08H
	DB	0e4H
	DB	08H
	DB	0e4H
	DB	08H
	DB	0e4H
	DB	08H
	DB	0c4H
	DB	08H
	DB	0c4H
	DB	08H
	DB	0c4H
	DB	08H
	DB	0c4H
	DB	08H
	DB	0c4H
	DB	08H
	DB	0c4H
	DB	08H
	DB	0c4H
	DB	08H
	DB	0c4H
	DB	08H
	DB	0c4H
	DB	08H
	DB	0c4H
	DB	08H
	DB	0c4H
	DB	08H
	DB	0c4H
	DB	08H
	DB	0c4H
	DB	08H
	DB	0c4H
	DB	08H
	DB	0c4H
	DB	08H
	DB	0a3H
	DB	08H
	DB	0a3H
	DB	08H
	DB	0a3H
	DB	08H
	DB	0a3H
	DB	00H
	DB	0a3H
	DB	00H
	DB	0a3H
	DB	00H
	DB	0a3H
	DB	00H
	DB	0a3H
	DB	00H
	DB	0a3H
	DB	00H
	DB	0a3H
	DB	00H
	DB	0a3H
	DB	00H
	DB	0a3H
	DB	00H
	DB	0a3H
	DB	00H
	DB	0a3H
	DB	00H
	DB	0a3H
	DB	00H
	DB	0a3H
	DB	00H
	DB	0a3H
	DB	00H
	DB	0a3H
	DB	00H
	DB	0a3H
	DB	00H
	DB	0a3H
	DB	00H
	DB	0a3H
	DB	00H
	DB	0a3H
	DB	00H
	DB	0a3H
	DB	00H
	DB	0a3H
	DB	00H
	DB	0a3H
	DB	00H
	DB	0a3H
	DB	00H
	DB	0a3H
	DB	00H
	DB	0a3H
	DB	00H
	DB	0a3H
	DB	00H
	DB	05H
	DB	09H
	DB	05H
	DB	09H
	DB	05H
	DB	09H
	DB	05H
	DB	09H
	DB	05H
	DB	09H
	DB	05H
	DB	09H
	DB	05H
	DB	09H
	DB	05H
	DB	09H
	DB	05H
	DB	09H
	DB	05H
	DB	09H
	DB	05H
	DB	09H
	DB	05H
	DB	09H
	DB	05H
	DB	09H
	DB	05H
	DB	09H
	DB	05H
	DB	09H
	DB	05H
	DB	09H
	DB	05H
	DB	09H
	DB	05H
	DB	09H
	DB	05H
	DB	09H
	DB	05H
	DB	09H
	DB	05H
	DB	09H
	DB	05H
	DB	09H
	DB	05H
	DB	09H
	DB	05H
	DB	09H
	DB	05H
	DB	09H
	DB	05H
	DB	09H
	DB	05H
	DB	09H
	DB	05H
	DB	09H
	DB	05H
	DB	09H
	DB	05H
	DB	09H
	DB	05H
	DB	09H
	DB	05H
	DB	09H
	DB	05H
	DB	09H
	DB	05H
	DB	09H
	DB	05H
	DB	09H
	DB	05H
	DB	09H
	DB	05H
	DB	09H
	DB	05H
	DB	09H
	DB	05H
	DB	09H
	DB	05H
	DB	09H
	DB	05H
	DB	09H
	DB	05H
	DB	09H
	DB	05H
	DB	09H
	DB	05H
	DB	09H
	DB	05H
	DB	09H
	DB	05H
	DB	09H
	DB	05H
	DB	09H
	DB	05H
	DB	09H
	DB	05H
	DB	09H
	DB	05H
	DB	09H
	DB	05H
	DB	09H
	DB	0e4H
	DB	08H
	DB	0e4H
	DB	08H
	DB	0c9H
	DB	011H
	DB	0c9H
	DB	011H
	DB	0c9H
	DB	011H
	DB	0c9H
	DB	011H
	DB	0c9H
	DB	011H
	DB	0c9H
	DB	011H
	DB	0c9H
	DB	011H
	DB	0c9H
	DB	011H
	DB	0c9H
	DB	011H
	DB	0c9H
	DB	011H
	DB	0c9H
	DB	011H
	DB	0c9H
	DB	011H
	DB	0c9H
	DB	011H
	DB	0c9H
	DB	011H
	DB	0c9H
	DB	011H
	DB	0c9H
	DB	011H
	DB	0c9H
	DB	011H
	DB	0c9H
	DB	011H
	DB	0c9H
	DB	011H
	DB	0c9H
	DB	011H
	DB	0c9H
	DB	011H
	DB	0c9H
	DB	011H
	DB	0c9H
	DB	011H
	DB	0c9H
	DB	011H
	DB	0c9H
	DB	011H
	DB	0c9H
	DB	011H
	DB	0c9H
	DB	011H
	DB	0c9H
	DB	011H
	DB	0c9H
	DB	011H
	DB	0c9H
	DB	011H
	DB	0c9H
	DB	011H
	DB	0c9H
	DB	011H
	DB	0c9H
	DB	011H
	DB	0c9H
	DB	011H
	DB	0a9H
	DB	011H
	DB	0a9H
	DB	011H
	DB	0a9H
	DB	011H
	DB	0a9H
	DB	011H
	DB	0a9H
	DB	011H
	DB	0a9H
	DB	011H
	DB	0a9H
	DB	011H
	DB	0a9H
	DB	011H
	DB	0a8H
	DB	011H
	DB	0a8H
	DB	011H
	DB	0a8H
	DB	011H
	DB	0a8H
	DB	011H
	DB	0a8H
	DB	011H
	DB	0a8H
	DB	011H
	DB	0a8H
	DB	011H
	DB	088H
	DB	011H
	DB	088H
	DB	011H
	DB	088H
	DB	011H
	DB	088H
	DB	011H
	DB	088H
	DB	011H
	DB	088H
	DB	011H
	DB	088H
	DB	011H
	DB	088H
	DB	011H
	DB	088H
	DB	011H
	DB	088H
	DB	011H
	DB	088H
	DB	011H
	DB	088H
	DB	011H
	DB	088H
	DB	011H
	DB	088H
	DB	011H
	DB	088H
	DB	011H
	DB	088H
	DB	011H
	DB	067H
	DB	011H
	DB	067H
	DB	011H
	DB	067H
	DB	011H
	DB	067H
	DB	011H
	DB	067H
	DB	011H
	DB	067H
	DB	011H
	DB	067H
	DB	011H
	DB	067H
	DB	011H
	DB	067H
	DB	011H
	DB	067H
	DB	011H
	DB	067H
	DB	011H
	DB	067H
	DB	011H
	DB	067H
	DB	011H
	DB	067H
	DB	011H
	DB	067H
	DB	011H
	DB	047H
	DB	011H
	DB	047H
	DB	011H
	DB	047H
	DB	011H
	DB	047H
	DB	011H
	DB	047H
	DB	011H
	DB	047H
	DB	011H
	DB	047H
	DB	011H
	DB	047H
	DB	011H
	DB	047H
	DB	09H
	DB	046H
	DB	09H
	DB	046H
	DB	09H
	DB	046H
	DB	09H
	DB	046H
	DB	09H
	DB	046H
	DB	09H
	DB	046H
	DB	09H
	DB	046H
	DB	09H
	DB	026H
	DB	09H
	DB	026H
	DB	09H
	DB	026H
	DB	09H
	DB	026H
	DB	09H
	DB	026H
	DB	09H
	DB	026H
	DB	09H
	DB	026H
	DB	09H
	DB	026H
	DB	09H
	DB	026H
	DB	09H
	DB	026H
	DB	09H
	DB	026H
	DB	09H
	DB	026H
	DB	09H
	DB	026H
	DB	09H
	DB	026H
	DB	09H
	DB	026H
	DB	09H
	DB	06H
	DB	09H
	DB	05H
	DB	09H
	DB	05H
	DB	09H
	DB	05H
	DB	09H
	DB	05H
	DB	09H
	DB	05H
	DB	09H
	DB	05H
	DB	09H
	DB	05H
	DB	09H
	DB	05H
	DB	09H
	DB	05H
	DB	09H
	DB	05H
	DB	09H
	DB	05H
	DB	09H
	DB	05H
	DB	09H
	DB	05H
	DB	09H
	DB	05H
	DB	09H
	DB	05H
	DB	09H
	DB	0e5H
	DB	08H
	DB	0e5H
	DB	08H
	DB	0e5H
	DB	08H
	DB	0e5H
	DB	08H
	DB	0e5H
	DB	08H
	DB	0e5H
	DB	08H
	DB	0e5H
	DB	08H
	DB	0e5H
	DB	08H
	DB	0e4H
	DB	08H
	DB	0e4H
	DB	08H
	DB	0e4H
	DB	08H
	DB	0e4H
	DB	08H
	DB	0e4H
	DB	08H
	DB	0e4H
	DB	08H
	DB	0e4H
	DB	08H
	DB	0e4H
	DB	08H
	DB	0c4H
	DB	08H
	DB	0c4H
	DB	08H
	DB	0c4H
	DB	08H
	DB	0c4H
	DB	08H
	DB	0c4H
	DB	08H
	DB	0c4H
	DB	08H
	DB	0c4H
	DB	08H
	DB	0c4H
	DB	08H
	DB	0c4H
	DB	08H
	DB	0c4H
	DB	08H
	DB	0c4H
	DB	08H
	DB	0c4H
	DB	08H
	DB	0c4H
	DB	08H
	DB	0c4H
	DB	08H
	DB	0c4H
	DB	08H
	DB	0c4H
	DB	08H
	DB	0a3H
	DB	08H
	DB	0a3H
	DB	08H
	DB	0a3H
	DB	00H
	DB	0a3H
	DB	00H
	DB	0a3H
	DB	00H
	DB	0a3H
	DB	00H
	DB	0a3H
	DB	00H
	DB	0a3H
	DB	00H
	DB	0a3H
	DB	00H
	DB	0a3H
	DB	00H
	DB	0a3H
	DB	00H
	DB	0a3H
	DB	00H
	DB	0a3H
	DB	00H
	DB	0a3H
	DB	00H
	DB	0a3H
	DB	00H
	DB	0a3H
	DB	00H
	DB	0a3H
	DB	00H
	DB	0a3H
	DB	00H
	DB	0a3H
	DB	00H
	DB	0a3H
	DB	00H
	DB	0a3H
	DB	00H
	DB	0a3H
	DB	00H
	DB	0a3H
	DB	00H
	DB	0a3H
	DB	00H
	DB	0a3H
	DB	00H
	DB	0a3H
	DB	00H
	DB	0a3H
	DB	00H
	DB	0a3H
	DB	00H
	DB	05H
	DB	09H
	DB	05H
	DB	09H
	DB	05H
	DB	09H
	DB	05H
	DB	09H
	DB	05H
	DB	09H
	DB	05H
	DB	09H
	DB	05H
	DB	09H
	DB	05H
	DB	09H
	DB	05H
	DB	09H
	DB	05H
	DB	09H
	DB	05H
	DB	09H
	DB	05H
	DB	09H
	DB	05H
	DB	09H
	DB	05H
	DB	09H
	DB	05H
	DB	09H
	DB	05H
	DB	09H
	DB	05H
	DB	09H
	DB	05H
	DB	09H
	DB	05H
	DB	09H
	DB	05H
	DB	09H
	DB	05H
	DB	09H
	DB	05H
	DB	09H
	DB	05H
	DB	09H
	DB	05H
	DB	09H
	DB	05H
	DB	09H
	DB	05H
	DB	09H
	DB	05H
	DB	09H
	DB	05H
	DB	09H
	DB	05H
	DB	09H
	DB	05H
	DB	09H
	DB	05H
	DB	09H
	DB	05H
	DB	09H
	DB	05H
	DB	09H
	DB	05H
	DB	09H
	DB	05H
	DB	09H
	DB	05H
	DB	09H
	DB	05H
	DB	09H
	DB	05H
	DB	09H
	DB	05H
	DB	09H
	DB	05H
	DB	09H
	DB	05H
	DB	09H
	DB	05H
	DB	09H
	DB	05H
	DB	09H
	DB	05H
	DB	09H
	DB	05H
	DB	09H
	DB	05H
	DB	09H
	DB	05H
	DB	09H
	DB	05H
	DB	09H
	DB	05H
	DB	09H
	DB	05H
	DB	09H
	DB	05H
	DB	09H
	DB	0e4H
	DB	08H
	DB	0e4H
	DB	08H
	DB	0c9H
	DB	011H
	DB	0c9H
	DB	011H
	DB	0c9H
	DB	011H
	DB	0c9H
	DB	011H
	DB	0c9H
	DB	011H
	DB	0c9H
	DB	011H
	DB	0c9H
	DB	011H
	DB	0c9H
	DB	011H
	DB	0c9H
	DB	011H
	DB	0c9H
	DB	011H
	DB	0c9H
	DB	011H
	DB	0c9H
	DB	011H
	DB	0c9H
	DB	011H
	DB	0c9H
	DB	011H
	DB	0c9H
	DB	011H
	DB	0c9H
	DB	011H
	DB	0c9H
	DB	011H
	DB	0c9H
	DB	011H
	DB	0c9H
	DB	011H
	DB	0c9H
	DB	011H
	DB	0c9H
	DB	011H
	DB	0c9H
	DB	011H
	DB	0c9H
	DB	011H
	DB	0c9H
	DB	011H
	DB	0c9H
	DB	011H
	DB	0c9H
	DB	011H
	DB	0c9H
	DB	011H
	DB	0c9H
	DB	011H
	DB	0c9H
	DB	011H
	DB	0c9H
	DB	011H
	DB	0c9H
	DB	011H
	DB	0c9H
	DB	011H
	DB	0c9H
	DB	011H
	DB	0c9H
	DB	011H
	DB	0a9H
	DB	011H
	DB	0a9H
	DB	011H
	DB	0a9H
	DB	011H
	DB	0a9H
	DB	011H
	DB	0a9H
	DB	011H
	DB	0a9H
	DB	011H
	DB	0a9H
	DB	011H
	DB	0a9H
	DB	011H
	DB	0a8H
	DB	011H
	DB	0a8H
	DB	011H
	DB	0a8H
	DB	011H
	DB	0a8H
	DB	011H
	DB	0a8H
	DB	011H
	DB	0a8H
	DB	011H
	DB	0a8H
	DB	011H
	DB	088H
	DB	011H
	DB	088H
	DB	011H
	DB	088H
	DB	011H
	DB	088H
	DB	011H
	DB	088H
	DB	011H
	DB	088H
	DB	011H
	DB	088H
	DB	011H
	DB	088H
	DB	011H
	DB	088H
	DB	011H
	DB	088H
	DB	011H
	DB	088H
	DB	011H
	DB	088H
	DB	011H
	DB	088H
	DB	011H
	DB	088H
	DB	011H
	DB	088H
	DB	011H
	DB	088H
	DB	011H
	DB	067H
	DB	011H
	DB	067H
	DB	011H
	DB	067H
	DB	011H
	DB	067H
	DB	011H
	DB	067H
	DB	011H
	DB	067H
	DB	011H
	DB	067H
	DB	011H
	DB	067H
	DB	011H
	DB	067H
	DB	011H
	DB	067H
	DB	011H
	DB	067H
	DB	011H
	DB	067H
	DB	011H
	DB	067H
	DB	011H
	DB	067H
	DB	011H
	DB	067H
	DB	011H
	DB	047H
	DB	011H
	DB	047H
	DB	011H
	DB	047H
	DB	011H
	DB	047H
	DB	011H
	DB	047H
	DB	011H
	DB	047H
	DB	011H
	DB	047H
	DB	011H
	DB	047H
	DB	011H
	DB	047H
	DB	09H
	DB	046H
	DB	09H
	DB	046H
	DB	09H
	DB	046H
	DB	09H
	DB	046H
	DB	09H
	DB	046H
	DB	09H
	DB	046H
	DB	09H
	DB	046H
	DB	09H
	DB	026H
	DB	09H
	DB	026H
	DB	09H
	DB	026H
	DB	09H
	DB	026H
	DB	09H
	DB	026H
	DB	09H
	DB	026H
	DB	09H
	DB	026H
	DB	09H
	DB	026H
	DB	09H
	DB	026H
	DB	09H
	DB	026H
	DB	09H
	DB	026H
	DB	09H
	DB	026H
	DB	09H
	DB	026H
	DB	09H
	DB	026H
	DB	09H
	DB	026H
	DB	09H
	DB	026H
	DB	09H
	DB	05H
	DB	09H
	DB	05H
	DB	09H
	DB	05H
	DB	09H
	DB	05H
	DB	09H
	DB	05H
	DB	09H
	DB	05H
	DB	09H
	DB	05H
	DB	09H
	DB	05H
	DB	09H
	DB	05H
	DB	09H
	DB	05H
	DB	09H
	DB	05H
	DB	09H
	DB	05H
	DB	09H
	DB	05H
	DB	09H
	DB	05H
	DB	09H
	DB	05H
	DB	09H
	DB	0e5H
	DB	08H
	DB	0e5H
	DB	08H
	DB	0e5H
	DB	08H
	DB	0e5H
	DB	08H
	DB	0e5H
	DB	08H
	DB	0e5H
	DB	08H
	DB	0e5H
	DB	08H
	DB	0e5H
	DB	08H
	DB	0e4H
	DB	08H
	DB	0e4H
	DB	08H
	DB	0e4H
	DB	08H
	DB	0e4H
	DB	08H
	DB	0e4H
	DB	08H
	DB	0e4H
	DB	08H
	DB	0e4H
	DB	08H
	DB	0e4H
	DB	08H
	DB	0c4H
	DB	08H
	DB	0c4H
	DB	08H
	DB	0c4H
	DB	08H
	DB	0c4H
	DB	08H
	DB	0c4H
	DB	08H
	DB	0c4H
	DB	08H
	DB	0c4H
	DB	08H
	DB	0c4H
	DB	08H
	DB	0c4H
	DB	08H
	DB	0c4H
	DB	08H
	DB	0c4H
	DB	08H
	DB	0c4H
	DB	08H
	DB	0c4H
	DB	08H
	DB	0c4H
	DB	08H
	DB	0c4H
	DB	08H
	DB	0c4H
	DB	08H
	DB	0a3H
	DB	08H
	DB	0a3H
	DB	08H
	DB	0a3H
	DB	00H
	DB	0a3H
	DB	00H
	DB	0a3H
	DB	00H
	DB	0a3H
	DB	00H
	DB	0a3H
	DB	00H
	DB	0a3H
	DB	00H
	DB	0a3H
	DB	00H
	DB	0a3H
	DB	00H
	DB	0a3H
	DB	00H
	DB	0a3H
	DB	00H
	DB	0a3H
	DB	00H
	DB	0a3H
	DB	00H
	DB	0a3H
	DB	00H
	DB	0a3H
	DB	00H
	DB	0a3H
	DB	00H
	DB	0a3H
	DB	00H
	DB	0a3H
	DB	00H
	DB	0a3H
	DB	00H
	DB	0a3H
	DB	00H
	DB	0a3H
	DB	00H
	DB	0a3H
	DB	00H
	DB	0a3H
	DB	00H
	DB	0a3H
	DB	00H
	DB	0a3H
	DB	00H
	DB	0a3H
	DB	00H
	DB	0a3H
	DB	00H
	DB	05H
	DB	09H
	DB	05H
	DB	09H
	DB	05H
	DB	09H
	DB	05H
	DB	09H
	DB	05H
	DB	09H
	DB	05H
	DB	09H
	DB	05H
	DB	09H
	DB	05H
	DB	09H
	DB	05H
	DB	09H
	DB	05H
	DB	09H
	DB	05H
	DB	09H
	DB	05H
	DB	09H
	DB	05H
	DB	09H
	DB	05H
	DB	09H
	DB	05H
	DB	09H
	DB	05H
	DB	09H
	DB	05H
	DB	09H
	DB	05H
	DB	09H
	DB	05H
	DB	09H
	DB	05H
	DB	09H
	DB	05H
	DB	09H
	DB	05H
	DB	09H
	DB	05H
	DB	09H
	DB	05H
	DB	09H
	DB	05H
	DB	09H
	DB	05H
	DB	09H
	DB	05H
	DB	09H
	DB	05H
	DB	09H
	DB	05H
	DB	09H
	DB	05H
	DB	09H
	DB	05H
	DB	09H
	DB	05H
	DB	09H
	DB	05H
	DB	09H
	DB	05H
	DB	09H
	DB	05H
	DB	09H
	DB	05H
	DB	09H
	DB	05H
	DB	09H
	DB	05H
	DB	09H
	DB	05H
	DB	09H
	DB	05H
	DB	09H
	DB	05H
	DB	09H
	DB	05H
	DB	09H
	DB	05H
	DB	09H
	DB	05H
	DB	09H
	DB	05H
	DB	09H
	DB	05H
	DB	09H
	DB	05H
	DB	09H
	DB	05H
	DB	09H
	DB	05H
	DB	09H
	DB	05H
	DB	09H
	DB	05H
	DB	09H
	DB	0e4H
	DB	08H
	DB	0e4H
	DB	08H
	DB	0c9H
	DB	011H
	DB	0c9H
	DB	011H
	DB	0c9H
	DB	011H
	DB	0c9H
	DB	011H
	DB	0c9H
	DB	011H
	DB	0c9H
	DB	011H
	DB	0c9H
	DB	011H
	DB	0c9H
	DB	011H
	DB	0c9H
	DB	011H
	DB	0c9H
	DB	011H
	DB	0c9H
	DB	011H
	DB	0c9H
	DB	011H
	DB	0c9H
	DB	011H
	DB	0c9H
	DB	011H
	DB	0c9H
	DB	011H
	DB	0c9H
	DB	011H
	DB	0c9H
	DB	011H
	DB	0c9H
	DB	011H
	DB	0c9H
	DB	011H
	DB	0c9H
	DB	011H
	DB	0c9H
	DB	011H
	DB	0c9H
	DB	011H
	DB	0c9H
	DB	011H
	DB	0c9H
	DB	011H
	DB	0c9H
	DB	011H
	DB	0c9H
	DB	011H
	DB	0c9H
	DB	011H
	DB	0c9H
	DB	011H
	DB	0c9H
	DB	011H
	DB	0c9H
	DB	011H
	DB	0c9H
	DB	011H
	DB	0c9H
	DB	011H
	DB	0c9H
	DB	011H
	DB	0c9H
	DB	011H
	DB	0a9H
	DB	011H
	DB	0a9H
	DB	011H
	DB	0a9H
	DB	011H
	DB	0a9H
	DB	011H
	DB	0a9H
	DB	011H
	DB	0a9H
	DB	011H
	DB	0a9H
	DB	011H
	DB	0a9H
	DB	011H
	DB	0a9H
	DB	011H
	DB	0a8H
	DB	011H
	DB	0a8H
	DB	011H
	DB	0a8H
	DB	011H
	DB	0a8H
	DB	011H
	DB	0a8H
	DB	011H
	DB	0a8H
	DB	011H
	DB	088H
	DB	011H
	DB	088H
	DB	011H
	DB	088H
	DB	011H
	DB	088H
	DB	011H
	DB	088H
	DB	011H
	DB	088H
	DB	011H
	DB	088H
	DB	011H
	DB	088H
	DB	011H
	DB	088H
	DB	011H
	DB	088H
	DB	011H
	DB	088H
	DB	011H
	DB	088H
	DB	011H
	DB	088H
	DB	011H
	DB	088H
	DB	011H
	DB	088H
	DB	011H
	DB	088H
	DB	011H
	DB	068H
	DB	011H
	DB	067H
	DB	011H
	DB	067H
	DB	011H
	DB	067H
	DB	011H
	DB	067H
	DB	011H
	DB	067H
	DB	011H
	DB	067H
	DB	011H
	DB	067H
	DB	011H
	DB	067H
	DB	011H
	DB	067H
	DB	011H
	DB	067H
	DB	011H
	DB	067H
	DB	011H
	DB	067H
	DB	011H
	DB	067H
	DB	011H
	DB	067H
	DB	011H
	DB	067H
	DB	011H
	DB	047H
	DB	011H
	DB	047H
	DB	011H
	DB	047H
	DB	011H
	DB	047H
	DB	011H
	DB	047H
	DB	011H
	DB	047H
	DB	011H
	DB	047H
	DB	011H
	DB	047H
	DB	011H
	DB	046H
	DB	09H
	DB	046H
	DB	09H
	DB	046H
	DB	09H
	DB	046H
	DB	09H
	DB	046H
	DB	09H
	DB	046H
	DB	09H
	DB	046H
	DB	09H
	DB	026H
	DB	09H
	DB	026H
	DB	09H
	DB	026H
	DB	09H
	DB	026H
	DB	09H
	DB	026H
	DB	09H
	DB	026H
	DB	09H
	DB	026H
	DB	09H
	DB	026H
	DB	09H
	DB	026H
	DB	09H
	DB	026H
	DB	09H
	DB	026H
	DB	09H
	DB	026H
	DB	09H
	DB	026H
	DB	09H
	DB	026H
	DB	09H
	DB	026H
	DB	09H
	DB	026H
	DB	09H
	DB	05H
	DB	09H
	DB	05H
	DB	09H
	DB	05H
	DB	09H
	DB	05H
	DB	09H
	DB	05H
	DB	09H
	DB	05H
	DB	09H
	DB	05H
	DB	09H
	DB	05H
	DB	09H
	DB	05H
	DB	09H
	DB	05H
	DB	09H
	DB	05H
	DB	09H
	DB	05H
	DB	09H
	DB	05H
	DB	09H
	DB	05H
	DB	09H
	DB	05H
	DB	09H
	DB	0e5H
	DB	08H
	DB	0e5H
	DB	08H
	DB	0e5H
	DB	08H
	DB	0e5H
	DB	08H
	DB	0e5H
	DB	08H
	DB	0e5H
	DB	08H
	DB	0e5H
	DB	08H
	DB	0e5H
	DB	08H
	DB	0e4H
	DB	08H
	DB	0e4H
	DB	08H
	DB	0e4H
	DB	08H
	DB	0e4H
	DB	08H
	DB	0e4H
	DB	08H
	DB	0e4H
	DB	08H
	DB	0e4H
	DB	08H
	DB	0e4H
	DB	08H
	DB	0c4H
	DB	08H
	DB	0c4H
	DB	08H
	DB	0c4H
	DB	08H
	DB	0c4H
	DB	08H
	DB	0c4H
	DB	08H
	DB	0c4H
	DB	08H
	DB	0c4H
	DB	08H
	DB	0c4H
	DB	08H
	DB	0c4H
	DB	08H
	DB	0c4H
	DB	08H
	DB	0c4H
	DB	08H
	DB	0c4H
	DB	08H
	DB	0c4H
	DB	08H
	DB	0c4H
	DB	08H
	DB	0c4H
	DB	08H
	DB	0c4H
	DB	08H
	DB	0a3H
	DB	08H
	DB	0a3H
	DB	08H
	DB	0a3H
	DB	00H
	DB	0a3H
	DB	00H
	DB	0a3H
	DB	00H
	DB	0a3H
	DB	00H
	DB	0a3H
	DB	00H
	DB	0a3H
	DB	00H
	DB	0a3H
	DB	00H
	DB	0a3H
	DB	00H
	DB	0a3H
	DB	00H
	DB	0a3H
	DB	00H
	DB	0a3H
	DB	00H
	DB	0a3H
	DB	00H
	DB	0a3H
	DB	00H
	DB	0a3H
	DB	00H
	DB	0a3H
	DB	00H
	DB	0a3H
	DB	00H
	DB	0a3H
	DB	00H
	DB	0a3H
	DB	00H
	DB	0a3H
	DB	00H
	DB	0a3H
	DB	00H
	DB	0a3H
	DB	00H
	DB	0a3H
	DB	00H
	DB	0a3H
	DB	00H
	DB	0a3H
	DB	00H
	DB	0a3H
	DB	00H
	DB	0a3H
	DB	00H
	DB	05H
	DB	09H
	DB	05H
	DB	09H
	DB	05H
	DB	09H
	DB	05H
	DB	09H
	DB	05H
	DB	09H
	DB	05H
	DB	09H
	DB	05H
	DB	09H
	DB	05H
	DB	09H
	DB	05H
	DB	09H
	DB	05H
	DB	09H
	DB	05H
	DB	09H
	DB	05H
	DB	09H
	DB	05H
	DB	09H
	DB	05H
	DB	09H
	DB	05H
	DB	09H
	DB	05H
	DB	09H
	DB	05H
	DB	09H
	DB	05H
	DB	09H
	DB	05H
	DB	09H
	DB	05H
	DB	09H
	DB	05H
	DB	09H
	DB	05H
	DB	09H
	DB	05H
	DB	09H
	DB	05H
	DB	09H
	DB	05H
	DB	09H
	DB	05H
	DB	09H
	DB	05H
	DB	09H
	DB	05H
	DB	09H
	DB	05H
	DB	09H
	DB	05H
	DB	09H
	DB	05H
	DB	09H
	DB	05H
	DB	09H
	DB	05H
	DB	09H
	DB	05H
	DB	09H
	DB	05H
	DB	09H
	DB	05H
	DB	09H
	DB	05H
	DB	09H
	DB	05H
	DB	09H
	DB	05H
	DB	09H
	DB	05H
	DB	09H
	DB	05H
	DB	09H
	DB	05H
	DB	09H
	DB	05H
	DB	09H
	DB	05H
	DB	09H
	DB	05H
	DB	09H
	DB	05H
	DB	09H
	DB	05H
	DB	09H
	DB	05H
	DB	09H
	DB	05H
	DB	09H
	DB	05H
	DB	09H
	DB	05H
	DB	09H
	DB	0e4H
	DB	08H
	DB	0e4H
	DB	08H
	DB	0c9H
	DB	011H
	DB	0c9H
	DB	011H
	DB	0c9H
	DB	011H
	DB	0c9H
	DB	011H
	DB	0c9H
	DB	011H
	DB	0c9H
	DB	011H
	DB	0c9H
	DB	011H
	DB	0c9H
	DB	011H
	DB	0c9H
	DB	011H
	DB	0c9H
	DB	011H
	DB	0c9H
	DB	011H
	DB	0c9H
	DB	011H
	DB	0c9H
	DB	011H
	DB	0c9H
	DB	011H
	DB	0c9H
	DB	011H
	DB	0c9H
	DB	011H
	DB	0c9H
	DB	011H
	DB	0c9H
	DB	011H
	DB	0c9H
	DB	011H
	DB	0c9H
	DB	011H
	DB	0c9H
	DB	011H
	DB	0c9H
	DB	011H
	DB	0c9H
	DB	011H
	DB	0c9H
	DB	011H
	DB	0c9H
	DB	011H
	DB	0c9H
	DB	011H
	DB	0c9H
	DB	011H
	DB	0c9H
	DB	011H
	DB	0c9H
	DB	011H
	DB	0c9H
	DB	011H
	DB	0c9H
	DB	011H
	DB	0c9H
	DB	011H
	DB	0c9H
	DB	011H
	DB	0c9H
	DB	011H
	DB	0a9H
	DB	011H
	DB	0a9H
	DB	011H
	DB	0a9H
	DB	011H
	DB	0a9H
	DB	011H
	DB	0a9H
	DB	011H
	DB	0a9H
	DB	011H
	DB	0a9H
	DB	011H
	DB	0a9H
	DB	011H
	DB	0a9H
	DB	011H
	DB	0a8H
	DB	011H
	DB	0a8H
	DB	011H
	DB	0a8H
	DB	011H
	DB	0a8H
	DB	011H
	DB	0a8H
	DB	011H
	DB	0a8H
	DB	011H
	DB	0a8H
	DB	011H
	DB	088H
	DB	011H
	DB	088H
	DB	011H
	DB	088H
	DB	011H
	DB	088H
	DB	011H
	DB	088H
	DB	011H
	DB	088H
	DB	011H
	DB	088H
	DB	011H
	DB	088H
	DB	011H
	DB	088H
	DB	011H
	DB	088H
	DB	011H
	DB	088H
	DB	011H
	DB	088H
	DB	011H
	DB	088H
	DB	011H
	DB	088H
	DB	011H
	DB	088H
	DB	011H
	DB	068H
	DB	011H
	DB	067H
	DB	011H
	DB	067H
	DB	011H
	DB	067H
	DB	011H
	DB	067H
	DB	011H
	DB	067H
	DB	011H
	DB	067H
	DB	011H
	DB	067H
	DB	011H
	DB	067H
	DB	011H
	DB	067H
	DB	011H
	DB	067H
	DB	011H
	DB	067H
	DB	011H
	DB	067H
	DB	011H
	DB	067H
	DB	011H
	DB	067H
	DB	011H
	DB	067H
	DB	011H
	DB	047H
	DB	011H
	DB	047H
	DB	011H
	DB	047H
	DB	011H
	DB	047H
	DB	011H
	DB	047H
	DB	011H
	DB	047H
	DB	011H
	DB	047H
	DB	011H
	DB	047H
	DB	011H
	DB	046H
	DB	09H
	DB	046H
	DB	09H
	DB	046H
	DB	09H
	DB	046H
	DB	09H
	DB	046H
	DB	09H
	DB	046H
	DB	09H
	DB	046H
	DB	09H
	DB	026H
	DB	09H
	DB	026H
	DB	09H
	DB	026H
	DB	09H
	DB	026H
	DB	09H
	DB	026H
	DB	09H
	DB	026H
	DB	09H
	DB	026H
	DB	09H
	DB	026H
	DB	09H
	DB	026H
	DB	09H
	DB	026H
	DB	09H
	DB	026H
	DB	09H
	DB	026H
	DB	09H
	DB	026H
	DB	09H
	DB	026H
	DB	09H
	DB	026H
	DB	09H
	DB	026H
	DB	09H
	DB	05H
	DB	09H
	DB	05H
	DB	09H
	DB	05H
	DB	09H
	DB	05H
	DB	09H
	DB	05H
	DB	09H
	DB	05H
	DB	09H
	DB	05H
	DB	09H
	DB	05H
	DB	09H
	DB	05H
	DB	09H
	DB	05H
	DB	09H
	DB	05H
	DB	09H
	DB	05H
	DB	09H
	DB	05H
	DB	09H
	DB	05H
	DB	09H
	DB	05H
	DB	09H
	DB	0e5H
	DB	08H
	DB	0e5H
	DB	08H
	DB	0e5H
	DB	08H
	DB	0e5H
	DB	08H
	DB	0e5H
	DB	08H
	DB	0e5H
	DB	08H
	DB	0e5H
	DB	08H
	DB	0e5H
	DB	08H
	DB	0e4H
	DB	08H
	DB	0e4H
	DB	08H
	DB	0e4H
	DB	08H
	DB	0e4H
	DB	08H
	DB	0e4H
	DB	08H
	DB	0e4H
	DB	08H
	DB	0e4H
	DB	08H
	DB	0e4H
	DB	08H
	DB	0c4H
	DB	08H
	DB	0c4H
	DB	08H
	DB	0c4H
	DB	08H
	DB	0c4H
	DB	08H
	DB	0c4H
	DB	08H
	DB	0c4H
	DB	08H
	DB	0c4H
	DB	08H
	DB	0c4H
	DB	08H
	DB	0c4H
	DB	08H
	DB	0c4H
	DB	08H
	DB	0c4H
	DB	08H
	DB	0c4H
	DB	08H
	DB	0c4H
	DB	08H
	DB	0c4H
	DB	08H
	DB	0c4H
	DB	08H
	DB	0c4H
	DB	08H
	DB	0a3H
	DB	08H
	DB	0a3H
	DB	08H
	DB	0a3H
	DB	00H
	DB	0a3H
	DB	00H
	DB	0a3H
	DB	00H
	DB	0a3H
	DB	00H
	DB	0a3H
	DB	00H
	DB	0a3H
	DB	00H
	DB	0a3H
	DB	00H
	DB	0a3H
	DB	00H
	DB	0a3H
	DB	00H
	DB	0a3H
	DB	00H
	DB	0a3H
	DB	00H
	DB	0a3H
	DB	00H
	DB	0a3H
	DB	00H
	DB	0a3H
	DB	00H
	DB	0a3H
	DB	00H
	DB	0a3H
	DB	00H
	DB	0a3H
	DB	00H
	DB	0a3H
	DB	00H
	DB	0a3H
	DB	00H
	DB	0a3H
	DB	00H
	DB	0a3H
	DB	00H
	DB	0a3H
	DB	00H
	DB	0a3H
	DB	00H
	DB	0a3H
	DB	00H
	DB	0a3H
	DB	00H
	DB	0a3H
	DB	00H
	DB	05H
	DB	09H
	DB	05H
	DB	09H
	DB	05H
	DB	09H
	DB	05H
	DB	09H
	DB	05H
	DB	09H
	DB	05H
	DB	09H
	DB	05H
	DB	09H
	DB	05H
	DB	09H
	DB	05H
	DB	09H
	DB	05H
	DB	09H
	DB	05H
	DB	09H
	DB	05H
	DB	09H
	DB	05H
	DB	09H
	DB	05H
	DB	09H
	DB	05H
	DB	09H
	DB	05H
	DB	09H
	DB	05H
	DB	09H
	DB	05H
	DB	09H
	DB	05H
	DB	09H
	DB	05H
	DB	09H
	DB	05H
	DB	09H
	DB	05H
	DB	09H
	DB	05H
	DB	09H
	DB	05H
	DB	09H
	DB	05H
	DB	09H
	DB	05H
	DB	09H
	DB	05H
	DB	09H
	DB	05H
	DB	09H
	DB	05H
	DB	09H
	DB	05H
	DB	09H
	DB	05H
	DB	09H
	DB	05H
	DB	09H
	DB	05H
	DB	09H
	DB	05H
	DB	09H
	DB	05H
	DB	09H
	DB	05H
	DB	09H
	DB	05H
	DB	09H
	DB	05H
	DB	09H
	DB	05H
	DB	09H
	DB	05H
	DB	09H
	DB	05H
	DB	09H
	DB	05H
	DB	09H
	DB	05H
	DB	09H
	DB	05H
	DB	09H
	DB	05H
	DB	09H
	DB	05H
	DB	09H
	DB	05H
	DB	09H
	DB	05H
	DB	09H
	DB	05H
	DB	09H
	DB	05H
	DB	09H
	DB	05H
	DB	09H
	DB	0e4H
	DB	08H
	DB	0e4H
	DB	08H
	DB	0c9H
	DB	011H
	DB	0c9H
	DB	011H
	DB	0c9H
	DB	011H
	DB	0c9H
	DB	011H
	DB	0c9H
	DB	011H
	DB	0c9H
	DB	011H
	DB	0c9H
	DB	011H
	DB	0c9H
	DB	011H
	DB	0c9H
	DB	011H
	DB	0c9H
	DB	011H
	DB	0c9H
	DB	011H
	DB	0c9H
	DB	011H
	DB	0c9H
	DB	011H
	DB	0c9H
	DB	011H
	DB	0c9H
	DB	011H
	DB	0c9H
	DB	011H
	DB	0c9H
	DB	011H
	DB	0c9H
	DB	011H
	DB	0c9H
	DB	011H
	DB	0c9H
	DB	011H
	DB	0c9H
	DB	011H
	DB	0c9H
	DB	011H
	DB	0c9H
	DB	011H
	DB	0c9H
	DB	011H
	DB	0c9H
	DB	011H
	DB	0c9H
	DB	011H
	DB	0c9H
	DB	011H
	DB	0c9H
	DB	011H
	DB	0c9H
	DB	011H
	DB	0c9H
	DB	011H
	DB	0c9H
	DB	011H
	DB	0c9H
	DB	011H
	DB	0c9H
	DB	011H
	DB	0c9H
	DB	011H
	DB	0a9H
	DB	011H
	DB	0a9H
	DB	011H
	DB	0a9H
	DB	011H
	DB	0a9H
	DB	011H
	DB	0a9H
	DB	011H
	DB	0a9H
	DB	011H
	DB	0a9H
	DB	011H
	DB	0a9H
	DB	011H
	DB	0a9H
	DB	011H
	DB	0a8H
	DB	011H
	DB	0a8H
	DB	011H
	DB	0a8H
	DB	011H
	DB	0a8H
	DB	011H
	DB	0a8H
	DB	011H
	DB	0a8H
	DB	011H
	DB	0a8H
	DB	011H
	DB	088H
	DB	011H
	DB	088H
	DB	011H
	DB	088H
	DB	011H
	DB	088H
	DB	011H
	DB	088H
	DB	011H
	DB	088H
	DB	011H
	DB	088H
	DB	011H
	DB	088H
	DB	011H
	DB	088H
	DB	011H
	DB	088H
	DB	011H
	DB	088H
	DB	011H
	DB	088H
	DB	011H
	DB	088H
	DB	011H
	DB	088H
	DB	011H
	DB	088H
	DB	011H
	DB	068H
	DB	011H
	DB	067H
	DB	011H
	DB	067H
	DB	011H
	DB	067H
	DB	011H
	DB	067H
	DB	011H
	DB	067H
	DB	011H
	DB	067H
	DB	011H
	DB	067H
	DB	011H
	DB	067H
	DB	011H
	DB	067H
	DB	011H
	DB	067H
	DB	011H
	DB	067H
	DB	011H
	DB	067H
	DB	011H
	DB	067H
	DB	011H
	DB	067H
	DB	011H
	DB	067H
	DB	011H
	DB	047H
	DB	011H
	DB	047H
	DB	011H
	DB	047H
	DB	011H
	DB	047H
	DB	011H
	DB	047H
	DB	011H
	DB	047H
	DB	011H
	DB	047H
	DB	011H
	DB	047H
	DB	011H
	DB	046H
	DB	09H
	DB	046H
	DB	09H
	DB	046H
	DB	09H
	DB	046H
	DB	09H
	DB	046H
	DB	09H
	DB	046H
	DB	09H
	DB	046H
	DB	09H
	DB	026H
	DB	09H
	DB	026H
	DB	09H
	DB	026H
	DB	09H
	DB	026H
	DB	09H
	DB	026H
	DB	09H
	DB	026H
	DB	09H
	DB	026H
	DB	09H
	DB	026H
	DB	09H
	DB	026H
	DB	09H
	DB	026H
	DB	09H
	DB	026H
	DB	09H
	DB	026H
	DB	09H
	DB	026H
	DB	09H
	DB	026H
	DB	09H
	DB	026H
	DB	09H
	DB	026H
	DB	09H
	DB	05H
	DB	09H
	DB	05H
	DB	09H
	DB	05H
	DB	09H
	DB	05H
	DB	09H
	DB	05H
	DB	09H
	DB	05H
	DB	09H
	DB	05H
	DB	09H
	DB	05H
	DB	09H
	DB	05H
	DB	09H
	DB	05H
	DB	09H
	DB	05H
	DB	09H
	DB	05H
	DB	09H
	DB	05H
	DB	09H
	DB	05H
	DB	09H
	DB	05H
	DB	09H
	DB	0e5H
	DB	08H
	DB	0e5H
	DB	08H
	DB	0e5H
	DB	08H
	DB	0e5H
	DB	08H
	DB	0e5H
	DB	08H
	DB	0e5H
	DB	08H
	DB	0e5H
	DB	08H
	DB	0e5H
	DB	08H
	DB	0e4H
	DB	08H
	DB	0e4H
	DB	08H
	DB	0e4H
	DB	08H
	DB	0e4H
	DB	08H
	DB	0e4H
	DB	08H
	DB	0e4H
	DB	08H
	DB	0e4H
	DB	08H
	DB	0e4H
	DB	08H
	DB	0c4H
	DB	08H
	DB	0c4H
	DB	08H
	DB	0c4H
	DB	08H
	DB	0c4H
	DB	08H
	DB	0c4H
	DB	08H
	DB	0c4H
	DB	08H
	DB	0c4H
	DB	08H
	DB	0c4H
	DB	08H
	DB	0c4H
	DB	08H
	DB	0c4H
	DB	08H
	DB	0c4H
	DB	08H
	DB	0c4H
	DB	08H
	DB	0c4H
	DB	08H
	DB	0c4H
	DB	08H
	DB	0c4H
	DB	08H
	DB	0c4H
	DB	08H
	DB	0a3H
	DB	08H
	DB	0a3H
	DB	08H
	DB	0a3H
	DB	00H
	DB	0a3H
	DB	00H
	DB	0a3H
	DB	00H
	DB	0a3H
	DB	00H
	DB	0a3H
	DB	00H
	DB	0a3H
	DB	00H
	DB	0a3H
	DB	00H
	DB	0a3H
	DB	00H
	DB	0a3H
	DB	00H
	DB	0a3H
	DB	00H
	DB	0a3H
	DB	00H
	DB	0a3H
	DB	00H
	DB	0a3H
	DB	00H
	DB	0a3H
	DB	00H
	DB	0a3H
	DB	00H
	DB	0a3H
	DB	00H
	DB	0a3H
	DB	00H
	DB	0a3H
	DB	00H
	DB	0a3H
	DB	00H
	DB	0a3H
	DB	00H
	DB	0a3H
	DB	00H
	DB	0a3H
	DB	00H
	DB	0a3H
	DB	00H
	DB	0a3H
	DB	00H
	DB	0a3H
	DB	00H
	DB	0a3H
	DB	00H
	DB	05H
	DB	09H
	DB	05H
	DB	09H
	DB	05H
	DB	09H
	DB	05H
	DB	09H
	DB	05H
	DB	09H
	DB	05H
	DB	09H
	DB	05H
	DB	09H
	DB	05H
	DB	09H
	DB	05H
	DB	09H
	DB	05H
	DB	09H
	DB	05H
	DB	09H
	DB	05H
	DB	09H
	DB	05H
	DB	09H
	DB	05H
	DB	09H
	DB	05H
	DB	09H
	DB	05H
	DB	09H
	DB	05H
	DB	09H
	DB	05H
	DB	09H
	DB	05H
	DB	09H
	DB	05H
	DB	09H
	DB	05H
	DB	09H
	DB	05H
	DB	09H
	DB	05H
	DB	09H
	DB	05H
	DB	09H
	DB	05H
	DB	09H
	DB	05H
	DB	09H
	DB	05H
	DB	09H
	DB	05H
	DB	09H
	DB	05H
	DB	09H
	DB	05H
	DB	09H
	DB	05H
	DB	09H
	DB	05H
	DB	09H
	DB	05H
	DB	09H
	DB	05H
	DB	09H
	DB	05H
	DB	09H
	DB	05H
	DB	09H
	DB	05H
	DB	09H
	DB	05H
	DB	09H
	DB	05H
	DB	09H
	DB	05H
	DB	09H
	DB	05H
	DB	09H
	DB	05H
	DB	09H
	DB	05H
	DB	09H
	DB	05H
	DB	09H
	DB	05H
	DB	09H
	DB	05H
	DB	09H
	DB	05H
	DB	09H
	DB	05H
	DB	09H
	DB	05H
	DB	09H
	DB	05H
	DB	09H
	DB	05H
	DB	09H
	DB	0e4H
	DB	08H
	DB	0e4H
	DB	08H
	DB	0c9H
	DB	011H
	DB	0c9H
	DB	011H
	DB	0c9H
	DB	011H
	DB	0c9H
	DB	011H
	DB	0c9H
	DB	011H
	DB	0c9H
	DB	011H
	DB	0c9H
	DB	011H
	DB	0c9H
	DB	011H
	DB	0c9H
	DB	011H
	DB	0c9H
	DB	011H
	DB	0c9H
	DB	011H
	DB	0c9H
	DB	011H
	DB	0c9H
	DB	011H
	DB	0c9H
	DB	011H
	DB	0c9H
	DB	011H
	DB	0c9H
	DB	011H
	DB	0c9H
	DB	011H
	DB	0c9H
	DB	011H
	DB	0c9H
	DB	011H
	DB	0c9H
	DB	011H
	DB	0c9H
	DB	011H
	DB	0c9H
	DB	011H
	DB	0c9H
	DB	011H
	DB	0c9H
	DB	011H
	DB	0c9H
	DB	011H
	DB	0c9H
	DB	011H
	DB	0c9H
	DB	011H
	DB	0c9H
	DB	011H
	DB	0c9H
	DB	011H
	DB	0c9H
	DB	011H
	DB	0c9H
	DB	011H
	DB	0c9H
	DB	011H
	DB	0c9H
	DB	011H
	DB	0c9H
	DB	011H
	DB	0a9H
	DB	011H
	DB	0a9H
	DB	011H
	DB	0a9H
	DB	011H
	DB	0a9H
	DB	011H
	DB	0a9H
	DB	011H
	DB	0a9H
	DB	011H
	DB	0a9H
	DB	011H
	DB	0a9H
	DB	011H
	DB	0a9H
	DB	011H
	DB	0a8H
	DB	011H
	DB	0a8H
	DB	011H
	DB	0a8H
	DB	011H
	DB	0a8H
	DB	011H
	DB	0a8H
	DB	011H
	DB	0a8H
	DB	011H
	DB	0a8H
	DB	011H
	DB	088H
	DB	011H
	DB	088H
	DB	011H
	DB	088H
	DB	011H
	DB	088H
	DB	011H
	DB	088H
	DB	011H
	DB	088H
	DB	011H
	DB	088H
	DB	011H
	DB	088H
	DB	011H
	DB	088H
	DB	011H
	DB	088H
	DB	011H
	DB	088H
	DB	011H
	DB	088H
	DB	011H
	DB	088H
	DB	011H
	DB	088H
	DB	011H
	DB	088H
	DB	011H
	DB	068H
	DB	011H
	DB	067H
	DB	011H
	DB	067H
	DB	011H
	DB	067H
	DB	011H
	DB	067H
	DB	011H
	DB	067H
	DB	011H
	DB	067H
	DB	011H
	DB	067H
	DB	011H
	DB	067H
	DB	011H
	DB	067H
	DB	011H
	DB	067H
	DB	011H
	DB	067H
	DB	011H
	DB	067H
	DB	011H
	DB	067H
	DB	011H
	DB	067H
	DB	011H
	DB	067H
	DB	011H
	DB	047H
	DB	011H
	DB	047H
	DB	011H
	DB	047H
	DB	011H
	DB	047H
	DB	011H
	DB	047H
	DB	011H
	DB	047H
	DB	011H
	DB	047H
	DB	011H
	DB	047H
	DB	011H
	DB	046H
	DB	09H
	DB	046H
	DB	09H
	DB	046H
	DB	09H
	DB	046H
	DB	09H
	DB	046H
	DB	09H
	DB	046H
	DB	09H
	DB	046H
	DB	09H
	DB	026H
	DB	09H
	DB	026H
	DB	09H
	DB	026H
	DB	09H
	DB	026H
	DB	09H
	DB	026H
	DB	09H
	DB	026H
	DB	09H
	DB	026H
	DB	09H
	DB	026H
	DB	09H
	DB	026H
	DB	09H
	DB	026H
	DB	09H
	DB	026H
	DB	09H
	DB	026H
	DB	09H
	DB	026H
	DB	09H
	DB	026H
	DB	09H
	DB	026H
	DB	09H
	DB	026H
	DB	09H
	DB	05H
	DB	09H
	DB	05H
	DB	09H
	DB	05H
	DB	09H
	DB	05H
	DB	09H
	DB	05H
	DB	09H
	DB	05H
	DB	09H
	DB	05H
	DB	09H
	DB	05H
	DB	09H
	DB	05H
	DB	09H
	DB	05H
	DB	09H
	DB	05H
	DB	09H
	DB	05H
	DB	09H
	DB	05H
	DB	09H
	DB	05H
	DB	09H
	DB	05H
	DB	09H
	DB	0e5H
	DB	08H
	DB	0e5H
	DB	08H
	DB	0e5H
	DB	08H
	DB	0e5H
	DB	08H
	DB	0e5H
	DB	08H
	DB	0e5H
	DB	08H
	DB	0e5H
	DB	08H
	DB	0e5H
	DB	08H
	DB	0e4H
	DB	08H
	DB	0e4H
	DB	08H
	DB	0e4H
	DB	08H
	DB	0e4H
	DB	08H
	DB	0e4H
	DB	08H
	DB	0e4H
	DB	08H
	DB	0e4H
	DB	08H
	DB	0e4H
	DB	08H
	DB	0c4H
	DB	08H
	DB	0c4H
	DB	08H
	DB	0c4H
	DB	08H
	DB	0c4H
	DB	08H
	DB	0c4H
	DB	08H
	DB	0c4H
	DB	08H
	DB	0c4H
	DB	08H
	DB	0c4H
	DB	08H
	DB	0c4H
	DB	08H
	DB	0c4H
	DB	08H
	DB	0c4H
	DB	08H
	DB	0c4H
	DB	08H
	DB	0c4H
	DB	08H
	DB	0c4H
	DB	08H
	DB	0c4H
	DB	08H
	DB	0c4H
	DB	08H
	DB	0a3H
	DB	08H
	DB	0a3H
	DB	08H
	DB	0a3H
	DB	00H
	DB	0a3H
	DB	00H
	DB	0a3H
	DB	00H
	DB	0a3H
	DB	00H
	DB	0a3H
	DB	00H
	DB	0a3H
	DB	00H
	DB	0a3H
	DB	00H
	DB	0a3H
	DB	00H
	DB	0a3H
	DB	00H
	DB	0a3H
	DB	00H
	DB	0a3H
	DB	00H
	DB	0a3H
	DB	00H
	DB	0a3H
	DB	00H
	DB	0a3H
	DB	00H
	DB	0a3H
	DB	00H
	DB	0a3H
	DB	00H
	DB	0a3H
	DB	00H
	DB	0a3H
	DB	00H
	DB	0a3H
	DB	00H
	DB	0a3H
	DB	00H
	DB	0a3H
	DB	00H
	DB	0a3H
	DB	00H
	DB	0a3H
	DB	00H
	DB	0a3H
	DB	00H
	DB	0a3H
	DB	00H
	DB	0a3H
	DB	00H
	DB	05H
	DB	09H
	DB	05H
	DB	09H
	DB	05H
	DB	09H
	DB	05H
	DB	09H
	DB	05H
	DB	09H
	DB	05H
	DB	09H
	DB	05H
	DB	09H
	DB	05H
	DB	09H
	DB	05H
	DB	09H
	DB	05H
	DB	09H
	DB	05H
	DB	09H
	DB	05H
	DB	09H
	DB	05H
	DB	09H
	DB	05H
	DB	09H
	DB	05H
	DB	09H
	DB	05H
	DB	09H
	DB	05H
	DB	09H
	DB	05H
	DB	09H
	DB	05H
	DB	09H
	DB	05H
	DB	09H
	DB	05H
	DB	09H
	DB	05H
	DB	09H
	DB	05H
	DB	09H
	DB	05H
	DB	09H
	DB	05H
	DB	09H
	DB	05H
	DB	09H
	DB	05H
	DB	09H
	DB	05H
	DB	09H
	DB	05H
	DB	09H
	DB	05H
	DB	09H
	DB	05H
	DB	09H
	DB	05H
	DB	09H
	DB	05H
	DB	09H
	DB	05H
	DB	09H
	DB	05H
	DB	09H
	DB	05H
	DB	09H
	DB	05H
	DB	09H
	DB	05H
	DB	09H
	DB	05H
	DB	09H
	DB	05H
	DB	09H
	DB	05H
	DB	09H
	DB	05H
	DB	09H
	DB	05H
	DB	09H
	DB	05H
	DB	09H
	DB	05H
	DB	09H
	DB	05H
	DB	09H
	DB	05H
	DB	09H
	DB	05H
	DB	09H
	DB	05H
	DB	09H
	DB	05H
	DB	09H
	DB	05H
	DB	09H
	DB	0e4H
	DB	08H
	DB	0e4H
	DB	08H
	DB	0c9H
	DB	011H
	DB	0c9H
	DB	011H
	DB	0c9H
	DB	011H
	DB	0c9H
	DB	011H
	DB	0c9H
	DB	011H
	DB	0c9H
	DB	011H
	DB	0c9H
	DB	011H
	DB	0c9H
	DB	011H
	DB	0c9H
	DB	011H
	DB	0c9H
	DB	011H
	DB	0c9H
	DB	011H
	DB	0c9H
	DB	011H
	DB	0c9H
	DB	011H
	DB	0c9H
	DB	011H
	DB	0c9H
	DB	011H
	DB	0c9H
	DB	011H
	DB	0c9H
	DB	011H
	DB	0c9H
	DB	011H
	DB	0c9H
	DB	011H
	DB	0c9H
	DB	011H
	DB	0c9H
	DB	011H
	DB	0c9H
	DB	011H
	DB	0c9H
	DB	011H
	DB	0c9H
	DB	011H
	DB	0c9H
	DB	011H
	DB	0c9H
	DB	011H
	DB	0c9H
	DB	011H
	DB	0c9H
	DB	011H
	DB	0c9H
	DB	011H
	DB	0c9H
	DB	011H
	DB	0c9H
	DB	011H
	DB	0c9H
	DB	011H
	DB	0c9H
	DB	011H
	DB	0c9H
	DB	011H
	DB	0a9H
	DB	011H
	DB	0a9H
	DB	011H
	DB	0a9H
	DB	011H
	DB	0a9H
	DB	011H
	DB	0a9H
	DB	011H
	DB	0a9H
	DB	011H
	DB	0a9H
	DB	011H
	DB	0a9H
	DB	011H
	DB	0a9H
	DB	011H
	DB	0a8H
	DB	011H
	DB	0a8H
	DB	011H
	DB	0a8H
	DB	011H
	DB	0a8H
	DB	011H
	DB	0a8H
	DB	011H
	DB	0a8H
	DB	011H
	DB	0a8H
	DB	011H
	DB	088H
	DB	011H
	DB	088H
	DB	011H
	DB	088H
	DB	011H
	DB	088H
	DB	011H
	DB	088H
	DB	011H
	DB	088H
	DB	011H
	DB	088H
	DB	011H
	DB	088H
	DB	011H
	DB	088H
	DB	011H
	DB	088H
	DB	011H
	DB	088H
	DB	011H
	DB	088H
	DB	011H
	DB	088H
	DB	011H
	DB	088H
	DB	011H
	DB	088H
	DB	011H
	DB	068H
	DB	011H
	DB	067H
	DB	011H
	DB	067H
	DB	011H
	DB	067H
	DB	011H
	DB	067H
	DB	011H
	DB	067H
	DB	011H
	DB	067H
	DB	011H
	DB	067H
	DB	011H
	DB	067H
	DB	011H
	DB	067H
	DB	011H
	DB	067H
	DB	011H
	DB	067H
	DB	011H
	DB	067H
	DB	011H
	DB	067H
	DB	011H
	DB	067H
	DB	011H
	DB	067H
	DB	011H
	DB	047H
	DB	011H
	DB	047H
	DB	011H
	DB	047H
	DB	011H
	DB	047H
	DB	011H
	DB	047H
	DB	011H
	DB	047H
	DB	011H
	DB	047H
	DB	011H
	DB	047H
	DB	011H
	DB	046H
	DB	09H
	DB	046H
	DB	09H
	DB	046H
	DB	09H
	DB	046H
	DB	09H
	DB	046H
	DB	09H
	DB	046H
	DB	09H
	DB	046H
	DB	09H
	DB	026H
	DB	09H
	DB	026H
	DB	09H
	DB	026H
	DB	09H
	DB	026H
	DB	09H
	DB	026H
	DB	09H
	DB	026H
	DB	09H
	DB	026H
	DB	09H
	DB	026H
	DB	09H
	DB	026H
	DB	09H
	DB	026H
	DB	09H
	DB	026H
	DB	09H
	DB	026H
	DB	09H
	DB	026H
	DB	09H
	DB	026H
	DB	09H
	DB	026H
	DB	09H
	DB	026H
	DB	09H
	DB	05H
	DB	09H
	DB	05H
	DB	09H
	DB	05H
	DB	09H
	DB	05H
	DB	09H
	DB	05H
	DB	09H
	DB	05H
	DB	09H
	DB	05H
	DB	09H
	DB	05H
	DB	09H
	DB	05H
	DB	09H
	DB	05H
	DB	09H
	DB	05H
	DB	09H
	DB	05H
	DB	09H
	DB	05H
	DB	09H
	DB	05H
	DB	09H
	DB	05H
	DB	09H
	DB	0e5H
	DB	08H
	DB	0e5H
	DB	08H
	DB	0e5H
	DB	08H
	DB	0e5H
	DB	08H
	DB	0e5H
	DB	08H
	DB	0e5H
	DB	08H
	DB	0e5H
	DB	08H
	DB	0e5H
	DB	08H
	DB	0e4H
	DB	08H
	DB	0e4H
	DB	08H
	DB	0e4H
	DB	08H
	DB	0e4H
	DB	08H
	DB	0e4H
	DB	08H
	DB	0e4H
	DB	08H
	DB	0e4H
	DB	08H
	DB	0e4H
	DB	08H
	DB	0c4H
	DB	08H
	DB	0c4H
	DB	08H
	DB	0c4H
	DB	08H
	DB	0c4H
	DB	08H
	DB	0c4H
	DB	08H
	DB	0c4H
	DB	08H
	DB	0c4H
	DB	08H
	DB	0c4H
	DB	08H
	DB	0c4H
	DB	08H
	DB	0c4H
	DB	08H
	DB	0c4H
	DB	08H
	DB	0c4H
	DB	08H
	DB	0c4H
	DB	08H
	DB	0c4H
	DB	08H
	DB	0c4H
	DB	08H
	DB	0c4H
	DB	08H
	DB	0a3H
	DB	08H
	DB	0a3H
	DB	08H
	DB	0a3H
	DB	00H
	DB	0a3H
	DB	00H
	DB	0a3H
	DB	00H
	DB	0a3H
	DB	00H
	DB	0a3H
	DB	00H
	DB	0a3H
	DB	00H
	DB	0a3H
	DB	00H
	DB	0a3H
	DB	00H
	DB	0a3H
	DB	00H
	DB	0a3H
	DB	00H
	DB	0a3H
	DB	00H
	DB	0a3H
	DB	00H
	DB	0a3H
	DB	00H
	DB	0a3H
	DB	00H
	DB	0a3H
	DB	00H
	DB	0a3H
	DB	00H
	DB	0a3H
	DB	00H
	DB	0a3H
	DB	00H
	DB	0a3H
	DB	00H
	DB	0a3H
	DB	00H
	DB	0a3H
	DB	00H
	DB	0a3H
	DB	00H
	DB	0a3H
	DB	00H
	DB	0a3H
	DB	00H
	DB	0a3H
	DB	00H
	DB	0a3H
	DB	00H
	DB	05H
	DB	09H
	DB	05H
	DB	09H
	DB	05H
	DB	09H
	DB	05H
	DB	09H
	DB	05H
	DB	09H
	DB	05H
	DB	09H
	DB	05H
	DB	09H
	DB	05H
	DB	09H
	DB	05H
	DB	09H
	DB	05H
	DB	09H
	DB	05H
	DB	09H
	DB	05H
	DB	09H
	DB	05H
	DB	09H
	DB	05H
	DB	09H
	DB	05H
	DB	09H
	DB	05H
	DB	09H
	DB	05H
	DB	09H
	DB	05H
	DB	09H
	DB	05H
	DB	09H
	DB	05H
	DB	09H
	DB	05H
	DB	09H
	DB	05H
	DB	09H
	DB	05H
	DB	09H
	DB	05H
	DB	09H
	DB	05H
	DB	09H
	DB	05H
	DB	09H
	DB	05H
	DB	09H
	DB	05H
	DB	09H
	DB	05H
	DB	09H
	DB	05H
	DB	09H
	DB	05H
	DB	09H
	DB	05H
	DB	09H
	DB	05H
	DB	09H
	DB	05H
	DB	09H
	DB	05H
	DB	09H
	DB	05H
	DB	09H
	DB	05H
	DB	09H
	DB	05H
	DB	09H
	DB	05H
	DB	09H
	DB	05H
	DB	09H
	DB	05H
	DB	09H
	DB	05H
	DB	09H
	DB	05H
	DB	09H
	DB	05H
	DB	09H
	DB	05H
	DB	09H
	DB	05H
	DB	09H
	DB	05H
	DB	09H
	DB	05H
	DB	09H
	DB	05H
	DB	09H
	DB	05H
	DB	09H
	DB	05H
	DB	09H
	DB	0e4H
	DB	08H
	DB	0e4H
	DB	08H
	DB	0c9H
	DB	011H
	DB	0c9H
	DB	011H
	DB	0c9H
	DB	011H
	DB	0c9H
	DB	011H
	DB	0c9H
	DB	011H
	DB	0c9H
	DB	011H
	DB	0c9H
	DB	011H
	DB	0c9H
	DB	011H
	DB	0c9H
	DB	011H
	DB	0c9H
	DB	011H
	DB	0c9H
	DB	011H
	DB	0c9H
	DB	011H
	DB	0c9H
	DB	011H
	DB	0c9H
	DB	011H
	DB	0c9H
	DB	011H
	DB	0c9H
	DB	011H
	DB	0c9H
	DB	011H
	DB	0c9H
	DB	011H
	DB	0c9H
	DB	011H
	DB	0c9H
	DB	011H
	DB	0c9H
	DB	011H
	DB	0c9H
	DB	011H
	DB	0c9H
	DB	011H
	DB	0c9H
	DB	011H
	DB	0c9H
	DB	011H
	DB	0c9H
	DB	011H
	DB	0c9H
	DB	011H
	DB	0c9H
	DB	011H
	DB	0c9H
	DB	011H
	DB	0c9H
	DB	011H
	DB	0c9H
	DB	011H
	DB	0c9H
	DB	011H
	DB	0c9H
	DB	011H
	DB	0c9H
	DB	011H
	DB	0a9H
	DB	011H
	DB	0a9H
	DB	011H
	DB	0a9H
	DB	011H
	DB	0a9H
	DB	011H
	DB	0a9H
	DB	011H
	DB	0a9H
	DB	011H
	DB	0a9H
	DB	011H
	DB	0a9H
	DB	011H
	DB	0a9H
	DB	011H
	DB	0a8H
	DB	011H
	DB	0a8H
	DB	011H
	DB	0a8H
	DB	011H
	DB	0a8H
	DB	011H
	DB	0a8H
	DB	011H
	DB	0a8H
	DB	011H
	DB	0a8H
	DB	011H
	DB	088H
	DB	011H
	DB	088H
	DB	011H
	DB	088H
	DB	011H
	DB	088H
	DB	011H
	DB	088H
	DB	011H
	DB	088H
	DB	011H
	DB	088H
	DB	011H
	DB	088H
	DB	011H
	DB	088H
	DB	011H
	DB	088H
	DB	011H
	DB	088H
	DB	011H
	DB	088H
	DB	011H
	DB	088H
	DB	011H
	DB	088H
	DB	011H
	DB	088H
	DB	011H
	DB	068H
	DB	011H
	DB	067H
	DB	011H
	DB	067H
	DB	011H
	DB	067H
	DB	011H
	DB	067H
	DB	011H
	DB	067H
	DB	011H
	DB	067H
	DB	011H
	DB	067H
	DB	011H
	DB	067H
	DB	011H
	DB	067H
	DB	011H
	DB	067H
	DB	011H
	DB	067H
	DB	011H
	DB	067H
	DB	011H
	DB	067H
	DB	011H
	DB	067H
	DB	011H
	DB	067H
	DB	011H
	DB	047H
	DB	011H
	DB	047H
	DB	011H
	DB	047H
	DB	011H
	DB	047H
	DB	011H
	DB	047H
	DB	011H
	DB	047H
	DB	011H
	DB	047H
	DB	011H
	DB	047H
	DB	011H
	DB	046H
	DB	09H
	DB	046H
	DB	09H
	DB	046H
	DB	09H
	DB	046H
	DB	09H
	DB	046H
	DB	09H
	DB	046H
	DB	09H
	DB	046H
	DB	09H
	DB	026H
	DB	09H
	DB	026H
	DB	09H
	DB	026H
	DB	09H
	DB	026H
	DB	09H
	DB	026H
	DB	09H
	DB	026H
	DB	09H
	DB	026H
	DB	09H
	DB	026H
	DB	09H
	DB	026H
	DB	09H
	DB	026H
	DB	09H
	DB	026H
	DB	09H
	DB	026H
	DB	09H
	DB	026H
	DB	09H
	DB	026H
	DB	09H
	DB	026H
	DB	09H
	DB	026H
	DB	09H
	DB	05H
	DB	09H
	DB	05H
	DB	09H
	DB	05H
	DB	09H
	DB	05H
	DB	09H
	DB	05H
	DB	09H
	DB	05H
	DB	09H
	DB	05H
	DB	09H
	DB	05H
	DB	09H
	DB	05H
	DB	09H
	DB	05H
	DB	09H
	DB	05H
	DB	09H
	DB	05H
	DB	09H
	DB	05H
	DB	09H
	DB	05H
	DB	09H
	DB	05H
	DB	09H
	DB	0e5H
	DB	08H
	DB	0e5H
	DB	08H
	DB	0e5H
	DB	08H
	DB	0e5H
	DB	08H
	DB	0e5H
	DB	08H
	DB	0e5H
	DB	08H
	DB	0e5H
	DB	08H
	DB	0e5H
	DB	08H
	DB	0e4H
	DB	08H
	DB	0e4H
	DB	08H
	DB	0e4H
	DB	08H
	DB	0e4H
	DB	08H
	DB	0e4H
	DB	08H
	DB	0e4H
	DB	08H
	DB	0e4H
	DB	08H
	DB	0e4H
	DB	08H
	DB	0c4H
	DB	08H
	DB	0c4H
	DB	08H
	DB	0c4H
	DB	08H
	DB	0c4H
	DB	08H
	DB	0c4H
	DB	08H
	DB	0c4H
	DB	08H
	DB	0c4H
	DB	08H
	DB	0c4H
	DB	08H
	DB	0c4H
	DB	08H
	DB	0c4H
	DB	08H
	DB	0c4H
	DB	08H
	DB	0c4H
	DB	08H
	DB	0c4H
	DB	08H
	DB	0c4H
	DB	08H
	DB	0c4H
	DB	08H
	DB	0c4H
	DB	08H
	DB	0a3H
	DB	08H
	DB	0a3H
	DB	08H
	DB	0a3H
	DB	08H
	DB	0a3H
	DB	00H
	DB	0a3H
	DB	00H
	DB	0a3H
	DB	00H
	DB	0a3H
	DB	00H
	DB	0a3H
	DB	00H
	DB	0a3H
	DB	00H
	DB	0a3H
	DB	00H
	DB	0a3H
	DB	00H
	DB	0a3H
	DB	00H
	DB	0a3H
	DB	00H
	DB	0a3H
	DB	00H
	DB	0a3H
	DB	00H
	DB	0a3H
	DB	00H
	DB	0a3H
	DB	00H
	DB	0a3H
	DB	00H
	DB	0a3H
	DB	00H
	DB	0a3H
	DB	00H
	DB	0a3H
	DB	00H
	DB	0a3H
	DB	00H
	DB	0a3H
	DB	00H
	DB	0a3H
	DB	00H
	DB	0a3H
	DB	00H
	DB	0a3H
	DB	00H
	DB	0a3H
	DB	00H
	DB	0a3H
	DB	00H
	DB	025H
	DB	09H
	DB	05H
	DB	09H
	DB	05H
	DB	09H
	DB	05H
	DB	09H
	DB	025H
	DB	09H
	DB	05H
	DB	09H
	DB	05H
	DB	09H
	DB	05H
	DB	09H
	DB	05H
	DB	09H
	DB	05H
	DB	09H
	DB	05H
	DB	09H
	DB	05H
	DB	09H
	DB	05H
	DB	09H
	DB	05H
	DB	09H
	DB	05H
	DB	09H
	DB	05H
	DB	09H
	DB	05H
	DB	09H
	DB	05H
	DB	09H
	DB	05H
	DB	09H
	DB	05H
	DB	09H
	DB	05H
	DB	09H
	DB	05H
	DB	09H
	DB	05H
	DB	09H
	DB	05H
	DB	09H
	DB	05H
	DB	09H
	DB	05H
	DB	09H
	DB	05H
	DB	09H
	DB	05H
	DB	09H
	DB	05H
	DB	09H
	DB	05H
	DB	09H
	DB	05H
	DB	09H
	DB	05H
	DB	09H
	DB	05H
	DB	09H
	DB	05H
	DB	09H
	DB	05H
	DB	09H
	DB	05H
	DB	09H
	DB	05H
	DB	09H
	DB	05H
	DB	09H
	DB	025H
	DB	09H
	DB	05H
	DB	09H
	DB	05H
	DB	09H
	DB	05H
	DB	09H
	DB	05H
	DB	09H
	DB	025H
	DB	09H
	DB	05H
	DB	09H
	DB	05H
	DB	09H
	DB	05H
	DB	09H
	DB	05H
	DB	09H
	DB	05H
	DB	09H
	DB	05H
	DB	09H
	DB	05H
	DB	09H
	DB	0e4H
	DB	08H
	DB	0e4H
	DB	08H
	DB	0c9H
	DB	011H
	DB	0c9H
	DB	011H
	DB	0c9H
	DB	011H
	DB	0c9H
	DB	011H
	DB	0c9H
	DB	011H
	DB	0c9H
	DB	011H
	DB	0c9H
	DB	011H
	DB	0c9H
	DB	011H
	DB	0c9H
	DB	011H
	DB	0c9H
	DB	011H
	DB	0c9H
	DB	011H
	DB	0c9H
	DB	011H
	DB	0c9H
	DB	011H
	DB	0c9H
	DB	011H
	DB	0c9H
	DB	011H
	DB	0c9H
	DB	011H
	DB	0c9H
	DB	011H
	DB	0c9H
	DB	011H
	DB	0c9H
	DB	011H
	DB	0c9H
	DB	011H
	DB	0c9H
	DB	011H
	DB	0c9H
	DB	011H
	DB	0c9H
	DB	011H
	DB	0c9H
	DB	011H
	DB	0c9H
	DB	011H
	DB	0c9H
	DB	011H
	DB	0c9H
	DB	011H
	DB	0c9H
	DB	011H
	DB	0c9H
	DB	011H
	DB	0c9H
	DB	011H
	DB	0c9H
	DB	011H
	DB	0c9H
	DB	011H
	DB	0c9H
	DB	011H
	DB	0c9H
	DB	011H
	DB	0a9H
	DB	011H
	DB	0a9H
	DB	011H
	DB	0a9H
	DB	011H
	DB	0a9H
	DB	011H
	DB	0a9H
	DB	011H
	DB	0a9H
	DB	011H
	DB	0a9H
	DB	011H
	DB	0a9H
	DB	011H
	DB	0a9H
	DB	011H
	DB	0a8H
	DB	011H
	DB	0a8H
	DB	011H
	DB	0a8H
	DB	011H
	DB	0a8H
	DB	011H
	DB	0a8H
	DB	011H
	DB	0a8H
	DB	011H
	DB	0a8H
	DB	011H
	DB	088H
	DB	011H
	DB	088H
	DB	011H
	DB	088H
	DB	011H
	DB	088H
	DB	011H
	DB	088H
	DB	011H
	DB	088H
	DB	011H
	DB	088H
	DB	011H
	DB	088H
	DB	011H
	DB	088H
	DB	011H
	DB	088H
	DB	011H
	DB	088H
	DB	011H
	DB	088H
	DB	011H
	DB	088H
	DB	011H
	DB	088H
	DB	011H
	DB	088H
	DB	011H
	DB	068H
	DB	011H
	DB	067H
	DB	011H
	DB	067H
	DB	011H
	DB	067H
	DB	011H
	DB	067H
	DB	011H
	DB	067H
	DB	011H
	DB	067H
	DB	011H
	DB	067H
	DB	011H
	DB	067H
	DB	011H
	DB	067H
	DB	011H
	DB	067H
	DB	011H
	DB	067H
	DB	011H
	DB	067H
	DB	011H
	DB	067H
	DB	011H
	DB	067H
	DB	011H
	DB	067H
	DB	011H
	DB	047H
	DB	011H
	DB	047H
	DB	011H
	DB	047H
	DB	011H
	DB	047H
	DB	011H
	DB	047H
	DB	011H
	DB	047H
	DB	011H
	DB	047H
	DB	011H
	DB	047H
	DB	011H
	DB	046H
	DB	09H
	DB	046H
	DB	09H
	DB	046H
	DB	09H
	DB	046H
	DB	09H
	DB	046H
	DB	09H
	DB	046H
	DB	09H
	DB	046H
	DB	09H
	DB	026H
	DB	09H
	DB	026H
	DB	09H
	DB	026H
	DB	09H
	DB	026H
	DB	09H
	DB	026H
	DB	09H
	DB	026H
	DB	09H
	DB	026H
	DB	09H
	DB	026H
	DB	09H
	DB	026H
	DB	09H
	DB	026H
	DB	09H
	DB	026H
	DB	09H
	DB	026H
	DB	09H
	DB	026H
	DB	09H
	DB	026H
	DB	09H
	DB	026H
	DB	09H
	DB	026H
	DB	09H
	DB	05H
	DB	09H
	DB	05H
	DB	09H
	DB	05H
	DB	09H
	DB	05H
	DB	09H
	DB	05H
	DB	09H
	DB	05H
	DB	09H
	DB	05H
	DB	09H
	DB	05H
	DB	09H
	DB	05H
	DB	09H
	DB	05H
	DB	09H
	DB	05H
	DB	09H
	DB	05H
	DB	09H
	DB	05H
	DB	09H
	DB	05H
	DB	09H
	DB	05H
	DB	09H
	DB	0e5H
	DB	08H
	DB	0e5H
	DB	08H
	DB	0e5H
	DB	08H
	DB	0e5H
	DB	08H
	DB	0e5H
	DB	08H
	DB	0e5H
	DB	08H
	DB	0e5H
	DB	08H
	DB	0e5H
	DB	08H
	DB	0e4H
	DB	08H
	DB	0e4H
	DB	08H
	DB	0e4H
	DB	08H
	DB	0e4H
	DB	08H
	DB	0e4H
	DB	08H
	DB	0e4H
	DB	08H
	DB	0e4H
	DB	08H
	DB	0e4H
	DB	08H
	DB	0c4H
	DB	08H
	DB	0c4H
	DB	08H
	DB	0c4H
	DB	08H
	DB	0c4H
	DB	08H
	DB	0c4H
	DB	08H
	DB	0c4H
	DB	08H
	DB	0c4H
	DB	08H
	DB	0c4H
	DB	08H
	DB	0c4H
	DB	08H
	DB	0c4H
	DB	08H
	DB	0c4H
	DB	08H
	DB	0c4H
	DB	08H
	DB	0c4H
	DB	08H
	DB	0c4H
	DB	08H
	DB	0c4H
	DB	08H
	DB	0c4H
	DB	08H
	DB	0a3H
	DB	08H
	DB	0a3H
	DB	08H
	DB	0a3H
	DB	08H
	DB	0a3H
	DB	00H
	DB	0a3H
	DB	00H
	DB	0a3H
	DB	00H
	DB	0a3H
	DB	00H
	DB	0a3H
	DB	00H
	DB	0a3H
	DB	00H
	DB	0a3H
	DB	00H
	DB	0a3H
	DB	00H
	DB	0a3H
	DB	00H
	DB	0a3H
	DB	00H
	DB	0a3H
	DB	00H
	DB	0a3H
	DB	00H
	DB	0a3H
	DB	00H
	DB	0a3H
	DB	00H
	DB	0a3H
	DB	00H
	DB	0a3H
	DB	00H
	DB	0a3H
	DB	00H
	DB	0a3H
	DB	00H
	DB	0a3H
	DB	00H
	DB	0a3H
	DB	00H
	DB	0a3H
	DB	00H
	DB	0a3H
	DB	00H
	DB	0a3H
	DB	00H
	DB	0a3H
	DB	00H
	DB	0a3H
	DB	00H
	DB	06H
	DB	09H
	DB	05H
	DB	09H
	DB	06H
	DB	09H
	DB	05H
	DB	09H
	DB	05H
	DB	09H
	DB	05H
	DB	09H
	DB	05H
	DB	09H
	DB	05H
	DB	09H
	DB	05H
	DB	09H
	DB	05H
	DB	09H
	DB	025H
	DB	09H
	DB	06H
	DB	09H
	DB	025H
	DB	09H
	DB	05H
	DB	09H
	DB	05H
	DB	09H
	DB	025H
	DB	09H
	DB	05H
	DB	09H
	DB	05H
	DB	09H
	DB	025H
	DB	09H
	DB	05H
	DB	09H
	DB	025H
	DB	09H
	DB	05H
	DB	09H
	DB	05H
	DB	09H
	DB	05H
	DB	09H
	DB	025H
	DB	09H
	DB	06H
	DB	09H
	DB	05H
	DB	09H
	DB	05H
	DB	09H
	DB	05H
	DB	09H
	DB	05H
	DB	09H
	DB	05H
	DB	09H
	DB	05H
	DB	09H
	DB	05H
	DB	09H
	DB	05H
	DB	09H
	DB	025H
	DB	09H
	DB	05H
	DB	09H
	DB	05H
	DB	09H
	DB	05H
	DB	09H
	DB	05H
	DB	09H
	DB	05H
	DB	09H
	DB	05H
	DB	09H
	DB	05H
	DB	09H
	DB	05H
	DB	09H
	DB	05H
	DB	09H
	DB	05H
	DB	09H
	DB	05H
	DB	09H
	DB	05H
	DB	09H
	DB	05H
	DB	09H
	DB	05H
	DB	09H
	DB	05H
	DB	09H
	DB	05H
	DB	09H
	DB	0e4H
	DB	08H
	DB	0e4H
	DB	08H
	DB	0c9H
	DB	011H
	DB	0c9H
	DB	011H
	DB	0c9H
	DB	011H
	DB	0c9H
	DB	011H
	DB	0c9H
	DB	011H
	DB	0c9H
	DB	011H
	DB	0c9H
	DB	011H
	DB	0c9H
	DB	011H
	DB	0c9H
	DB	011H
	DB	0c9H
	DB	011H
	DB	0c9H
	DB	011H
	DB	0c9H
	DB	011H
	DB	0c9H
	DB	011H
	DB	0c9H
	DB	011H
	DB	0c9H
	DB	011H
	DB	0c9H
	DB	011H
	DB	0c9H
	DB	011H
	DB	0c9H
	DB	011H
	DB	0c9H
	DB	011H
	DB	0c9H
	DB	011H
	DB	0c9H
	DB	011H
	DB	0c9H
	DB	011H
	DB	0c9H
	DB	011H
	DB	0c9H
	DB	011H
	DB	0c9H
	DB	011H
	DB	0c9H
	DB	011H
	DB	0c9H
	DB	011H
	DB	0c9H
	DB	011H
	DB	0c9H
	DB	011H
	DB	0c9H
	DB	011H
	DB	0c9H
	DB	011H
	DB	0c9H
	DB	011H
	DB	0c9H
	DB	011H
	DB	0c9H
	DB	011H
	DB	0a9H
	DB	011H
	DB	0a9H
	DB	011H
	DB	0a9H
	DB	011H
	DB	0a9H
	DB	011H
	DB	0a9H
	DB	011H
	DB	0a9H
	DB	011H
	DB	0a9H
	DB	011H
	DB	0a9H
	DB	011H
	DB	0a9H
	DB	011H
	DB	0a8H
	DB	011H
	DB	0a8H
	DB	011H
	DB	0a8H
	DB	011H
	DB	0a8H
	DB	011H
	DB	0a8H
	DB	011H
	DB	0a8H
	DB	011H
	DB	0a8H
	DB	011H
	DB	088H
	DB	011H
	DB	088H
	DB	011H
	DB	088H
	DB	011H
	DB	088H
	DB	011H
	DB	088H
	DB	011H
	DB	088H
	DB	011H
	DB	088H
	DB	011H
	DB	088H
	DB	011H
	DB	088H
	DB	011H
	DB	088H
	DB	011H
	DB	088H
	DB	011H
	DB	088H
	DB	011H
	DB	088H
	DB	011H
	DB	088H
	DB	011H
	DB	088H
	DB	011H
	DB	068H
	DB	011H
	DB	067H
	DB	011H
	DB	067H
	DB	011H
	DB	067H
	DB	011H
	DB	067H
	DB	011H
	DB	067H
	DB	011H
	DB	067H
	DB	011H
	DB	067H
	DB	011H
	DB	067H
	DB	011H
	DB	067H
	DB	011H
	DB	067H
	DB	011H
	DB	067H
	DB	011H
	DB	067H
	DB	011H
	DB	067H
	DB	011H
	DB	067H
	DB	011H
	DB	067H
	DB	011H
	DB	047H
	DB	011H
	DB	047H
	DB	011H
	DB	047H
	DB	011H
	DB	047H
	DB	011H
	DB	047H
	DB	011H
	DB	047H
	DB	011H
	DB	047H
	DB	011H
	DB	047H
	DB	011H
	DB	046H
	DB	09H
	DB	046H
	DB	09H
	DB	046H
	DB	09H
	DB	046H
	DB	09H
	DB	046H
	DB	09H
	DB	046H
	DB	09H
	DB	046H
	DB	09H
	DB	026H
	DB	09H
	DB	026H
	DB	09H
	DB	026H
	DB	09H
	DB	026H
	DB	09H
	DB	026H
	DB	09H
	DB	026H
	DB	09H
	DB	026H
	DB	09H
	DB	026H
	DB	09H
	DB	026H
	DB	09H
	DB	026H
	DB	09H
	DB	026H
	DB	09H
	DB	026H
	DB	09H
	DB	026H
	DB	09H
	DB	026H
	DB	09H
	DB	026H
	DB	09H
	DB	026H
	DB	09H
	DB	05H
	DB	09H
	DB	05H
	DB	09H
	DB	05H
	DB	09H
	DB	05H
	DB	09H
	DB	05H
	DB	09H
	DB	05H
	DB	09H
	DB	05H
	DB	09H
	DB	05H
	DB	09H
	DB	05H
	DB	09H
	DB	05H
	DB	09H
	DB	05H
	DB	09H
	DB	05H
	DB	09H
	DB	05H
	DB	09H
	DB	05H
	DB	09H
	DB	05H
	DB	09H
	DB	0e5H
	DB	08H
	DB	0e5H
	DB	08H
	DB	0e5H
	DB	08H
	DB	0e5H
	DB	08H
	DB	0e5H
	DB	08H
	DB	0e5H
	DB	08H
	DB	0e5H
	DB	08H
	DB	0e5H
	DB	08H
	DB	0e4H
	DB	08H
	DB	0e4H
	DB	08H
	DB	0e4H
	DB	08H
	DB	0e4H
	DB	08H
	DB	0e4H
	DB	08H
	DB	0e4H
	DB	08H
	DB	0e4H
	DB	08H
	DB	0e4H
	DB	08H
	DB	0c4H
	DB	08H
	DB	0c4H
	DB	08H
	DB	0c4H
	DB	08H
	DB	0c4H
	DB	08H
	DB	0c4H
	DB	08H
	DB	0c4H
	DB	08H
	DB	0c4H
	DB	08H
	DB	0c4H
	DB	08H
	DB	0c4H
	DB	08H
	DB	0c4H
	DB	08H
	DB	0c4H
	DB	08H
	DB	0c4H
	DB	08H
	DB	0c4H
	DB	08H
	DB	0c4H
	DB	08H
	DB	0c4H
	DB	08H
	DB	0c4H
	DB	08H
	DB	0a3H
	DB	08H
	DB	0a3H
	DB	08H
	DB	0a3H
	DB	08H
	DB	0a3H
	DB	00H
	DB	0a3H
	DB	00H
	DB	0a3H
	DB	00H
	DB	0a3H
	DB	00H
	DB	0a3H
	DB	00H
	DB	0a3H
	DB	00H
	DB	0a3H
	DB	00H
	DB	0a3H
	DB	00H
	DB	0a3H
	DB	00H
	DB	0a3H
	DB	00H
	DB	0a3H
	DB	00H
	DB	0a3H
	DB	00H
	DB	0a3H
	DB	00H
	DB	0a3H
	DB	00H
	DB	0a3H
	DB	00H
	DB	0a3H
	DB	00H
	DB	0a3H
	DB	00H
	DB	0a3H
	DB	00H
	DB	0a3H
	DB	00H
	DB	0a3H
	DB	00H
	DB	0a3H
	DB	00H
	DB	0a3H
	DB	00H
	DB	0a3H
	DB	00H
	DB	0a3H
	DB	00H
	DB	0a3H
	DB	00H
	DB	05H
	DB	09H
	DB	05H
	DB	09H
	DB	06H
	DB	09H
	DB	05H
	DB	09H
	DB	05H
	DB	09H
	DB	05H
	DB	09H
	DB	06H
	DB	09H
	DB	025H
	DB	09H
	DB	06H
	DB	09H
	DB	025H
	DB	09H
	DB	05H
	DB	09H
	DB	05H
	DB	09H
	DB	06H
	DB	09H
	DB	025H
	DB	09H
	DB	05H
	DB	09H
	DB	05H
	DB	09H
	DB	06H
	DB	09H
	DB	05H
	DB	09H
	DB	05H
	DB	09H
	DB	05H
	DB	09H
	DB	025H
	DB	09H
	DB	06H
	DB	09H
	DB	025H
	DB	09H
	DB	05H
	DB	09H
	DB	05H
	DB	09H
	DB	05H
	DB	09H
	DB	025H
	DB	09H
	DB	025H
	DB	09H
	DB	025H
	DB	09H
	DB	05H
	DB	09H
	DB	05H
	DB	09H
	DB	05H
	DB	09H
	DB	06H
	DB	09H
	DB	025H
	DB	09H
	DB	025H
	DB	09H
	DB	05H
	DB	09H
	DB	05H
	DB	09H
	DB	05H
	DB	09H
	DB	05H
	DB	09H
	DB	05H
	DB	09H
	DB	05H
	DB	09H
	DB	025H
	DB	09H
	DB	05H
	DB	09H
	DB	05H
	DB	09H
	DB	05H
	DB	09H
	DB	025H
	DB	09H
	DB	05H
	DB	09H
	DB	05H
	DB	09H
	DB	05H
	DB	09H
	DB	05H
	DB	09H
	DB	05H
	DB	09H
	DB	0e4H
	DB	08H
	DB	0e4H
	DB	08H
	DB	0c9H
	DB	011H
	DB	0c9H
	DB	011H
	DB	0c9H
	DB	011H
	DB	0c9H
	DB	011H
	DB	0c9H
	DB	011H
	DB	0c9H
	DB	011H
	DB	0c9H
	DB	011H
	DB	0c9H
	DB	011H
	DB	0c9H
	DB	011H
	DB	0c9H
	DB	011H
	DB	0c9H
	DB	011H
	DB	0c9H
	DB	011H
	DB	0c9H
	DB	011H
	DB	0c9H
	DB	011H
	DB	0c9H
	DB	011H
	DB	0c9H
	DB	011H
	DB	0c9H
	DB	011H
	DB	0c9H
	DB	011H
	DB	0c9H
	DB	011H
	DB	0c9H
	DB	011H
	DB	0c9H
	DB	011H
	DB	0c9H
	DB	011H
	DB	0c9H
	DB	011H
	DB	0c9H
	DB	011H
	DB	0c9H
	DB	011H
	DB	0c9H
	DB	011H
	DB	0c9H
	DB	011H
	DB	0c9H
	DB	011H
	DB	0c9H
	DB	011H
	DB	0c9H
	DB	011H
	DB	0c9H
	DB	011H
	DB	0c9H
	DB	011H
	DB	0c9H
	DB	011H
	DB	0c9H
	DB	011H
	DB	0a9H
	DB	011H
	DB	0a9H
	DB	011H
	DB	0a9H
	DB	011H
	DB	0a9H
	DB	011H
	DB	0a9H
	DB	011H
	DB	0a9H
	DB	011H
	DB	0a9H
	DB	011H
	DB	0a9H
	DB	011H
	DB	0a9H
	DB	011H
	DB	0a8H
	DB	011H
	DB	0a8H
	DB	011H
	DB	0a8H
	DB	011H
	DB	0a8H
	DB	011H
	DB	0a8H
	DB	011H
	DB	0a8H
	DB	011H
	DB	0a8H
	DB	011H
	DB	088H
	DB	011H
	DB	088H
	DB	011H
	DB	088H
	DB	011H
	DB	088H
	DB	011H
	DB	088H
	DB	011H
	DB	088H
	DB	011H
	DB	088H
	DB	011H
	DB	088H
	DB	011H
	DB	088H
	DB	011H
	DB	088H
	DB	011H
	DB	088H
	DB	011H
	DB	088H
	DB	011H
	DB	088H
	DB	011H
	DB	088H
	DB	011H
	DB	088H
	DB	011H
	DB	068H
	DB	011H
	DB	067H
	DB	011H
	DB	067H
	DB	011H
	DB	067H
	DB	011H
	DB	067H
	DB	011H
	DB	067H
	DB	011H
	DB	067H
	DB	011H
	DB	067H
	DB	011H
	DB	067H
	DB	011H
	DB	067H
	DB	011H
	DB	067H
	DB	011H
	DB	067H
	DB	011H
	DB	067H
	DB	011H
	DB	067H
	DB	011H
	DB	067H
	DB	011H
	DB	067H
	DB	011H
	DB	047H
	DB	011H
	DB	047H
	DB	011H
	DB	047H
	DB	011H
	DB	047H
	DB	011H
	DB	047H
	DB	011H
	DB	047H
	DB	011H
	DB	047H
	DB	011H
	DB	047H
	DB	011H
	DB	046H
	DB	09H
	DB	046H
	DB	09H
	DB	046H
	DB	09H
	DB	046H
	DB	09H
	DB	046H
	DB	09H
	DB	046H
	DB	09H
	DB	046H
	DB	09H
	DB	026H
	DB	09H
	DB	026H
	DB	09H
	DB	026H
	DB	09H
	DB	026H
	DB	09H
	DB	026H
	DB	09H
	DB	026H
	DB	09H
	DB	026H
	DB	09H
	DB	026H
	DB	09H
	DB	026H
	DB	09H
	DB	026H
	DB	09H
	DB	026H
	DB	09H
	DB	026H
	DB	09H
	DB	026H
	DB	09H
	DB	026H
	DB	09H
	DB	026H
	DB	09H
	DB	026H
	DB	09H
	DB	05H
	DB	09H
	DB	05H
	DB	09H
	DB	05H
	DB	09H
	DB	05H
	DB	09H
	DB	05H
	DB	09H
	DB	05H
	DB	09H
	DB	05H
	DB	09H
	DB	05H
	DB	09H
	DB	05H
	DB	09H
	DB	05H
	DB	09H
	DB	05H
	DB	09H
	DB	05H
	DB	09H
	DB	05H
	DB	09H
	DB	05H
	DB	09H
	DB	05H
	DB	09H
	DB	0e5H
	DB	08H
	DB	0e5H
	DB	08H
	DB	0e5H
	DB	08H
	DB	0e5H
	DB	08H
	DB	0e5H
	DB	08H
	DB	0e5H
	DB	08H
	DB	0e5H
	DB	08H
	DB	0e5H
	DB	08H
	DB	0e4H
	DB	08H
	DB	0e4H
	DB	08H
	DB	0e4H
	DB	08H
	DB	0e4H
	DB	08H
	DB	0e4H
	DB	08H
	DB	0e4H
	DB	08H
	DB	0e4H
	DB	08H
	DB	0e4H
	DB	08H
	DB	0c4H
	DB	08H
	DB	0c4H
	DB	08H
	DB	0c4H
	DB	08H
	DB	0c4H
	DB	08H
	DB	0c4H
	DB	08H
	DB	0c4H
	DB	08H
	DB	0c4H
	DB	08H
	DB	0c4H
	DB	08H
	DB	0c4H
	DB	08H
	DB	0c4H
	DB	08H
	DB	0c4H
	DB	08H
	DB	0c4H
	DB	08H
	DB	0c4H
	DB	08H
	DB	0c4H
	DB	08H
	DB	0c4H
	DB	08H
	DB	0c4H
	DB	08H
	DB	0a3H
	DB	08H
	DB	0a3H
	DB	08H
	DB	0a3H
	DB	08H
	DB	0a3H
	DB	00H
	DB	0a3H
	DB	00H
	DB	0a3H
	DB	00H
	DB	0a3H
	DB	00H
	DB	0a3H
	DB	00H
	DB	0a3H
	DB	00H
	DB	0a3H
	DB	00H
	DB	0a3H
	DB	00H
	DB	0a3H
	DB	00H
	DB	0a3H
	DB	00H
	DB	0a3H
	DB	00H
	DB	0a3H
	DB	00H
	DB	0a3H
	DB	00H
	DB	0a3H
	DB	00H
	DB	0a3H
	DB	00H
	DB	0a3H
	DB	00H
	DB	0a3H
	DB	00H
	DB	0a3H
	DB	00H
	DB	0a3H
	DB	00H
	DB	0a3H
	DB	00H
	DB	0a3H
	DB	00H
	DB	0a3H
	DB	00H
	DB	0a3H
	DB	00H
	DB	0a3H
	DB	00H
	DB	0a3H
	DB	00H
	DB	025H
	DB	09H
	DB	026H
	DB	09H
	DB	025H
	DB	09H
	DB	025H
	DB	09H
	DB	05H
	DB	09H
	DB	06H
	DB	09H
	DB	05H
	DB	09H
	DB	025H
	DB	09H
	DB	05H
	DB	09H
	DB	05H
	DB	09H
	DB	025H
	DB	09H
	DB	025H
	DB	09H
	DB	05H
	DB	09H
	DB	025H
	DB	09H
	DB	05H
	DB	09H
	DB	06H
	DB	09H
	DB	025H
	DB	09H
	DB	05H
	DB	09H
	DB	025H
	DB	09H
	DB	05H
	DB	09H
	DB	025H
	DB	09H
	DB	05H
	DB	09H
	DB	05H
	DB	09H
	DB	06H
	DB	09H
	DB	025H
	DB	09H
	DB	026H
	DB	09H
	DB	05H
	DB	09H
	DB	06H
	DB	09H
	DB	025H
	DB	09H
	DB	025H
	DB	09H
	DB	06H
	DB	09H
	DB	025H
	DB	09H
	DB	025H
	DB	09H
	DB	025H
	DB	09H
	DB	025H
	DB	09H
	DB	05H
	DB	09H
	DB	05H
	DB	09H
	DB	025H
	DB	09H
	DB	025H
	DB	09H
	DB	05H
	DB	09H
	DB	05H
	DB	09H
	DB	025H
	DB	09H
	DB	06H
	DB	09H
	DB	06H
	DB	09H
	DB	05H
	DB	09H
	DB	025H
	DB	09H
	DB	05H
	DB	09H
	DB	025H
	DB	09H
	DB	025H
	DB	09H
	DB	05H
	DB	09H
	DB	05H
	DB	09H
	DB	0e4H
	DB	08H
	DB	0e4H
	DB	08H
	DB	0c9H
	DB	011H
	DB	0c9H
	DB	011H
	DB	0c9H
	DB	011H
	DB	0c9H
	DB	011H
	DB	0c9H
	DB	011H
	DB	0c9H
	DB	011H
	DB	0c9H
	DB	011H
	DB	0c9H
	DB	011H
	DB	0c9H
	DB	011H
	DB	0c9H
	DB	011H
	DB	0c9H
	DB	011H
	DB	0c9H
	DB	011H
	DB	0c9H
	DB	011H
	DB	0c9H
	DB	011H
	DB	0c9H
	DB	011H
	DB	0c9H
	DB	011H
	DB	0c9H
	DB	011H
	DB	0c9H
	DB	011H
	DB	0c9H
	DB	011H
	DB	0c9H
	DB	011H
	DB	0c9H
	DB	011H
	DB	0c9H
	DB	011H
	DB	0c9H
	DB	011H
	DB	0c9H
	DB	011H
	DB	0c9H
	DB	011H
	DB	0c9H
	DB	011H
	DB	0c9H
	DB	011H
	DB	0c9H
	DB	011H
	DB	0c9H
	DB	011H
	DB	0c9H
	DB	011H
	DB	0c9H
	DB	011H
	DB	0c9H
	DB	011H
	DB	0c9H
	DB	011H
	DB	0c9H
	DB	011H
	DB	0a9H
	DB	011H
	DB	0a9H
	DB	011H
	DB	0a9H
	DB	011H
	DB	0a9H
	DB	011H
	DB	0a9H
	DB	011H
	DB	0a9H
	DB	011H
	DB	0a9H
	DB	011H
	DB	0a9H
	DB	011H
	DB	0a9H
	DB	011H
	DB	0a8H
	DB	011H
	DB	0a8H
	DB	011H
	DB	0a8H
	DB	011H
	DB	0a8H
	DB	011H
	DB	0a8H
	DB	011H
	DB	0a8H
	DB	011H
	DB	0a8H
	DB	011H
	DB	088H
	DB	011H
	DB	088H
	DB	011H
	DB	088H
	DB	011H
	DB	088H
	DB	011H
	DB	088H
	DB	011H
	DB	088H
	DB	011H
	DB	088H
	DB	011H
	DB	088H
	DB	011H
	DB	088H
	DB	011H
	DB	088H
	DB	011H
	DB	088H
	DB	011H
	DB	088H
	DB	011H
	DB	088H
	DB	011H
	DB	088H
	DB	011H
	DB	088H
	DB	011H
	DB	068H
	DB	011H
	DB	067H
	DB	011H
	DB	067H
	DB	011H
	DB	067H
	DB	011H
	DB	067H
	DB	011H
	DB	067H
	DB	011H
	DB	067H
	DB	011H
	DB	067H
	DB	011H
	DB	067H
	DB	011H
	DB	067H
	DB	011H
	DB	067H
	DB	011H
	DB	067H
	DB	011H
	DB	067H
	DB	011H
	DB	067H
	DB	011H
	DB	067H
	DB	011H
	DB	067H
	DB	011H
	DB	047H
	DB	011H
	DB	047H
	DB	011H
	DB	047H
	DB	011H
	DB	047H
	DB	011H
	DB	047H
	DB	011H
	DB	047H
	DB	011H
	DB	047H
	DB	011H
	DB	047H
	DB	011H
	DB	046H
	DB	09H
	DB	046H
	DB	09H
	DB	046H
	DB	09H
	DB	046H
	DB	09H
	DB	046H
	DB	09H
	DB	046H
	DB	09H
	DB	046H
	DB	09H
	DB	026H
	DB	09H
	DB	026H
	DB	09H
	DB	026H
	DB	09H
	DB	026H
	DB	09H
	DB	026H
	DB	09H
	DB	026H
	DB	09H
	DB	026H
	DB	09H
	DB	026H
	DB	09H
	DB	026H
	DB	09H
	DB	026H
	DB	09H
	DB	026H
	DB	09H
	DB	026H
	DB	09H
	DB	026H
	DB	09H
	DB	026H
	DB	09H
	DB	026H
	DB	09H
	DB	026H
	DB	09H
	DB	06H
	DB	09H
	DB	05H
	DB	09H
	DB	05H
	DB	09H
	DB	05H
	DB	09H
	DB	05H
	DB	09H
	DB	05H
	DB	09H
	DB	05H
	DB	09H
	DB	05H
	DB	09H
	DB	05H
	DB	09H
	DB	05H
	DB	09H
	DB	05H
	DB	09H
	DB	05H
	DB	09H
	DB	05H
	DB	09H
	DB	05H
	DB	09H
	DB	05H
	DB	09H
	DB	0e5H
	DB	08H
	DB	0e5H
	DB	08H
	DB	0e5H
	DB	08H
	DB	0e5H
	DB	08H
	DB	0e5H
	DB	08H
	DB	0e5H
	DB	08H
	DB	0e5H
	DB	08H
	DB	0e5H
	DB	08H
	DB	0e5H
	DB	08H
	DB	0e4H
	DB	08H
	DB	0e4H
	DB	08H
	DB	0e4H
	DB	08H
	DB	0e4H
	DB	08H
	DB	0e4H
	DB	08H
	DB	0e4H
	DB	08H
	DB	0e4H
	DB	08H
	DB	0e4H
	DB	08H
	DB	0c4H
	DB	08H
	DB	0c4H
	DB	08H
	DB	0c4H
	DB	08H
	DB	0c4H
	DB	08H
	DB	0c4H
	DB	08H
	DB	0c4H
	DB	08H
	DB	0c4H
	DB	08H
	DB	0c4H
	DB	08H
	DB	0c4H
	DB	08H
	DB	0c4H
	DB	08H
	DB	0c4H
	DB	08H
	DB	0c4H
	DB	08H
	DB	0c4H
	DB	08H
	DB	0c4H
	DB	08H
	DB	0c4H
	DB	08H
	DB	0a3H
	DB	08H
	DB	0a3H
	DB	08H
	DB	0a3H
	DB	08H
	DB	0a3H
	DB	00H
	DB	0a3H
	DB	00H
	DB	0a3H
	DB	00H
	DB	0a3H
	DB	00H
	DB	0a3H
	DB	00H
	DB	0a3H
	DB	00H
	DB	0a3H
	DB	00H
	DB	0a3H
	DB	00H
	DB	0a3H
	DB	00H
	DB	0a3H
	DB	00H
	DB	0a3H
	DB	00H
	DB	0a3H
	DB	00H
	DB	0a3H
	DB	00H
	DB	0a3H
	DB	00H
	DB	0a3H
	DB	00H
	DB	0a3H
	DB	00H
	DB	0a3H
	DB	00H
	DB	0a3H
	DB	00H
	DB	0a3H
	DB	00H
	DB	0a3H
	DB	00H
	DB	0a3H
	DB	00H
	DB	0a3H
	DB	00H
	DB	0a3H
	DB	00H
	DB	0a3H
	DB	00H
	DB	0a3H
	DB	00H
	DB	025H
	DB	09H
	DB	025H
	DB	09H
	DB	026H
	DB	09H
	DB	026H
	DB	09H
	DB	026H
	DB	09H
	DB	025H
	DB	09H
	DB	05H
	DB	09H
	DB	06H
	DB	09H
	DB	026H
	DB	09H
	DB	06H
	DB	09H
	DB	025H
	DB	09H
	DB	025H
	DB	09H
	DB	026H
	DB	09H
	DB	025H
	DB	09H
	DB	06H
	DB	09H
	DB	06H
	DB	09H
	DB	026H
	DB	09H
	DB	06H
	DB	09H
	DB	025H
	DB	09H
	DB	06H
	DB	09H
	DB	06H
	DB	09H
	DB	026H
	DB	09H
	DB	06H
	DB	09H
	DB	06H
	DB	09H
	DB	025H
	DB	09H
	DB	025H
	DB	09H
	DB	025H
	DB	09H
	DB	06H
	DB	09H
	DB	05H
	DB	09H
	DB	025H
	DB	09H
	DB	05H
	DB	09H
	DB	026H
	DB	09H
	DB	025H
	DB	09H
	DB	025H
	DB	09H
	DB	06H
	DB	09H
	DB	025H
	DB	09H
	DB	025H
	DB	09H
	DB	025H
	DB	09H
	DB	06H
	DB	09H
	DB	05H
	DB	09H
	DB	06H
	DB	09H
	DB	025H
	DB	09H
	DB	026H
	DB	09H
	DB	025H
	DB	09H
	DB	05H
	DB	09H
	DB	05H
	DB	09H
	DB	025H
	DB	09H
	DB	025H
	DB	09H
	DB	05H
	DB	09H
	DB	026H
	DB	09H
	DB	05H
	DB	09H
	DB	0e4H
	DB	08H
	DB	0e4H
	DB	08H
	DB	0c9H
	DB	011H
	DB	0c9H
	DB	011H
	DB	0c9H
	DB	011H
	DB	0c9H
	DB	011H
	DB	0c9H
	DB	011H
	DB	0c9H
	DB	011H
	DB	0c9H
	DB	011H
	DB	0c9H
	DB	011H
	DB	0c9H
	DB	011H
	DB	0c9H
	DB	011H
	DB	0c9H
	DB	011H
	DB	0c9H
	DB	011H
	DB	0c9H
	DB	011H
	DB	0c9H
	DB	011H
	DB	0c9H
	DB	011H
	DB	0c9H
	DB	011H
	DB	0c9H
	DB	011H
	DB	0c9H
	DB	011H
	DB	0c9H
	DB	011H
	DB	0c9H
	DB	011H
	DB	0c9H
	DB	011H
	DB	0c9H
	DB	011H
	DB	0c9H
	DB	011H
	DB	0c9H
	DB	011H
	DB	0c9H
	DB	011H
	DB	0c9H
	DB	011H
	DB	0c9H
	DB	011H
	DB	0c9H
	DB	011H
	DB	0c9H
	DB	011H
	DB	0c9H
	DB	011H
	DB	0c9H
	DB	011H
	DB	0c9H
	DB	011H
	DB	0c9H
	DB	011H
	DB	0c9H
	DB	011H
	DB	0a9H
	DB	011H
	DB	0a9H
	DB	011H
	DB	0a9H
	DB	011H
	DB	0a9H
	DB	011H
	DB	0a9H
	DB	011H
	DB	0a9H
	DB	011H
	DB	0a9H
	DB	011H
	DB	0a9H
	DB	011H
	DB	0a9H
	DB	011H
	DB	0a8H
	DB	011H
	DB	0a8H
	DB	011H
	DB	0a8H
	DB	011H
	DB	0a8H
	DB	011H
	DB	0a8H
	DB	011H
	DB	0a8H
	DB	011H
	DB	0a8H
	DB	011H
	DB	088H
	DB	011H
	DB	088H
	DB	011H
	DB	088H
	DB	011H
	DB	088H
	DB	011H
	DB	088H
	DB	011H
	DB	088H
	DB	011H
	DB	088H
	DB	011H
	DB	088H
	DB	011H
	DB	088H
	DB	011H
	DB	088H
	DB	011H
	DB	088H
	DB	011H
	DB	088H
	DB	011H
	DB	088H
	DB	011H
	DB	088H
	DB	011H
	DB	088H
	DB	011H
	DB	068H
	DB	011H
	DB	067H
	DB	011H
	DB	067H
	DB	011H
	DB	067H
	DB	011H
	DB	067H
	DB	011H
	DB	067H
	DB	011H
	DB	067H
	DB	011H
	DB	067H
	DB	011H
	DB	067H
	DB	011H
	DB	067H
	DB	011H
	DB	067H
	DB	011H
	DB	067H
	DB	011H
	DB	067H
	DB	011H
	DB	067H
	DB	011H
	DB	067H
	DB	011H
	DB	067H
	DB	011H
	DB	047H
	DB	011H
	DB	047H
	DB	011H
	DB	047H
	DB	011H
	DB	047H
	DB	011H
	DB	047H
	DB	011H
	DB	047H
	DB	011H
	DB	047H
	DB	011H
	DB	047H
	DB	011H
	DB	047H
	DB	09H
	DB	046H
	DB	09H
	DB	046H
	DB	09H
	DB	046H
	DB	09H
	DB	046H
	DB	09H
	DB	046H
	DB	09H
	DB	046H
	DB	09H
	DB	026H
	DB	09H
	DB	026H
	DB	09H
	DB	026H
	DB	09H
	DB	026H
	DB	09H
	DB	026H
	DB	09H
	DB	026H
	DB	09H
	DB	026H
	DB	09H
	DB	026H
	DB	09H
	DB	026H
	DB	09H
	DB	026H
	DB	09H
	DB	026H
	DB	09H
	DB	026H
	DB	09H
	DB	026H
	DB	09H
	DB	026H
	DB	09H
	DB	026H
	DB	09H
	DB	026H
	DB	09H
	DB	06H
	DB	09H
	DB	05H
	DB	09H
	DB	05H
	DB	09H
	DB	05H
	DB	09H
	DB	05H
	DB	09H
	DB	05H
	DB	09H
	DB	05H
	DB	09H
	DB	05H
	DB	09H
	DB	05H
	DB	09H
	DB	05H
	DB	09H
	DB	05H
	DB	09H
	DB	05H
	DB	09H
	DB	05H
	DB	09H
	DB	05H
	DB	09H
	DB	05H
	DB	09H
	DB	05H
	DB	09H
	DB	0e5H
	DB	08H
	DB	0e5H
	DB	08H
	DB	0e5H
	DB	08H
	DB	0e5H
	DB	08H
	DB	0e5H
	DB	08H
	DB	0e5H
	DB	08H
	DB	0e5H
	DB	08H
	DB	0e5H
	DB	08H
	DB	0e4H
	DB	08H
	DB	0e4H
	DB	08H
	DB	0e4H
	DB	08H
	DB	0e4H
	DB	08H
	DB	0e4H
	DB	08H
	DB	0e4H
	DB	08H
	DB	0e4H
	DB	08H
	DB	0e4H
	DB	08H
	DB	0c4H
	DB	08H
	DB	0c4H
	DB	08H
	DB	0c4H
	DB	08H
	DB	0c4H
	DB	08H
	DB	0c4H
	DB	08H
	DB	0c4H
	DB	08H
	DB	0c4H
	DB	08H
	DB	0c4H
	DB	08H
	DB	0c4H
	DB	08H
	DB	0c4H
	DB	08H
	DB	0c4H
	DB	08H
	DB	0c4H
	DB	08H
	DB	0c4H
	DB	08H
	DB	0c4H
	DB	08H
	DB	0c4H
	DB	08H
	DB	0a3H
	DB	08H
	DB	0a3H
	DB	08H
	DB	0a3H
	DB	08H
	DB	0a3H
	DB	00H
	DB	0a3H
	DB	00H
	DB	0a3H
	DB	00H
	DB	0a3H
	DB	00H
	DB	0a3H
	DB	00H
	DB	0a3H
	DB	00H
	DB	0a3H
	DB	00H
	DB	0a3H
	DB	00H
	DB	0a3H
	DB	00H
	DB	0a3H
	DB	00H
	DB	0a3H
	DB	00H
	DB	0a3H
	DB	00H
	DB	0a3H
	DB	00H
	DB	0a3H
	DB	00H
	DB	0a3H
	DB	00H
	DB	0a3H
	DB	00H
	DB	0a3H
	DB	00H
	DB	0a3H
	DB	00H
	DB	0a3H
	DB	00H
	DB	0a3H
	DB	00H
	DB	0a3H
	DB	00H
	DB	0a3H
	DB	00H
	DB	0a3H
	DB	00H
	DB	0a3H
	DB	00H
	DB	0a3H
	DB	00H
	DB	026H
	DB	09H
	DB	026H
	DB	09H
	DB	026H
	DB	09H
	DB	025H
	DB	09H
	DB	025H
	DB	09H
	DB	06H
	DB	09H
	DB	026H
	DB	09H
	DB	025H
	DB	09H
	DB	026H
	DB	09H
	DB	026H
	DB	09H
	DB	06H
	DB	09H
	DB	06H
	DB	09H
	DB	026H
	DB	09H
	DB	025H
	DB	09H
	DB	025H
	DB	09H
	DB	025H
	DB	09H
	DB	025H
	DB	09H
	DB	026H
	DB	09H
	DB	026H
	DB	09H
	DB	026H
	DB	09H
	DB	06H
	DB	09H
	DB	026H
	DB	09H
	DB	026H
	DB	09H
	DB	025H
	DB	09H
	DB	06H
	DB	09H
	DB	026H
	DB	09H
	DB	05H
	DB	09H
	DB	025H
	DB	09H
	DB	06H
	DB	09H
	DB	026H
	DB	09H
	DB	06H
	DB	09H
	DB	06H
	DB	09H
	DB	025H
	DB	09H
	DB	025H
	DB	09H
	DB	026H
	DB	09H
	DB	026H
	DB	09H
	DB	025H
	DB	09H
	DB	025H
	DB	09H
	DB	025H
	DB	09H
	DB	026H
	DB	09H
	DB	026H
	DB	09H
	DB	06H
	DB	09H
	DB	026H
	DB	09H
	DB	06H
	DB	09H
	DB	06H
	DB	09H
	DB	025H
	DB	09H
	DB	05H
	DB	09H
	DB	05H
	DB	09H
	DB	025H
	DB	09H
	DB	026H
	DB	09H
	DB	026H
	DB	09H
	DB	0e4H
	DB	08H
	DB	0e4H
	DB	08H
	DB	0c9H
	DB	011H
	DB	0c9H
	DB	011H
	DB	0c9H
	DB	011H
	DB	0c9H
	DB	011H
	DB	0c9H
	DB	011H
	DB	0c9H
	DB	011H
	DB	0c9H
	DB	011H
	DB	0c9H
	DB	011H
	DB	0c9H
	DB	011H
	DB	0c9H
	DB	011H
	DB	0c9H
	DB	011H
	DB	0c9H
	DB	011H
	DB	0c9H
	DB	011H
	DB	0c9H
	DB	011H
	DB	0c9H
	DB	011H
	DB	0c9H
	DB	011H
	DB	0c9H
	DB	011H
	DB	0c9H
	DB	011H
	DB	0c9H
	DB	011H
	DB	0c9H
	DB	011H
	DB	0c9H
	DB	011H
	DB	0c9H
	DB	011H
	DB	0c9H
	DB	011H
	DB	0c9H
	DB	011H
	DB	0c9H
	DB	011H
	DB	0c9H
	DB	011H
	DB	0c9H
	DB	011H
	DB	0c9H
	DB	011H
	DB	0c9H
	DB	011H
	DB	0c9H
	DB	011H
	DB	0c9H
	DB	011H
	DB	0c9H
	DB	011H
	DB	0c9H
	DB	011H
	DB	0c9H
	DB	011H
	DB	0a9H
	DB	011H
	DB	0a9H
	DB	011H
	DB	0a9H
	DB	011H
	DB	0a9H
	DB	011H
	DB	0a9H
	DB	011H
	DB	0a9H
	DB	011H
	DB	0a9H
	DB	011H
	DB	0a9H
	DB	011H
	DB	0a9H
	DB	011H
	DB	0a8H
	DB	011H
	DB	0a8H
	DB	011H
	DB	0a8H
	DB	011H
	DB	0a8H
	DB	011H
	DB	0a8H
	DB	011H
	DB	0a8H
	DB	011H
	DB	0a8H
	DB	011H
	DB	088H
	DB	011H
	DB	088H
	DB	011H
	DB	088H
	DB	011H
	DB	088H
	DB	011H
	DB	088H
	DB	011H
	DB	088H
	DB	011H
	DB	088H
	DB	011H
	DB	088H
	DB	011H
	DB	088H
	DB	011H
	DB	088H
	DB	011H
	DB	088H
	DB	011H
	DB	088H
	DB	011H
	DB	088H
	DB	011H
	DB	088H
	DB	011H
	DB	088H
	DB	011H
	DB	088H
	DB	011H
	DB	067H
	DB	011H
	DB	067H
	DB	011H
	DB	067H
	DB	011H
	DB	067H
	DB	011H
	DB	067H
	DB	011H
	DB	067H
	DB	011H
	DB	067H
	DB	011H
	DB	067H
	DB	011H
	DB	067H
	DB	011H
	DB	067H
	DB	011H
	DB	067H
	DB	011H
	DB	067H
	DB	011H
	DB	067H
	DB	011H
	DB	067H
	DB	011H
	DB	067H
	DB	011H
	DB	047H
	DB	011H
	DB	047H
	DB	011H
	DB	047H
	DB	011H
	DB	047H
	DB	011H
	DB	047H
	DB	011H
	DB	047H
	DB	011H
	DB	047H
	DB	011H
	DB	047H
	DB	011H
	DB	047H
	DB	09H
	DB	046H
	DB	09H
	DB	046H
	DB	09H
	DB	046H
	DB	09H
	DB	046H
	DB	09H
	DB	046H
	DB	09H
	DB	046H
	DB	09H
	DB	046H
	DB	09H
	DB	026H
	DB	09H
	DB	026H
	DB	09H
	DB	026H
	DB	09H
	DB	026H
	DB	09H
	DB	026H
	DB	09H
	DB	026H
	DB	09H
	DB	026H
	DB	09H
	DB	026H
	DB	09H
	DB	026H
	DB	09H
	DB	026H
	DB	09H
	DB	026H
	DB	09H
	DB	026H
	DB	09H
	DB	026H
	DB	09H
	DB	026H
	DB	09H
	DB	026H
	DB	09H
	DB	06H
	DB	09H
	DB	05H
	DB	09H
	DB	05H
	DB	09H
	DB	05H
	DB	09H
	DB	05H
	DB	09H
	DB	05H
	DB	09H
	DB	05H
	DB	09H
	DB	05H
	DB	09H
	DB	05H
	DB	09H
	DB	05H
	DB	09H
	DB	05H
	DB	09H
	DB	05H
	DB	09H
	DB	05H
	DB	09H
	DB	05H
	DB	09H
	DB	05H
	DB	09H
	DB	05H
	DB	09H
	DB	0e5H
	DB	08H
	DB	0e5H
	DB	08H
	DB	0e5H
	DB	08H
	DB	0e5H
	DB	08H
	DB	0e5H
	DB	08H
	DB	0e5H
	DB	08H
	DB	0e5H
	DB	08H
	DB	0e5H
	DB	08H
	DB	0e4H
	DB	08H
	DB	0e4H
	DB	08H
	DB	0e4H
	DB	08H
	DB	0e4H
	DB	08H
	DB	0e4H
	DB	08H
	DB	0e4H
	DB	08H
	DB	0e4H
	DB	08H
	DB	0e4H
	DB	08H
	DB	0c4H
	DB	08H
	DB	0c4H
	DB	08H
	DB	0c4H
	DB	08H
	DB	0c4H
	DB	08H
	DB	0c4H
	DB	08H
	DB	0c4H
	DB	08H
	DB	0c4H
	DB	08H
	DB	0c4H
	DB	08H
	DB	0c4H
	DB	08H
	DB	0c4H
	DB	08H
	DB	0c4H
	DB	08H
	DB	0c4H
	DB	08H
	DB	0c4H
	DB	08H
	DB	0c4H
	DB	08H
	DB	0c4H
	DB	08H
	DB	0a3H
	DB	08H
	DB	0a3H
	DB	08H
	DB	0a3H
	DB	08H
	DB	0a3H
	DB	00H
	DB	0a3H
	DB	00H
	DB	0a3H
	DB	00H
	DB	0a3H
	DB	00H
	DB	0a3H
	DB	00H
	DB	0a3H
	DB	00H
	DB	0a3H
	DB	00H
	DB	0a3H
	DB	00H
	DB	0a3H
	DB	00H
	DB	0a3H
	DB	00H
	DB	0a3H
	DB	00H
	DB	0a3H
	DB	00H
	DB	0a3H
	DB	00H
	DB	0a3H
	DB	00H
	DB	0a3H
	DB	00H
	DB	0a3H
	DB	00H
	DB	0a3H
	DB	00H
	DB	0a3H
	DB	00H
	DB	0a3H
	DB	00H
	DB	0a3H
	DB	00H
	DB	0a3H
	DB	00H
	DB	0a3H
	DB	00H
	DB	0a3H
	DB	00H
	DB	0a3H
	DB	00H
	DB	0a3H
	DB	00H
	DB	026H
	DB	09H
	DB	026H
	DB	09H
	DB	026H
	DB	09H
	DB	026H
	DB	09H
	DB	026H
	DB	09H
	DB	026H
	DB	09H
	DB	026H
	DB	09H
	DB	026H
	DB	09H
	DB	026H
	DB	09H
	DB	026H
	DB	09H
	DB	025H
	DB	09H
	DB	026H
	DB	09H
	DB	025H
	DB	09H
	DB	026H
	DB	09H
	DB	026H
	DB	09H
	DB	026H
	DB	09H
	DB	026H
	DB	09H
	DB	026H
	DB	09H
	DB	026H
	DB	09H
	DB	026H
	DB	09H
	DB	026H
	DB	09H
	DB	026H
	DB	09H
	DB	025H
	DB	09H
	DB	026H
	DB	09H
	DB	026H
	DB	09H
	DB	026H
	DB	09H
	DB	026H
	DB	09H
	DB	06H
	DB	09H
	DB	026H
	DB	09H
	DB	026H
	DB	09H
	DB	026H
	DB	09H
	DB	026H
	DB	09H
	DB	026H
	DB	09H
	DB	06H
	DB	09H
	DB	026H
	DB	09H
	DB	026H
	DB	09H
	DB	026H
	DB	09H
	DB	026H
	DB	09H
	DB	026H
	DB	09H
	DB	026H
	DB	09H
	DB	026H
	DB	09H
	DB	026H
	DB	09H
	DB	026H
	DB	09H
	DB	026H
	DB	09H
	DB	025H
	DB	09H
	DB	026H
	DB	09H
	DB	06H
	DB	09H
	DB	026H
	DB	09H
	DB	026H
	DB	09H
	DB	06H
	DB	09H
	DB	06H
	DB	09H
	DB	0e4H
	DB	08H
	DB	0e4H
	DB	08H
	DB	0c9H
	DB	011H
	DB	0c9H
	DB	011H
	DB	0c9H
	DB	011H
	DB	0c9H
	DB	011H
	DB	0c9H
	DB	011H
	DB	0c9H
	DB	011H
	DB	0c9H
	DB	011H
	DB	0c9H
	DB	011H
	DB	0c9H
	DB	011H
	DB	0c9H
	DB	011H
	DB	0c9H
	DB	011H
	DB	0c9H
	DB	011H
	DB	0c9H
	DB	011H
	DB	0c9H
	DB	011H
	DB	0c9H
	DB	011H
	DB	0c9H
	DB	011H
	DB	0c9H
	DB	011H
	DB	0c9H
	DB	011H
	DB	0c9H
	DB	011H
	DB	0c9H
	DB	011H
	DB	0c9H
	DB	011H
	DB	0c9H
	DB	011H
	DB	0c9H
	DB	011H
	DB	0c9H
	DB	011H
	DB	0c9H
	DB	011H
	DB	0c9H
	DB	011H
	DB	0c9H
	DB	011H
	DB	0c9H
	DB	011H
	DB	0c9H
	DB	011H
	DB	0c9H
	DB	011H
	DB	0c9H
	DB	011H
	DB	0c9H
	DB	011H
	DB	0c9H
	DB	011H
	DB	0c9H
	DB	011H
	DB	0c9H
	DB	011H
	DB	0a9H
	DB	011H
	DB	0a9H
	DB	011H
	DB	0a9H
	DB	011H
	DB	0a9H
	DB	011H
	DB	0a9H
	DB	011H
	DB	0a9H
	DB	011H
	DB	0a9H
	DB	011H
	DB	0a9H
	DB	011H
	DB	0a8H
	DB	011H
	DB	0a8H
	DB	011H
	DB	0a8H
	DB	011H
	DB	0a8H
	DB	011H
	DB	0a8H
	DB	011H
	DB	0a8H
	DB	011H
	DB	0a8H
	DB	011H
	DB	088H
	DB	011H
	DB	088H
	DB	011H
	DB	088H
	DB	011H
	DB	088H
	DB	011H
	DB	088H
	DB	011H
	DB	088H
	DB	011H
	DB	088H
	DB	011H
	DB	088H
	DB	011H
	DB	088H
	DB	011H
	DB	088H
	DB	011H
	DB	088H
	DB	011H
	DB	088H
	DB	011H
	DB	088H
	DB	011H
	DB	088H
	DB	011H
	DB	088H
	DB	011H
	DB	088H
	DB	011H
	DB	067H
	DB	011H
	DB	067H
	DB	011H
	DB	067H
	DB	011H
	DB	067H
	DB	011H
	DB	067H
	DB	011H
	DB	067H
	DB	011H
	DB	067H
	DB	011H
	DB	067H
	DB	011H
	DB	067H
	DB	011H
	DB	067H
	DB	011H
	DB	067H
	DB	011H
	DB	067H
	DB	011H
	DB	067H
	DB	011H
	DB	067H
	DB	011H
	DB	067H
	DB	011H
	DB	047H
	DB	011H
	DB	047H
	DB	011H
	DB	047H
	DB	011H
	DB	047H
	DB	011H
	DB	047H
	DB	011H
	DB	047H
	DB	011H
	DB	047H
	DB	011H
	DB	047H
	DB	011H
	DB	047H
	DB	09H
	DB	046H
	DB	09H
	DB	046H
	DB	09H
	DB	046H
	DB	09H
	DB	046H
	DB	09H
	DB	046H
	DB	09H
	DB	046H
	DB	09H
	DB	046H
	DB	09H
	DB	026H
	DB	09H
	DB	026H
	DB	09H
	DB	026H
	DB	09H
	DB	026H
	DB	09H
	DB	026H
	DB	09H
	DB	026H
	DB	09H
	DB	026H
	DB	09H
	DB	026H
	DB	09H
	DB	026H
	DB	09H
	DB	026H
	DB	09H
	DB	026H
	DB	09H
	DB	026H
	DB	09H
	DB	026H
	DB	09H
	DB	026H
	DB	09H
	DB	026H
	DB	09H
	DB	06H
	DB	09H
	DB	05H
	DB	09H
	DB	05H
	DB	09H
	DB	05H
	DB	09H
	DB	05H
	DB	09H
	DB	05H
	DB	09H
	DB	05H
	DB	09H
	DB	05H
	DB	09H
	DB	05H
	DB	09H
	DB	05H
	DB	09H
	DB	05H
	DB	09H
	DB	05H
	DB	09H
	DB	05H
	DB	09H
	DB	05H
	DB	09H
	DB	05H
	DB	09H
	DB	05H
	DB	09H
	DB	0e5H
	DB	08H
	DB	0e5H
	DB	08H
	DB	0e5H
	DB	08H
	DB	0e5H
	DB	08H
	DB	0e5H
	DB	08H
	DB	0e5H
	DB	08H
	DB	0e5H
	DB	08H
	DB	0e5H
	DB	08H
	DB	0e4H
	DB	08H
	DB	0e4H
	DB	08H
	DB	0e4H
	DB	08H
	DB	0e4H
	DB	08H
	DB	0e4H
	DB	08H
	DB	0e4H
	DB	08H
	DB	0e4H
	DB	08H
	DB	0e4H
	DB	08H
	DB	0c4H
	DB	08H
	DB	0c4H
	DB	08H
	DB	0c4H
	DB	08H
	DB	0c4H
	DB	08H
	DB	0c4H
	DB	08H
	DB	0c4H
	DB	08H
	DB	0c4H
	DB	08H
	DB	0c4H
	DB	08H
	DB	0c4H
	DB	08H
	DB	0c4H
	DB	08H
	DB	0c4H
	DB	08H
	DB	0c4H
	DB	08H
	DB	0c4H
	DB	08H
	DB	0c4H
	DB	08H
	DB	0c4H
	DB	08H
	DB	0a3H
	DB	08H
	DB	0a3H
	DB	08H
	DB	0a3H
	DB	08H
	DB	0a3H
	DB	00H
	DB	0a3H
	DB	00H
	DB	0a3H
	DB	00H
	DB	0a3H
	DB	00H
	DB	0a3H
	DB	00H
	DB	0a3H
	DB	00H
	DB	0a3H
	DB	00H
	DB	0a3H
	DB	00H
	DB	0a3H
	DB	00H
	DB	0a3H
	DB	00H
	DB	0a3H
	DB	00H
	DB	0a3H
	DB	00H
	DB	0a3H
	DB	00H
	DB	0a3H
	DB	00H
	DB	0a3H
	DB	00H
	DB	0a3H
	DB	00H
	DB	0a3H
	DB	00H
	DB	0a3H
	DB	00H
	DB	0a3H
	DB	00H
	DB	0a3H
	DB	00H
	DB	0a3H
	DB	00H
	DB	0a3H
	DB	00H
	DB	0a3H
	DB	00H
	DB	0a3H
	DB	00H
	DB	0a3H
	DB	00H
	DB	025H
	DB	09H
	DB	026H
	DB	09H
	DB	026H
	DB	09H
	DB	025H
	DB	09H
	DB	026H
	DB	09H
	DB	026H
	DB	09H
	DB	026H
	DB	09H
	DB	026H
	DB	09H
	DB	026H
	DB	09H
	DB	026H
	DB	09H
	DB	026H
	DB	09H
	DB	026H
	DB	09H
	DB	026H
	DB	09H
	DB	026H
	DB	09H
	DB	026H
	DB	09H
	DB	026H
	DB	09H
	DB	026H
	DB	09H
	DB	026H
	DB	09H
	DB	026H
	DB	09H
	DB	026H
	DB	09H
	DB	026H
	DB	09H
	DB	026H
	DB	09H
	DB	026H
	DB	09H
	DB	026H
	DB	09H
	DB	026H
	DB	09H
	DB	026H
	DB	09H
	DB	026H
	DB	09H
	DB	026H
	DB	09H
	DB	026H
	DB	09H
	DB	06H
	DB	09H
	DB	026H
	DB	09H
	DB	026H
	DB	09H
	DB	026H
	DB	09H
	DB	026H
	DB	09H
	DB	026H
	DB	09H
	DB	025H
	DB	09H
	DB	026H
	DB	09H
	DB	026H
	DB	09H
	DB	026H
	DB	09H
	DB	026H
	DB	09H
	DB	025H
	DB	09H
	DB	026H
	DB	09H
	DB	026H
	DB	09H
	DB	026H
	DB	09H
	DB	026H
	DB	09H
	DB	026H
	DB	09H
	DB	026H
	DB	09H
	DB	025H
	DB	09H
	DB	025H
	DB	09H
	DB	025H
	DB	09H
	DB	026H
	DB	09H
	DB	0e4H
	DB	08H
	DB	0e4H
	DB	08H
	DB	0c9H
	DB	011H
	DB	0c9H
	DB	011H
	DB	0c9H
	DB	011H
	DB	0c9H
	DB	011H
	DB	0c9H
	DB	011H
	DB	0c9H
	DB	011H
	DB	0c9H
	DB	011H
	DB	0c9H
	DB	011H
	DB	0c9H
	DB	011H
	DB	0c9H
	DB	011H
	DB	0c9H
	DB	011H
	DB	0c9H
	DB	011H
	DB	0c9H
	DB	011H
	DB	0c9H
	DB	011H
	DB	0c9H
	DB	011H
	DB	0c9H
	DB	011H
	DB	0c9H
	DB	011H
	DB	0c9H
	DB	011H
	DB	0c9H
	DB	011H
	DB	0c9H
	DB	011H
	DB	0c9H
	DB	011H
	DB	0c9H
	DB	011H
	DB	0c9H
	DB	011H
	DB	0c9H
	DB	011H
	DB	0c9H
	DB	011H
	DB	0c9H
	DB	011H
	DB	0c9H
	DB	011H
	DB	0c9H
	DB	011H
	DB	0c9H
	DB	011H
	DB	0c9H
	DB	011H
	DB	0c9H
	DB	011H
	DB	0c9H
	DB	011H
	DB	0c9H
	DB	011H
	DB	0c9H
	DB	011H
	DB	0c9H
	DB	011H
	DB	0a9H
	DB	011H
	DB	0a9H
	DB	011H
	DB	0a9H
	DB	011H
	DB	0a9H
	DB	011H
	DB	0a9H
	DB	011H
	DB	0a9H
	DB	011H
	DB	0a9H
	DB	011H
	DB	0a9H
	DB	011H
	DB	0a8H
	DB	011H
	DB	0a8H
	DB	011H
	DB	0a8H
	DB	011H
	DB	0a8H
	DB	011H
	DB	0a8H
	DB	011H
	DB	0a8H
	DB	011H
	DB	0a8H
	DB	011H
	DB	088H
	DB	011H
	DB	088H
	DB	011H
	DB	088H
	DB	011H
	DB	088H
	DB	011H
	DB	088H
	DB	011H
	DB	088H
	DB	011H
	DB	088H
	DB	011H
	DB	088H
	DB	011H
	DB	088H
	DB	011H
	DB	088H
	DB	011H
	DB	088H
	DB	011H
	DB	088H
	DB	011H
	DB	088H
	DB	011H
	DB	088H
	DB	011H
	DB	088H
	DB	011H
	DB	088H
	DB	011H
	DB	067H
	DB	011H
	DB	067H
	DB	011H
	DB	067H
	DB	011H
	DB	067H
	DB	011H
	DB	067H
	DB	011H
	DB	067H
	DB	011H
	DB	067H
	DB	011H
	DB	067H
	DB	011H
	DB	067H
	DB	011H
	DB	067H
	DB	011H
	DB	067H
	DB	011H
	DB	067H
	DB	011H
	DB	067H
	DB	011H
	DB	067H
	DB	011H
	DB	067H
	DB	011H
	DB	047H
	DB	011H
	DB	047H
	DB	011H
	DB	047H
	DB	011H
	DB	047H
	DB	011H
	DB	047H
	DB	011H
	DB	047H
	DB	011H
	DB	047H
	DB	011H
	DB	047H
	DB	011H
	DB	047H
	DB	09H
	DB	046H
	DB	09H
	DB	046H
	DB	09H
	DB	046H
	DB	09H
	DB	046H
	DB	09H
	DB	046H
	DB	09H
	DB	046H
	DB	09H
	DB	046H
	DB	09H
	DB	026H
	DB	09H
	DB	026H
	DB	09H
	DB	026H
	DB	09H
	DB	026H
	DB	09H
	DB	026H
	DB	09H
	DB	026H
	DB	09H
	DB	026H
	DB	09H
	DB	026H
	DB	09H
	DB	026H
	DB	09H
	DB	026H
	DB	09H
	DB	026H
	DB	09H
	DB	026H
	DB	09H
	DB	026H
	DB	09H
	DB	026H
	DB	09H
	DB	026H
	DB	09H
	DB	06H
	DB	09H
	DB	05H
	DB	09H
	DB	05H
	DB	09H
	DB	05H
	DB	09H
	DB	05H
	DB	09H
	DB	05H
	DB	09H
	DB	05H
	DB	09H
	DB	05H
	DB	09H
	DB	05H
	DB	09H
	DB	05H
	DB	09H
	DB	05H
	DB	09H
	DB	05H
	DB	09H
	DB	05H
	DB	09H
	DB	05H
	DB	09H
	DB	05H
	DB	09H
	DB	05H
	DB	09H
	DB	0e5H
	DB	08H
	DB	0e5H
	DB	08H
	DB	0e5H
	DB	08H
	DB	0e5H
	DB	08H
	DB	0e5H
	DB	08H
	DB	0e5H
	DB	08H
	DB	0e5H
	DB	08H
	DB	0e5H
	DB	08H
	DB	0e4H
	DB	08H
	DB	0e4H
	DB	08H
	DB	0e4H
	DB	08H
	DB	0e4H
	DB	08H
	DB	0e4H
	DB	08H
	DB	0e4H
	DB	08H
	DB	0e4H
	DB	08H
	DB	0e4H
	DB	08H
	DB	0c4H
	DB	08H
	DB	0c4H
	DB	08H
	DB	0c4H
	DB	08H
	DB	0c4H
	DB	08H
	DB	0c4H
	DB	08H
	DB	0c4H
	DB	08H
	DB	0c4H
	DB	08H
	DB	0c4H
	DB	08H
	DB	0c4H
	DB	08H
	DB	0c4H
	DB	08H
	DB	0c4H
	DB	08H
	DB	0c4H
	DB	08H
	DB	0c4H
	DB	08H
	DB	0c4H
	DB	08H
	DB	0c4H
	DB	08H
	DB	0a3H
	DB	08H
	DB	0a3H
	DB	08H
	DB	0a3H
	DB	08H
	DB	0a3H
	DB	00H
	DB	0a3H
	DB	00H
	DB	0a3H
	DB	00H
	DB	0a3H
	DB	00H
	DB	0a3H
	DB	00H
	DB	0a3H
	DB	00H
	DB	0a3H
	DB	00H
	DB	0a3H
	DB	00H
	DB	0a3H
	DB	00H
	DB	0a3H
	DB	00H
	DB	0a3H
	DB	00H
	DB	0a3H
	DB	00H
	DB	0a3H
	DB	00H
	DB	0a3H
	DB	00H
	DB	0a3H
	DB	00H
	DB	0a3H
	DB	00H
	DB	0a3H
	DB	00H
	DB	0a3H
	DB	00H
	DB	0a3H
	DB	00H
	DB	0a3H
	DB	00H
	DB	0a3H
	DB	00H
	DB	0a3H
	DB	00H
	DB	0a3H
	DB	00H
	DB	0a3H
	DB	00H
	DB	0a3H
	DB	00H
	DB	026H
	DB	09H
	DB	026H
	DB	09H
	DB	026H
	DB	09H
	DB	026H
	DB	09H
	DB	026H
	DB	09H
	DB	026H
	DB	09H
	DB	026H
	DB	09H
	DB	026H
	DB	09H
	DB	026H
	DB	09H
	DB	026H
	DB	09H
	DB	026H
	DB	09H
	DB	026H
	DB	09H
	DB	026H
	DB	09H
	DB	026H
	DB	09H
	DB	026H
	DB	09H
	DB	026H
	DB	09H
	DB	026H
	DB	09H
	DB	026H
	DB	09H
	DB	026H
	DB	09H
	DB	026H
	DB	09H
	DB	026H
	DB	09H
	DB	026H
	DB	09H
	DB	026H
	DB	09H
	DB	026H
	DB	09H
	DB	026H
	DB	09H
	DB	026H
	DB	09H
	DB	026H
	DB	09H
	DB	026H
	DB	09H
	DB	026H
	DB	09H
	DB	026H
	DB	09H
	DB	026H
	DB	09H
	DB	026H
	DB	09H
	DB	026H
	DB	09H
	DB	026H
	DB	09H
	DB	026H
	DB	09H
	DB	026H
	DB	09H
	DB	026H
	DB	09H
	DB	026H
	DB	09H
	DB	026H
	DB	09H
	DB	06H
	DB	09H
	DB	026H
	DB	09H
	DB	026H
	DB	09H
	DB	026H
	DB	09H
	DB	026H
	DB	09H
	DB	026H
	DB	09H
	DB	026H
	DB	09H
	DB	026H
	DB	09H
	DB	026H
	DB	09H
	DB	026H
	DB	09H
	DB	026H
	DB	09H
	DB	026H
	DB	09H
	DB	0e4H
	DB	08H
	DB	0e4H
	DB	08H
	DB	0c9H
	DB	011H
	DB	0c9H
	DB	011H
	DB	0c9H
	DB	011H
	DB	0c9H
	DB	011H
	DB	0c9H
	DB	011H
	DB	0c9H
	DB	011H
	DB	0c9H
	DB	011H
	DB	0c9H
	DB	011H
	DB	0c9H
	DB	011H
	DB	0c9H
	DB	011H
	DB	0c9H
	DB	011H
	DB	0c9H
	DB	011H
	DB	0c9H
	DB	011H
	DB	0c9H
	DB	011H
	DB	0c9H
	DB	011H
	DB	0c9H
	DB	011H
	DB	0c9H
	DB	011H
	DB	0c9H
	DB	011H
	DB	0c9H
	DB	011H
	DB	0c9H
	DB	011H
	DB	0c9H
	DB	011H
	DB	0c9H
	DB	011H
	DB	0c9H
	DB	011H
	DB	0c9H
	DB	011H
	DB	0c9H
	DB	011H
	DB	0c9H
	DB	011H
	DB	0c9H
	DB	011H
	DB	0c9H
	DB	011H
	DB	0c9H
	DB	011H
	DB	0c9H
	DB	011H
	DB	0c9H
	DB	011H
	DB	0c9H
	DB	011H
	DB	0c9H
	DB	011H
	DB	0c9H
	DB	011H
	DB	0c9H
	DB	011H
	DB	0a9H
	DB	011H
	DB	0a9H
	DB	011H
	DB	0a9H
	DB	011H
	DB	0a9H
	DB	011H
	DB	0a9H
	DB	011H
	DB	0a9H
	DB	011H
	DB	0a9H
	DB	011H
	DB	0a9H
	DB	011H
	DB	0a8H
	DB	011H
	DB	0a8H
	DB	011H
	DB	0a8H
	DB	011H
	DB	0a8H
	DB	011H
	DB	0a8H
	DB	011H
	DB	0a8H
	DB	011H
	DB	0a8H
	DB	011H
	DB	088H
	DB	011H
	DB	088H
	DB	011H
	DB	088H
	DB	011H
	DB	088H
	DB	011H
	DB	088H
	DB	011H
	DB	088H
	DB	011H
	DB	088H
	DB	011H
	DB	088H
	DB	011H
	DB	088H
	DB	011H
	DB	088H
	DB	011H
	DB	088H
	DB	011H
	DB	088H
	DB	011H
	DB	088H
	DB	011H
	DB	088H
	DB	011H
	DB	088H
	DB	011H
	DB	088H
	DB	011H
	DB	067H
	DB	011H
	DB	067H
	DB	011H
	DB	067H
	DB	011H
	DB	067H
	DB	011H
	DB	067H
	DB	011H
	DB	067H
	DB	011H
	DB	067H
	DB	011H
	DB	067H
	DB	011H
	DB	067H
	DB	011H
	DB	067H
	DB	011H
	DB	067H
	DB	011H
	DB	067H
	DB	011H
	DB	067H
	DB	011H
	DB	067H
	DB	011H
	DB	067H
	DB	011H
	DB	047H
	DB	011H
	DB	047H
	DB	011H
	DB	047H
	DB	011H
	DB	047H
	DB	011H
	DB	047H
	DB	011H
	DB	047H
	DB	011H
	DB	047H
	DB	011H
	DB	047H
	DB	011H
	DB	047H
	DB	09H
	DB	046H
	DB	09H
	DB	046H
	DB	09H
	DB	046H
	DB	09H
	DB	046H
	DB	09H
	DB	046H
	DB	09H
	DB	046H
	DB	09H
	DB	046H
	DB	09H
	DB	026H
	DB	09H
	DB	026H
	DB	09H
	DB	026H
	DB	09H
	DB	026H
	DB	09H
	DB	026H
	DB	09H
	DB	026H
	DB	09H
	DB	026H
	DB	09H
	DB	026H
	DB	09H
	DB	026H
	DB	09H
	DB	026H
	DB	09H
	DB	026H
	DB	09H
	DB	026H
	DB	09H
	DB	026H
	DB	09H
	DB	026H
	DB	09H
	DB	026H
	DB	09H
	DB	06H
	DB	09H
	DB	05H
	DB	09H
	DB	05H
	DB	09H
	DB	05H
	DB	09H
	DB	05H
	DB	09H
	DB	05H
	DB	09H
	DB	05H
	DB	09H
	DB	05H
	DB	09H
	DB	05H
	DB	09H
	DB	05H
	DB	09H
	DB	05H
	DB	09H
	DB	05H
	DB	09H
	DB	05H
	DB	09H
	DB	05H
	DB	09H
	DB	05H
	DB	09H
	DB	05H
	DB	09H
	DB	0e5H
	DB	08H
	DB	0e5H
	DB	08H
	DB	0e5H
	DB	08H
	DB	0e5H
	DB	08H
	DB	0e5H
	DB	08H
	DB	0e5H
	DB	08H
	DB	0e5H
	DB	08H
	DB	0e5H
	DB	08H
	DB	0e4H
	DB	08H
	DB	0e4H
	DB	08H
	DB	0e4H
	DB	08H
	DB	0e4H
	DB	08H
	DB	0e4H
	DB	08H
	DB	0e4H
	DB	08H
	DB	0e4H
	DB	08H
	DB	0e4H
	DB	08H
	DB	0c4H
	DB	08H
	DB	0c4H
	DB	08H
	DB	0c4H
	DB	08H
	DB	0c4H
	DB	08H
	DB	0c4H
	DB	08H
	DB	0c4H
	DB	08H
	DB	0c4H
	DB	08H
	DB	0c4H
	DB	08H
	DB	0c4H
	DB	08H
	DB	0c4H
	DB	08H
	DB	0c4H
	DB	08H
	DB	0c4H
	DB	08H
	DB	0c4H
	DB	08H
	DB	0c4H
	DB	08H
	DB	0c4H
	DB	08H
	DB	0a3H
	DB	08H
	DB	0a3H
	DB	08H
	DB	0a3H
	DB	08H
	DB	0a3H
	DB	00H
	DB	0a3H
	DB	00H
	DB	0a3H
	DB	00H
	DB	0a3H
	DB	00H
	DB	0a3H
	DB	00H
	DB	0a3H
	DB	00H
	DB	0a3H
	DB	00H
	DB	0a3H
	DB	00H
	DB	0a3H
	DB	00H
	DB	0a3H
	DB	00H
	DB	0a3H
	DB	00H
	DB	0a3H
	DB	00H
	DB	0a3H
	DB	00H
	DB	0a3H
	DB	00H
	DB	0a3H
	DB	00H
	DB	0a3H
	DB	00H
	DB	0a3H
	DB	00H
	DB	0a3H
	DB	00H
	DB	0a3H
	DB	00H
	DB	0a3H
	DB	00H
	DB	0a3H
	DB	00H
	DB	0a3H
	DB	00H
	DB	0a3H
	DB	00H
	DB	0a3H
	DB	00H
	DB	0a3H
	DB	00H
	DB	026H
	DB	09H
	DB	026H
	DB	09H
	DB	026H
	DB	09H
	DB	026H
	DB	09H
	DB	026H
	DB	09H
	DB	026H
	DB	09H
	DB	026H
	DB	09H
	DB	026H
	DB	09H
	DB	026H
	DB	09H
	DB	026H
	DB	09H
	DB	026H
	DB	09H
	DB	026H
	DB	09H
	DB	026H
	DB	09H
	DB	026H
	DB	09H
	DB	026H
	DB	09H
	DB	026H
	DB	09H
	DB	026H
	DB	09H
	DB	026H
	DB	09H
	DB	026H
	DB	09H
	DB	026H
	DB	09H
	DB	026H
	DB	09H
	DB	026H
	DB	09H
	DB	026H
	DB	09H
	DB	026H
	DB	09H
	DB	026H
	DB	09H
	DB	026H
	DB	09H
	DB	026H
	DB	09H
	DB	026H
	DB	09H
	DB	026H
	DB	09H
	DB	026H
	DB	09H
	DB	026H
	DB	09H
	DB	026H
	DB	09H
	DB	026H
	DB	09H
	DB	026H
	DB	09H
	DB	026H
	DB	09H
	DB	026H
	DB	09H
	DB	026H
	DB	09H
	DB	026H
	DB	09H
	DB	026H
	DB	09H
	DB	026H
	DB	09H
	DB	026H
	DB	09H
	DB	026H
	DB	09H
	DB	026H
	DB	09H
	DB	026H
	DB	09H
	DB	026H
	DB	09H
	DB	026H
	DB	09H
	DB	026H
	DB	09H
	DB	026H
	DB	09H
	DB	026H
	DB	09H
	DB	026H
	DB	09H
	DB	026H
	DB	09H
	DB	0e4H
	DB	08H
	DB	0e4H
	DB	08H
	DB	0c9H
	DB	011H
	DB	0c9H
	DB	011H
	DB	0c9H
	DB	011H
	DB	0c9H
	DB	011H
	DB	0c9H
	DB	011H
	DB	0c9H
	DB	011H
	DB	0c9H
	DB	011H
	DB	0c9H
	DB	011H
	DB	0c9H
	DB	011H
	DB	0c9H
	DB	011H
	DB	0c9H
	DB	011H
	DB	0c9H
	DB	011H
	DB	0c9H
	DB	011H
	DB	0c9H
	DB	011H
	DB	0c9H
	DB	011H
	DB	0c9H
	DB	011H
	DB	0c9H
	DB	011H
	DB	0c9H
	DB	011H
	DB	0c9H
	DB	011H
	DB	0c9H
	DB	011H
	DB	0c9H
	DB	011H
	DB	0c9H
	DB	011H
	DB	0c9H
	DB	011H
	DB	0c9H
	DB	011H
	DB	0c9H
	DB	011H
	DB	0c9H
	DB	011H
	DB	0c9H
	DB	011H
	DB	0c9H
	DB	011H
	DB	0c9H
	DB	011H
	DB	0c9H
	DB	011H
	DB	0c9H
	DB	011H
	DB	0c9H
	DB	011H
	DB	0c9H
	DB	011H
	DB	0c9H
	DB	011H
	DB	0c9H
	DB	011H
	DB	0a9H
	DB	011H
	DB	0a9H
	DB	011H
	DB	0a9H
	DB	011H
	DB	0a9H
	DB	011H
	DB	0a9H
	DB	011H
	DB	0a9H
	DB	011H
	DB	0a9H
	DB	011H
	DB	0a9H
	DB	011H
	DB	0a8H
	DB	011H
	DB	0a8H
	DB	011H
	DB	0a8H
	DB	011H
	DB	0a8H
	DB	011H
	DB	0a8H
	DB	011H
	DB	0a8H
	DB	011H
	DB	0a8H
	DB	011H
	DB	088H
	DB	011H
	DB	088H
	DB	011H
	DB	088H
	DB	011H
	DB	088H
	DB	011H
	DB	088H
	DB	011H
	DB	088H
	DB	011H
	DB	088H
	DB	011H
	DB	088H
	DB	011H
	DB	088H
	DB	011H
	DB	088H
	DB	011H
	DB	088H
	DB	011H
	DB	088H
	DB	011H
	DB	088H
	DB	011H
	DB	088H
	DB	011H
	DB	088H
	DB	011H
	DB	088H
	DB	011H
	DB	067H
	DB	011H
	DB	067H
	DB	011H
	DB	067H
	DB	011H
	DB	067H
	DB	011H
	DB	067H
	DB	011H
	DB	067H
	DB	011H
	DB	067H
	DB	011H
	DB	067H
	DB	011H
	DB	067H
	DB	011H
	DB	067H
	DB	011H
	DB	067H
	DB	011H
	DB	067H
	DB	011H
	DB	067H
	DB	011H
	DB	067H
	DB	011H
	DB	067H
	DB	011H
	DB	047H
	DB	011H
	DB	047H
	DB	011H
	DB	047H
	DB	011H
	DB	047H
	DB	011H
	DB	047H
	DB	011H
	DB	047H
	DB	011H
	DB	047H
	DB	011H
	DB	047H
	DB	011H
	DB	047H
	DB	09H
	DB	046H
	DB	09H
	DB	046H
	DB	09H
	DB	046H
	DB	09H
	DB	046H
	DB	09H
	DB	046H
	DB	09H
	DB	046H
	DB	09H
	DB	046H
	DB	09H
	DB	026H
	DB	09H
	DB	026H
	DB	09H
	DB	026H
	DB	09H
	DB	026H
	DB	09H
	DB	026H
	DB	09H
	DB	026H
	DB	09H
	DB	026H
	DB	09H
	DB	026H
	DB	09H
	DB	026H
	DB	09H
	DB	026H
	DB	09H
	DB	026H
	DB	09H
	DB	026H
	DB	09H
	DB	026H
	DB	09H
	DB	026H
	DB	09H
	DB	026H
	DB	09H
	DB	06H
	DB	09H
	DB	05H
	DB	09H
	DB	05H
	DB	09H
	DB	05H
	DB	09H
	DB	05H
	DB	09H
	DB	05H
	DB	09H
	DB	05H
	DB	09H
	DB	05H
	DB	09H
	DB	05H
	DB	09H
	DB	05H
	DB	09H
	DB	05H
	DB	09H
	DB	05H
	DB	09H
	DB	05H
	DB	09H
	DB	05H
	DB	09H
	DB	05H
	DB	09H
	DB	05H
	DB	09H
	DB	0e5H
	DB	08H
	DB	0e5H
	DB	08H
	DB	0e5H
	DB	08H
	DB	0e5H
	DB	08H
	DB	0e5H
	DB	08H
	DB	0e5H
	DB	08H
	DB	0e5H
	DB	08H
	DB	0e5H
	DB	08H
	DB	0e4H
	DB	08H
	DB	0e4H
	DB	08H
	DB	0e4H
	DB	08H
	DB	0e4H
	DB	08H
	DB	0e4H
	DB	08H
	DB	0e4H
	DB	08H
	DB	0e4H
	DB	08H
	DB	0e4H
	DB	08H
	DB	0c4H
	DB	08H
	DB	0c4H
	DB	08H
	DB	0c4H
	DB	08H
	DB	0c4H
	DB	08H
	DB	0c4H
	DB	08H
	DB	0c4H
	DB	08H
	DB	0c4H
	DB	08H
	DB	0c4H
	DB	08H
	DB	0c4H
	DB	08H
	DB	0c4H
	DB	08H
	DB	0c4H
	DB	08H
	DB	0c4H
	DB	08H
	DB	0c4H
	DB	08H
	DB	0c4H
	DB	08H
	DB	0c4H
	DB	08H
	DB	0a3H
	DB	08H
	DB	0a3H
	DB	08H
	DB	0a3H
	DB	08H
	DB	0a3H
	DB	00H
	DB	0a3H
	DB	00H
	DB	0a3H
	DB	00H
	DB	0a3H
	DB	00H
	DB	0a3H
	DB	00H
	DB	0a3H
	DB	00H
	DB	0a3H
	DB	00H
	DB	0a3H
	DB	00H
	DB	0a3H
	DB	00H
	DB	0a3H
	DB	00H
	DB	0a3H
	DB	00H
	DB	0a3H
	DB	00H
	DB	0a3H
	DB	00H
	DB	0a3H
	DB	00H
	DB	0a3H
	DB	00H
	DB	0a3H
	DB	00H
	DB	0a3H
	DB	00H
	DB	0a3H
	DB	00H
	DB	0a3H
	DB	00H
	DB	0a3H
	DB	00H
	DB	0a3H
	DB	00H
	DB	0a3H
	DB	00H
	DB	0a3H
	DB	00H
	DB	0a3H
	DB	00H
	DB	0a3H
	DB	00H
	DB	026H
	DB	09H
	DB	026H
	DB	09H
	DB	026H
	DB	09H
	DB	026H
	DB	09H
	DB	026H
	DB	09H
	DB	026H
	DB	09H
	DB	026H
	DB	09H
	DB	026H
	DB	09H
	DB	026H
	DB	09H
	DB	026H
	DB	09H
	DB	026H
	DB	09H
	DB	026H
	DB	09H
	DB	026H
	DB	09H
	DB	026H
	DB	09H
	DB	026H
	DB	09H
	DB	026H
	DB	09H
	DB	026H
	DB	09H
	DB	026H
	DB	09H
	DB	026H
	DB	09H
	DB	026H
	DB	09H
	DB	026H
	DB	09H
	DB	026H
	DB	09H
	DB	026H
	DB	09H
	DB	026H
	DB	09H
	DB	026H
	DB	09H
	DB	026H
	DB	09H
	DB	026H
	DB	09H
	DB	026H
	DB	09H
	DB	026H
	DB	09H
	DB	026H
	DB	09H
	DB	026H
	DB	09H
	DB	026H
	DB	09H
	DB	026H
	DB	09H
	DB	026H
	DB	09H
	DB	026H
	DB	09H
	DB	026H
	DB	09H
	DB	026H
	DB	09H
	DB	026H
	DB	09H
	DB	026H
	DB	09H
	DB	026H
	DB	09H
	DB	026H
	DB	09H
	DB	026H
	DB	09H
	DB	026H
	DB	09H
	DB	026H
	DB	09H
	DB	026H
	DB	09H
	DB	026H
	DB	09H
	DB	026H
	DB	09H
	DB	026H
	DB	09H
	DB	026H
	DB	09H
	DB	026H
	DB	09H
	DB	026H
	DB	09H
	DB	0e4H
	DB	08H
	DB	0e4H
	DB	08H
	DB	0c9H
	DB	011H
	DB	0c9H
	DB	011H
	DB	0c9H
	DB	011H
	DB	0c9H
	DB	011H
	DB	0c9H
	DB	011H
	DB	0c9H
	DB	011H
	DB	0c9H
	DB	011H
	DB	0c9H
	DB	011H
	DB	0c9H
	DB	011H
	DB	0c9H
	DB	011H
	DB	0c9H
	DB	011H
	DB	0c9H
	DB	011H
	DB	0c9H
	DB	011H
	DB	0c9H
	DB	011H
	DB	0c9H
	DB	011H
	DB	0c9H
	DB	011H
	DB	0c9H
	DB	011H
	DB	0c9H
	DB	011H
	DB	0c9H
	DB	011H
	DB	0c9H
	DB	011H
	DB	0c9H
	DB	011H
	DB	0c9H
	DB	011H
	DB	0c9H
	DB	011H
	DB	0c9H
	DB	011H
	DB	0c9H
	DB	011H
	DB	0c9H
	DB	011H
	DB	0c9H
	DB	011H
	DB	0c9H
	DB	011H
	DB	0c9H
	DB	011H
	DB	0c9H
	DB	011H
	DB	0c9H
	DB	011H
	DB	0c9H
	DB	011H
	DB	0c9H
	DB	011H
	DB	0c9H
	DB	011H
	DB	0c9H
	DB	011H
	DB	0a9H
	DB	011H
	DB	0a9H
	DB	011H
	DB	0a9H
	DB	011H
	DB	0a9H
	DB	011H
	DB	0a9H
	DB	011H
	DB	0a9H
	DB	011H
	DB	0a9H
	DB	011H
	DB	0a9H
	DB	011H
	DB	0a8H
	DB	011H
	DB	0a8H
	DB	011H
	DB	0a8H
	DB	011H
	DB	0a8H
	DB	011H
	DB	0a8H
	DB	011H
	DB	0a8H
	DB	011H
	DB	0a8H
	DB	011H
	DB	088H
	DB	011H
	DB	088H
	DB	011H
	DB	088H
	DB	011H
	DB	088H
	DB	011H
	DB	088H
	DB	011H
	DB	088H
	DB	011H
	DB	088H
	DB	011H
	DB	088H
	DB	011H
	DB	088H
	DB	011H
	DB	088H
	DB	011H
	DB	088H
	DB	011H
	DB	088H
	DB	011H
	DB	088H
	DB	011H
	DB	088H
	DB	011H
	DB	088H
	DB	011H
	DB	088H
	DB	011H
	DB	067H
	DB	011H
	DB	067H
	DB	011H
	DB	067H
	DB	011H
	DB	067H
	DB	011H
	DB	067H
	DB	011H
	DB	067H
	DB	011H
	DB	067H
	DB	011H
	DB	067H
	DB	011H
	DB	067H
	DB	011H
	DB	067H
	DB	011H
	DB	067H
	DB	011H
	DB	067H
	DB	011H
	DB	067H
	DB	011H
	DB	067H
	DB	011H
	DB	067H
	DB	011H
	DB	047H
	DB	011H
	DB	047H
	DB	011H
	DB	047H
	DB	011H
	DB	047H
	DB	011H
	DB	047H
	DB	011H
	DB	047H
	DB	011H
	DB	047H
	DB	011H
	DB	047H
	DB	011H
	DB	047H
	DB	09H
	DB	046H
	DB	09H
	DB	046H
	DB	09H
	DB	046H
	DB	09H
	DB	046H
	DB	09H
	DB	046H
	DB	09H
	DB	046H
	DB	09H
	DB	046H
	DB	09H
	DB	026H
	DB	09H
	DB	026H
	DB	09H
	DB	026H
	DB	09H
	DB	026H
	DB	09H
	DB	026H
	DB	09H
	DB	026H
	DB	09H
	DB	026H
	DB	09H
	DB	026H
	DB	09H
	DB	026H
	DB	09H
	DB	026H
	DB	09H
	DB	026H
	DB	09H
	DB	026H
	DB	09H
	DB	026H
	DB	09H
	DB	026H
	DB	09H
	DB	026H
	DB	09H
	DB	06H
	DB	09H
	DB	05H
	DB	09H
	DB	05H
	DB	09H
	DB	05H
	DB	09H
	DB	05H
	DB	09H
	DB	05H
	DB	09H
	DB	05H
	DB	09H
	DB	05H
	DB	09H
	DB	05H
	DB	09H
	DB	05H
	DB	09H
	DB	05H
	DB	09H
	DB	05H
	DB	09H
	DB	05H
	DB	09H
	DB	05H
	DB	09H
	DB	05H
	DB	09H
	DB	05H
	DB	09H
	DB	0e5H
	DB	08H
	DB	0e5H
	DB	08H
	DB	0e5H
	DB	08H
	DB	0e5H
	DB	08H
	DB	0e5H
	DB	08H
	DB	0e5H
	DB	08H
	DB	0e5H
	DB	08H
	DB	0e5H
	DB	08H
	DB	0e4H
	DB	08H
	DB	0e4H
	DB	08H
	DB	0e4H
	DB	08H
	DB	0e4H
	DB	08H
	DB	0e4H
	DB	08H
	DB	0e4H
	DB	08H
	DB	0e4H
	DB	08H
	DB	0e4H
	DB	08H
	DB	0c4H
	DB	08H
	DB	0c4H
	DB	08H
	DB	0c4H
	DB	08H
	DB	0c4H
	DB	08H
	DB	0c4H
	DB	08H
	DB	0c4H
	DB	08H
	DB	0c4H
	DB	08H
	DB	0c4H
	DB	08H
	DB	0c4H
	DB	08H
	DB	0c4H
	DB	08H
	DB	0c4H
	DB	08H
	DB	0c4H
	DB	08H
	DB	0c4H
	DB	08H
	DB	0c4H
	DB	08H
	DB	0c4H
	DB	08H
	DB	0a3H
	DB	08H
	DB	0a3H
	DB	08H
	DB	0a3H
	DB	08H
	DB	0a3H
	DB	00H
	DB	0a3H
	DB	00H
	DB	0a3H
	DB	00H
	DB	0a3H
	DB	00H
	DB	0a3H
	DB	00H
	DB	0a3H
	DB	00H
	DB	0a3H
	DB	00H
	DB	0a3H
	DB	00H
	DB	0a3H
	DB	00H
	DB	0a3H
	DB	00H
	DB	0a3H
	DB	00H
	DB	0a3H
	DB	00H
	DB	0a3H
	DB	00H
	DB	0a3H
	DB	00H
	DB	0a3H
	DB	00H
	DB	0a3H
	DB	00H
	DB	0a3H
	DB	00H
	DB	0a3H
	DB	00H
	DB	0a3H
	DB	00H
	DB	0a3H
	DB	00H
	DB	0a3H
	DB	00H
	DB	0a3H
	DB	00H
	DB	0a3H
	DB	00H
	DB	0a3H
	DB	00H
	DB	0a3H
	DB	00H
	DB	026H
	DB	09H
	DB	026H
	DB	09H
	DB	026H
	DB	09H
	DB	026H
	DB	09H
	DB	026H
	DB	09H
	DB	026H
	DB	09H
	DB	026H
	DB	09H
	DB	026H
	DB	09H
	DB	026H
	DB	09H
	DB	026H
	DB	09H
	DB	026H
	DB	09H
	DB	026H
	DB	09H
	DB	026H
	DB	09H
	DB	026H
	DB	09H
	DB	026H
	DB	09H
	DB	026H
	DB	09H
	DB	026H
	DB	09H
	DB	026H
	DB	09H
	DB	026H
	DB	09H
	DB	026H
	DB	09H
	DB	026H
	DB	09H
	DB	026H
	DB	09H
	DB	026H
	DB	09H
	DB	026H
	DB	09H
	DB	026H
	DB	09H
	DB	026H
	DB	09H
	DB	026H
	DB	09H
	DB	026H
	DB	09H
	DB	026H
	DB	09H
	DB	026H
	DB	09H
	DB	026H
	DB	09H
	DB	026H
	DB	09H
	DB	026H
	DB	09H
	DB	026H
	DB	09H
	DB	026H
	DB	09H
	DB	026H
	DB	09H
	DB	026H
	DB	09H
	DB	026H
	DB	09H
	DB	026H
	DB	09H
	DB	026H
	DB	09H
	DB	026H
	DB	09H
	DB	026H
	DB	09H
	DB	026H
	DB	09H
	DB	026H
	DB	09H
	DB	026H
	DB	09H
	DB	026H
	DB	09H
	DB	026H
	DB	09H
	DB	026H
	DB	09H
	DB	026H
	DB	09H
	DB	026H
	DB	09H
	DB	026H
	DB	09H
	DB	0e4H
	DB	08H
	DB	0e4H
	DB	08H
	DB	0c9H
	DB	011H
	DB	0c9H
	DB	011H
	DB	0c9H
	DB	011H
	DB	0c9H
	DB	011H
	DB	0c9H
	DB	011H
	DB	0c9H
	DB	011H
	DB	0c9H
	DB	011H
	DB	0c9H
	DB	011H
	DB	0c9H
	DB	011H
	DB	0c9H
	DB	011H
	DB	0c9H
	DB	011H
	DB	0c9H
	DB	011H
	DB	0c9H
	DB	011H
	DB	0c9H
	DB	011H
	DB	0c9H
	DB	011H
	DB	0c9H
	DB	011H
	DB	0c9H
	DB	011H
	DB	0c9H
	DB	011H
	DB	0c9H
	DB	011H
	DB	0c9H
	DB	011H
	DB	0c9H
	DB	011H
	DB	0c9H
	DB	011H
	DB	0c9H
	DB	011H
	DB	0c9H
	DB	011H
	DB	0c9H
	DB	011H
	DB	0c9H
	DB	011H
	DB	0c9H
	DB	011H
	DB	0c9H
	DB	011H
	DB	0c9H
	DB	011H
	DB	0c9H
	DB	011H
	DB	0c9H
	DB	011H
	DB	0c9H
	DB	011H
	DB	0c9H
	DB	011H
	DB	0c9H
	DB	011H
	DB	0c9H
	DB	011H
	DB	0a9H
	DB	011H
	DB	0a9H
	DB	011H
	DB	0a9H
	DB	011H
	DB	0a9H
	DB	011H
	DB	0a9H
	DB	011H
	DB	0a9H
	DB	011H
	DB	0a9H
	DB	011H
	DB	0a9H
	DB	011H
	DB	0a8H
	DB	011H
	DB	0a8H
	DB	011H
	DB	0a8H
	DB	011H
	DB	0a8H
	DB	011H
	DB	0a8H
	DB	011H
	DB	0a8H
	DB	011H
	DB	0a8H
	DB	011H
	DB	088H
	DB	011H
	DB	088H
	DB	011H
	DB	088H
	DB	011H
	DB	088H
	DB	011H
	DB	088H
	DB	011H
	DB	088H
	DB	011H
	DB	088H
	DB	011H
	DB	088H
	DB	011H
	DB	088H
	DB	011H
	DB	088H
	DB	011H
	DB	088H
	DB	011H
	DB	088H
	DB	011H
	DB	088H
	DB	011H
	DB	088H
	DB	011H
	DB	088H
	DB	011H
	DB	088H
	DB	011H
	DB	067H
	DB	011H
	DB	067H
	DB	011H
	DB	067H
	DB	011H
	DB	067H
	DB	011H
	DB	067H
	DB	011H
	DB	067H
	DB	011H
	DB	067H
	DB	011H
	DB	067H
	DB	011H
	DB	067H
	DB	011H
	DB	067H
	DB	011H
	DB	067H
	DB	011H
	DB	067H
	DB	011H
	DB	067H
	DB	011H
	DB	067H
	DB	011H
	DB	067H
	DB	011H
	DB	047H
	DB	011H
	DB	047H
	DB	011H
	DB	047H
	DB	011H
	DB	047H
	DB	011H
	DB	047H
	DB	011H
	DB	047H
	DB	011H
	DB	047H
	DB	011H
	DB	047H
	DB	011H
	DB	047H
	DB	09H
	DB	046H
	DB	09H
	DB	046H
	DB	09H
	DB	046H
	DB	09H
	DB	046H
	DB	09H
	DB	046H
	DB	09H
	DB	046H
	DB	09H
	DB	046H
	DB	09H
	DB	026H
	DB	09H
	DB	026H
	DB	09H
	DB	026H
	DB	09H
	DB	026H
	DB	09H
	DB	026H
	DB	09H
	DB	026H
	DB	09H
	DB	026H
	DB	09H
	DB	026H
	DB	09H
	DB	026H
	DB	09H
	DB	026H
	DB	09H
	DB	026H
	DB	09H
	DB	026H
	DB	09H
	DB	026H
	DB	09H
	DB	026H
	DB	09H
	DB	026H
	DB	09H
	DB	06H
	DB	09H
	DB	05H
	DB	09H
	DB	05H
	DB	09H
	DB	05H
	DB	09H
	DB	05H
	DB	09H
	DB	05H
	DB	09H
	DB	05H
	DB	09H
	DB	05H
	DB	09H
	DB	05H
	DB	09H
	DB	05H
	DB	09H
	DB	05H
	DB	09H
	DB	05H
	DB	09H
	DB	05H
	DB	09H
	DB	05H
	DB	09H
	DB	05H
	DB	09H
	DB	05H
	DB	09H
	DB	0e5H
	DB	08H
	DB	0e5H
	DB	08H
	DB	0e5H
	DB	08H
	DB	0e5H
	DB	08H
	DB	0e5H
	DB	08H
	DB	0e5H
	DB	08H
	DB	0e5H
	DB	08H
	DB	0e5H
	DB	08H
	DB	0e4H
	DB	08H
	DB	0e4H
	DB	08H
	DB	0e4H
	DB	08H
	DB	0e4H
	DB	08H
	DB	0e4H
	DB	08H
	DB	0e4H
	DB	08H
	DB	0e4H
	DB	08H
	DB	0e4H
	DB	08H
	DB	0c4H
	DB	08H
	DB	0c4H
	DB	08H
	DB	0c4H
	DB	08H
	DB	0c4H
	DB	08H
	DB	0c4H
	DB	08H
	DB	0c4H
	DB	08H
	DB	0c4H
	DB	08H
	DB	0c4H
	DB	08H
	DB	0c4H
	DB	08H
	DB	0c4H
	DB	08H
	DB	0c4H
	DB	08H
	DB	0c4H
	DB	08H
	DB	0c4H
	DB	08H
	DB	0c4H
	DB	08H
	DB	0c4H
	DB	08H
	DB	0a3H
	DB	08H
	DB	0a3H
	DB	08H
	DB	0a3H
	DB	08H
	DB	0a3H
	DB	00H
	DB	0a3H
	DB	00H
	DB	0a3H
	DB	00H
	DB	0a3H
	DB	00H
	DB	0a3H
	DB	00H
	DB	0a3H
	DB	00H
	DB	0a3H
	DB	00H
	DB	0a3H
	DB	00H
	DB	0a3H
	DB	00H
	DB	0a3H
	DB	00H
	DB	0a3H
	DB	00H
	DB	0a3H
	DB	00H
	DB	0a3H
	DB	00H
	DB	0a3H
	DB	00H
	DB	0a3H
	DB	00H
	DB	0a3H
	DB	00H
	DB	0a3H
	DB	00H
	DB	0a3H
	DB	00H
	DB	0a3H
	DB	00H
	DB	0a3H
	DB	00H
	DB	0a3H
	DB	00H
	DB	0a3H
	DB	00H
	DB	0a3H
	DB	00H
	DB	0a3H
	DB	00H
	DB	0a3H
	DB	00H
	DB	026H
	DB	09H
	DB	026H
	DB	09H
	DB	026H
	DB	09H
	DB	026H
	DB	09H
	DB	026H
	DB	09H
	DB	026H
	DB	09H
	DB	026H
	DB	09H
	DB	026H
	DB	09H
	DB	026H
	DB	09H
	DB	026H
	DB	09H
	DB	026H
	DB	09H
	DB	026H
	DB	09H
	DB	026H
	DB	09H
	DB	026H
	DB	09H
	DB	026H
	DB	09H
	DB	026H
	DB	09H
	DB	026H
	DB	09H
	DB	026H
	DB	09H
	DB	026H
	DB	09H
	DB	026H
	DB	09H
	DB	026H
	DB	09H
	DB	026H
	DB	09H
	DB	026H
	DB	09H
	DB	026H
	DB	09H
	DB	026H
	DB	09H
	DB	026H
	DB	09H
	DB	026H
	DB	09H
	DB	026H
	DB	09H
	DB	026H
	DB	09H
	DB	026H
	DB	09H
	DB	026H
	DB	09H
	DB	026H
	DB	09H
	DB	026H
	DB	09H
	DB	026H
	DB	09H
	DB	026H
	DB	09H
	DB	026H
	DB	09H
	DB	026H
	DB	09H
	DB	026H
	DB	09H
	DB	026H
	DB	09H
	DB	026H
	DB	09H
	DB	026H
	DB	09H
	DB	026H
	DB	09H
	DB	026H
	DB	09H
	DB	026H
	DB	09H
	DB	026H
	DB	09H
	DB	026H
	DB	09H
	DB	026H
	DB	09H
	DB	026H
	DB	09H
	DB	026H
	DB	09H
	DB	026H
	DB	09H
	DB	026H
	DB	09H
	DB	0e4H
	DB	08H
	DB	0e4H
	DB	08H
	DB	0c9H
	DB	011H
	DB	0c9H
	DB	011H
	DB	0c9H
	DB	011H
	DB	0c9H
	DB	011H
	DB	0c9H
	DB	011H
	DB	0c9H
	DB	011H
	DB	0c9H
	DB	011H
	DB	0c9H
	DB	011H
	DB	0c9H
	DB	011H
	DB	0c9H
	DB	011H
	DB	0c9H
	DB	011H
	DB	0c9H
	DB	011H
	DB	0c9H
	DB	011H
	DB	0c9H
	DB	011H
	DB	0c9H
	DB	011H
	DB	0c9H
	DB	011H
	DB	0c9H
	DB	011H
	DB	0c9H
	DB	011H
	DB	0c9H
	DB	011H
	DB	0c9H
	DB	011H
	DB	0c9H
	DB	011H
	DB	0c9H
	DB	011H
	DB	0c9H
	DB	011H
	DB	0c9H
	DB	011H
	DB	0c9H
	DB	011H
	DB	0c9H
	DB	011H
	DB	0c9H
	DB	011H
	DB	0c9H
	DB	011H
	DB	0c9H
	DB	011H
	DB	0c9H
	DB	011H
	DB	0c9H
	DB	011H
	DB	0c9H
	DB	011H
	DB	0c9H
	DB	011H
	DB	0c9H
	DB	011H
	DB	0c9H
	DB	011H
	DB	0a9H
	DB	011H
	DB	0a9H
	DB	011H
	DB	0a9H
	DB	011H
	DB	0a9H
	DB	011H
	DB	0a9H
	DB	011H
	DB	0a9H
	DB	011H
	DB	0a9H
	DB	011H
	DB	0a9H
	DB	011H
	DB	0a8H
	DB	011H
	DB	0a8H
	DB	011H
	DB	0a8H
	DB	011H
	DB	0a8H
	DB	011H
	DB	0a8H
	DB	011H
	DB	0a8H
	DB	011H
	DB	0a8H
	DB	011H
	DB	088H
	DB	011H
	DB	088H
	DB	011H
	DB	088H
	DB	011H
	DB	088H
	DB	011H
	DB	088H
	DB	011H
	DB	088H
	DB	011H
	DB	088H
	DB	011H
	DB	088H
	DB	011H
	DB	088H
	DB	011H
	DB	088H
	DB	011H
	DB	088H
	DB	011H
	DB	088H
	DB	011H
	DB	088H
	DB	011H
	DB	088H
	DB	011H
	DB	088H
	DB	011H
	DB	088H
	DB	011H
	DB	067H
	DB	011H
	DB	067H
	DB	011H
	DB	067H
	DB	011H
	DB	067H
	DB	011H
	DB	067H
	DB	011H
	DB	067H
	DB	011H
	DB	067H
	DB	011H
	DB	067H
	DB	011H
	DB	067H
	DB	011H
	DB	067H
	DB	011H
	DB	067H
	DB	011H
	DB	067H
	DB	011H
	DB	067H
	DB	011H
	DB	067H
	DB	011H
	DB	067H
	DB	011H
	DB	047H
	DB	011H
	DB	047H
	DB	011H
	DB	047H
	DB	011H
	DB	047H
	DB	011H
	DB	047H
	DB	011H
	DB	047H
	DB	011H
	DB	047H
	DB	011H
	DB	047H
	DB	011H
	DB	047H
	DB	09H
	DB	046H
	DB	09H
	DB	046H
	DB	09H
	DB	046H
	DB	09H
	DB	046H
	DB	09H
	DB	046H
	DB	09H
	DB	046H
	DB	09H
	DB	046H
	DB	09H
	DB	026H
	DB	09H
	DB	026H
	DB	09H
	DB	026H
	DB	09H
	DB	026H
	DB	09H
	DB	026H
	DB	09H
	DB	026H
	DB	09H
	DB	026H
	DB	09H
	DB	026H
	DB	09H
	DB	026H
	DB	09H
	DB	026H
	DB	09H
	DB	026H
	DB	09H
	DB	026H
	DB	09H
	DB	026H
	DB	09H
	DB	026H
	DB	09H
	DB	026H
	DB	09H
	DB	06H
	DB	09H
	DB	05H
	DB	09H
	DB	05H
	DB	09H
	DB	05H
	DB	09H
	DB	05H
	DB	09H
	DB	05H
	DB	09H
	DB	05H
	DB	09H
	DB	05H
	DB	09H
	DB	05H
	DB	09H
	DB	05H
	DB	09H
	DB	05H
	DB	09H
	DB	05H
	DB	09H
	DB	05H
	DB	09H
	DB	05H
	DB	09H
	DB	05H
	DB	09H
	DB	05H
	DB	09H
	DB	0e5H
	DB	08H
	DB	0e5H
	DB	08H
	DB	0e5H
	DB	08H
	DB	0e5H
	DB	08H
	DB	0e5H
	DB	08H
	DB	0e5H
	DB	08H
	DB	0e5H
	DB	08H
	DB	0e5H
	DB	08H
	DB	0e4H
	DB	08H
	DB	0e4H
	DB	08H
	DB	0e4H
	DB	08H
	DB	0e4H
	DB	08H
	DB	0e4H
	DB	08H
	DB	0e4H
	DB	08H
	DB	0e4H
	DB	08H
	DB	0e4H
	DB	08H
	DB	0c4H
	DB	08H
	DB	0c4H
	DB	08H
	DB	0c4H
	DB	08H
	DB	0c4H
	DB	08H
	DB	0c4H
	DB	08H
	DB	0c4H
	DB	08H
	DB	0c4H
	DB	08H
	DB	0c4H
	DB	08H
	DB	0c4H
	DB	08H
	DB	0c4H
	DB	08H
	DB	0c4H
	DB	08H
	DB	0c4H
	DB	08H
	DB	0c4H
	DB	08H
	DB	0c4H
	DB	08H
	DB	0c4H
	DB	08H
	DB	0a3H
	DB	08H
	DB	0a3H
	DB	08H
	DB	0a3H
	DB	08H
	DB	0a3H
	DB	00H
	DB	0a3H
	DB	00H
	DB	0a3H
	DB	00H
	DB	0a3H
	DB	00H
	DB	0a3H
	DB	00H
	DB	0a3H
	DB	00H
	DB	0a3H
	DB	00H
	DB	0a3H
	DB	00H
	DB	0a3H
	DB	00H
	DB	0a3H
	DB	00H
	DB	0a3H
	DB	00H
	DB	0a3H
	DB	00H
	DB	0a3H
	DB	00H
	DB	0a3H
	DB	00H
	DB	0a3H
	DB	00H
	DB	0a3H
	DB	00H
	DB	0a3H
	DB	00H
	DB	0a3H
	DB	00H
	DB	0a3H
	DB	00H
	DB	0a3H
	DB	00H
	DB	0a3H
	DB	00H
	DB	0a3H
	DB	00H
	DB	0a3H
	DB	00H
	DB	0a3H
	DB	00H
	DB	0a3H
	DB	00H
	DB	026H
	DB	09H
	DB	026H
	DB	09H
	DB	026H
	DB	09H
	DB	026H
	DB	09H
	DB	026H
	DB	09H
	DB	026H
	DB	09H
	DB	026H
	DB	09H
	DB	026H
	DB	09H
	DB	026H
	DB	09H
	DB	026H
	DB	09H
	DB	026H
	DB	09H
	DB	026H
	DB	09H
	DB	026H
	DB	09H
	DB	026H
	DB	09H
	DB	026H
	DB	09H
	DB	026H
	DB	09H
	DB	026H
	DB	09H
	DB	026H
	DB	09H
	DB	026H
	DB	09H
	DB	026H
	DB	09H
	DB	026H
	DB	09H
	DB	026H
	DB	09H
	DB	026H
	DB	09H
	DB	026H
	DB	09H
	DB	026H
	DB	09H
	DB	026H
	DB	09H
	DB	026H
	DB	09H
	DB	026H
	DB	09H
	DB	026H
	DB	09H
	DB	026H
	DB	09H
	DB	026H
	DB	09H
	DB	026H
	DB	09H
	DB	026H
	DB	09H
	DB	026H
	DB	09H
	DB	026H
	DB	09H
	DB	026H
	DB	09H
	DB	026H
	DB	09H
	DB	026H
	DB	09H
	DB	026H
	DB	09H
	DB	026H
	DB	09H
	DB	026H
	DB	09H
	DB	026H
	DB	09H
	DB	026H
	DB	09H
	DB	026H
	DB	09H
	DB	026H
	DB	09H
	DB	026H
	DB	09H
	DB	026H
	DB	09H
	DB	026H
	DB	09H
	DB	026H
	DB	09H
	DB	026H
	DB	09H
	DB	026H
	DB	09H
	DB	0e4H
	DB	08H
	DB	0e4H
	DB	08H
	DB	0c9H
	DB	011H
	DB	0c9H
	DB	011H
	DB	0c9H
	DB	011H
	DB	0c9H
	DB	011H
	DB	0c9H
	DB	011H
	DB	0c9H
	DB	011H
	DB	0c9H
	DB	011H
	DB	0c9H
	DB	011H
	DB	0c9H
	DB	011H
	DB	0c9H
	DB	011H
	DB	0c9H
	DB	011H
	DB	0c9H
	DB	011H
	DB	0c9H
	DB	011H
	DB	0c9H
	DB	011H
	DB	0c9H
	DB	011H
	DB	0c9H
	DB	011H
	DB	0c9H
	DB	011H
	DB	0c9H
	DB	011H
	DB	0c9H
	DB	011H
	DB	0c9H
	DB	011H
	DB	0c9H
	DB	011H
	DB	0c9H
	DB	011H
	DB	0c9H
	DB	011H
	DB	0c9H
	DB	011H
	DB	0c9H
	DB	011H
	DB	0c9H
	DB	011H
	DB	0c9H
	DB	011H
	DB	0c9H
	DB	011H
	DB	0c9H
	DB	011H
	DB	0c9H
	DB	011H
	DB	0c9H
	DB	011H
	DB	0c9H
	DB	011H
	DB	0c9H
	DB	011H
	DB	0c9H
	DB	011H
	DB	0c9H
	DB	011H
	DB	0a9H
	DB	011H
	DB	0a9H
	DB	011H
	DB	0a9H
	DB	011H
	DB	0a9H
	DB	011H
	DB	0a9H
	DB	011H
	DB	0a9H
	DB	011H
	DB	0a9H
	DB	011H
	DB	0a9H
	DB	011H
	DB	0a8H
	DB	011H
	DB	0a8H
	DB	011H
	DB	0a8H
	DB	011H
	DB	0a8H
	DB	011H
	DB	0a8H
	DB	011H
	DB	0a8H
	DB	011H
	DB	0a8H
	DB	011H
	DB	088H
	DB	011H
	DB	088H
	DB	011H
	DB	088H
	DB	011H
	DB	088H
	DB	011H
	DB	088H
	DB	011H
	DB	088H
	DB	011H
	DB	088H
	DB	011H
	DB	088H
	DB	011H
	DB	088H
	DB	011H
	DB	088H
	DB	011H
	DB	088H
	DB	011H
	DB	088H
	DB	011H
	DB	088H
	DB	011H
	DB	088H
	DB	011H
	DB	088H
	DB	011H
	DB	088H
	DB	011H
	DB	067H
	DB	011H
	DB	067H
	DB	011H
	DB	067H
	DB	011H
	DB	067H
	DB	011H
	DB	067H
	DB	011H
	DB	067H
	DB	011H
	DB	067H
	DB	011H
	DB	067H
	DB	011H
	DB	067H
	DB	011H
	DB	067H
	DB	011H
	DB	067H
	DB	011H
	DB	067H
	DB	011H
	DB	067H
	DB	011H
	DB	067H
	DB	011H
	DB	067H
	DB	011H
	DB	047H
	DB	011H
	DB	047H
	DB	011H
	DB	047H
	DB	011H
	DB	047H
	DB	011H
	DB	047H
	DB	011H
	DB	047H
	DB	011H
	DB	047H
	DB	011H
	DB	047H
	DB	011H
	DB	047H
	DB	09H
	DB	046H
	DB	09H
	DB	046H
	DB	09H
	DB	046H
	DB	09H
	DB	046H
	DB	09H
	DB	046H
	DB	09H
	DB	046H
	DB	09H
	DB	046H
	DB	09H
	DB	026H
	DB	09H
	DB	026H
	DB	09H
	DB	026H
	DB	09H
	DB	026H
	DB	09H
	DB	026H
	DB	09H
	DB	026H
	DB	09H
	DB	026H
	DB	09H
	DB	026H
	DB	09H
	DB	026H
	DB	09H
	DB	026H
	DB	09H
	DB	026H
	DB	09H
	DB	026H
	DB	09H
	DB	026H
	DB	09H
	DB	026H
	DB	09H
	DB	026H
	DB	09H
	DB	06H
	DB	09H
	DB	05H
	DB	09H
	DB	05H
	DB	09H
	DB	05H
	DB	09H
	DB	05H
	DB	09H
	DB	05H
	DB	09H
	DB	05H
	DB	09H
	DB	05H
	DB	09H
	DB	05H
	DB	09H
	DB	05H
	DB	09H
	DB	05H
	DB	09H
	DB	05H
	DB	09H
	DB	05H
	DB	09H
	DB	05H
	DB	09H
	DB	05H
	DB	09H
	DB	05H
	DB	09H
	DB	0e5H
	DB	08H
	DB	0e5H
	DB	08H
	DB	0e5H
	DB	08H
	DB	0e5H
	DB	08H
	DB	0e5H
	DB	08H
	DB	0e5H
	DB	08H
	DB	0e5H
	DB	08H
	DB	0e5H
	DB	08H
	DB	0e4H
	DB	08H
	DB	0e4H
	DB	08H
	DB	0e4H
	DB	08H
	DB	0e4H
	DB	08H
	DB	0e4H
	DB	08H
	DB	0e4H
	DB	08H
	DB	0e4H
	DB	08H
	DB	0e4H
	DB	08H
	DB	0c4H
	DB	08H
	DB	0c4H
	DB	08H
	DB	0c4H
	DB	08H
	DB	0c4H
	DB	08H
	DB	0c4H
	DB	08H
	DB	0c4H
	DB	08H
	DB	0c4H
	DB	08H
	DB	0c4H
	DB	08H
	DB	0c4H
	DB	08H
	DB	0c4H
	DB	08H
	DB	0c4H
	DB	08H
	DB	0c4H
	DB	08H
	DB	0c4H
	DB	08H
	DB	0c4H
	DB	08H
	DB	0c4H
	DB	08H
	DB	0c4H
	DB	08H
	DB	0a3H
	DB	08H
	DB	0a3H
	DB	08H
	DB	0a3H
	DB	00H
	DB	0a3H
	DB	00H
	DB	0a3H
	DB	00H
	DB	0a3H
	DB	00H
	DB	0a3H
	DB	00H
	DB	0a3H
	DB	00H
	DB	0a3H
	DB	00H
	DB	0a3H
	DB	00H
	DB	0a3H
	DB	00H
	DB	0a3H
	DB	00H
	DB	0a3H
	DB	00H
	DB	0a3H
	DB	00H
	DB	0a3H
	DB	00H
	DB	0a3H
	DB	00H
	DB	0a3H
	DB	00H
	DB	0a3H
	DB	00H
	DB	0a3H
	DB	00H
	DB	0a3H
	DB	00H
	DB	0a3H
	DB	00H
	DB	0a3H
	DB	00H
	DB	0a3H
	DB	00H
	DB	0a3H
	DB	00H
	DB	0a3H
	DB	00H
	DB	0a3H
	DB	00H
	DB	0a3H
	DB	00H
	DB	026H
	DB	09H
	DB	026H
	DB	09H
	DB	026H
	DB	09H
	DB	026H
	DB	09H
	DB	026H
	DB	09H
	DB	026H
	DB	09H
	DB	026H
	DB	09H
	DB	026H
	DB	09H
	DB	026H
	DB	09H
	DB	026H
	DB	09H
	DB	026H
	DB	09H
	DB	026H
	DB	09H
	DB	026H
	DB	09H
	DB	026H
	DB	09H
	DB	026H
	DB	09H
	DB	026H
	DB	09H
	DB	026H
	DB	09H
	DB	026H
	DB	09H
	DB	026H
	DB	09H
	DB	026H
	DB	09H
	DB	026H
	DB	09H
	DB	026H
	DB	09H
	DB	026H
	DB	09H
	DB	026H
	DB	09H
	DB	026H
	DB	09H
	DB	026H
	DB	09H
	DB	026H
	DB	09H
	DB	026H
	DB	09H
	DB	026H
	DB	09H
	DB	026H
	DB	09H
	DB	026H
	DB	09H
	DB	026H
	DB	09H
	DB	026H
	DB	09H
	DB	026H
	DB	09H
	DB	026H
	DB	09H
	DB	026H
	DB	09H
	DB	026H
	DB	09H
	DB	026H
	DB	09H
	DB	026H
	DB	09H
	DB	026H
	DB	09H
	DB	026H
	DB	09H
	DB	026H
	DB	09H
	DB	026H
	DB	09H
	DB	026H
	DB	09H
	DB	026H
	DB	09H
	DB	026H
	DB	09H
	DB	026H
	DB	09H
	DB	026H
	DB	09H
	DB	026H
	DB	09H
	DB	026H
	DB	09H
	DB	026H
	DB	09H
	DB	0e4H
	DB	08H
	DB	0e4H
	DB	08H
	DB	0c9H
	DB	011H
	DB	0c9H
	DB	011H
	DB	0c9H
	DB	011H
	DB	0c9H
	DB	011H
	DB	0c9H
	DB	011H
	DB	0c9H
	DB	011H
	DB	0c9H
	DB	011H
	DB	0c9H
	DB	011H
	DB	0c9H
	DB	011H
	DB	0c9H
	DB	011H
	DB	0c9H
	DB	011H
	DB	0c9H
	DB	011H
	DB	0c9H
	DB	011H
	DB	0c9H
	DB	011H
	DB	0c9H
	DB	011H
	DB	0c9H
	DB	011H
	DB	0c9H
	DB	011H
	DB	0c9H
	DB	011H
	DB	0c9H
	DB	011H
	DB	0c9H
	DB	011H
	DB	0c9H
	DB	011H
	DB	0c9H
	DB	011H
	DB	0c9H
	DB	011H
	DB	0c9H
	DB	011H
	DB	0c9H
	DB	011H
	DB	0c9H
	DB	011H
	DB	0c9H
	DB	011H
	DB	0c9H
	DB	011H
	DB	0c9H
	DB	011H
	DB	0c9H
	DB	011H
	DB	0c9H
	DB	011H
	DB	0c9H
	DB	011H
	DB	0c9H
	DB	011H
	DB	0c9H
	DB	011H
	DB	0c9H
	DB	011H
	DB	0a9H
	DB	011H
	DB	0a9H
	DB	011H
	DB	0a9H
	DB	011H
	DB	0a9H
	DB	011H
	DB	0a9H
	DB	011H
	DB	0a9H
	DB	011H
	DB	0a9H
	DB	011H
	DB	0a9H
	DB	011H
	DB	0a8H
	DB	011H
	DB	0a8H
	DB	011H
	DB	0a8H
	DB	011H
	DB	0a8H
	DB	011H
	DB	0a8H
	DB	011H
	DB	0a8H
	DB	011H
	DB	0a8H
	DB	011H
	DB	088H
	DB	011H
	DB	088H
	DB	011H
	DB	088H
	DB	011H
	DB	088H
	DB	011H
	DB	088H
	DB	011H
	DB	088H
	DB	011H
	DB	088H
	DB	011H
	DB	088H
	DB	011H
	DB	088H
	DB	011H
	DB	088H
	DB	011H
	DB	088H
	DB	011H
	DB	088H
	DB	011H
	DB	088H
	DB	011H
	DB	088H
	DB	011H
	DB	088H
	DB	011H
	DB	088H
	DB	011H
	DB	067H
	DB	011H
	DB	067H
	DB	011H
	DB	067H
	DB	011H
	DB	067H
	DB	011H
	DB	067H
	DB	011H
	DB	067H
	DB	011H
	DB	067H
	DB	011H
	DB	067H
	DB	011H
	DB	067H
	DB	011H
	DB	067H
	DB	011H
	DB	067H
	DB	011H
	DB	067H
	DB	011H
	DB	067H
	DB	011H
	DB	067H
	DB	011H
	DB	067H
	DB	011H
	DB	047H
	DB	011H
	DB	047H
	DB	011H
	DB	047H
	DB	011H
	DB	047H
	DB	011H
	DB	047H
	DB	011H
	DB	047H
	DB	011H
	DB	047H
	DB	011H
	DB	047H
	DB	011H
	DB	047H
	DB	09H
	DB	046H
	DB	09H
	DB	046H
	DB	09H
	DB	046H
	DB	09H
	DB	046H
	DB	09H
	DB	046H
	DB	09H
	DB	046H
	DB	09H
	DB	046H
	DB	09H
	DB	026H
	DB	09H
	DB	026H
	DB	09H
	DB	026H
	DB	09H
	DB	026H
	DB	09H
	DB	026H
	DB	09H
	DB	026H
	DB	09H
	DB	026H
	DB	09H
	DB	026H
	DB	09H
	DB	026H
	DB	09H
	DB	026H
	DB	09H
	DB	026H
	DB	09H
	DB	026H
	DB	09H
	DB	026H
	DB	09H
	DB	026H
	DB	09H
	DB	026H
	DB	09H
	DB	06H
	DB	09H
	DB	05H
	DB	09H
	DB	05H
	DB	09H
	DB	05H
	DB	09H
	DB	05H
	DB	09H
	DB	05H
	DB	09H
	DB	05H
	DB	09H
	DB	05H
	DB	09H
	DB	05H
	DB	09H
	DB	05H
	DB	09H
	DB	05H
	DB	09H
	DB	05H
	DB	09H
	DB	05H
	DB	09H
	DB	05H
	DB	09H
	DB	05H
	DB	09H
	DB	05H
	DB	09H
	DB	0e5H
	DB	08H
	DB	0e5H
	DB	08H
	DB	0e5H
	DB	08H
	DB	0e5H
	DB	08H
	DB	0e5H
	DB	08H
	DB	0e5H
	DB	08H
	DB	0e5H
	DB	08H
	DB	0e5H
	DB	08H
	DB	0e4H
	DB	08H
	DB	0e4H
	DB	08H
	DB	0e4H
	DB	08H
	DB	0e4H
	DB	08H
	DB	0e4H
	DB	08H
	DB	0e4H
	DB	08H
	DB	0e4H
	DB	08H
	DB	0e4H
	DB	08H
	DB	0c4H
	DB	08H
	DB	0c4H
	DB	08H
	DB	0c4H
	DB	08H
	DB	0c4H
	DB	08H
	DB	0c4H
	DB	08H
	DB	0c4H
	DB	08H
	DB	0c4H
	DB	08H
	DB	0c4H
	DB	08H
	DB	0c4H
	DB	08H
	DB	0c4H
	DB	08H
	DB	0c4H
	DB	08H
	DB	0c4H
	DB	08H
	DB	0c4H
	DB	08H
	DB	0c4H
	DB	08H
	DB	0c4H
	DB	08H
	DB	0c4H
	DB	08H
	DB	0a3H
	DB	08H
	DB	0a3H
	DB	08H
	DB	0a3H
	DB	00H
	DB	0a3H
	DB	00H
	DB	0a3H
	DB	00H
	DB	0a3H
	DB	00H
	DB	0a3H
	DB	00H
	DB	0a3H
	DB	00H
	DB	0a3H
	DB	00H
	DB	0a3H
	DB	00H
	DB	0a3H
	DB	00H
	DB	0a3H
	DB	00H
	DB	0a3H
	DB	00H
	DB	0a3H
	DB	00H
	DB	0a3H
	DB	00H
	DB	0a3H
	DB	00H
	DB	0a3H
	DB	00H
	DB	0a3H
	DB	00H
	DB	0a3H
	DB	00H
	DB	0a3H
	DB	00H
	DB	0a3H
	DB	00H
	DB	0a3H
	DB	00H
	DB	0a3H
	DB	00H
	DB	0a3H
	DB	00H
	DB	0a3H
	DB	00H
	DB	0a3H
	DB	00H
	DB	0a3H
	DB	00H
	DB	026H
	DB	09H
	DB	026H
	DB	09H
	DB	026H
	DB	09H
	DB	026H
	DB	09H
	DB	026H
	DB	09H
	DB	026H
	DB	09H
	DB	026H
	DB	09H
	DB	026H
	DB	09H
	DB	026H
	DB	09H
	DB	026H
	DB	09H
	DB	026H
	DB	09H
	DB	026H
	DB	09H
	DB	026H
	DB	09H
	DB	026H
	DB	09H
	DB	026H
	DB	09H
	DB	026H
	DB	09H
	DB	026H
	DB	09H
	DB	026H
	DB	09H
	DB	026H
	DB	09H
	DB	026H
	DB	09H
	DB	026H
	DB	09H
	DB	026H
	DB	09H
	DB	026H
	DB	09H
	DB	026H
	DB	09H
	DB	026H
	DB	09H
	DB	026H
	DB	09H
	DB	026H
	DB	09H
	DB	026H
	DB	09H
	DB	026H
	DB	09H
	DB	026H
	DB	09H
	DB	026H
	DB	09H
	DB	026H
	DB	09H
	DB	026H
	DB	09H
	DB	026H
	DB	09H
	DB	026H
	DB	09H
	DB	026H
	DB	09H
	DB	026H
	DB	09H
	DB	026H
	DB	09H
	DB	026H
	DB	09H
	DB	026H
	DB	09H
	DB	026H
	DB	09H
	DB	026H
	DB	09H
	DB	026H
	DB	09H
	DB	026H
	DB	09H
	DB	026H
	DB	09H
	DB	026H
	DB	09H
	DB	026H
	DB	09H
	DB	026H
	DB	09H
	DB	026H
	DB	09H
	DB	026H
	DB	09H
	DB	026H
	DB	09H
	DB	0e4H
	DB	08H
	DB	0e4H
	DB	08H
	DB	0c9H
	DB	011H
	DB	0c9H
	DB	011H
	DB	0c9H
	DB	011H
	DB	0c9H
	DB	011H
	DB	0c9H
	DB	011H
	DB	0c9H
	DB	011H
	DB	0c9H
	DB	011H
	DB	0c9H
	DB	011H
	DB	0c9H
	DB	011H
	DB	0c9H
	DB	011H
	DB	0c9H
	DB	011H
	DB	0c9H
	DB	011H
	DB	0c9H
	DB	011H
	DB	0c9H
	DB	011H
	DB	0c9H
	DB	011H
	DB	0c9H
	DB	011H
	DB	0c9H
	DB	011H
	DB	0c9H
	DB	011H
	DB	0c9H
	DB	011H
	DB	0c9H
	DB	011H
	DB	0c9H
	DB	011H
	DB	0c9H
	DB	011H
	DB	0c9H
	DB	011H
	DB	0c9H
	DB	011H
	DB	0c9H
	DB	011H
	DB	0c9H
	DB	011H
	DB	0c9H
	DB	011H
	DB	0c9H
	DB	011H
	DB	0c9H
	DB	011H
	DB	0c9H
	DB	011H
	DB	046H
	DB	011H
	DB	046H
	DB	011H
	DB	046H
	DB	011H
	DB	046H
	DB	011H
	DB	046H
	DB	011H
	DB	046H
	DB	011H
	DB	046H
	DB	011H
	DB	046H
	DB	011H
	DB	046H
	DB	011H
	DB	046H
	DB	011H
	DB	046H
	DB	011H
	DB	046H
	DB	011H
	DB	046H
	DB	011H
	DB	046H
	DB	011H
	DB	046H
	DB	011H
	DB	046H
	DB	011H
	DB	046H
	DB	011H
	DB	046H
	DB	011H
	DB	046H
	DB	011H
	DB	046H
	DB	011H
	DB	046H
	DB	011H
	DB	046H
	DB	011H
	DB	046H
	DB	011H
	DB	046H
	DB	011H
	DB	046H
	DB	011H
	DB	046H
	DB	011H
	DB	046H
	DB	011H
	DB	046H
	DB	011H
	DB	046H
	DB	011H
	DB	046H
	DB	011H
	DB	046H
	DB	011H
	DB	046H
	DB	011H
	DB	046H
	DB	011H
	DB	046H
	DB	011H
	DB	046H
	DB	011H
	DB	046H
	DB	011H
	DB	046H
	DB	011H
	DB	046H
	DB	011H
	DB	046H
	DB	011H
	DB	046H
	DB	011H
	DB	046H
	DB	011H
	DB	046H
	DB	011H
	DB	046H
	DB	011H
	DB	046H
	DB	011H
	DB	046H
	DB	011H
	DB	046H
	DB	011H
	DB	046H
	DB	011H
	DB	046H
	DB	011H
	DB	046H
	DB	011H
	DB	046H
	DB	011H
	DB	046H
	DB	011H
	DB	046H
	DB	011H
	DB	046H
	DB	011H
	DB	046H
	DB	011H
	DB	046H
	DB	011H
	DB	046H
	DB	011H
	DB	046H
	DB	011H
	DB	046H
	DB	011H
	DB	046H
	DB	011H
	DB	046H
	DB	011H
	DB	046H
	DB	011H
	DB	046H
	DB	011H
	DB	046H
	DB	011H
	DB	046H
	DB	011H
	DB	046H
	DB	011H
	DB	046H
	DB	011H
	DB	046H
	DB	011H
	DB	046H
	DB	011H
	DB	046H
	DB	011H
	DB	046H
	DB	011H
	DB	046H
	DB	011H
	DB	046H
	DB	011H
	DB	046H
	DB	011H
	DB	046H
	DB	011H
	DB	046H
	DB	011H
	DB	046H
	DB	011H
	DB	046H
	DB	011H
	DB	046H
	DB	011H
	DB	046H
	DB	011H
	DB	046H
	DB	011H
	DB	046H
	DB	011H
	DB	046H
	DB	011H
	DB	046H
	DB	011H
	DB	046H
	DB	011H
	DB	046H
	DB	011H
	DB	046H
	DB	011H
	DB	046H
	DB	011H
	DB	046H
	DB	011H
	DB	046H
	DB	011H
	DB	046H
	DB	011H
	DB	046H
	DB	011H
	DB	046H
	DB	011H
	DB	046H
	DB	011H
	DB	046H
	DB	011H
	DB	046H
	DB	011H
	DB	046H
	DB	011H
	DB	046H
	DB	011H
	DB	046H
	DB	011H
	DB	046H
	DB	011H
	DB	046H
	DB	011H
	DB	046H
	DB	011H
	DB	046H
	DB	011H
	DB	046H
	DB	011H
	DB	046H
	DB	011H
	DB	046H
	DB	011H
	DB	046H
	DB	011H
	DB	046H
	DB	011H
	DB	046H
	DB	011H
	DB	046H
	DB	011H
	DB	046H
	DB	011H
	DB	046H
	DB	011H
	DB	046H
	DB	011H
	DB	046H
	DB	011H
	DB	046H
	DB	011H
	DB	046H
	DB	011H
	DB	046H
	DB	011H
	DB	046H
	DB	011H
	DB	046H
	DB	011H
	DB	046H
	DB	011H
	DB	046H
	DB	011H
	DB	046H
	DB	011H
	DB	046H
	DB	011H
	DB	046H
	DB	011H
	DB	046H
	DB	011H
	DB	0c4H
	DB	08H
	DB	0c4H
	DB	08H
	DB	0c4H
	DB	08H
	DB	0c4H
	DB	08H
	DB	0c4H
	DB	08H
	DB	0c4H
	DB	08H
	DB	0a3H
	DB	08H
	DB	0a3H
	DB	08H
	DB	0a3H
	DB	00H
	DB	0a3H
	DB	00H
	DB	0a3H
	DB	00H
	DB	0a3H
	DB	00H
	DB	0a3H
	DB	00H
	DB	0a3H
	DB	00H
	DB	0a3H
	DB	00H
	DB	0a3H
	DB	00H
	DB	0a3H
	DB	00H
	DB	0a3H
	DB	00H
	DB	0a3H
	DB	00H
	DB	0a3H
	DB	00H
	DB	0a3H
	DB	00H
	DB	0a3H
	DB	00H
	DB	0a3H
	DB	00H
	DB	0a3H
	DB	00H
	DB	0a3H
	DB	00H
	DB	0a3H
	DB	00H
	DB	0a3H
	DB	00H
	DB	0a3H
	DB	00H
	DB	0a3H
	DB	00H
	DB	0a3H
	DB	00H
	DB	0a3H
	DB	00H
	DB	0a3H
	DB	00H
	DB	0a3H
	DB	00H
	DB	026H
	DB	09H
	DB	026H
	DB	09H
	DB	026H
	DB	09H
	DB	026H
	DB	09H
	DB	026H
	DB	09H
	DB	026H
	DB	09H
	DB	026H
	DB	09H
	DB	026H
	DB	09H
	DB	026H
	DB	09H
	DB	026H
	DB	09H
	DB	026H
	DB	09H
	DB	026H
	DB	09H
	DB	026H
	DB	09H
	DB	026H
	DB	09H
	DB	026H
	DB	09H
	DB	026H
	DB	09H
	DB	026H
	DB	09H
	DB	026H
	DB	09H
	DB	026H
	DB	09H
	DB	026H
	DB	09H
	DB	026H
	DB	09H
	DB	026H
	DB	09H
	DB	026H
	DB	09H
	DB	026H
	DB	09H
	DB	026H
	DB	09H
	DB	026H
	DB	09H
	DB	026H
	DB	09H
	DB	026H
	DB	09H
	DB	026H
	DB	09H
	DB	026H
	DB	09H
	DB	026H
	DB	09H
	DB	026H
	DB	09H
	DB	026H
	DB	09H
	DB	026H
	DB	09H
	DB	026H
	DB	09H
	DB	026H
	DB	09H
	DB	026H
	DB	09H
	DB	026H
	DB	09H
	DB	026H
	DB	09H
	DB	026H
	DB	09H
	DB	026H
	DB	09H
	DB	026H
	DB	09H
	DB	026H
	DB	09H
	DB	026H
	DB	09H
	DB	026H
	DB	09H
	DB	026H
	DB	09H
	DB	026H
	DB	09H
	DB	026H
	DB	09H
	DB	026H
	DB	09H
	DB	026H
	DB	09H
	DB	026H
	DB	09H
	DB	0e4H
	DB	08H
	DB	0e4H
	DB	08H
	DB	0c9H
	DB	011H
	DB	0c9H
	DB	011H
	DB	0c9H
	DB	011H
	DB	0c9H
	DB	011H
	DB	0c9H
	DB	011H
	DB	0c9H
	DB	011H
	DB	0c9H
	DB	011H
	DB	0c9H
	DB	011H
	DB	0c9H
	DB	011H
	DB	0c9H
	DB	011H
	DB	0c9H
	DB	011H
	DB	0c9H
	DB	011H
	DB	0c9H
	DB	011H
	DB	0c9H
	DB	011H
	DB	0c9H
	DB	011H
	DB	0c9H
	DB	011H
	DB	0c9H
	DB	011H
	DB	0c9H
	DB	011H
	DB	0c9H
	DB	011H
	DB	0c9H
	DB	011H
	DB	0c9H
	DB	011H
	DB	0c9H
	DB	011H
	DB	0c9H
	DB	011H
	DB	0c9H
	DB	011H
	DB	0c9H
	DB	011H
	DB	0c9H
	DB	011H
	DB	0c9H
	DB	011H
	DB	0c9H
	DB	011H
	DB	0c9H
	DB	011H
	DB	0c9H
	DB	011H
	DB	046H
	DB	011H
	DB	0e5H
	DB	08H
	DB	0e5H
	DB	08H
	DB	0e5H
	DB	08H
	DB	0e5H
	DB	08H
	DB	0e5H
	DB	08H
	DB	0e5H
	DB	08H
	DB	0e5H
	DB	08H
	DB	0e5H
	DB	08H
	DB	0e5H
	DB	08H
	DB	0e5H
	DB	08H
	DB	0e5H
	DB	08H
	DB	0e5H
	DB	08H
	DB	0e5H
	DB	08H
	DB	0e5H
	DB	08H
	DB	0e5H
	DB	08H
	DB	0e5H
	DB	08H
	DB	0e5H
	DB	08H
	DB	0e5H
	DB	08H
	DB	0e5H
	DB	08H
	DB	0e5H
	DB	08H
	DB	0e5H
	DB	08H
	DB	0e5H
	DB	08H
	DB	0e5H
	DB	08H
	DB	0e5H
	DB	08H
	DB	0e5H
	DB	08H
	DB	0e5H
	DB	08H
	DB	0e5H
	DB	08H
	DB	0e5H
	DB	08H
	DB	0e5H
	DB	08H
	DB	0e5H
	DB	08H
	DB	0e5H
	DB	08H
	DB	0e5H
	DB	08H
	DB	0e5H
	DB	08H
	DB	0e5H
	DB	08H
	DB	0e5H
	DB	08H
	DB	0e5H
	DB	08H
	DB	0e5H
	DB	08H
	DB	0e5H
	DB	08H
	DB	0e5H
	DB	08H
	DB	0e5H
	DB	08H
	DB	0e5H
	DB	08H
	DB	0e5H
	DB	08H
	DB	0e5H
	DB	08H
	DB	0e5H
	DB	08H
	DB	0e5H
	DB	08H
	DB	0e5H
	DB	08H
	DB	0e5H
	DB	08H
	DB	0e5H
	DB	08H
	DB	0e5H
	DB	08H
	DB	0e5H
	DB	08H
	DB	0e5H
	DB	08H
	DB	0e5H
	DB	08H
	DB	0e5H
	DB	08H
	DB	0e5H
	DB	08H
	DB	0e5H
	DB	08H
	DB	0e5H
	DB	08H
	DB	0e5H
	DB	08H
	DB	0e5H
	DB	08H
	DB	0e5H
	DB	08H
	DB	0e5H
	DB	08H
	DB	0e5H
	DB	08H
	DB	0e5H
	DB	08H
	DB	0e5H
	DB	08H
	DB	0e5H
	DB	08H
	DB	0e5H
	DB	08H
	DB	0e5H
	DB	08H
	DB	0e5H
	DB	08H
	DB	0e5H
	DB	08H
	DB	0e5H
	DB	08H
	DB	0e5H
	DB	08H
	DB	0e5H
	DB	08H
	DB	0e5H
	DB	08H
	DB	0e5H
	DB	08H
	DB	0e5H
	DB	08H
	DB	0e5H
	DB	08H
	DB	0e5H
	DB	08H
	DB	0e5H
	DB	08H
	DB	0e5H
	DB	08H
	DB	0e5H
	DB	08H
	DB	0e5H
	DB	08H
	DB	0e5H
	DB	08H
	DB	0e5H
	DB	08H
	DB	0e5H
	DB	08H
	DB	0e5H
	DB	08H
	DB	0e5H
	DB	08H
	DB	0e5H
	DB	08H
	DB	0e5H
	DB	08H
	DB	0e5H
	DB	08H
	DB	0e5H
	DB	08H
	DB	0e5H
	DB	08H
	DB	0e5H
	DB	08H
	DB	0e5H
	DB	08H
	DB	0e5H
	DB	08H
	DB	0e5H
	DB	08H
	DB	0e5H
	DB	08H
	DB	0e5H
	DB	08H
	DB	0e5H
	DB	08H
	DB	0e5H
	DB	08H
	DB	0e5H
	DB	08H
	DB	0e5H
	DB	08H
	DB	0e5H
	DB	08H
	DB	0e5H
	DB	08H
	DB	0e5H
	DB	08H
	DB	0e5H
	DB	08H
	DB	0e5H
	DB	08H
	DB	0e5H
	DB	08H
	DB	0e5H
	DB	08H
	DB	0e5H
	DB	08H
	DB	0e5H
	DB	08H
	DB	0e5H
	DB	08H
	DB	0e5H
	DB	08H
	DB	0e5H
	DB	08H
	DB	0e5H
	DB	08H
	DB	0e5H
	DB	08H
	DB	0e5H
	DB	08H
	DB	0e5H
	DB	08H
	DB	0e5H
	DB	08H
	DB	0e5H
	DB	08H
	DB	0e5H
	DB	08H
	DB	0e5H
	DB	08H
	DB	0e5H
	DB	08H
	DB	0e5H
	DB	08H
	DB	046H
	DB	011H
	DB	0c4H
	DB	08H
	DB	0c4H
	DB	08H
	DB	0c4H
	DB	08H
	DB	0c4H
	DB	08H
	DB	0c4H
	DB	08H
	DB	0c4H
	DB	08H
	DB	0a3H
	DB	08H
	DB	0a3H
	DB	08H
	DB	0a3H
	DB	00H
	DB	0a3H
	DB	00H
	DB	0a3H
	DB	00H
	DB	0a3H
	DB	00H
	DB	0a3H
	DB	00H
	DB	0a3H
	DB	00H
	DB	0a3H
	DB	00H
	DB	0a3H
	DB	00H
	DB	0a3H
	DB	00H
	DB	0a3H
	DB	00H
	DB	0a3H
	DB	00H
	DB	0a3H
	DB	00H
	DB	0a3H
	DB	00H
	DB	0a3H
	DB	00H
	DB	0a3H
	DB	00H
	DB	0a3H
	DB	00H
	DB	0a3H
	DB	00H
	DB	0a3H
	DB	00H
	DB	0a3H
	DB	00H
	DB	0a3H
	DB	00H
	DB	0a3H
	DB	00H
	DB	0a3H
	DB	00H
	DB	0a3H
	DB	00H
	DB	0a3H
	DB	00H
	DB	0a3H
	DB	00H
	DB	026H
	DB	09H
	DB	026H
	DB	09H
	DB	026H
	DB	09H
	DB	026H
	DB	09H
	DB	026H
	DB	09H
	DB	026H
	DB	09H
	DB	026H
	DB	09H
	DB	026H
	DB	09H
	DB	026H
	DB	09H
	DB	026H
	DB	09H
	DB	026H
	DB	09H
	DB	026H
	DB	09H
	DB	026H
	DB	09H
	DB	026H
	DB	09H
	DB	026H
	DB	09H
	DB	026H
	DB	09H
	DB	026H
	DB	09H
	DB	026H
	DB	09H
	DB	026H
	DB	09H
	DB	026H
	DB	09H
	DB	026H
	DB	09H
	DB	026H
	DB	09H
	DB	026H
	DB	09H
	DB	026H
	DB	09H
	DB	026H
	DB	09H
	DB	026H
	DB	09H
	DB	026H
	DB	09H
	DB	026H
	DB	09H
	DB	026H
	DB	09H
	DB	026H
	DB	09H
	DB	026H
	DB	09H
	DB	026H
	DB	09H
	DB	026H
	DB	09H
	DB	026H
	DB	09H
	DB	026H
	DB	09H
	DB	026H
	DB	09H
	DB	026H
	DB	09H
	DB	026H
	DB	09H
	DB	026H
	DB	09H
	DB	026H
	DB	09H
	DB	026H
	DB	09H
	DB	026H
	DB	09H
	DB	026H
	DB	09H
	DB	026H
	DB	09H
	DB	026H
	DB	09H
	DB	026H
	DB	09H
	DB	026H
	DB	09H
	DB	026H
	DB	09H
	DB	026H
	DB	09H
	DB	026H
	DB	09H
	DB	026H
	DB	09H
	DB	0e4H
	DB	08H
	DB	0e4H
	DB	08H
	DB	0c9H
	DB	011H
	DB	0c9H
	DB	011H
	DB	0c9H
	DB	011H
	DB	0c9H
	DB	011H
	DB	0c9H
	DB	011H
	DB	0c9H
	DB	011H
	DB	0c9H
	DB	011H
	DB	0c9H
	DB	011H
	DB	0c9H
	DB	011H
	DB	0c9H
	DB	011H
	DB	0c9H
	DB	011H
	DB	0c9H
	DB	011H
	DB	0c9H
	DB	011H
	DB	0c9H
	DB	011H
	DB	0c9H
	DB	011H
	DB	0c9H
	DB	011H
	DB	0c9H
	DB	011H
	DB	0c9H
	DB	011H
	DB	0c9H
	DB	011H
	DB	0c9H
	DB	011H
	DB	0c9H
	DB	011H
	DB	0c9H
	DB	011H
	DB	0c9H
	DB	011H
	DB	0c9H
	DB	011H
	DB	0c9H
	DB	011H
	DB	0c9H
	DB	011H
	DB	0c9H
	DB	011H
	DB	0c9H
	DB	011H
	DB	0c9H
	DB	011H
	DB	0c9H
	DB	011H
	DB	046H
	DB	011H
	DB	0e5H
	DB	08H
	DB	0e5H
	DB	08H
	DB	0e5H
	DB	08H
	DB	0e5H
	DB	08H
	DB	0e5H
	DB	08H
	DB	0e5H
	DB	08H
	DB	0e5H
	DB	08H
	DB	0e5H
	DB	08H
	DB	0e5H
	DB	08H
	DB	0e5H
	DB	08H
	DB	0e5H
	DB	08H
	DB	0e5H
	DB	08H
	DB	0e5H
	DB	08H
	DB	0e5H
	DB	08H
	DB	0e5H
	DB	08H
	DB	0e5H
	DB	08H
	DB	0e5H
	DB	08H
	DB	0e5H
	DB	08H
	DB	0e5H
	DB	08H
	DB	0e5H
	DB	08H
	DB	0e5H
	DB	08H
	DB	0e5H
	DB	08H
	DB	0e5H
	DB	08H
	DB	0e5H
	DB	08H
	DB	0e5H
	DB	08H
	DB	0e5H
	DB	08H
	DB	0e5H
	DB	08H
	DB	0e5H
	DB	08H
	DB	0e5H
	DB	08H
	DB	0e5H
	DB	08H
	DB	0e5H
	DB	08H
	DB	0e5H
	DB	08H
	DB	0e5H
	DB	08H
	DB	0e5H
	DB	08H
	DB	0e5H
	DB	08H
	DB	0e5H
	DB	08H
	DB	0e5H
	DB	08H
	DB	0e5H
	DB	08H
	DB	0e5H
	DB	08H
	DB	0e5H
	DB	08H
	DB	0e5H
	DB	08H
	DB	0e5H
	DB	08H
	DB	0e5H
	DB	08H
	DB	0e5H
	DB	08H
	DB	0e5H
	DB	08H
	DB	0e5H
	DB	08H
	DB	0e5H
	DB	08H
	DB	0e5H
	DB	08H
	DB	0e5H
	DB	08H
	DB	0e5H
	DB	08H
	DB	0e5H
	DB	08H
	DB	0e5H
	DB	08H
	DB	0e5H
	DB	08H
	DB	0e5H
	DB	08H
	DB	0e5H
	DB	08H
	DB	0e5H
	DB	08H
	DB	0e5H
	DB	08H
	DB	0e5H
	DB	08H
	DB	0e5H
	DB	08H
	DB	0e5H
	DB	08H
	DB	0e5H
	DB	08H
	DB	0e5H
	DB	08H
	DB	0e5H
	DB	08H
	DB	0e5H
	DB	08H
	DB	0e5H
	DB	08H
	DB	0e5H
	DB	08H
	DB	0e5H
	DB	08H
	DB	0e5H
	DB	08H
	DB	0e5H
	DB	08H
	DB	0e5H
	DB	08H
	DB	0e5H
	DB	08H
	DB	0e5H
	DB	08H
	DB	0e5H
	DB	08H
	DB	0e5H
	DB	08H
	DB	0e5H
	DB	08H
	DB	0e5H
	DB	08H
	DB	0e5H
	DB	08H
	DB	0e5H
	DB	08H
	DB	0e5H
	DB	08H
	DB	0e5H
	DB	08H
	DB	0e5H
	DB	08H
	DB	0e5H
	DB	08H
	DB	0e5H
	DB	08H
	DB	0e5H
	DB	08H
	DB	0e5H
	DB	08H
	DB	0e5H
	DB	08H
	DB	0e5H
	DB	08H
	DB	0e5H
	DB	08H
	DB	0e5H
	DB	08H
	DB	0e5H
	DB	08H
	DB	0e5H
	DB	08H
	DB	0e5H
	DB	08H
	DB	0e5H
	DB	08H
	DB	0e5H
	DB	08H
	DB	0e5H
	DB	08H
	DB	0e5H
	DB	08H
	DB	0e5H
	DB	08H
	DB	0e5H
	DB	08H
	DB	0e5H
	DB	08H
	DB	0e5H
	DB	08H
	DB	0e5H
	DB	08H
	DB	0e5H
	DB	08H
	DB	0e5H
	DB	08H
	DB	0e5H
	DB	08H
	DB	0e5H
	DB	08H
	DB	0e5H
	DB	08H
	DB	0e5H
	DB	08H
	DB	0e5H
	DB	08H
	DB	0e5H
	DB	08H
	DB	0e5H
	DB	08H
	DB	0e5H
	DB	08H
	DB	0e5H
	DB	08H
	DB	0e5H
	DB	08H
	DB	0e5H
	DB	08H
	DB	0e5H
	DB	08H
	DB	0e5H
	DB	08H
	DB	0e5H
	DB	08H
	DB	0e5H
	DB	08H
	DB	0e5H
	DB	08H
	DB	0e5H
	DB	08H
	DB	0e5H
	DB	08H
	DB	0e5H
	DB	08H
	DB	046H
	DB	011H
	DB	0c4H
	DB	08H
	DB	0c4H
	DB	08H
	DB	0c4H
	DB	08H
	DB	0c4H
	DB	08H
	DB	0c4H
	DB	08H
	DB	0c4H
	DB	08H
	DB	0a3H
	DB	08H
	DB	0a3H
	DB	08H
	DB	0a3H
	DB	00H
	DB	0a3H
	DB	00H
	DB	0a3H
	DB	00H
	DB	0a3H
	DB	00H
	DB	0a3H
	DB	00H
	DB	0a3H
	DB	00H
	DB	0a3H
	DB	00H
	DB	0a3H
	DB	00H
	DB	0a3H
	DB	00H
	DB	0a3H
	DB	00H
	DB	0a3H
	DB	00H
	DB	0a3H
	DB	00H
	DB	0a3H
	DB	00H
	DB	0a3H
	DB	00H
	DB	0a3H
	DB	00H
	DB	0a3H
	DB	00H
	DB	0a3H
	DB	00H
	DB	0a3H
	DB	00H
	DB	0a3H
	DB	00H
	DB	0a3H
	DB	00H
	DB	0a3H
	DB	00H
	DB	0a3H
	DB	00H
	DB	0a3H
	DB	00H
	DB	0a3H
	DB	00H
	DB	0a3H
	DB	00H
	DB	026H
	DB	09H
	DB	026H
	DB	09H
	DB	026H
	DB	09H
	DB	026H
	DB	09H
	DB	026H
	DB	09H
	DB	026H
	DB	09H
	DB	026H
	DB	09H
	DB	026H
	DB	09H
	DB	026H
	DB	09H
	DB	026H
	DB	09H
	DB	026H
	DB	09H
	DB	026H
	DB	09H
	DB	026H
	DB	09H
	DB	026H
	DB	09H
	DB	026H
	DB	09H
	DB	026H
	DB	09H
	DB	026H
	DB	09H
	DB	026H
	DB	09H
	DB	026H
	DB	09H
	DB	026H
	DB	09H
	DB	026H
	DB	09H
	DB	026H
	DB	09H
	DB	026H
	DB	09H
	DB	026H
	DB	09H
	DB	026H
	DB	09H
	DB	026H
	DB	09H
	DB	026H
	DB	09H
	DB	026H
	DB	09H
	DB	026H
	DB	09H
	DB	026H
	DB	09H
	DB	026H
	DB	09H
	DB	026H
	DB	09H
	DB	026H
	DB	09H
	DB	026H
	DB	09H
	DB	026H
	DB	09H
	DB	026H
	DB	09H
	DB	026H
	DB	09H
	DB	026H
	DB	09H
	DB	026H
	DB	09H
	DB	026H
	DB	09H
	DB	026H
	DB	09H
	DB	026H
	DB	09H
	DB	026H
	DB	09H
	DB	026H
	DB	09H
	DB	026H
	DB	09H
	DB	026H
	DB	09H
	DB	026H
	DB	09H
	DB	026H
	DB	09H
	DB	026H
	DB	09H
	DB	026H
	DB	09H
	DB	026H
	DB	09H
	DB	0e4H
	DB	08H
	DB	0e4H
	DB	08H
	DB	0c9H
	DB	011H
	DB	0c9H
	DB	011H
	DB	0c9H
	DB	011H
	DB	0c9H
	DB	011H
	DB	0c9H
	DB	011H
	DB	0c9H
	DB	011H
	DB	0c9H
	DB	011H
	DB	0c9H
	DB	011H
	DB	0c9H
	DB	011H
	DB	0c9H
	DB	011H
	DB	0c9H
	DB	011H
	DB	0c9H
	DB	011H
	DB	0c9H
	DB	011H
	DB	0c9H
	DB	011H
	DB	0c9H
	DB	011H
	DB	0c9H
	DB	011H
	DB	0c9H
	DB	011H
	DB	0c9H
	DB	011H
	DB	0c9H
	DB	011H
	DB	0c9H
	DB	011H
	DB	0c9H
	DB	011H
	DB	0c9H
	DB	011H
	DB	0c9H
	DB	011H
	DB	0c9H
	DB	011H
	DB	0c9H
	DB	011H
	DB	0c9H
	DB	011H
	DB	0c9H
	DB	011H
	DB	0c9H
	DB	011H
	DB	0c9H
	DB	011H
	DB	0c9H
	DB	011H
