; Listing generated by Microsoft (R) Optimizing Compiler Version 19.30.30705.0 

	TITLE	D:\学习\毕业设计\方案1_GFX+底板\官方例程\DISPLAY\TouchGFX\build\Debug\obj\image_image02.obj
	.686P
	.XMM
	include listing.inc
	.model	flat

INCLUDELIB MSVCRTD
INCLUDELIB OLDNAMES

PUBLIC	?image_image02@@3QBEB				; image_image02
msvcjmc	SEGMENT
__BA83647B_Config@hpp DB 01H
__07B25418_image_image02@cpp DB 01H
msvcjmc	ENDS
CONST	SEGMENT
?image_image02@@3QBEB DB 0b8H				; image_image02
	DB	02H
	DB	0b8H
	DB	02H
	DB	0b8H
	DB	02H
	DB	0b8H
	DB	02H
	DB	0b8H
	DB	02H
	DB	0d8H
	DB	02H
	DB	0d8H
	DB	0aH
	DB	0d8H
	DB	0aH
	DB	0d8H
	DB	0aH
	DB	0f8H
	DB	0aH
	DB	0f9H
	DB	0aH
	DB	0d8H
	DB	0aH
	DB	0d8H
	DB	0aH
	DB	0d8H
	DB	0aH
	DB	0d8H
	DB	0aH
	DB	0d8H
	DB	0aH
	DB	0d8H
	DB	0aH
	DB	0f8H
	DB	0aH
	DB	0f8H
	DB	0aH
	DB	019H
	DB	0bH
	DB	0f9H
	DB	0aH
	DB	0f9H
	DB	0aH
	DB	0f9H
	DB	0aH
	DB	0f9H
	DB	0aH
	DB	0f9H
	DB	012H
	DB	0f9H
	DB	0aH
	DB	0f9H
	DB	0aH
	DB	0f9H
	DB	0aH
	DB	019H
	DB	0bH
	DB	019H
	DB	013H
	DB	039H
	DB	013H
	DB	039H
	DB	013H
	DB	059H
	DB	013H
	DB	039H
	DB	013H
	DB	039H
	DB	013H
	DB	039H
	DB	013H
	DB	03aH
	DB	013H
	DB	039H
	DB	013H
	DB	059H
	DB	013H
	DB	059H
	DB	013H
	DB	05aH
	DB	01bH
	DB	05aH
	DB	01bH
	DB	079H
	DB	01bH
	DB	07aH
	DB	023H
	DB	09aH
	DB	02bH
	DB	09aH
	DB	02bH
	DB	07aH
	DB	023H
	DB	079H
	DB	023H
	DB	09aH
	DB	023H
	DB	09aH
	DB	023H
	DB	09aH
	DB	01bH
	DB	09aH
	DB	01bH
	DB	07aH
	DB	01bH
	DB	09aH
	DB	023H
	DB	09aH
	DB	023H
	DB	09aH
	DB	023H
	DB	0baH
	DB	023H
	DB	09aH
	DB	023H
	DB	0baH
	DB	02bH
	DB	0baH
	DB	02bH
	DB	0baH
	DB	033H
	DB	0daH
	DB	043H
	DB	0daH
	DB	043H
	DB	0f9H
	DB	04bH
	DB	0f9H
	DB	053H
	DB	01aH
	DB	054H
	DB	03aH
	DB	05cH
	DB	019H
	DB	054H
	DB	019H
	DB	054H
	DB	01aH
	DB	04cH
	DB	0faH
	DB	04bH
	DB	0faH
	DB	043H
	DB	0faH
	DB	03bH
	DB	0faH
	DB	03bH
	DB	0daH
	DB	03bH
	DB	0daH
	DB	03bH
	DB	0faH
	DB	03bH
	DB	0faH
	DB	03bH
	DB	0d9H
	DB	033H
	DB	0daH
	DB	03bH
	DB	0faH
	DB	03bH
	DB	0faH
	DB	03bH
	DB	0daH
	DB	03bH
	DB	0daH
	DB	043H
	DB	0faH
	DB	043H
	DB	0faH
	DB	04bH
	DB	0faH
	DB	04bH
	DB	0faH
	DB	04bH
	DB	0f9H
	DB	043H
	DB	0f9H
	DB	04bH
	DB	0d9H
	DB	043H
	DB	0daH
	DB	043H
	DB	0d9H
	DB	043H
	DB	0faH
	DB	043H
	DB	0faH
	DB	043H
	DB	0faH
	DB	043H
	DB	0faH
	DB	043H
	DB	0f9H
	DB	043H
	DB	0f9H
	DB	043H
	DB	0f9H
	DB	043H
	DB	0f9H
	DB	043H
	DB	01aH
	DB	044H
	DB	0faH
	DB	043H
	DB	0f9H
	DB	04bH
	DB	0f9H
	DB	04bH
	DB	019H
	DB	04cH
	DB	0f9H
	DB	04bH
	DB	0d9H
	DB	04bH
	DB	0f9H
	DB	04bH
	DB	0d8H
	DB	04bH
	DB	0b8H
	DB	043H
	DB	0b9H
	DB	043H
	DB	0b9H
	DB	03bH
	DB	0b9H
	DB	03bH
	DB	0b9H
	DB	03bH
	DB	0d8H
	DB	043H
	DB	0d9H
	DB	043H
	DB	0b9H
	DB	043H
	DB	0b9H
	DB	043H
	DB	0b9H
	DB	03bH
	DB	0d9H
	DB	03bH
	DB	0d9H
	DB	03bH
	DB	0b9H
	DB	03bH
	DB	0d9H
	DB	03bH
	DB	0b9H
	DB	03bH
	DB	0d9H
	DB	03bH
	DB	0b8H
	DB	03bH
	DB	0b8H
	DB	03bH
	DB	0b8H
	DB	03bH
	DB	0b8H
	DB	03bH
	DB	034H
	DB	02bH
	DB	04cH
	DB	01H
	DB	0aeH
	DB	01aH
	DB	0b9H
	DB	065H
	DB	09fH
	DB	0afH
	DB	09fH
	DB	0cfH
	DB	0bfH
	DB	0cfH
	DB	0bfH
	DB	0cfH
	DB	09cH
	DB	0b6H
	DB	07cH
	DB	0aeH
	DB	05bH
	DB	09eH
	DB	05cH
	DB	09eH
	DB	05cH
	DB	096H
	DB	07cH
	DB	08eH
	DB	09dH
	DB	096H
	DB	07cH
	DB	096H
	DB	09cH
	DB	096H
	DB	03bH
	DB	086H
	DB	03cH
	DB	086H
	DB	05cH
	DB	086H
	DB	0fbH
	DB	075H
	DB	0b9H
	DB	06dH
	DB	0b8H
	DB	05dH
	DB	0b8H
	DB	055H
	DB	098H
	DB	04dH
	DB	0d9H
	DB	05dH
	DB	0bdH
	DB	08eH
	DB	01bH
	DB	076H
	DB	01bH
	DB	06eH
	DB	01bH
	DB	06eH
	DB	0faH
	DB	065H
	DB	0b9H
	DB	04dH
	DB	099H
	DB	04dH
	DB	01aH
	DB	05eH
	DB	01bH
	DB	066H
	DB	01aH
	DB	066H
	DB	077H
	DB	045H
	DB	03bH
	DB	05eH
	DB	03bH
	DB	066H
	DB	03aH
	DB	066H
	DB	09cH
	DB	07eH
	DB	0d9H
	DB	05dH
	DB	099H
	DB	05dH
	DB	0b8H
	DB	055H
	DB	0f9H
	DB	05dH
	DB	0d9H
	DB	05dH
	DB	0f8H
	DB	065H
	DB	057H
	DB	055H
	DB	077H
	DB	055H
	DB	0b7H
	DB	065H
	DB	037H
	DB	04dH
	DB	098H
	DB	055H
	DB	058H
	DB	055H
	DB	098H
	DB	055H
	DB	0b8H
	DB	04dH
	DB	0b7H
	DB	045H
	DB	096H
	DB	045H
	DB	096H
	DB	045H
	DB	05bH
	DB	076H
	DB	0f8H
	DB	075H
	DB	0b2H
	DB	03cH
	DB	072H
	DB	02cH
	DB	056H
	DB	04dH
	DB	056H
	DB	04dH
	DB	0b7H
	DB	04dH
	DB	019H
	DB	066H
	DB	0f7H
	DB	05dH
	DB	0d7H
	DB	055H
	DB	036H
	DB	045H
	DB	097H
	DB	055H
	DB	0b7H
	DB	055H
	DB	0d8H
	DB	055H
	DB	0b6H
	DB	05dH
	DB	034H
	DB	045H
	DB	075H
	DB	045H
	DB	035H
	DB	04dH
	DB	056H
	DB	055H
	DB	0f4H
	DB	044H
	DB	056H
	DB	045H
	DB	056H
	DB	04dH
	DB	034H
	DB	045H
	DB	075H
	DB	045H
	DB	097H
	DB	04dH
	DB	076H
	DB	055H
	DB	013H
	DB	045H
	DB	0d1H
	DB	034H
	DB	0f1H
	DB	034H
	DB	0f1H
	DB	034H
	DB	055H
	DB	03dH
	DB	075H
	DB	04dH
	DB	0d2H
	DB	034H
	DB	034H
	DB	03dH
	DB	055H
	DB	03dH
	DB	0d8H
	DB	04dH
	DB	0d7H
	DB	055H
	DB	0b5H
	DB	055H
	DB	0f8H
	DB	065H
	DB	0dcH
	DB	086H
	DB	09bH
	DB	07eH
	DB	018H
	DB	076H
	DB	0d7H
	DB	065H
	DB	0f8H
	DB	06dH
	DB	018H
	DB	066H
	DB	039H
	DB	076H
	DB	05aH
	DB	076H
	DB	039H
	DB	06eH
	DB	039H
	DB	05eH
	DB	0b6H
	DB	04dH
	DB	075H
	DB	045H
	DB	0b7H
	DB	055H
	DB	097H
	DB	02H
	DB	0b8H
	DB	02H
	DB	0b8H
	DB	02H
	DB	0b8H
	DB	02H
	DB	0b7H
	DB	02H
	DB	0b8H
	DB	02H
	DB	0b8H
	DB	02H
	DB	0b8H
	DB	0aH
	DB	0d8H
	DB	0aH
	DB	0d8H
	DB	0aH
	DB	0d8H
	DB	0aH
	DB	0d8H
	DB	0aH
	DB	0d8H
	DB	0aH
	DB	0d8H
	DB	0aH
	DB	0d8H
	DB	0aH
	DB	0b8H
	DB	0aH
	DB	0d8H
	DB	0aH
	DB	0d8H
	DB	0aH
	DB	0f8H
	DB	0aH
	DB	0f9H
	DB	0aH
	DB	0d8H
	DB	0aH
	DB	0d8H
	DB	0aH
	DB	0d8H
	DB	0aH
	DB	0f9H
	DB	012H
	DB	0f9H
	DB	012H
	DB	0f9H
	DB	0aH
	DB	019H
	DB	0bH
	DB	019H
	DB	0bH
	DB	0f9H
	DB	0aH
	DB	019H
	DB	013H
	DB	019H
	DB	0bH
	DB	039H
	DB	013H
	DB	039H
	DB	0bH
	DB	039H
	DB	013H
	DB	039H
	DB	013H
	DB	039H
	DB	013H
	DB	039H
	DB	013H
	DB	039H
	DB	013H
	DB	039H
	DB	013H
	DB	059H
	DB	013H
	DB	059H
	DB	01bH
	DB	059H
	DB	01bH
	DB	059H
	DB	01bH
	DB	079H
	DB	01bH
	DB	079H
	DB	023H
	DB	09aH
	DB	02bH
	DB	099H
	DB	023H
	DB	079H
	DB	023H
	DB	07aH
	DB	023H
	DB	07aH
	DB	01bH
	DB	07aH
	DB	01bH
	DB	09aH
	DB	023H
	DB	09aH
	DB	023H
	DB	09aH
	DB	023H
	DB	09aH
	DB	023H
	DB	09aH
	DB	023H
	DB	09aH
	DB	023H
	DB	09aH
	DB	023H
	DB	09aH
	DB	02bH
	DB	09aH
	DB	02bH
	DB	099H
	DB	033H
	DB	0d9H
	DB	03bH
	DB	0d9H
	DB	04bH
	DB	0f9H
	DB	053H
	DB	019H
	DB	05cH
	DB	039H
	DB	05cH
	DB	039H
	DB	05cH
	DB	01aH
	DB	054H
	DB	0faH
	DB	053H
	DB	0faH
	DB	04bH
	DB	0f9H
	DB	043H
	DB	0d9H
	DB	043H
	DB	0daH
	DB	03bH
	DB	0daH
	DB	03bH
	DB	0daH
	DB	03bH
	DB	0daH
	DB	03bH
	DB	0daH
	DB	03bH
	DB	0daH
	DB	033H
	DB	0d9H
	DB	033H
	DB	0daH
	DB	03bH
	DB	0daH
	DB	03bH
	DB	0faH
	DB	043H
	DB	0daH
	DB	043H
	DB	0daH
	DB	043H
	DB	0daH
	DB	043H
	DB	0faH
	DB	04bH
	DB	0faH
	DB	04bH
	DB	0faH
	DB	04bH
	DB	0f9H
	DB	04bH
	DB	0f9H
	DB	04bH
	DB	0faH
	DB	04bH
	DB	0d9H
	DB	043H
	DB	0daH
	DB	043H
	DB	0faH
	DB	043H
	DB	0faH
	DB	043H
	DB	0d9H
	DB	043H
	DB	0daH
	DB	043H
	DB	0f9H
	DB	043H
	DB	0faH
	DB	043H
	DB	0f9H
	DB	043H
	DB	0f9H
	DB	043H
	DB	0faH
	DB	043H
	DB	0f9H
	DB	043H
	DB	0d9H
	DB	043H
	DB	0d9H
	DB	043H
	DB	0f9H
	DB	04bH
	DB	0f9H
	DB	04bH
	DB	0d9H
	DB	04bH
	DB	0d9H
	DB	04bH
	DB	0d9H
	DB	04bH
	DB	0d9H
	DB	043H
	DB	0b9H
	DB	043H
	DB	0b8H
	DB	03bH
	DB	0b9H
	DB	043H
	DB	0b9H
	DB	03bH
	DB	0b8H
	DB	043H
	DB	0b8H
	DB	043H
	DB	0b8H
	DB	043H
	DB	0b8H
	DB	043H
	DB	0b8H
	DB	03bH
	DB	0b8H
	DB	03bH
	DB	0d9H
	DB	03bH
	DB	0d9H
	DB	03bH
	DB	0d9H
	DB	03bH
	DB	0b9H
	DB	03bH
	DB	0b8H
	DB	03bH
	DB	0b8H
	DB	03bH
	DB	0b8H
	DB	03bH
	DB	0b8H
	DB	03bH
	DB	098H
	DB	03bH
	DB	034H
	DB	02bH
	DB	0cH
	DB	01H
	DB	04dH
	DB	01aH
	DB	099H
	DB	065H
	DB	0bfH
	DB	0afH
	DB	09fH
	DB	0cfH
	DB	09fH
	DB	0cfH
	DB	07fH
	DB	0cfH
	DB	07cH
	DB	0aeH
	DB	05bH
	DB	0a6H
	DB	05bH
	DB	09eH
	DB	03bH
	DB	09eH
	DB	03bH
	DB	096H
	DB	07cH
	DB	096H
	DB	07dH
	DB	096H
	DB	05cH
	DB	08eH
	DB	09dH
	DB	096H
	DB	05cH
	DB	08eH
	DB	03bH
	DB	07eH
	DB	05cH
	DB	07eH
	DB	0faH
	DB	075H
	DB	099H
	DB	065H
	DB	077H
	DB	05dH
	DB	098H
	DB	055H
	DB	098H
	DB	055H
	DB	0d9H
	DB	05dH
	DB	0bdH
	DB	08eH
	DB	01bH
	DB	076H
	DB	0fbH
	DB	06dH
	DB	0daH
	DB	065H
	DB	0faH
	DB	065H
	DB	058H
	DB	04dH
	DB	0b9H
	DB	055H
	DB	0faH
	DB	05dH
	DB	0faH
	DB	05dH
	DB	0b9H
	DB	05dH
	DB	036H
	DB	045H
	DB	0d9H
	DB	055H
	DB	01aH
	DB	066H
	DB	01aH
	DB	066H
	DB	03aH
	DB	066H
	DB	0d9H
	DB	055H
	DB	0b8H
	DB	05dH
	DB	0b7H
	DB	05dH
	DB	018H
	DB	05eH
	DB	0b8H
	DB	055H
	DB	0d9H
	DB	065H
	DB	057H
	DB	055H
	DB	057H
	DB	055H
	DB	0d8H
	DB	065H
	DB	057H
	DB	04dH
	DB	098H
	DB	05dH
	DB	078H
	DB	04dH
	DB	0b8H
	DB	055H
	DB	0b8H
	DB	04dH
	DB	0b7H
	DB	04dH
	DB	055H
	DB	03dH
	DB	0d8H
	DB	055H
	DB	03bH
	DB	076H
	DB	076H
	DB	05dH
	DB	0d3H
	DB	044H
	DB	0b3H
	DB	03cH
	DB	057H
	DB	045H
	DB	057H
	DB	045H
	DB	097H
	DB	04dH
	DB	019H
	DB	066H
	DB	0d7H
	DB	055H
	DB	0b7H
	DB	055H
	DB	056H
	DB	04dH
	DB	0d8H
	DB	05dH
	DB	0d8H
	DB	05dH
	DB	0f9H
	DB	05dH
	DB	0d7H
	DB	065H
	DB	055H
	DB	04dH
	DB	055H
	DB	045H
	DB	035H
	DB	04dH
	DB	035H
	DB	04dH
	DB	0f4H
	DB	044H
	DB	056H
	DB	04dH
	DB	056H
	DB	04dH
	DB	034H
	DB	045H
	DB	075H
	DB	03dH
	DB	076H
	DB	045H
	DB	096H
	DB	05dH
	DB	013H
	DB	045H
	DB	0b1H
	DB	034H
	DB	070H
	DB	02cH
	DB	070H
	DB	024H
	DB	034H
	DB	03dH
	DB	033H
	DB	045H
	DB	0fH
	DB	01cH
	DB	0f3H
	DB	034H
	DB	035H
	DB	035H
	DB	0b7H
	DB	045H
	DB	0b7H
	DB	04dH
	DB	0d7H
	DB	05dH
	DB	019H
	DB	066H
	DB	07bH
	DB	07eH
	DB	07bH
	DB	076H
	DB	018H
	DB	07eH
	DB	0f8H
	DB	075H
	DB	0f8H
	DB	06dH
	DB	018H
	DB	066H
	DB	019H
	DB	06eH
	DB	019H
	DB	066H
	DB	03aH
	DB	066H
	DB	018H
	DB	05eH
	DB	0b6H
	DB	04dH
	DB	095H
	DB	045H
	DB	0b6H
	DB	05dH
	DB	097H
	DB	02H
	DB	0b8H
	DB	02H
	DB	097H
	DB	02H
	DB	0b8H
	DB	02H
	DB	097H
	DB	02H
	DB	0b8H
	DB	02H
	DB	0b8H
	DB	0aH
	DB	0b8H
	DB	0aH
	DB	0b8H
	DB	0aH
	DB	0b8H
	DB	0aH
	DB	0d8H
	DB	0aH
	DB	0d8H
	DB	0aH
	DB	0d8H
	DB	0aH
	DB	0d8H
	DB	0aH
	DB	0b8H
	DB	0aH
	DB	0b8H
	DB	0aH
	DB	0d8H
	DB	0aH
	DB	0d8H
	DB	0aH
	DB	0f9H
	DB	0aH
	DB	0d8H
	DB	0aH
	DB	0d8H
	DB	0aH
	DB	0d8H
	DB	0aH
	DB	0d8H
	DB	0aH
	DB	0f9H
	DB	012H
	DB	019H
	DB	0bH
	DB	0f9H
	DB	0aH
	DB	0f9H
	DB	0aH
	DB	0f9H
	DB	0aH
	DB	0f9H
	DB	0aH
	DB	0f9H
	DB	012H
	DB	019H
	DB	013H
	DB	019H
	DB	0bH
	DB	019H
	DB	013H
	DB	019H
	DB	013H
	DB	039H
	DB	013H
	DB	039H
	DB	013H
	DB	039H
	DB	013H
	DB	059H
	DB	013H
	DB	059H
	DB	013H
	DB	039H
	DB	013H
	DB	039H
	DB	01bH
	DB	039H
	DB	01bH
	DB	079H
	DB	01bH
	DB	059H
	DB	01bH
	DB	079H
	DB	023H
	DB	07aH
	DB	023H
	DB	07aH
	DB	023H
	DB	07aH
	DB	01bH
	DB	07aH
	DB	023H
	DB	079H
	DB	01bH
	DB	09aH
	DB	01bH
	DB	09aH
	DB	01bH
	DB	09aH
	DB	023H
	DB	09aH
	DB	023H
	DB	09aH
	DB	023H
	DB	09aH
	DB	023H
	DB	09aH
	DB	023H
	DB	09aH
	DB	023H
	DB	09aH
	DB	02bH
	DB	0baH
	DB	02bH
	DB	09aH
	DB	033H
	DB	0b9H
	DB	043H
	DB	0faH
	DB	053H
	DB	03aH
	DB	064H
	DB	05aH
	DB	064H
	DB	05aH
	DB	064H
	DB	03aH
	DB	05cH
	DB	01aH
	DB	054H
	DB	0f9H
	DB	04bH
	DB	0d9H
	DB	043H
	DB	0d9H
	DB	043H
	DB	0d9H
	DB	043H
	DB	0d9H
	DB	03bH
	DB	0daH
	DB	03bH
	DB	0daH
	DB	03bH
	DB	0daH
	DB	03bH
	DB	0daH
	DB	03bH
	DB	0daH
	DB	033H
	DB	0daH
	DB	03bH
	DB	0daH
	DB	03bH
	DB	0daH
	DB	03bH
	DB	0daH
	DB	043H
	DB	0daH
	DB	043H
	DB	0daH
	DB	043H
	DB	0d9H
	DB	043H
	DB	0daH
	DB	043H
	DB	0d9H
	DB	043H
	DB	0f9H
	DB	04bH
	DB	0d9H
	DB	043H
	DB	0d9H
	DB	043H
	DB	0f9H
	DB	043H
	DB	0d9H
	DB	043H
	DB	0d9H
	DB	043H
	DB	0daH
	DB	043H
	DB	0d9H
	DB	043H
	DB	0d9H
	DB	043H
	DB	0d9H
	DB	043H
	DB	0d9H
	DB	043H
	DB	0d9H
	DB	043H
	DB	0f9H
	DB	043H
	DB	0f9H
	DB	043H
	DB	0f9H
	DB	043H
	DB	0d9H
	DB	043H
	DB	0d9H
	DB	043H
	DB	0b9H
	DB	043H
	DB	0d9H
	DB	04bH
	DB	0d8H
	DB	043H
	DB	0d9H
	DB	04bH
	DB	0d9H
	DB	04bH
	DB	0d9H
	DB	04bH
	DB	0b8H
	DB	043H
	DB	0b9H
	DB	043H
	DB	0b9H
	DB	043H
	DB	0b9H
	DB	03bH
	DB	0b9H
	DB	03bH
	DB	0b9H
	DB	043H
	DB	0b8H
	DB	043H
	DB	0d8H
	DB	043H
	DB	0b8H
	DB	043H
	DB	0b8H
	DB	043H
	DB	0b8H
	DB	03bH
	DB	0b8H
	DB	03bH
	DB	0b8H
	DB	03bH
	DB	0b8H
	DB	03bH
	DB	0b9H
	DB	03bH
	DB	0b8H
	DB	03bH
	DB	0b8H
	DB	03bH
	DB	0b8H
	DB	03bH
	DB	0b8H
	DB	03bH
	DB	0b8H
	DB	03bH
	DB	035H
	DB	033H
	DB	0bH
	DB	01H
	DB	04dH
	DB	01aH
	DB	099H
	DB	065H
	DB	0bfH
	DB	0afH
	DB	09fH
	DB	0cfH
	DB	09fH
	DB	0cfH
	DB	07fH
	DB	0cfH
	DB	07cH
	DB	0aeH
	DB	05bH
	DB	0a6H
	DB	05bH
	DB	0a6H
	DB	05bH
	DB	0a6H
	DB	03bH
	DB	09eH
	DB	07cH
	DB	096H
	DB	07cH
	DB	096H
	DB	07cH
	DB	096H
	DB	07cH
	DB	086H
	DB	07cH
	DB	08eH
	DB	03bH
	DB	07eH
	DB	03cH
	DB	07eH
	DB	0faH
	DB	075H
	DB	098H
	DB	065H
	DB	077H
	DB	055H
	DB	0b8H
	DB	05dH
	DB	098H
	DB	055H
	DB	0b9H
	DB	065H
	DB	09dH
	DB	086H
	DB	05cH
	DB	07eH
	DB	01bH
	DB	076H
	DB	0baH
	DB	065H
	DB	0daH
	DB	05dH
	DB	099H
	DB	05dH
	DB	0faH
	DB	065H
	DB	0faH
	DB	065H
	DB	0daH
	DB	05dH
	DB	0b9H
	DB	055H
	DB	016H
	DB	045H
	DB	0b8H
	DB	04dH
	DB	0b9H
	DB	055H
	DB	0d9H
	DB	05dH
	DB	0d9H
	DB	05dH
	DB	0d9H
	DB	05dH
	DB	0b8H
	DB	05dH
	DB	0f8H
	DB	05dH
	DB	018H
	DB	05eH
	DB	097H
	DB	055H
	DB	0b8H
	DB	05dH
	DB	037H
	DB	04dH
	DB	077H
	DB	04dH
	DB	0b8H
	DB	055H
	DB	077H
	DB	055H
	DB	098H
	DB	05dH
	DB	077H
	DB	055H
	DB	097H
	DB	04dH
	DB	0b7H
	DB	04dH
	DB	0d7H
	DB	04dH
	DB	035H
	DB	045H
	DB	0d9H
	DB	05dH
	DB	01aH
	DB	06eH
	DB	0f5H
	DB	04cH
	DB	0d4H
	DB	044H
	DB	0b4H
	DB	03cH
	DB	0d6H
	DB	03cH
	DB	036H
	DB	045H
	DB	056H
	DB	045H
	DB	0d8H
	DB	05dH
	DB	0d7H
	DB	05dH
	DB	096H
	DB	055H
	DB	077H
	DB	055H
	DB	0b8H
	DB	055H
	DB	0b7H
	DB	055H
	DB	0d8H
	DB	055H
	DB	0d7H
	DB	065H
	DB	076H
	DB	04dH
	DB	055H
	DB	04dH
	DB	014H
	DB	045H
	DB	035H
	DB	045H
	DB	0f4H
	DB	044H
	DB	035H
	DB	045H
	DB	035H
	DB	045H
	DB	054H
	DB	045H
	DB	055H
	DB	03dH
	DB	076H
	DB	045H
	DB	0b7H
	DB	05dH
	DB	054H
	DB	04dH
	DB	0d1H
	DB	034H
	DB	06fH
	DB	024H
	DB	02fH
	DB	01cH
	DB	034H
	DB	035H
	DB	0f2H
	DB	03cH
	DB	0eeH
	DB	01bH
	DB	0f3H
	DB	034H
	DB	035H
	DB	035H
	DB	076H
	DB	03dH
	DB	096H
	DB	045H
	DB	0d8H
	DB	05dH
	DB	019H
	DB	06eH
	DB	05aH
	DB	07eH
	DB	05aH
	DB	076H
	DB	039H
	DB	07eH
	DB	018H
	DB	076H
	DB	018H
	DB	06eH
	DB	0f8H
	DB	065H
	DB	0d7H
	DB	065H
	DB	0b7H
	DB	05dH
	DB	0f8H
	DB	055H
	DB	0d7H
	DB	055H
	DB	0b6H
	DB	055H
	DB	0b6H
	DB	055H
	DB	0f7H
	DB	06dH
	DB	098H
	DB	02H
	DB	097H
	DB	02H
	DB	097H
	DB	02H
	DB	097H
	DB	0aH
	DB	0b8H
	DB	0aH
	DB	098H
	DB	0aH
	DB	098H
	DB	0aH
	DB	0b8H
	DB	0aH
	DB	0b8H
	DB	0aH
	DB	0b8H
	DB	0aH
	DB	0b8H
	DB	0aH
	DB	0d8H
	DB	0aH
	DB	0d8H
	DB	0aH
	DB	0b8H
	DB	0aH
	DB	0b8H
	DB	0aH
	DB	0b8H
	DB	0aH
	DB	0b8H
	DB	0aH
	DB	0f8H
	DB	0aH
	DB	0d8H
	DB	012H
	DB	0d8H
	DB	0aH
	DB	0d8H
	DB	0aH
	DB	0d8H
	DB	0aH
	DB	0d8H
	DB	0aH
	DB	0d9H
	DB	0aH
	DB	0f9H
	DB	012H
	DB	019H
	DB	013H
	DB	0f9H
	DB	0aH
	DB	0f9H
	DB	0aH
	DB	0f9H
	DB	012H
	DB	0f9H
	DB	0aH
	DB	019H
	DB	0bH
	DB	019H
	DB	013H
	DB	019H
	DB	013H
	DB	019H
	DB	013H
	DB	039H
	DB	013H
	DB	019H
	DB	013H
	DB	039H
	DB	013H
	DB	059H
	DB	013H
	DB	039H
	DB	013H
	DB	05aH
	DB	01bH
	DB	059H
	DB	01bH
	DB	059H
	DB	01bH
	DB	059H
	DB	01bH
	DB	059H
	DB	01bH
	DB	07aH
	DB	023H
	DB	079H
	DB	023H
	DB	079H
	DB	01bH
	DB	079H
	DB	01bH
	DB	07aH
	DB	01bH
	DB	07aH
	DB	01bH
	DB	07aH
	DB	01bH
	DB	07aH
	DB	01bH
	DB	07aH
	DB	01bH
	DB	07aH
	DB	023H
	DB	07aH
	DB	023H
	DB	09aH
	DB	023H
	DB	09aH
	DB	023H
	DB	09aH
	DB	023H
	DB	09aH
	DB	02bH
	DB	09aH
	DB	033H
	DB	0baH
	DB	03bH
	DB	0d9H
	DB	04bH
	DB	01aH
	DB	05cH
	DB	05aH
	DB	064H
	DB	07aH
	DB	064H
	DB	07bH
	DB	05cH
	DB	05aH
	DB	05cH
	DB	03aH
	DB	04cH
	DB	0f9H
	DB	043H
	DB	0d9H
	DB	043H
	DB	0d9H
	DB	043H
	DB	0daH
	DB	043H
	DB	0daH
	DB	043H
	DB	0d9H
	DB	043H
	DB	0b9H
	DB	043H
	DB	0b9H
	DB	043H
	DB	0b9H
	DB	03bH
	DB	0baH
	DB	03bH
	DB	0daH
	DB	03bH
	DB	0daH
	DB	03bH
	DB	0baH
	DB	03bH
	DB	0d9H
	DB	03bH
	DB	0daH
	DB	043H
	DB	0b9H
	DB	043H
	DB	0d9H
	DB	043H
	DB	0d9H
	DB	043H
	DB	0d9H
	DB	043H
	DB	0b9H
	DB	043H
	DB	0d9H
	DB	043H
	DB	0d9H
	DB	043H
	DB	0d9H
	DB	043H
	DB	0d9H
	DB	043H
	DB	0d9H
	DB	043H
	DB	0d9H
	DB	043H
	DB	0d9H
	DB	043H
	DB	0d9H
	DB	043H
	DB	0d9H
	DB	043H
	DB	0d9H
	DB	043H
	DB	0d9H
	DB	043H
	DB	0f9H
	DB	043H
	DB	0d9H
	DB	043H
	DB	0d9H
	DB	043H
	DB	0d9H
	DB	043H
	DB	0d9H
	DB	043H
	DB	0d9H
	DB	043H
	DB	0d9H
	DB	043H
	DB	0d8H
	DB	043H
	DB	0d8H
	DB	043H
	DB	0b8H
	DB	043H
	DB	0d9H
	DB	043H
	DB	0b8H
	DB	043H
	DB	0b9H
	DB	043H
	DB	0b9H
	DB	03bH
	DB	0b8H
	DB	03bH
	DB	0b8H
	DB	03bH
	DB	0b8H
	DB	03bH
	DB	0b9H
	DB	043H
	DB	0d9H
	DB	043H
	DB	0b8H
	DB	043H
	DB	0b8H
	DB	043H
	DB	0b8H
	DB	03bH
	DB	0b8H
	DB	03bH
	DB	0b8H
	DB	03bH
	DB	0b8H
	DB	03bH
	DB	0b8H
	DB	03bH
	DB	098H
	DB	03bH
	DB	0b8H
	DB	03bH
	DB	0b8H
	DB	03bH
	DB	098H
	DB	03bH
	DB	098H
	DB	03bH
	DB	034H
	DB	033H
	DB	0bH
	DB	09H
	DB	02dH
	DB	01aH
	DB	098H
	DB	065H
	DB	09fH
	DB	0afH
	DB	0bfH
	DB	0cfH
	DB	09fH
	DB	0d7H
	DB	09fH
	DB	0d7H
	DB	07cH
	DB	0aeH
	DB	03bH
	DB	0a6H
	DB	03bH
	DB	0a6H
	DB	07bH
	DB	0a6H
	DB	03bH
	DB	09eH
	DB	09dH
	DB	09eH
	DB	09cH
	DB	09eH
	DB	07dH
	DB	096H
	DB	03cH
	DB	086H
	DB	05cH
	DB	08eH
	DB	03cH
	DB	07eH
	DB	0fbH
	DB	075H
	DB	0baH
	DB	06dH
	DB	0b9H
	DB	065H
	DB	078H
	DB	05dH
	DB	098H
	DB	055H
	DB	098H
	DB	055H
	DB	0d9H
	DB	065H
	DB	0bdH
	DB	096H
	DB	09dH
	DB	08eH
	DB	01bH
	DB	076H
	DB	0daH
	DB	065H
	DB	0daH
	DB	05dH
	DB	099H
	DB	05dH
	DB	01aH
	DB	066H
	DB	0faH
	DB	065H
	DB	0daH
	DB	05dH
	DB	0b9H
	DB	05dH
	DB	056H
	DB	04dH
	DB	057H
	DB	04dH
	DB	057H
	DB	04dH
	DB	0d9H
	DB	05dH
	DB	0f9H
	DB	05dH
	DB	0b9H
	DB	055H
	DB	0b8H
	DB	055H
	DB	019H
	DB	05eH
	DB	0d8H
	DB	055H
	DB	097H
	DB	04dH
	DB	077H
	DB	055H
	DB	016H
	DB	045H
	DB	0b8H
	DB	055H
	DB	0b8H
	DB	05dH
	DB	078H
	DB	055H
	DB	0b8H
	DB	05dH
	DB	098H
	DB	055H
	DB	077H
	DB	04dH
	DB	097H
	DB	04dH
	DB	097H
	DB	04dH
	DB	076H
	DB	04dH
	DB	0d9H
	DB	055H
	DB	01aH
	DB	06eH
	DB	0b4H
	DB	044H
	DB	0d4H
	DB	03cH
	DB	0b4H
	DB	03cH
	DB	0f6H
	DB	04cH
	DB	056H
	DB	055H
	DB	097H
	DB	055H
	DB	0d7H
	DB	05dH
	DB	0f7H
	DB	065H
	DB	0f8H
	DB	06dH
	DB	077H
	DB	05dH
	DB	076H
	DB	045H
	DB	0b7H
	DB	055H
	DB	0d7H
	DB	05dH
	DB	0d7H
	DB	05dH
	DB	056H
	DB	045H
	DB	076H
	DB	055H
	DB	014H
	DB	045H
	DB	0d3H
	DB	03cH
	DB	014H
	DB	045H
	DB	035H
	DB	045H
	DB	035H
	DB	045H
	DB	054H
	DB	03dH
	DB	034H
	DB	03dH
	DB	075H
	DB	03dH
	DB	0d7H
	DB	05dH
	DB	055H
	DB	055H
	DB	0f2H
	DB	03cH
	DB	070H
	DB	02cH
	DB	050H
	DB	024H
	DB	014H
	DB	03dH
	DB	0f2H
	DB	044H
	DB	02fH
	DB	024H
	DB	034H
	DB	03dH
	DB	055H
	DB	045H
	DB	075H
	DB	045H
	DB	055H
	DB	045H
	DB	0f7H
	DB	05dH
	DB	019H
	DB	06eH
	DB	05aH
	DB	07eH
	DB	03aH
	DB	076H
	DB	039H
	DB	07eH
	DB	039H
	DB	076H
	DB	018H
	DB	076H
	DB	0d7H
	DB	065H
	DB	097H
	DB	055H
	DB	096H
	DB	05dH
	DB	0f8H
	DB	055H
	DB	0f7H
	DB	05dH
	DB	095H
	DB	055H
	DB	0f7H
	DB	065H
	DB	017H
	DB	07eH
	DB	097H
	DB	02H
	DB	097H
	DB	02H
	DB	077H
	DB	02H
	DB	097H
	DB	0aH
	DB	097H
	DB	02H
	DB	098H
	DB	0aH
	DB	098H
	DB	02H
	DB	0b8H
	DB	0aH
	DB	0b8H
	DB	0aH
	DB	0b8H
	DB	0aH
	DB	0b8H
	DB	0aH
	DB	0b8H
	DB	0aH
	DB	0b8H
	DB	0aH
	DB	0b8H
	DB	0aH
	DB	0b8H
	DB	0aH
	DB	0b8H
	DB	0aH
	DB	0d8H
	DB	0aH
	DB	0d8H
	DB	0aH
	DB	0d8H
	DB	0aH
	DB	0d8H
	DB	0aH
	DB	0f9H
	DB	0aH
	DB	0d8H
	DB	0aH
	DB	0f9H
	DB	012H
	DB	0d8H
	DB	0aH
	DB	0f9H
	DB	0aH
	DB	0f9H
	DB	012H
	DB	0f9H
	DB	0aH
	DB	019H
	DB	0bH
	DB	019H
	DB	013H
	DB	019H
	DB	013H
	DB	0f9H
	DB	0aH
	DB	019H
	DB	013H
	DB	019H
	DB	013H
	DB	019H
	DB	013H
	DB	019H
	DB	013H
	DB	019H
	DB	013H
	DB	019H
	DB	013H
	DB	039H
	DB	013H
	DB	039H
	DB	013H
	DB	059H
	DB	013H
	DB	039H
	DB	013H
	DB	059H
	DB	01bH
	DB	059H
	DB	01bH
	DB	039H
	DB	01bH
	DB	059H
	DB	023H
	DB	059H
	DB	01bH
	DB	059H
	DB	01bH
	DB	079H
	DB	01bH
	DB	05aH
	DB	01bH
	DB	07aH
	DB	01bH
	DB	07aH
	DB	01bH
	DB	07aH
	DB	01bH
	DB	07aH
	DB	023H
	DB	079H
	DB	023H
	DB	07aH
	DB	023H
	DB	09aH
	DB	023H
	DB	09aH
	DB	023H
	DB	079H
	DB	02bH
	DB	099H
	DB	033H
	DB	0b9H
	DB	03bH
	DB	0d9H
	DB	043H
	DB	0daH
	DB	04bH
	DB	01aH
	DB	054H
	DB	05aH
	DB	05cH
	DB	05aH
	DB	05cH
	DB	03aH
	DB	054H
	DB	03aH
	DB	054H
	DB	01aH
	DB	044H
	DB	0d9H
	DB	043H
	DB	0b9H
	DB	043H
	DB	0b9H
	DB	043H
	DB	0daH
	DB	043H
	DB	0d9H
	DB	043H
	DB	0d9H
	DB	043H
	DB	0faH
	DB	043H
	DB	0daH
	DB	043H
	DB	0baH
	DB	03bH
	DB	0b9H
	DB	03bH
	DB	0baH
	DB	03bH
	DB	0daH
	DB	03bH
	DB	0baH
	DB	03bH
	DB	0d9H
	DB	03bH
	DB	0d9H
	DB	043H
	DB	0b9H
	DB	043H
	DB	0b9H
	DB	043H
	DB	0b9H
	DB	043H
	DB	0b9H
	DB	043H
	DB	0b9H
	DB	043H
	DB	0b9H
	DB	043H
	DB	0d9H
	DB	043H
	DB	0d9H
	DB	043H
	DB	0d9H
	DB	043H
	DB	0d9H
	DB	043H
	DB	0d9H
	DB	043H
	DB	0d9H
	DB	043H
	DB	0d9H
	DB	043H
	DB	0d9H
	DB	043H
	DB	0d9H
	DB	043H
	DB	0d9H
	DB	043H
	DB	0d9H
	DB	043H
	DB	0d9H
	DB	043H
	DB	0d9H
	DB	043H
	DB	0d9H
	DB	043H
	DB	0d9H
	DB	043H
	DB	0b9H
	DB	043H
	DB	0d9H
	DB	043H
	DB	0b9H
	DB	043H
	DB	0d9H
	DB	043H
	DB	0b8H
	DB	043H
	DB	0b9H
	DB	043H
	DB	0b8H
	DB	043H
	DB	0d9H
	DB	043H
	DB	0b8H
	DB	03bH
	DB	0b9H
	DB	03bH
	DB	0b9H
	DB	03bH
	DB	0b9H
	DB	043H
	DB	0b8H
	DB	03bH
	DB	0b8H
	DB	03bH
	DB	0b9H
	DB	043H
	DB	0b9H
	DB	043H
	DB	0b8H
	DB	03bH
	DB	0b8H
	DB	03bH
	DB	0b8H
	DB	03bH
	DB	0b8H
	DB	03bH
	DB	0b8H
	DB	03bH
	DB	0b8H
	DB	03bH
	DB	0b8H
	DB	03bH
	DB	098H
	DB	03bH
	DB	098H
	DB	03bH
	DB	077H
	DB	033H
	DB	055H
	DB	033H
	DB	02cH
	DB	09H
	DB	04dH
	DB	01aH
	DB	077H
	DB	05dH
	DB	07fH
	DB	0afH
	DB	09fH
	DB	0cfH
	DB	09fH
	DB	0d7H
	DB	09fH
	DB	0d7H
	DB	07cH
	DB	0b6H
	DB	03bH
	DB	0aeH
	DB	03bH
	DB	0a6H
	DB	05bH
	DB	0a6H
	DB	05bH
	DB	09eH
	DB	07cH
	DB	09eH
	DB	0bdH
	DB	09eH
	DB	09dH
	DB	096H
	DB	05cH
	DB	096H
	DB	05cH
	DB	08eH
	DB	03bH
	DB	086H
	DB	0daH
	DB	075H
	DB	0b9H
	DB	06dH
	DB	078H
	DB	065H
	DB	078H
	DB	05dH
	DB	058H
	DB	055H
	DB	078H
	DB	04dH
	DB	0b9H
	DB	05dH
	DB	0beH
	DB	096H
	DB	09dH
	DB	08eH
	DB	03bH
	DB	076H
	DB	0fbH
	DB	06dH
	DB	0fbH
	DB	065H
	DB	099H
	DB	05dH
	DB	0faH
	DB	065H
	DB	01aH
	DB	05eH
	DB	0faH
	DB	05dH
	DB	0b9H
	DB	05dH
	DB	057H
	DB	04dH
	DB	0d5H
	DB	03cH
	DB	037H
	DB	045H
	DB	0f9H
	DB	055H
	DB	0b8H
	DB	04dH
	DB	098H
	DB	055H
	DB	098H
	DB	05dH
	DB	0d9H
	DB	05dH
	DB	0b8H
	DB	05dH
	DB	056H
	DB	04dH
	DB	077H
	DB	055H
	DB	077H
	DB	055H
	DB	0f9H
	DB	065H
	DB	0d8H
	DB	065H
	DB	077H
	DB	055H
	DB	098H
	DB	05dH
	DB	077H
	DB	055H
	DB	077H
	DB	04dH
	DB	097H
	DB	04dH
	DB	0d8H
	DB	05dH
	DB	0b7H
	DB	05dH
	DB	0b8H
	DB	055H
	DB	0f9H
	DB	06dH
	DB	0b3H
	DB	03cH
	DB	0d4H
	DB	03cH
	DB	016H
	DB	04dH
	DB	098H
	DB	05dH
	DB	098H
	DB	05dH
	DB	097H
	DB	05dH
	DB	0b7H
	DB	055H
	DB	0b7H
	DB	04dH
	DB	05aH
	DB	07eH
	DB	097H
	DB	065H
	DB	076H
	DB	04dH
	DB	0d8H
	DB	05dH
	DB	0f9H
	DB	065H
	DB	0d7H
	DB	065H
	DB	014H
	DB	045H
	DB	0b6H
	DB	055H
	DB	055H
	DB	04dH
	DB	0d3H
	DB	03cH
	DB	014H
	DB	045H
	DB	015H
	DB	045H
	DB	034H
	DB	03dH
	DB	074H
	DB	03dH
	DB	054H
	DB	03dH
	DB	055H
	DB	03dH
	DB	0d7H
	DB	05dH
	DB	095H
	DB	05dH
	DB	0f2H
	DB	044H
	DB	04fH
	DB	024H
	DB	0b1H
	DB	02cH
	DB	034H
	DB	03dH
	DB	013H
	DB	045H
	DB	0d3H
	DB	034H
	DB	096H
	DB	04dH
	DB	075H
	DB	045H
	DB	095H
	DB	045H
	DB	075H
	DB	03dH
	DB	0d8H
	DB	055H
	DB	01aH
	DB	076H
	DB	019H
	DB	076H
	DB	039H
	DB	076H
	DB	07aH
	DB	086H
	DB	059H
	DB	07eH
	DB	038H
	DB	07eH
	DB	0b6H
	DB	065H
	DB	076H
	DB	055H
	DB	0b7H
	DB	065H
	DB	019H
	DB	05eH
	DB	0f8H
	DB	065H
	DB	095H
	DB	04dH
	DB	018H
	DB	06eH
	DB	037H
	DB	086H
	DB	097H
	DB	02H
	DB	0b8H
	DB	0aH
	DB	097H
	DB	0aH
	DB	097H
	DB	0aH
	DB	098H
	DB	0aH
	DB	098H
	DB	0aH
	DB	098H
	DB	02H
	DB	0b8H
	DB	0aH
	DB	0b8H
	DB	0aH
	DB	0b8H
	DB	0aH
	DB	0b8H
	DB	0aH
	DB	0b8H
	DB	0aH
	DB	0b8H
	DB	0aH
	DB	0b8H
	DB	0aH
	DB	0b8H
	DB	0aH
	DB	0b8H
	DB	0aH
	DB	0d8H
	DB	0aH
	DB	0d8H
	DB	0aH
	DB	0d8H
	DB	012H
	DB	0d8H
	DB	0aH
	DB	0f9H
	DB	0aH
	DB	0d8H
	DB	0aH
	DB	0d9H
	DB	012H
	DB	0f9H
	DB	012H
	DB	0f9H
	DB	0aH
	DB	0f9H
	DB	0aH
	DB	0f9H
	DB	012H
	DB	019H
	DB	013H
	DB	019H
	DB	013H
	DB	0f8H
	DB	012H
	DB	0f9H
	DB	012H
	DB	0f8H
	DB	012H
	DB	019H
	DB	013H
	DB	019H
	DB	013H
	DB	019H
	DB	013H
	DB	019H
	DB	013H
	DB	019H
	DB	013H
	DB	039H
	DB	013H
	DB	039H
	DB	013H
	DB	059H
	DB	013H
	DB	039H
	DB	013H
	DB	039H
	DB	013H
	DB	039H
	DB	01bH
	DB	039H
	DB	01bH
	DB	039H
	DB	01bH
	DB	059H
	DB	01bH
	DB	059H
	DB	01bH
	DB	07aH
	DB	01bH
	DB	05aH
	DB	01bH
	DB	07aH
	DB	01bH
	DB	07aH
	DB	01bH
	DB	07aH
	DB	01bH
	DB	07aH
	DB	01bH
	DB	07aH
	DB	023H
	DB	07aH
	DB	023H
	DB	09aH
	DB	023H
	DB	09aH
	DB	02bH
	DB	09aH
	DB	033H
	DB	0daH
	DB	03bH
	DB	0daH
	DB	043H
	DB	0daH
	DB	043H
	DB	0d9H
	DB	043H
	DB	0faH
	DB	04bH
	DB	03aH
	DB	054H
	DB	01aH
	DB	04cH
	DB	0faH
	DB	043H
	DB	0daH
	DB	043H
	DB	0daH
	DB	03bH
	DB	0b9H
	DB	03bH
	DB	0daH
	DB	043H
	DB	0b9H
	DB	043H
	DB	0d9H
	DB	043H
	DB	0d9H
	DB	04bH
	DB	0faH
	DB	04bH
	DB	0d9H
	DB	043H
	DB	0daH
	DB	043H
	DB	0daH
	DB	03bH
	DB	0baH
	DB	03bH
	DB	0b9H
	DB	03bH
	DB	0b9H
	DB	03bH
	DB	0daH
	DB	03bH
	DB	0daH
	DB	03bH
	DB	0d9H
	DB	043H
	DB	0b9H
	DB	043H
	DB	0d9H
	DB	043H
	DB	0b9H
	DB	043H
	DB	0b9H
	DB	043H
	DB	0b9H
	DB	043H
	DB	0d9H
	DB	043H
	DB	0d9H
	DB	04bH
	DB	0d9H
	DB	043H
	DB	0d9H
	DB	043H
	DB	0d9H
	DB	043H
	DB	0b9H
	DB	03bH
	DB	0d9H
	DB	043H
	DB	0d9H
	DB	043H
	DB	0d9H
	DB	043H
	DB	0d9H
	DB	043H
	DB	0d9H
	DB	043H
	DB	0d9H
	DB	043H
	DB	0d9H
	DB	043H
	DB	0d9H
	DB	043H
	DB	0f9H
	DB	043H
	DB	0f9H
	DB	043H
	DB	0d9H
	DB	043H
	DB	0b9H
	DB	043H
	DB	0d9H
	DB	043H
	DB	0b9H
	DB	043H
	DB	0b9H
	DB	043H
	DB	0b9H
	DB	043H
	DB	0b8H
	DB	043H
	DB	0b9H
	DB	03bH
	DB	0b9H
	DB	03bH
	DB	0b9H
	DB	03bH
	DB	0b9H
	DB	03bH
	DB	0b9H
	DB	043H
	DB	0b8H
	DB	03bH
	DB	0b9H
	DB	03bH
	DB	0b8H
	DB	043H
	DB	098H
	DB	03bH
	DB	0b8H
	DB	03bH
	DB	0b8H
	DB	03bH
	DB	0b9H
	DB	03bH
	DB	0b8H
	DB	03bH
	DB	098H
	DB	03bH
	DB	0b8H
	DB	03bH
	DB	0b8H
	DB	03bH
	DB	0b8H
	DB	03bH
	DB	098H
	DB	03bH
	DB	097H
	DB	03bH
	DB	055H
	DB	033H
	DB	02cH
	DB	09H
	DB	02dH
	DB	01aH
	DB	016H
	DB	05dH
	DB	05fH
	DB	0a7H
	DB	09fH
	DB	0cfH
	DB	09fH
	DB	0d7H
	DB	0bfH
	DB	0dfH
	DB	03bH
	DB	0aeH
	DB	03bH
	DB	0aeH
	DB	05bH
	DB	0a6H
	DB	05bH
	DB	0a6H
	DB	05bH
	DB	09eH
	DB	05cH
	DB	096H
	DB	0bdH
	DB	09eH
	DB	09cH
	DB	09eH
	DB	09dH
	DB	09eH
	DB	03cH
	DB	08eH
	DB	01bH
	DB	086H
	DB	0fbH
	DB	07dH
	DB	0baH
	DB	075H
	DB	058H
	DB	05dH
	DB	078H
	DB	05dH
	DB	057H
	DB	055H
	DB	078H
	DB	055H
	DB	0b9H
	DB	05dH
	DB	09dH
	DB	086H
	DB	07cH
	DB	086H
	DB	03cH
	DB	07eH
	DB	0fbH
	DB	06dH
	DB	0daH
	DB	065H
	DB	0baH
	DB	065H
	DB	0faH
	DB	05dH
	DB	0faH
	DB	055H
	DB	01aH
	DB	05eH
	DB	098H
	DB	055H
	DB	016H
	DB	045H
	DB	0b4H
	DB	03cH
	DB	016H
	DB	045H
	DB	0b8H
	DB	055H
	DB	097H
	DB	055H
	DB	0b8H
	DB	055H
	DB	078H
	DB	055H
	DB	019H
	DB	066H
	DB	0b7H
	DB	05dH
	DB	035H
	DB	045H
	DB	076H
	DB	055H
	DB	078H
	DB	055H
	DB	0f9H
	DB	065H
	DB	097H
	DB	05dH
	DB	057H
	DB	055H
	DB	0b8H
	DB	05dH
	DB	057H
	DB	055H
	DB	077H
	DB	055H
	DB	0b7H
	DB	055H
	DB	0f8H
	DB	05dH
	DB	0d7H
	DB	05dH
	DB	0b8H
	DB	04dH
	DB	0b8H
	DB	05dH
	DB	0b3H
	DB	03cH
	DB	014H
	DB	04dH
	DB	016H
	DB	045H
	DB	057H
	DB	055H
	DB	0d9H
	DB	06dH
	DB	097H
	DB	05dH
	DB	096H
	DB	055H
	DB	055H
	DB	04dH
	DB	09bH
	DB	086H
	DB	0b7H
	DB	06dH
	DB	096H
	DB	04dH
	DB	0b7H
	DB	055H
	DB	0f8H
	DB	05dH
	DB	096H
	DB	05dH
	DB	054H
	DB	04dH
	DB	054H
	DB	055H
	DB	055H
	DB	04dH
	DB	0f4H
	DB	044H
	DB	0f5H
	DB	03cH
	DB	0f4H
	DB	044H
	DB	014H
	DB	03dH
	DB	054H
	DB	035H
	DB	054H
	DB	035H
	DB	055H
	DB	03dH
	DB	0b7H
	DB	05dH
	DB	096H
	DB	05dH
	DB	0f2H
	DB	044H
	DB	090H
	DB	02cH
	DB	0f2H
	DB	034H
	DB	014H
	DB	035H
	DB	034H
	DB	045H
	DB	055H
	DB	045H
	DB	055H
	DB	045H
	DB	076H
	DB	045H
	DB	075H
	DB	04dH
	DB	054H
	DB	03dH
	DB	0b7H
	DB	04dH
	DB	03aH
	DB	076H
	DB	039H
	DB	076H
	DB	05aH
	DB	076H
	DB	07aH
	DB	086H
	DB	07aH
	DB	086H
	DB	039H
	DB	07eH
	DB	095H
	DB	05dH
	DB	096H
	DB	05dH
	DB	0d7H
	DB	065H
	DB	018H
	DB	05eH
	DB	0f8H
	DB	065H
	DB	095H
	DB	04dH
	DB	05aH
	DB	07eH
	DB	0f7H
	DB	085H
	DB	097H
	DB	02H
	DB	097H
	DB	02H
	DB	097H
	DB	0aH
	DB	097H
	DB	0aH
	DB	098H
	DB	02H
	DB	0b8H
	DB	02H
	DB	0b8H
	DB	0aH
	DB	0b8H
	DB	0aH
	DB	0b8H
	DB	0aH
	DB	098H
	DB	0aH
	DB	0b8H
	DB	0aH
	DB	0b8H
	DB	0aH
	DB	0b8H
	DB	0aH
	DB	0b8H
	DB	0aH
	DB	0d8H
	DB	0aH
	DB	0b8H
	DB	0aH
	DB	0b8H
	DB	0aH
	DB	0d8H
	DB	0aH
	DB	0d8H
	DB	0aH
	DB	0d8H
	DB	0aH
	DB	0f9H
	DB	012H
	DB	0d8H
	DB	0aH
	DB	0d8H
	DB	0aH
	DB	0f9H
	DB	012H
	DB	0f9H
	DB	012H
	DB	019H
	DB	013H
	DB	0f9H
	DB	0aH
	DB	0f9H
	DB	0aH
	DB	0f9H
	DB	012H
	DB	0f9H
	DB	012H
	DB	0f9H
	DB	012H
	DB	0f9H
	DB	012H
	DB	019H
	DB	013H
	DB	019H
	DB	013H
	DB	019H
	DB	013H
	DB	039H
	DB	013H
	DB	019H
	DB	013H
	DB	039H
	DB	013H
	DB	039H
	DB	013H
	DB	039H
	DB	013H
	DB	039H
	DB	013H
	DB	059H
	DB	01bH
	DB	059H
	DB	01bH
	DB	039H
	DB	01bH
	DB	039H
	DB	01bH
	DB	059H
	DB	01bH
	DB	05aH
	DB	01bH
	DB	059H
	DB	01bH
	DB	059H
	DB	01bH
	DB	07aH
	DB	01bH
	DB	07aH
	DB	01bH
	DB	07aH
	DB	01bH
	DB	07aH
	DB	023H
	DB	079H
	DB	01bH
	DB	09aH
	DB	023H
	DB	09aH
	DB	023H
	DB	09aH
	DB	02bH
	DB	099H
	DB	033H
	DB	0baH
	DB	03bH
	DB	0daH
	DB	03bH
	DB	0b9H
	DB	03bH
	DB	0d9H
	DB	043H
	DB	0faH
	DB	04bH
	DB	0faH
	DB	043H
	DB	0daH
	DB	03bH
	DB	0baH
	DB	03bH
	DB	0baH
	DB	03bH
	DB	0baH
	DB	03bH
	DB	0daH
	DB	03bH
	DB	0daH
	DB	043H
	DB	0daH
	DB	04bH
	DB	0d9H
	DB	04bH
	DB	0d9H
	DB	04bH
	DB	0d9H
	DB	04bH
	DB	0d9H
	DB	043H
	DB	0daH
	DB	043H
	DB	0daH
	DB	03bH
	DB	0daH
	DB	03bH
	DB	0daH
	DB	03bH
	DB	0baH
	DB	03bH
	DB	0daH
	DB	03bH
	DB	0d9H
	DB	03bH
	DB	0d9H
	DB	043H
	DB	0b9H
	DB	043H
	DB	0d9H
	DB	043H
	DB	0d9H
	DB	043H
	DB	0b9H
	DB	043H
	DB	0b9H
	DB	04bH
	DB	0b9H
	DB	04bH
	DB	0b9H
	DB	043H
	DB	0d9H
	DB	04bH
	DB	0d9H
	DB	043H
	DB	0d9H
	DB	043H
	DB	0b9H
	DB	043H
	DB	0d9H
	DB	043H
	DB	0d9H
	DB	043H
	DB	0d9H
	DB	043H
	DB	0d9H
	DB	043H
	DB	0d9H
	DB	043H
	DB	0d9H
	DB	043H
	DB	0d9H
	DB	043H
	DB	0d9H
	DB	043H
	DB	0d9H
	DB	043H
	DB	0d9H
	DB	043H
	DB	0d9H
	DB	043H
	DB	0d9H
	DB	043H
	DB	0d9H
	DB	043H
	DB	0b9H
	DB	043H
	DB	0b9H
	DB	043H
	DB	0b9H
	DB	043H
	DB	0b8H
	DB	043H
	DB	0b9H
	DB	043H
	DB	0b8H
	DB	03bH
	DB	0b8H
	DB	03bH
	DB	0b8H
	DB	03bH
	DB	0b9H
	DB	03bH
	DB	0b8H
	DB	03bH
	DB	0b8H
	DB	03bH
	DB	098H
	DB	03bH
	DB	0b8H
	DB	043H
	DB	0b8H
	DB	03bH
	DB	098H
	DB	03bH
	DB	0b8H
	DB	03bH
	DB	0b8H
	DB	03bH
	DB	0b8H
	DB	03bH
	DB	0b9H
	DB	03bH
	DB	0b8H
	DB	03bH
	DB	0b8H
	DB	03bH
	DB	098H
	DB	03bH
	DB	097H
	DB	03bH
	DB	035H
	DB	033H
	DB	04cH
	DB	09H
	DB	0ecH
	DB	019H
	DB	0d5H
	DB	054H
	DB	05fH
	DB	0a7H
	DB	09fH
	DB	0cfH
	DB	07fH
	DB	0d7H
	DB	0bfH
	DB	0e7H
	DB	03aH
	DB	0aeH
	DB	03bH
	DB	0aeH
	DB	03bH
	DB	0a6H
	DB	05bH
	DB	0a6H
	DB	05bH
	DB	09eH
	DB	05cH
	DB	096H
	DB	09dH
	DB	096H
	DB	0bdH
	DB	09eH
	DB	09dH
	DB	09eH
	DB	03cH
	DB	08eH
	DB	07dH
	DB	096H
	DB	01bH
	DB	086H
	DB	0daH
	DB	075H
	DB	078H
	DB	065H
	DB	078H
	DB	05dH
	DB	037H
	DB	055H
	DB	077H
	DB	055H
	DB	0b8H
	DB	05dH
	DB	07dH
	DB	086H
	DB	05cH
	DB	07eH
	DB	03bH
	DB	076H
	DB	0fbH
	DB	06dH
	DB	0fbH
	DB	065H
	DB	099H
	DB	055H
	DB	0daH
	DB	05dH
	DB	01aH
	DB	05eH
	DB	03aH
	DB	066H
	DB	098H
	DB	05dH
	DB	0f5H
	DB	044H
	DB	0b4H
	DB	03cH
	DB	037H
	DB	04dH
	DB	0f9H
	DB	05dH
	DB	0d8H
	DB	065H
	DB	0b8H
	DB	05dH
	DB	077H
	DB	055H
	DB	03aH
	DB	066H
	DB	056H
	DB	04dH
	DB	035H
	DB	045H
	DB	015H
	DB	045H
	DB	098H
	DB	05dH
	DB	0b8H
	DB	05dH
	DB	0b8H
	DB	065H
	DB	036H
	DB	04dH
	DB	098H
	DB	055H
	DB	057H
	DB	04dH
	DB	097H
	DB	04dH
	DB	097H
	DB	055H
	DB	0d8H
	DB	055H
	DB	0b7H
	DB	055H
	DB	0b8H
	DB	04dH
	DB	097H
	DB	055H
	DB	0f4H
	DB	044H
	DB	0f4H
	DB	044H
	DB	0f5H
	DB	044H
	DB	036H
	DB	04dH
	DB	0d9H
	DB	065H
	DB	097H
	DB	05dH
	DB	097H
	DB	05dH
	DB	0d7H
	DB	065H
	DB	07aH
	DB	07eH
	DB	0b7H
	DB	05dH
	DB	0d7H
	DB	05dH
	DB	0d7H
	DB	05dH
	DB	096H
	DB	04dH
	DB	034H
	DB	04dH
	DB	095H
	DB	04dH
	DB	013H
	DB	045H
	DB	075H
	DB	04dH
	DB	014H
	DB	045H
	DB	0d4H
	DB	03cH
	DB	0f4H
	DB	044H
	DB	015H
	DB	045H
	DB	055H
	DB	03dH
	DB	034H
	DB	035H
	DB	055H
	DB	03dH
	DB	097H
	DB	055H
	DB	0b7H
	DB	065H
	DB	0f3H
	DB	044H
	DB	0f2H
	DB	03cH
	DB	0d1H
	DB	02cH
	DB	092H
	DB	024H
	DB	055H
	DB	045H
	DB	096H
	DB	04dH
	DB	014H
	DB	03dH
	DB	077H
	DB	045H
	DB	055H
	DB	045H
	DB	0f3H
	DB	034H
	DB	076H
	DB	045H
	DB	05aH
	DB	076H
	DB	03aH
	DB	07eH
	DB	05aH
	DB	07eH
	DB	07aH
	DB	086H
	DB	09bH
	DB	086H
	DB	05aH
	DB	07eH
	DB	096H
	DB	065H
	DB	0b6H
	DB	05dH
	DB	0d8H
	DB	05dH
	DB	018H
	DB	05eH
	DB	0d7H
	DB	05dH
	DB	096H
	DB	055H
	DB	09aH
	DB	086H
	DB	037H
	DB	086H
	DB	097H
	DB	02H
	DB	097H
	DB	02H
	DB	097H
	DB	02H
	DB	0b8H
	DB	02H
	DB	0b8H
	DB	02H
	DB	098H
	DB	0aH
	DB	098H
	DB	0aH
	DB	0b8H
	DB	0aH
	DB	098H
	DB	0aH
	DB	098H
	DB	0aH
	DB	0b8H
	DB	0aH
	DB	0b8H
	DB	0aH
	DB	0b8H
	DB	0aH
	DB	0b8H
	DB	0aH
	DB	0d8H
	DB	0aH
	DB	0b8H
	DB	0aH
	DB	0b8H
	DB	0aH
	DB	0d8H
	DB	0aH
	DB	0f9H
	DB	0aH
	DB	0d9H
	DB	012H
	DB	0d9H
	DB	0aH
	DB	0f9H
	DB	012H
	DB	0d9H
	DB	012H
	DB	0f9H
	DB	012H
	DB	0d9H
	DB	012H
	DB	0f9H
	DB	012H
	DB	0f9H
	DB	0aH
	DB	0f9H
	DB	0aH
	DB	0f9H
	DB	012H
	DB	0f9H
	DB	012H
	DB	0f9H
	DB	012H
	DB	0f9H
	DB	012H
	DB	0f9H
	DB	012H
	DB	019H
	DB	013H
	DB	019H
	DB	013H
	DB	019H
	DB	013H
	DB	039H
	DB	013H
	DB	019H
	DB	013H
	DB	039H
	DB	013H
	DB	039H
	DB	01bH
	DB	039H
	DB	01bH
	DB	039H
	DB	01bH
	DB	059H
	DB	01bH
	DB	039H
	DB	01bH
	DB	039H
	DB	01bH
	DB	039H
	DB	01bH
	DB	059H
	DB	01bH
	DB	05aH
	DB	01bH
	DB	05aH
	DB	01bH
	DB	05aH
	DB	01bH
	DB	07aH
	DB	01bH
	DB	07aH
	DB	01bH
	DB	07aH
	DB	023H
	DB	07aH
	DB	023H
	DB	07aH
	DB	023H
	DB	09aH
	DB	023H
	DB	079H
	DB	02bH
	DB	09aH
	DB	033H
	DB	0baH
	DB	03bH
	DB	099H
	DB	033H
	DB	099H
	DB	033H
	DB	0daH
	DB	043H
	DB	0daH
	DB	043H
	DB	0baH
	DB	03bH
	DB	0baH
	DB	03bH
	DB	0baH
	DB	03bH
	DB	0b9H
	DB	03bH
	DB	0baH
	DB	043H
	DB	0daH
	DB	043H
	DB	0daH
	DB	043H
	DB	0daH
	DB	04bH
	DB	0d9H
	DB	04bH
	DB	0faH
	DB	04bH
	DB	0d9H
	DB	04bH
	DB	0d9H
	DB	043H
	DB	0daH
	DB	043H
	DB	0daH
	DB	03bH
	DB	0daH
	DB	03bH
	DB	0daH
	DB	03bH
	DB	0baH
	DB	03bH
	DB	0baH
	DB	03bH
	DB	0b9H
	DB	03bH
	DB	0d9H
	DB	043H
	DB	0d9H
	DB	043H
	DB	0d9H
	DB	043H
	DB	0d9H
	DB	043H
	DB	0b9H
	DB	043H
	DB	0d9H
	DB	04bH
	DB	0d9H
	DB	04bH
	DB	0b9H
	DB	04bH
	DB	0b9H
	DB	043H
	DB	0b9H
	DB	043H
	DB	0d9H
	DB	043H
	DB	0b9H
	DB	043H
	DB	0d9H
	DB	043H
	DB	0d9H
	DB	03bH
	DB	0d9H
	DB	043H
	DB	0d9H
	DB	043H
	DB	0d9H
	DB	043H
	DB	0d9H
	DB	043H
	DB	0d9H
	DB	043H
	DB	0d9H
	DB	043H
	DB	0d9H
	DB	043H
	DB	0d9H
	DB	043H
	DB	0d9H
	DB	043H
	DB	0d9H
	DB	043H
	DB	0b9H
	DB	043H
	DB	0b8H
	DB	043H
	DB	0b9H
	DB	043H
	DB	0b9H
	DB	043H
	DB	0b8H
	DB	043H
	DB	0b9H
	DB	043H
	DB	0b8H
	DB	043H
	DB	0b8H
	DB	043H
	DB	0b8H
	DB	043H
	DB	0b8H
	DB	03bH
	DB	0b8H
	DB	03bH
	DB	0b8H
	DB	03bH
	DB	098H
	DB	03bH
	DB	0b8H
	DB	03bH
	DB	098H
	DB	03bH
	DB	098H
	DB	03bH
	DB	0b8H
	DB	03bH
	DB	0b8H
	DB	03bH
	DB	098H
	DB	03bH
	DB	0b8H
	DB	03bH
	DB	0b8H
	DB	03bH
	DB	0b8H
	DB	03bH
	DB	098H
	DB	03bH
	DB	097H
	DB	03bH
	DB	055H
	DB	033H
	DB	04cH
	DB	09H
	DB	0dH
	DB	01aH
	DB	036H
	DB	05dH
	DB	07fH
	DB	0a7H
	DB	07fH
	DB	0cfH
	DB	09fH
	DB	0dfH
	DB	09fH
	DB	0e7H
	DB	05bH
	DB	0b6H
	DB	03bH
	DB	0aeH
	DB	01aH
	DB	0a6H
	DB	05bH
	DB	0a6H
	DB	03bH
	DB	09eH
	DB	05cH
	DB	09eH
	DB	03cH
	DB	08eH
	DB	09cH
	DB	08eH
	DB	07cH
	DB	096H
	DB	03cH
	DB	08eH
	DB	07cH
	DB	096H
	DB	03bH
	DB	086H
	DB	0daH
	DB	075H
	DB	058H
	DB	065H
	DB	058H
	DB	05dH
	DB	037H
	DB	055H
	DB	057H
	DB	04dH
	DB	098H
	DB	055H
	DB	0fbH
	DB	06dH
	DB	09dH
	DB	086H
	DB	05cH
	DB	07eH
	DB	01bH
	DB	06eH
	DB	0baH
	DB	065H
	DB	079H
	DB	05dH
	DB	0d9H
	DB	055H
	DB	01bH
	DB	066H
	DB	05bH
	DB	06eH
	DB	0b8H
	DB	065H
	DB	0f4H
	DB	044H
	DB	0d4H
	DB	044H
	DB	077H
	DB	055H
	DB	01aH
	DB	066H
	DB	019H
	DB	06eH
	DB	0d9H
	DB	065H
	DB	077H
	DB	04dH
	DB	019H
	DB	05eH
	DB	056H
	DB	04dH
	DB	056H
	DB	04dH
	DB	076H
	DB	055H
	DB	098H
	DB	05dH
	DB	098H
	DB	05dH
	DB	0d8H
	DB	065H
	DB	036H
	DB	04dH
	DB	098H
	DB	055H
	DB	077H
	DB	055H
	DB	0b8H
	DB	055H
	DB	097H
	DB	05dH
	DB	0b7H
	DB	055H
	DB	096H
	DB	055H
	DB	077H
	DB	045H
	DB	077H
	DB	05dH
	DB	014H
	DB	045H
	DB	0d3H
	DB	03cH
	DB	0f5H
	DB	044H
	DB	037H
	DB	055H
	DB	098H
	DB	055H
	DB	098H
	DB	055H
	DB	0d8H
	DB	05dH
	DB	07bH
	DB	086H
	DB	096H
	DB	055H
	DB	076H
	DB	04dH
	DB	019H
	DB	05eH
	DB	0d7H
	DB	065H
	DB	055H
	DB	045H
	DB	014H
	DB	045H
	DB	033H
	DB	04dH
	DB	0b2H
	DB	034H
	DB	055H
	DB	045H
	DB	0f3H
	DB	044H
	DB	0b3H
	DB	03cH
	DB	0f5H
	DB	044H
	DB	036H
	DB	04dH
	DB	034H
	DB	03dH
	DB	013H
	DB	035H
	DB	055H
	DB	045H
	DB	076H
	DB	04dH
	DB	076H
	DB	055H
	DB	0f3H
	DB	03cH
	DB	0f2H
	DB	03cH
	DB	090H
	DB	02cH
	DB	091H
	DB	02cH
	DB	056H
	DB	045H
	DB	054H
	DB	045H
	DB	034H
	DB	045H
	DB	076H
	DB	04dH
	DB	0f3H
	DB	03cH
	DB	071H
	DB	024H
	DB	076H
	DB	045H
	DB	05aH
	DB	076H
	DB	07aH
	DB	07eH
	DB	07aH
	DB	086H
	DB	09aH
	DB	086H
	DB	05aH
	DB	07eH
	DB	059H
	DB	07eH
	DB	0b6H
	DB	065H
	DB	0d7H
	DB	065H
	DB	097H
	DB	055H
	DB	0f8H
	DB	05dH
	DB	0d6H
	DB	055H
	DB	0b7H
	DB	055H
	DB	0bbH
	DB	086H
	DB	017H
	DB	076H
	DB	097H
	DB	02H
	DB	0b8H
	DB	0aH
	DB	097H
	DB	0aH
	DB	0b7H
	DB	02H
	DB	0b8H
	DB	02H
	DB	0b8H
	DB	0aH
	DB	098H
	DB	0aH
	DB	098H
	DB	0aH
	DB	0b8H
	DB	0aH
	DB	0b8H
	DB	0aH
	DB	0b8H
	DB	0aH
	DB	0b8H
	DB	0aH
	DB	0b8H
	DB	0aH
	DB	0b8H
	DB	0aH
	DB	0b8H
	DB	0aH
	DB	0b8H
	DB	0aH
	DB	0b8H
	DB	0aH
	DB	0d8H
	DB	0aH
	DB	0d8H
	DB	0aH
	DB	0d8H
	DB	012H
	DB	0f9H
	DB	012H
	DB	0f9H
	DB	012H
	DB	0d8H
	DB	012H
	DB	0f9H
	DB	012H
	DB	0d9H
	DB	012H
	DB	0f9H
	DB	012H
	DB	0f9H
	DB	0aH
	DB	0f9H
	DB	0aH
	DB	0f9H
	DB	0aH
	DB	0f9H
	DB	012H
	DB	0f9H
	DB	012H
	DB	019H
	DB	013H
	DB	0f9H
	DB	012H
	DB	019H
	DB	013H
	DB	019H
	DB	013H
	DB	019H
	DB	013H
	DB	03aH
	DB	013H
	DB	039H
	DB	013H
	DB	039H
	DB	013H
	DB	039H
	DB	01bH
	DB	039H
	DB	01bH
	DB	039H
	DB	01bH
	DB	059H
	DB	01bH
	DB	059H
	DB	01bH
	DB	059H
	DB	01bH
	DB	039H
	DB	01bH
	DB	039H
	DB	01bH
	DB	05aH
	DB	01bH
	DB	059H
	DB	01bH
	DB	05aH
	DB	01bH
	DB	07aH
	DB	01bH
	DB	07aH
	DB	01bH
	DB	07aH
	DB	023H
	DB	07aH
	DB	023H
	DB	07aH
	DB	023H
	DB	07aH
	DB	023H
	DB	07aH
	DB	023H
	DB	09aH
	DB	02bH
	DB	09aH
	DB	033H
	DB	099H
	DB	033H
	DB	099H
	DB	03bH
	DB	0b9H
	DB	03bH
	DB	0b9H
	DB	033H
	DB	0baH
	DB	03bH
	DB	0baH
	DB	03bH
	DB	0b9H
	DB	03bH
	DB	0b9H
	DB	043H
	DB	0daH
	DB	04bH
	DB	0d9H
	DB	043H
	DB	0d9H
	DB	043H
	DB	0d9H
	DB	04bH
	DB	0d9H
	DB	04bH
	DB	0d9H
	DB	04bH
	DB	0d9H
	DB	04bH
	DB	0daH
	DB	04bH
	DB	0d9H
	DB	043H
	DB	0daH
	DB	043H
	DB	0daH
	DB	03bH
	DB	0daH
	DB	03bH
	DB	0baH
	DB	03bH
	DB	0baH
	DB	03bH
	DB	0d9H
	DB	03bH
	DB	0d9H
	DB	043H
	DB	0d9H
	DB	043H
	DB	0d9H
	DB	043H
	DB	0b9H
	DB	043H
	DB	0b9H
	DB	04bH
	DB	0d9H
	DB	04bH
	DB	0b9H
	DB	04bH
	DB	0b9H
	DB	04bH
	DB	0b9H
	DB	043H
	DB	0d9H
	DB	043H
	DB	0b9H
	DB	043H
	DB	0b9H
	DB	043H
	DB	0d9H
	DB	043H
	DB	0d9H
	DB	043H
	DB	0d9H
	DB	043H
	DB	0d9H
	DB	043H
	DB	0d9H
	DB	043H
	DB	0b9H
	DB	043H
	DB	0b9H
	DB	043H
	DB	0d9H
	DB	043H
	DB	0d9H
	DB	043H
	DB	0d9H
	DB	043H
	DB	0d9H
	DB	043H
	DB	0b9H
	DB	043H
	DB	0b9H
	DB	043H
	DB	0b9H
	DB	043H
	DB	0b9H
	DB	043H
	DB	0b9H
	DB	043H
	DB	0b9H
	DB	043H
	DB	0b8H
	DB	043H
	DB	0b9H
	DB	043H
	DB	0b9H
	DB	043H
	DB	0b9H
	DB	043H
	DB	098H
	DB	043H
	DB	0b8H
	DB	043H
	DB	0b8H
	DB	043H
	DB	0b9H
	DB	043H
	DB	0b8H
	DB	043H
	DB	0b8H
	DB	043H
	DB	0b8H
	DB	03bH
	DB	0b8H
	DB	03bH
	DB	0b8H
	DB	03bH
	DB	098H
	DB	03bH
	DB	098H
	DB	03bH
	DB	0b8H
	DB	03bH
	DB	0b8H
	DB	03bH
	DB	098H
	DB	03bH
	DB	097H
	DB	03bH
	DB	055H
	DB	033H
	DB	04dH
	DB	09H
	DB	0ecH
	DB	011H
	DB	036H
	DB	05dH
	DB	05fH
	DB	0a7H
	DB	09fH
	DB	0cfH
	DB	07fH
	DB	0dfH
	DB	09fH
	DB	0e7H
	DB	07bH
	DB	0beH
	DB	05bH
	DB	0aeH
	DB	03bH
	DB	0a6H
	DB	07bH
	DB	0aeH
	DB	01bH
	DB	09eH
	DB	05cH
	DB	09eH
	DB	01bH
	DB	08eH
	DB	09dH
	DB	096H
	DB	07dH
	DB	096H
	DB	03cH
	DB	08eH
	DB	03cH
	DB	08eH
	DB	01bH
	DB	086H
	DB	0faH
	DB	07dH
	DB	078H
	DB	065H
	DB	078H
	DB	05dH
	DB	057H
	DB	055H
	DB	077H
	DB	055H
	DB	098H
	DB	055H
	DB	01bH
	DB	06eH
	DB	07cH
	DB	086H
	DB	03cH
	DB	07eH
	DB	03bH
	DB	076H
	DB	099H
	DB	065H
	DB	0fbH
	DB	06dH
	DB	0daH
	DB	065H
	DB	03bH
	DB	06eH
	DB	05bH
	DB	076H
	DB	0b9H
	DB	065H
	DB	0d4H
	DB	044H
	DB	077H
	DB	055H
	DB	0b8H
	DB	055H
	DB	01aH
	DB	066H
	DB	03aH
	DB	076H
	DB	0d8H
	DB	065H
	DB	077H
	DB	055H
	DB	0f9H
	DB	05dH
	DB	098H
	DB	05dH
	DB	0b8H
	DB	05dH
	DB	098H
	DB	05dH
	DB	057H
	DB	04dH
	DB	0b8H
	DB	05dH
	DB	0d8H
	DB	065H
	DB	056H
	DB	04dH
	DB	098H
	DB	055H
	DB	078H
	DB	055H
	DB	098H
	DB	04dH
	DB	0b8H
	DB	05dH
	DB	0b7H
	DB	055H
	DB	096H
	DB	055H
	DB	035H
	DB	03dH
	DB	0b7H
	DB	05dH
	DB	035H
	DB	055H
	DB	093H
	DB	034H
	DB	0d5H
	DB	044H
	DB	036H
	DB	055H
	DB	015H
	DB	045H
	DB	037H
	DB	045H
	DB	0f9H
	DB	05dH
	DB	03aH
	DB	07eH
	DB	014H
	DB	045H
	DB	075H
	DB	045H
	DB	019H
	DB	05eH
	DB	0d7H
	DB	065H
	DB	034H
	DB	03dH
	DB	076H
	DB	04dH
	DB	074H
	DB	05dH
	DB	0b2H
	DB	034H
	DB	034H
	DB	045H
	DB	0f3H
	DB	03cH
	DB	0d3H
	DB	03cH
	DB	0d5H
	DB	03cH
	DB	036H
	DB	04dH
	DB	034H
	DB	045H
	DB	074H
	DB	045H
	DB	055H
	DB	045H
	DB	0f3H
	DB	03cH
	DB	0f4H
	DB	03cH
	DB	0f3H
	DB	03cH
	DB	0d1H
	DB	034H
	DB	0b0H
	DB	02cH
	DB	0f3H
	DB	034H
	DB	097H
	DB	055H
	DB	0f3H
	DB	03cH
	DB	0d7H
	DB	05dH
	DB	096H
	DB	055H
	DB	091H
	DB	034H
	DB	0b1H
	DB	02cH
	DB	096H
	DB	04dH
	DB	05aH
	DB	076H
	DB	07bH
	DB	07eH
	DB	07bH
	DB	086H
	DB	09bH
	DB	08eH
	DB	039H
	DB	07eH
	DB	059H
	DB	07eH
	DB	018H
	DB	076H
	DB	0b7H
	DB	065H
	DB	076H
	DB	055H
	DB	0b7H
	DB	055H
	DB	096H
	DB	055H
	DB	0d7H
	DB	05dH
	DB	07aH
	DB	076H
	DB	0f7H
	DB	06dH
	DB	097H
	DB	02H
	DB	097H
	DB	02H
	DB	077H
	DB	02H
	DB	077H
	DB	02H
	DB	0b8H
	DB	0aH
	DB	0b8H
	DB	02H
	DB	098H
	DB	02H
	DB	098H
	DB	02H
	DB	098H
	DB	0aH
	DB	098H
	DB	0aH
	DB	0b8H
	DB	0aH
	DB	0b8H
	DB	0aH
	DB	098H
	DB	0aH
	DB	0b8H
	DB	0aH
	DB	0b8H
	DB	0aH
	DB	0d8H
	DB	0aH
	DB	0b8H
	DB	0aH
	DB	0d8H
	DB	0aH
	DB	0d8H
	DB	0aH
	DB	0d8H
	DB	0aH
	DB	0d8H
	DB	0aH
	DB	0d9H
	DB	012H
	DB	0d9H
	DB	012H
	DB	0f9H
	DB	012H
	DB	0f9H
	DB	012H
	DB	0f9H
	DB	012H
	DB	0f9H
	DB	012H
	DB	0f9H
	DB	0aH
	DB	0f9H
	DB	012H
	DB	0f9H
	DB	012H
	DB	0f9H
	DB	012H
	DB	0f9H
	DB	012H
	DB	0f9H
	DB	012H
	DB	019H
	DB	013H
	DB	019H
	DB	013H
	DB	019H
	DB	013H
	DB	019H
	DB	013H
	DB	039H
	DB	013H
	DB	039H
	DB	013H
	DB	039H
	DB	013H
	DB	039H
	DB	01bH
	DB	059H
	DB	01bH
	DB	059H
	DB	01bH
	DB	059H
	DB	01bH
	DB	059H
	DB	01bH
	DB	059H
	DB	01bH
	DB	059H
	DB	01bH
	DB	03aH
	DB	01bH
	DB	039H
	DB	01bH
	DB	059H
	DB	01bH
	DB	05aH
	DB	01bH
	DB	07aH
	DB	01bH
	DB	07aH
	DB	023H
	DB	07aH
	DB	023H
	DB	07aH
	DB	023H
	DB	07aH
	DB	023H
	DB	07aH
	DB	023H
	DB	09aH
	DB	023H
	DB	07aH
	DB	02bH
	DB	09aH
	DB	03bH
	DB	0baH
	DB	043H
	DB	0baH
	DB	03bH
	DB	0baH
	DB	033H
	DB	0baH
	DB	03bH
	DB	0b9H
	DB	03bH
	DB	0b9H
	DB	03bH
	DB	0d9H
	DB	043H
	DB	0faH
	DB	043H
	DB	0d9H
	DB	03bH
	DB	0d9H
	DB	043H
	DB	0d9H
	DB	043H
	DB	0faH
	DB	04bH
	DB	0d9H
	DB	04bH
	DB	0d9H
	DB	04bH
	DB	0d9H
	DB	04bH
	DB	0daH
	DB	04bH
	DB	0daH
	DB	043H
	DB	0daH
	DB	03bH
	DB	0daH
	DB	03bH
	DB	0baH
	DB	03bH
	DB	0baH
	DB	03bH
	DB	0d9H
	DB	043H
	DB	0d9H
	DB	043H
	DB	0d9H
	DB	043H
	DB	0d9H
	DB	043H
	DB	0d9H
	DB	04bH
	DB	0b9H
	DB	04bH
	DB	0b9H
	DB	04bH
	DB	0b9H
	DB	04bH
	DB	0b9H
	DB	04bH
	DB	0b9H
	DB	04bH
	DB	0d9H
	DB	04bH
	DB	0b9H
	DB	043H
	DB	0d9H
	DB	043H
	DB	0d9H
	DB	043H
	DB	0d9H
	DB	043H
	DB	0b9H
	DB	043H
	DB	0d9H
	DB	043H
	DB	0d9H
	DB	043H
	DB	0d9H
	DB	043H
	DB	0b9H
	DB	043H
	DB	0d9H
	DB	043H
	DB	0d9H
	DB	043H
	DB	0d9H
	DB	043H
	DB	0b9H
	DB	043H
	DB	0d9H
	DB	043H
	DB	0b9H
	DB	043H
	DB	0b9H
	DB	043H
	DB	0b9H
	DB	043H
	DB	0b9H
	DB	043H
	DB	0b9H
	DB	043H
	DB	0b8H
	DB	043H
	DB	0b8H
	DB	043H
	DB	0b9H
	DB	043H
	DB	0b9H
	DB	043H
	DB	0b8H
	DB	043H
	DB	0b8H
	DB	043H
	DB	098H
	DB	03bH
	DB	0b8H
	DB	03bH
	DB	0b9H
	DB	043H
	DB	0b8H
	DB	043H
	DB	0b8H
	DB	03bH
	DB	0b8H
	DB	03bH
	DB	0b8H
	DB	03bH
	DB	098H
	DB	03bH
	DB	0b8H
	DB	03bH
	DB	0b8H
	DB	03bH
	DB	0b8H
	DB	03bH
	DB	098H
	DB	03bH
	DB	097H
	DB	03bH
	DB	055H
	DB	03bH
	DB	04dH
	DB	09H
	DB	0acH
	DB	09H
	DB	094H
	DB	04cH
	DB	05fH
	DB	0a7H
	DB	09fH
	DB	0cfH
	DB	09fH
	DB	0dfH
	DB	0bfH
	DB	0efH
	DB	07bH
	DB	0c6H
	DB	05bH
	DB	0b6H
	DB	01aH
	DB	0a6H
	DB	05bH
	DB	0a6H
	DB	03bH
	DB	09eH
	DB	05cH
	DB	09eH
	DB	05cH
	DB	096H
	DB	09dH
	DB	096H
	DB	03cH
	DB	08eH
	DB	03bH
	DB	08eH
	DB	03cH
	DB	08eH
	DB	03bH
	DB	086H
	DB	0faH
	DB	075H
	DB	078H
	DB	065H
	DB	078H
	DB	05dH
	DB	037H
	DB	055H
	DB	077H
	DB	055H
	DB	097H
	DB	055H
	DB	0daH
	DB	065H
	DB	05cH
	DB	07eH
	DB	03cH
	DB	07eH
	DB	03cH
	DB	076H
	DB	0baH
	DB	05dH
	DB	0fbH
	DB	06dH
	DB	01bH
	DB	076H
	DB	01bH
	DB	06eH
	DB	03bH
	DB	076H
	DB	098H
	DB	065H
	DB	036H
	DB	055H
	DB	0b8H
	DB	055H
	DB	077H
	DB	045H
	DB	0d9H
	DB	055H
	DB	03aH
	DB	06eH
	DB	0f9H
	DB	06dH
	DB	098H
	DB	055H
	DB	0f9H
	DB	065H
	DB	0d9H
	DB	065H
	DB	01aH
	DB	076H
	DB	0d9H
	DB	06dH
	DB	057H
	DB	04dH
	DB	0d8H
	DB	05dH
	DB	0d8H
	DB	065H
	DB	077H
	DB	055H
	DB	098H
	DB	05dH
	DB	078H
	DB	055H
	DB	097H
	DB	04dH
	DB	0b7H
	DB	055H
	DB	0b7H
	DB	055H
	DB	0b7H
	DB	055H
	DB	056H
	DB	045H
	DB	097H
	DB	055H
	DB	034H
	DB	055H
	DB	051H
	DB	02cH
	DB	0f5H
	DB	044H
	DB	057H
	DB	055H
	DB	015H
	DB	055H
	DB	0d5H
	DB	03cH
	DB	0f9H
	DB	05dH
	DB	097H
	DB	05dH
	DB	0d4H
	DB	03cH
	DB	055H
	DB	045H
	DB	0d8H
	DB	055H
	DB	0b7H
	DB	05dH
	DB	034H
	DB	045H
	DB	056H
	DB	045H
	DB	074H
	DB	055H
	DB	092H
	DB	034H
	DB	014H
	DB	045H
	DB	0b2H
	DB	03cH
	DB	0b3H
	DB	03cH
	DB	0d4H
	DB	034H
	DB	015H
	DB	04dH
	DB	055H
	DB	04dH
	DB	095H
	DB	04dH
	DB	034H
	DB	045H
	DB	091H
	DB	034H
	DB	092H
	DB	034H
	DB	0d3H
	DB	03cH
	DB	012H
	DB	03dH
	DB	0f1H
	DB	034H
	DB	035H
	DB	03dH
	DB	0d8H
	DB	05dH
	DB	055H
	DB	045H
	DB	0f8H
	DB	05dH
	DB	096H
	DB	04dH
	DB	071H
	DB	02cH
	DB	013H
	DB	035H
	DB	097H
	DB	04dH
	DB	07bH
	DB	07eH
	DB	05aH
	DB	07eH
	DB	0bbH
	DB	08eH
	DB	0bbH
	DB	096H
	DB	05aH
	DB	086H
	DB	07aH
	DB	086H
	DB	059H
	DB	07eH
	DB	018H
	DB	076H
	DB	096H
	DB	05dH
	DB	0b6H
	DB	05dH
	DB	096H
	DB	05dH
	DB	0d7H
	DB	05dH
	DB	019H
	DB	066H
	DB	018H
	DB	066H
	DB	097H
	DB	0aH
	DB	097H
	DB	02H
	DB	077H
	DB	02H
	DB	077H
	DB	02H
	DB	0b8H
	DB	02H
	DB	0b8H
	DB	02H
	DB	098H
	DB	0aH
	DB	098H
	DB	0aH
	DB	0b8H
	DB	0aH
	DB	098H
	DB	0aH
	DB	098H
	DB	0aH
	DB	0b8H
	DB	0aH
	DB	098H
	DB	0aH
	DB	098H
	DB	0aH
	DB	0b8H
	DB	0aH
	DB	0d8H
	DB	0aH
	DB	0d8H
	DB	0aH
	DB	0b8H
	DB	0aH
	DB	0d8H
	DB	0aH
	DB	0d8H
	DB	0aH
	DB	0d8H
	DB	0aH
	DB	0d8H
	DB	0aH
	DB	0d8H
	DB	012H
	DB	0d8H
	DB	0aH
	DB	0f9H
	DB	012H
	DB	019H
	DB	013H
	DB	0f9H
	DB	012H
	DB	0f9H
	DB	012H
	DB	0f9H
	DB	0aH
	DB	0f9H
	DB	012H
	DB	0f9H
	DB	012H
	DB	0f9H
	DB	012H
	DB	019H
	DB	013H
	DB	0f9H
	DB	012H
	DB	019H
	DB	013H
	DB	019H
	DB	013H
	DB	019H
	DB	013H
	DB	019H
	DB	013H
	DB	039H
	DB	013H
	DB	039H
	DB	01bH
	DB	039H
	DB	01bH
	DB	039H
	DB	01bH
	DB	039H
	DB	01bH
	DB	039H
	DB	01bH
	DB	059H
	DB	01bH
	DB	059H
	DB	01bH
	DB	05aH
	DB	01bH
	DB	05aH
	DB	01bH
	DB	05aH
	DB	01bH
	DB	039H
	DB	01bH
	DB	05aH
	DB	01bH
	DB	07aH
	DB	01bH
	DB	07aH
	DB	01bH
	DB	07aH
	DB	023H
	DB	07aH
	DB	023H
	DB	09aH
	DB	023H
	DB	07aH
	DB	023H
	DB	07aH
	DB	023H
	DB	09aH
	DB	02bH
	DB	0baH
	DB	033H
	DB	0daH
	DB	03bH
	DB	0baH
	DB	033H
	DB	0baH
	DB	033H
	DB	0baH
	DB	03bH
	DB	0b9H
	DB	03bH
	DB	0baH
	DB	043H
	DB	0d9H
	DB	043H
	DB	0daH
	DB	043H
	DB	0b9H
	DB	03bH
	DB	0b9H
	DB	03bH
	DB	0d9H
	DB	04bH
	DB	0f9H
	DB	04bH
	DB	0f9H
	DB	053H
	DB	0d9H
	DB	053H
	DB	0d9H
	DB	04bH
	DB	0faH
	DB	04bH
	DB	0daH
	DB	04bH
	DB	0daH
	DB	043H
	DB	0daH
	DB	03bH
	DB	0daH
	DB	03bH
	DB	0daH
	DB	043H
	DB	0daH
	DB	043H
	DB	0d9H
	DB	043H
	DB	0d9H
	DB	043H
	DB	0d9H
	DB	043H
	DB	0d9H
	DB	04bH
	DB	0b9H
	DB	04bH
	DB	0d9H
	DB	04bH
	DB	0b9H
	DB	04bH
	DB	0b9H
	DB	04bH
	DB	0d9H
	DB	04bH
	DB	0b9H
	DB	043H
	DB	0d9H
	DB	04bH
	DB	0d9H
	DB	043H
	DB	0d9H
	DB	043H
	DB	0b9H
	DB	043H
	DB	0b9H
	DB	043H
	DB	0d9H
	DB	043H
	DB	0d9H
	DB	043H
	DB	0d9H
	DB	043H
	DB	0d9H
	DB	043H
	DB	0d9H
	DB	043H
	DB	0b9H
	DB	043H
	DB	0b9H
	DB	043H
	DB	0b9H
	DB	043H
	DB	0b9H
	DB	043H
	DB	0b9H
	DB	043H
	DB	0b9H
	DB	043H
	DB	0b9H
	DB	043H
	DB	0b9H
	DB	043H
	DB	0b9H
	DB	03bH
	DB	0b9H
	DB	03bH
	DB	0b9H
	DB	043H
	DB	0d9H
	DB	043H
	DB	0b9H
	DB	043H
	DB	0b9H
	DB	043H
	DB	0b8H
	DB	043H
	DB	098H
	DB	03bH
	DB	0b9H
	DB	043H
	DB	0b8H
	DB	043H
	DB	0b8H
	DB	043H
	DB	0b8H
	DB	043H
	DB	098H
	DB	03bH
	DB	098H
	DB	03bH
	DB	098H
	DB	03bH
	DB	0b8H
	DB	03bH
	DB	0b8H
	DB	03bH
	DB	0b8H
	DB	03bH
	DB	097H
	DB	03bH
	DB	097H
	DB	03bH
	DB	055H
	DB	033H
	DB	04dH
	DB	09H
	DB	08bH
	DB	011H
	DB	032H
	DB	04cH
	DB	05fH
	DB	0a7H
	DB	09fH
	DB	0cfH
	DB	0bfH
	DB	0e7H
	DB	0dfH
	DB	0f7H
	DB	07bH
	DB	0c6H
	DB	03bH
	DB	0b6H
	DB	05bH
	DB	0aeH
	DB	03bH
	DB	0a6H
	DB	03bH
	DB	09eH
	DB	05cH
	DB	09eH
	DB	05cH
	DB	096H
	DB	09cH
	DB	096H
	DB	05cH
	DB	096H
	DB	07cH
	DB	096H
	DB	05cH
	DB	08eH
	DB	05cH
	DB	08eH
	DB	0daH
	DB	075H
	DB	078H
	DB	065H
	DB	078H
	DB	065H
	DB	077H
	DB	05dH
	DB	076H
	DB	04dH
	DB	077H
	DB	055H
	DB	098H
	DB	055H
	DB	03cH
	DB	076H
	DB	01bH
	DB	076H
	DB	01bH
	DB	076H
	DB	09aH
	DB	065H
	DB	0daH
	DB	065H
	DB	07cH
	DB	076H
	DB	03bH
	DB	06eH
	DB	03bH
	DB	06eH
	DB	0daH
	DB	065H
	DB	0b9H
	DB	055H
	DB	0d9H
	DB	04dH
	DB	034H
	DB	035H
	DB	097H
	DB	04dH
	DB	03aH
	DB	06eH
	DB	01aH
	DB	06eH
	DB	0d9H
	DB	05dH
	DB	0d9H
	DB	05dH
	DB	01aH
	DB	066H
	DB	07cH
	DB	07eH
	DB	03bH
	DB	07eH
	DB	036H
	DB	04dH
	DB	0f9H
	DB	065H
	DB	0b8H
	DB	065H
	DB	097H
	DB	055H
	DB	077H
	DB	055H
	DB	078H
	DB	055H
	DB	098H
	DB	055H
	DB	0b7H
	DB	055H
	DB	0b7H
	DB	055H
	DB	0b7H
	DB	055H
	DB	097H
	DB	04dH
	DB	0b8H
	DB	05dH
	DB	035H
	DB	04dH
	DB	0b3H
	DB	03cH
	DB	0d5H
	DB	03cH
	DB	0f6H
	DB	04cH
	DB	036H
	DB	05dH
	DB	0d4H
	DB	03cH
	DB	097H
	DB	045H
	DB	076H
	DB	04dH
	DB	015H
	DB	045H
	DB	075H
	DB	045H
	DB	097H
	DB	055H
	DB	0b7H
	DB	055H
	DB	055H
	DB	055H
	DB	0b7H
	DB	05dH
	DB	095H
	DB	05dH
	DB	013H
	DB	03dH
	DB	0f3H
	DB	044H
	DB	092H
	DB	034H
	DB	0b2H
	DB	034H
	DB	0b3H
	DB	034H
	DB	0f5H
	DB	044H
	DB	055H
	DB	04dH
	DB	074H
	DB	045H
	DB	0f2H
	DB	03cH
	DB	071H
	DB	02cH
	DB	072H
	DB	034H
	DB	0b3H
	DB	03cH
	DB	033H
	DB	045H
	DB	0f2H
	DB	03cH
	DB	056H
	DB	045H
	DB	0f8H
	DB	065H
	DB	0b7H
	DB	05dH
	DB	055H
	DB	03dH
	DB	034H
	DB	03dH
	DB	091H
	DB	034H
	DB	013H
	DB	035H
	DB	096H
	DB	04dH
	DB	07aH
	DB	07eH
	DB	039H
	DB	076H
	DB	0fdH
	DB	096H
	DB	0fcH
	DB	09eH
	DB	09bH
	DB	08eH
	DB	09cH
	DB	086H
	DB	07bH
	DB	086H
	DB	07aH
	DB	086H
	DB	017H
	DB	076H
	DB	0d6H
	DB	065H
	DB	0b6H
	DB	065H
	DB	096H
	DB	055H
	DB	0d7H
	DB	05dH
	DB	018H
	DB	06eH
	DB	097H
	DB	02H
	DB	097H
	DB	02H
	DB	097H
	DB	02H
	DB	098H
	DB	0aH
	DB	097H
	DB	02H
	DB	098H
	DB	02H
	DB	0b8H
	DB	0aH
	DB	098H
	DB	02H
	DB	098H
	DB	0aH
	DB	098H
	DB	0aH
	DB	0b8H
	DB	0aH
	DB	0b8H
	DB	0aH
	DB	098H
	DB	0aH
	DB	0b8H
	DB	0aH
	DB	0b8H
	DB	0aH
	DB	0b8H
	DB	0aH
	DB	0d8H
	DB	0aH
	DB	0d8H
	DB	0aH
	DB	0d8H
	DB	0aH
	DB	0d8H
	DB	012H
	DB	0d9H
	DB	012H
	DB	0d8H
	DB	012H
	DB	0f9H
	DB	012H
	DB	0f9H
	DB	012H
	DB	0f9H
	DB	0aH
	DB	019H
	DB	013H
	DB	0f9H
	DB	012H
	DB	0f9H
	DB	0aH
	DB	0f9H
	DB	012H
	DB	0f9H
	DB	012H
	DB	0f9H
	DB	012H
	DB	019H
	DB	013H
	DB	019H
	DB	013H
	DB	019H
	DB	013H
	DB	019H
	DB	013H
	DB	019H
	DB	013H
	DB	019H
	DB	013H
	DB	039H
	DB	013H
	DB	019H
	DB	013H
	DB	039H
	DB	01bH
	DB	039H
	DB	01bH
	DB	039H
	DB	01bH
	DB	039H
	DB	01bH
	DB	059H
	DB	01bH
	DB	059H
	DB	01bH
	DB	039H
	DB	01bH
	DB	05aH
	DB	01bH
	DB	05aH
	DB	01bH
	DB	05aH
	DB	01bH
	DB	05aH
	DB	01bH
	DB	07aH
	DB	01bH
	DB	07aH
	DB	023H
	DB	07aH
	DB	01bH
	DB	07aH
	DB	023H
	DB	07aH
	DB	023H
	DB	07aH
	DB	023H
	DB	09aH
	DB	023H
	DB	09aH
	DB	023H
	DB	07aH
	DB	023H
	DB	0baH
	DB	033H
	DB	0baH
	DB	033H
	DB	09aH
	DB	033H
	DB	09aH
	DB	033H
	DB	09aH
	DB	03bH
	DB	0baH
	DB	03bH
	DB	0baH
	DB	03bH
	DB	0b9H
	DB	043H
	DB	0b9H
	DB	03bH
	DB	0daH
	DB	03bH
	DB	0b9H
	DB	043H
	DB	0daH
	DB	04bH
	DB	0f9H
	DB	053H
	DB	0f9H
	DB	053H
	DB	0f9H
	DB	053H
	DB	0f9H
	DB	053H
	DB	0faH
	DB	04bH
	DB	0daH
	DB	04bH
	DB	0daH
	DB	043H
	DB	0daH
	DB	03bH
	DB	0daH
	DB	043H
	DB	0daH
	DB	043H
	DB	0daH
	DB	043H
	DB	0d9H
	DB	043H
	DB	0d9H
	DB	043H
	DB	0daH
	DB	04bH
	DB	0d9H
	DB	043H
	DB	0b9H
	DB	04bH
	DB	0d9H
	DB	04bH
	DB	0d9H
	DB	04bH
	DB	0d9H
	DB	04bH
	DB	0d9H
	DB	04bH
	DB	0d9H
	DB	04bH
	DB	0d9H
	DB	043H
	DB	0d9H
	DB	043H
	DB	0d9H
	DB	043H
	DB	0d9H
	DB	043H
	DB	0b9H
	DB	043H
	DB	0d9H
	DB	043H
	DB	0d9H
	DB	043H
	DB	0d9H
	DB	043H
	DB	0d9H
	DB	043H
	DB	0b9H
	DB	043H
	DB	0b9H
	DB	043H
	DB	0b9H
	DB	043H
	DB	0b9H
	DB	043H
	DB	0b9H
	DB	043H
	DB	098H
	DB	043H
	DB	0b9H
	DB	043H
	DB	0b9H
	DB	03bH
	DB	0b9H
	DB	043H
	DB	0b9H
	DB	03bH
	DB	0b9H
	DB	03bH
	DB	0b9H
	DB	043H
	DB	0d9H
	DB	043H
	DB	0b8H
	DB	043H
	DB	0b9H
	DB	043H
	DB	0b8H
	DB	043H
	DB	0b9H
	DB	043H
	DB	0b8H
	DB	043H
	DB	0b8H
	DB	03bH
	DB	0b8H
	DB	03bH
	DB	0b8H
	DB	03bH
	DB	098H
	DB	03bH
	DB	0b8H
	DB	043H
	DB	0b8H
	DB	03bH
	DB	0b8H
	DB	03bH
	DB	0b8H
	DB	03bH
	DB	098H
	DB	03bH
	DB	098H
	DB	03bH
	DB	077H
	DB	03bH
	DB	056H
	DB	03bH
	DB	06eH
	DB	011H
	DB	08bH
	DB	011H
	DB	012H
	DB	04cH
	DB	05fH
	DB	0a7H
	DB	07fH
	DB	0cfH
	DB	09fH
	DB	0e7H
	DB	09fH
	DB	0f7H
	DB	09bH
	DB	0ceH
	DB	03aH
	DB	0b6H
	DB	05bH
	DB	0b6H
	DB	01aH
	DB	0a6H
	DB	03bH
	DB	09eH
	DB	03bH
	DB	09eH
	DB	05cH
	DB	096H
	DB	09dH
	DB	09eH
	DB	05cH
	DB	096H
	DB	07dH
	DB	096H
	DB	05cH
	DB	08eH
	DB	03cH
	DB	08eH
	DB	0b9H
	DB	075H
	DB	078H
	DB	065H
	DB	078H
	DB	065H
	DB	057H
	DB	05dH
	DB	076H
	DB	055H
	DB	096H
	DB	055H
	DB	057H
	DB	04dH
	DB	0faH
	DB	06dH
	DB	01bH
	DB	076H
	DB	01bH
	DB	076H
	DB	09aH
	DB	06dH
	DB	0baH
	DB	065H
	DB	0faH
	DB	065H
	DB	01bH
	DB	06eH
	DB	0faH
	DB	065H
	DB	0faH
	DB	065H
	DB	0d9H
	DB	04dH
	DB	097H
	DB	045H
	DB	054H
	DB	03dH
	DB	097H
	DB	04dH
	DB	01aH
	DB	066H
	DB	01aH
	DB	06eH
	DB	0b8H
	DB	05dH
	DB	078H
	DB	055H
	DB	01aH
	DB	06eH
	DB	03cH
	DB	076H
	DB	0d9H
	DB	06dH
	DB	056H
	DB	055H
	DB	0f9H
	DB	065H
	DB	0b8H
	DB	05dH
	DB	098H
	DB	05dH
	DB	057H
	DB	055H
	DB	037H
	DB	055H
	DB	0b9H
	DB	055H
	DB	0b8H
	DB	055H
	DB	0b7H
	DB	055H
	DB	0b7H
	DB	055H
	DB	0b7H
	DB	055H
	DB	0d8H
	DB	065H
	DB	076H
	DB	055H
	DB	035H
	DB	04dH
	DB	0d4H
	DB	044H
	DB	0f5H
	DB	04cH
	DB	056H
	DB	055H
	DB	014H
	DB	04dH
	DB	0f5H
	DB	044H
	DB	015H
	DB	045H
	DB	036H
	DB	045H
	DB	0b7H
	DB	05dH
	DB	0b7H
	DB	055H
	DB	0f8H
	DB	065H
	DB	018H
	DB	06eH
	DB	0f8H
	DB	06dH
	DB	0d6H
	DB	065H
	DB	033H
	DB	045H
	DB	0f2H
	DB	044H
	DB	091H
	DB	034H
	DB	092H
	DB	034H
	DB	0b2H
	DB	034H
	DB	0f4H
	DB	044H
	DB	035H
	DB	045H
	DB	034H
	DB	03dH
	DB	0d2H
	DB	03cH
	DB	071H
	DB	034H
	DB	052H
	DB	034H
	DB	072H
	DB	03cH
	DB	034H
	DB	045H
	DB	013H
	DB	045H
	DB	056H
	DB	04dH
	DB	0f9H
	DB	05dH
	DB	0d7H
	DB	065H
	DB	050H
	DB	024H
	DB	0f3H
	DB	034H
	DB	0d2H
	DB	034H
	DB	013H
	DB	035H
	DB	0b7H
	DB	04dH
	DB	07aH
	DB	07eH
	DB	0f8H
	DB	06dH
	DB	0bcH
	DB	086H
	DB	0ddH
	DB	096H
	DB	0bbH
	DB	08eH
	DB	09bH
	DB	086H
	DB	09bH
	DB	086H
	DB	09bH
	DB	086H
	DB	079H
	DB	086H
	DB	0d6H
	DB	075H
	DB	054H
	DB	055H
	DB	096H
	DB	055H
	DB	0f7H
	DB	065H
	DB	0f8H
	DB	06dH
	DB	097H
	DB	02H
	DB	097H
	DB	02H
	DB	098H
	DB	0aH
	DB	097H
	DB	02H
	DB	097H
	DB	0aH
	DB	097H
	DB	02H
	DB	098H
	DB	02H
	DB	097H
	DB	02H
	DB	098H
	DB	0aH
	DB	098H
	DB	0aH
	DB	0b8H
	DB	0aH
	DB	0b8H
	DB	0aH
	DB	0b8H
	DB	0aH
	DB	0b8H
	DB	0aH
	DB	0b8H
	DB	0aH
	DB	0b8H
	DB	0aH
	DB	0b8H
	DB	0aH
	DB	0d8H
	DB	0aH
	DB	0b8H
	DB	0aH
	DB	0d8H
	DB	012H
	DB	0d8H
	DB	0aH
	DB	0d8H
	DB	0aH
	DB	0d8H
	DB	012H
	DB	0d8H
	DB	0aH
	DB	0f9H
	DB	012H
	DB	019H
	DB	013H
	DB	0f9H
	DB	012H
	DB	0f9H
	DB	012H
	DB	019H
	DB	013H
	DB	0f9H
	DB	012H
	DB	019H
	DB	013H
	DB	019H
	DB	013H
	DB	0f9H
	DB	012H
	DB	019H
	DB	013H
	DB	0f9H
	DB	012H
	DB	039H
	DB	013H
	DB	019H
	DB	013H
	DB	039H
	DB	013H
	DB	039H
	DB	01bH
	DB	019H
	DB	01bH
	DB	019H
	DB	01bH
	DB	039H
	DB	01bH
	DB	039H
	DB	01bH
	DB	039H
	DB	01bH
	DB	059H
	DB	01bH
	DB	059H
	DB	01bH
	DB	059H
	DB	01bH
	DB	05aH
	DB	01bH
	DB	05aH
	DB	01bH
	DB	05aH
	DB	01bH
	DB	05aH
	DB	01bH
	DB	07aH
	DB	01bH
	DB	07aH
	DB	023H
	DB	05aH
	DB	023H
	DB	07aH
	DB	023H
	DB	07aH
	DB	023H
	DB	09aH
	DB	023H
	DB	09aH
	DB	023H
	DB	09aH
	DB	02bH
	DB	09aH
	DB	02bH
	DB	0baH
	DB	033H
	DB	09aH
	DB	033H
	DB	09aH
	DB	033H
	DB	09aH
	DB	03bH
	DB	09aH
	DB	033H
	DB	0b9H
	DB	03bH
	DB	0daH
	DB	043H
	DB	0b9H
	DB	03bH
	DB	0baH
	DB	043H
	DB	0b9H
	DB	043H
	DB	0d9H
	DB	04bH
	DB	019H
	DB	054H
	DB	019H
	DB	05cH
	DB	0f9H
	DB	05bH
	DB	0f9H
	DB	053H
	DB	0faH
	DB	053H
	DB	0daH
	DB	04bH
	DB	0daH
	DB	03bH
	DB	0daH
	DB	03bH
	DB	0daH
	DB	03bH
	DB	0daH
	DB	043H
	DB	0daH
	DB	043H
	DB	0faH
	DB	043H
	DB	0d9H
	DB	043H
	DB	0daH
	DB	043H
	DB	0d9H
	DB	043H
	DB	0d9H
	DB	04bH
	DB	0d9H
	DB	04bH
	DB	0d9H
	DB	04bH
	DB	0d9H
	DB	04bH
	DB	0d9H
	DB	04bH
	DB	0f9H
	DB	04bH
	DB	0d9H
	DB	043H
	DB	0d9H
	DB	043H
	DB	0d9H
	DB	043H
	DB	0d9H
	DB	043H
	DB	0d9H
	DB	043H
	DB	0d9H
	DB	043H
	DB	0b9H
	DB	043H
	DB	0d9H
	DB	043H
	DB	0d9H
	DB	043H
	DB	0b9H
	DB	043H
	DB	0b9H
	DB	043H
	DB	0b9H
	DB	043H
	DB	0b9H
	DB	043H
	DB	0b9H
	DB	043H
	DB	0b9H
	DB	043H
	DB	0b9H
	DB	043H
	DB	0b9H
	DB	043H
	DB	0b9H
	DB	043H
	DB	0b9H
	DB	043H
	DB	0b9H
	DB	043H
	DB	0b9H
	DB	043H
	DB	0b8H
	DB	043H
	DB	0b8H
	DB	043H
	DB	0b9H
	DB	043H
	DB	0b8H
	DB	043H
	DB	0b8H
	DB	043H
	DB	0b8H
	DB	03bH
	DB	0b8H
	DB	043H
	DB	0b8H
	DB	03bH
	DB	0b8H
	DB	03bH
	DB	098H
	DB	03bH
	DB	0b8H
	DB	043H
	DB	0b8H
	DB	043H
	DB	098H
	DB	03bH
	DB	0b8H
	DB	03bH
	DB	0b8H
	DB	043H
	DB	098H
	DB	03bH
	DB	077H
	DB	03bH
	DB	056H
	DB	03bH
	DB	06eH
	DB	011H
	DB	06bH
	DB	011H
	DB	0f1H
	DB	043H
	DB	05fH
	DB	0a7H
	DB	09fH
	DB	0d7H
	DB	09fH
	DB	0e7H
	DB	07fH
	DB	0f7H
	DB	09bH
	DB	0ceH
	DB	05bH
	DB	0beH
	DB	05bH
	DB	0b6H
	DB	01aH
	DB	0a6H
	DB	03bH
	DB	09eH
	DB	03bH
	DB	096H
	DB	05cH
	DB	096H
	DB	07cH
	DB	096H
	DB	07cH
	DB	096H
	DB	05cH
	DB	08eH
	DB	05cH
	DB	08eH
	DB	05cH
	DB	096H
	DB	099H
	DB	075H
	DB	057H
	DB	065H
	DB	057H
	DB	05dH
	DB	057H
	DB	05dH
	DB	056H
	DB	055H
	DB	097H
	DB	05dH
	DB	077H
	DB	055H
	DB	0daH
	DB	065H
	DB	01cH
	DB	07eH
	DB	01bH
	DB	076H
	DB	0daH
	DB	06dH
	DB	0daH
	DB	065H
	DB	01bH
	DB	06eH
	DB	0fbH
	DB	06dH
	DB	01bH
	DB	066H
	DB	01aH
	DB	06eH
	DB	077H
	DB	045H
	DB	076H
	DB	03dH
	DB	033H
	DB	03dH
	DB	0b8H
	DB	04dH
	DB	0f9H
	DB	065H
	DB	0faH
	DB	06dH
	DB	098H
	DB	05dH
	DB	0d8H
	DB	065H
	DB	01aH
	DB	076H
	DB	03bH
	DB	076H
	DB	077H
	DB	055H
	DB	056H
	DB	04dH
	DB	0b8H
	DB	055H
	DB	0b8H
	DB	05dH
	DB	0b8H
	DB	05dH
	DB	0d5H
	DB	044H
	DB	037H
	DB	04dH
	DB	0d8H
	DB	05dH
	DB	0b8H
	DB	055H
	DB	0b8H
	DB	05dH
	DB	0b7H
	DB	04dH
	DB	0b7H
	DB	055H
	DB	0f8H
	DB	065H
	DB	0b7H
	DB	05dH
	DB	056H
	DB	04dH
	DB	0f5H
	DB	04cH
	DB	036H
	DB	055H
	DB	057H
	DB	055H
	DB	036H
	DB	055H
	DB	035H
	DB	05dH
	DB	055H
	DB	04dH
	DB	097H
	DB	045H
	DB	0f8H
	DB	05dH
	DB	097H
	DB	055H
	DB	0f8H
	DB	05dH
	DB	0f8H
	DB	065H
	DB	0b6H
	DB	055H
	DB	0b6H
	DB	05dH
	DB	0f2H
	DB	03cH
	DB	091H
	DB	034H
	DB	091H
	DB	02cH
	DB	092H
	DB	02cH
	DB	0d3H
	DB	034H
	DB	0f4H
	DB	044H
	DB	014H
	DB	045H
	DB	034H
	DB	045H
	DB	0b2H
	DB	03cH
	DB	072H
	DB	034H
	DB	072H
	DB	034H
	DB	0b4H
	DB	044H
	DB	055H
	DB	055H
	DB	033H
	DB	045H
	DB	077H
	DB	055H
	DB	0f9H
	DB	05dH
	DB	055H
	DB	04dH
	DB	0eeH
	DB	01bH
	DB	0d3H
	DB	02cH
	DB	033H
	DB	03dH
	DB	014H
	DB	035H
	DB	0f8H
	DB	055H
	DB	05aH
	DB	07eH
	DB	0f8H
	DB	06dH
	DB	07bH
	DB	076H
	DB	09cH
	DB	086H
	DB	0dcH
	DB	096H
	DB	07aH
	DB	07eH
	DB	09bH
	DB	086H
	DB	09bH
	DB	086H
	DB	09bH
	DB	086H
	DB	058H
	DB	07eH
	DB	034H
	DB	045H
	DB	095H
	DB	04dH
	DB	0f7H
	DB	065H
	DB	0b6H
	DB	05dH
	DB	097H
	DB	02H
	DB	097H
	DB	02H
	DB	098H
	DB	02H
	DB	098H
	DB	0aH
	DB	098H
	DB	02H
	DB	098H
	DB	0aH
	DB	098H
	DB	02H
	DB	0b8H
	DB	02H
	DB	0b8H
	DB	0aH
	DB	0b8H
	DB	0aH
	DB	0d8H
	DB	0aH
	DB	0d8H
	DB	0aH
	DB	0d8H
	DB	0aH
	DB	0d8H
	DB	0aH
	DB	0b8H
	DB	0aH
	DB	0b8H
	DB	0aH
	DB	0b8H
	DB	0aH
	DB	0d8H
	DB	0aH
	DB	0d8H
	DB	0aH
	DB	0d8H
	DB	0aH
	DB	0d9H
	DB	012H
	DB	0d8H
	DB	012H
	DB	0d8H
	DB	012H
	DB	0d8H
	DB	0aH
	DB	0f9H
	DB	0aH
	DB	0f9H
	DB	012H
	DB	0f9H
	DB	012H
	DB	0f9H
	DB	012H
	DB	0f9H
	DB	012H
	DB	0f9H
	DB	012H
	DB	0f9H
	DB	012H
	DB	019H
	DB	013H
	DB	019H
	DB	013H
	DB	019H
	DB	013H
	DB	019H
	DB	013H
	DB	039H
	DB	013H
	DB	019H
	DB	013H
	DB	039H
	DB	013H
	DB	019H
	DB	013H
	DB	039H
	DB	01bH
	DB	019H
	DB	01bH
	DB	019H
	DB	01bH
	DB	039H
	DB	01bH
	DB	05aH
	DB	01bH
	DB	059H
	DB	01bH
	DB	05aH
	DB	01bH
	DB	059H
	DB	01bH
	DB	05aH
	DB	01bH
	DB	059H
	DB	01bH
	DB	07aH
	DB	01bH
	DB	07aH
	DB	01bH
	DB	07aH
	DB	023H
	DB	07aH
	DB	01bH
	DB	07aH
	DB	023H
	DB	07aH
	DB	023H
	DB	07aH
	DB	023H
	DB	09aH
	DB	023H
	DB	09aH
	DB	023H
	DB	09aH
	DB	023H
	DB	09aH
	DB	02bH
	DB	079H
	DB	02bH
	DB	09aH
	DB	033H
	DB	09aH
	DB	033H
	DB	0baH
	DB	033H
	DB	0b9H
	DB	03bH
	DB	0b9H
	DB	03bH
	DB	0b9H
	DB	043H
	DB	0b9H
	DB	043H
	DB	0baH
	DB	043H
	DB	0d9H
	DB	043H
	DB	0d9H
	DB	04bH
	DB	019H
	DB	05cH
	DB	019H
	DB	05cH
	DB	019H
	DB	05cH
	DB	019H
	DB	05cH
	DB	0f9H
	DB	053H
	DB	0daH
	DB	04bH
	DB	0daH
	DB	043H
	DB	0daH
	DB	03bH
	DB	0daH
	DB	03bH
	DB	0daH
	DB	043H
	DB	0daH
	DB	043H
	DB	0d9H
	DB	043H
	DB	0daH
	DB	043H
	DB	0d9H
	DB	043H
	DB	0d9H
	DB	04bH
	DB	0d9H
	DB	04bH
	DB	0d9H
	DB	04bH
	DB	0d9H
	DB	04bH
	DB	0d9H
	DB	04bH
	DB	0d9H
	DB	04bH
	DB	0d9H
	DB	04bH
	DB	0d9H
	DB	04bH
	DB	0d9H
	DB	043H
	DB	0d9H
	DB	043H
	DB	0d9H
	DB	043H
	DB	0d9H
	DB	043H
	DB	0b9H
	DB	043H
	DB	0b8H
	DB	043H
	DB	0b8H
	DB	043H
	DB	0d9H
	DB	043H
	DB	0d9H
	DB	043H
	DB	0b9H
	DB	043H
	DB	0b9H
	DB	043H
	DB	0d9H
	DB	043H
	DB	0d9H
	DB	043H
	DB	0b9H
	DB	043H
	DB	0b9H
	DB	043H
	DB	0b8H
	DB	043H
	DB	0b9H
	DB	043H
	DB	0b9H
	DB	043H
	DB	0b9H
	DB	043H
	DB	0b9H
	DB	043H
	DB	0b9H
	DB	043H
	DB	0b8H
	DB	043H
	DB	0b8H
	DB	043H
	DB	0b8H
	DB	043H
	DB	0b8H
	DB	043H
	DB	0b8H
	DB	043H
	DB	0b8H
	DB	03bH
	DB	098H
	DB	03bH
	DB	0b8H
	DB	043H
	DB	0b8H
	DB	03bH
	DB	0b8H
	DB	03bH
	DB	0b8H
	DB	03bH
	DB	0b8H
	DB	043H
	DB	0b8H
	DB	043H
	DB	098H
	DB	03bH
	DB	098H
	DB	043H
	DB	098H
	DB	03bH
	DB	076H
	DB	03bH
	DB	08eH
	DB	011H
	DB	04aH
	DB	011H
	DB	090H
	DB	043H
	DB	03eH
	DB	0a7H
	DB	0bfH
	DB	0d7H
	DB	0bfH
	DB	0efH
	DB	07eH
	DB	0f7H
	DB	09bH
	DB	0ceH
	DB	05bH
	DB	0c6H
	DB	05bH
	DB	0b6H
	DB	01aH
	DB	0a6H
	DB	05bH
	DB	0a6H
	DB	03bH
	DB	09eH
	DB	03bH
	DB	096H
	DB	05cH
	DB	096H
	DB	07cH
	DB	096H
	DB	05cH
	DB	08eH
	DB	03cH
	DB	08eH
	DB	05cH
	DB	08eH
	DB	099H
	DB	075H
	DB	078H
	DB	065H
	DB	098H
	DB	065H
	DB	057H
	DB	065H
	DB	036H
	DB	055H
	DB	077H
	DB	055H
	DB	056H
	DB	055H
	DB	0daH
	DB	065H
	DB	0fbH
	DB	075H
	DB	0fbH
	DB	075H
	DB	0dbH
	DB	06dH
	DB	0baH
	DB	065H
	DB	01bH
	DB	076H
	DB	0daH
	DB	065H
	DB	01aH
	DB	066H
	DB	01aH
	DB	06eH
	DB	0f5H
	DB	044H
	DB	0b6H
	DB	045H
	DB	034H
	DB	03dH
	DB	097H
	DB	045H
	DB	0f9H
	DB	05dH
	DB	0faH
	DB	06dH
	DB	0b8H
	DB	05dH
	DB	03aH
	DB	06eH
	DB	01bH
	DB	06eH
	DB	01bH
	DB	076H
	DB	077H
	DB	05dH
	DB	0b8H
	DB	055H
	DB	077H
	DB	04dH
	DB	098H
	DB	04dH
	DB	0b8H
	DB	05dH
	DB	093H
	DB	044H
	DB	037H
	DB	04dH
	DB	0b8H
	DB	055H
	DB	097H
	DB	055H
	DB	0b7H
	DB	055H
	DB	0b7H
	DB	055H
	DB	0d8H
	DB	05dH
	DB	03aH
	DB	06eH
	DB	0b8H
	DB	055H
	DB	035H
	DB	04dH
	DB	0f4H
	DB	044H
	DB	056H
	DB	055H
	DB	056H
	DB	055H
	DB	077H
	DB	05dH
	DB	0d8H
	DB	075H
	DB	076H
	DB	04dH
	DB	0b6H
	DB	045H
	DB	096H
	DB	04dH
	DB	055H
	DB	045H
	DB	0b7H
	DB	055H
	DB	0d7H
	DB	05dH
	DB	0b6H
	DB	04dH
	DB	0b6H
	DB	055H
	DB	0f2H
	DB	044H
	DB	04fH
	DB	02cH
	DB	0b2H
	DB	02cH
	DB	0b3H
	DB	034H
	DB	0d3H
	DB	034H
	DB	0f5H
	DB	044H
	DB	0f3H
	DB	044H
	DB	013H
	DB	045H
	DB	0b2H
	DB	03cH
	DB	0d3H
	DB	044H
	DB	092H
	DB	03cH
	DB	0f5H
	DB	044H
	DB	075H
	DB	05dH
	DB	034H
	DB	04dH
	DB	096H
	DB	055H
	DB	0b7H
	DB	04dH
	DB	0f2H
	DB	034H
	DB	04fH
	DB	024H
	DB	070H
	DB	01cH
	DB	034H
	DB	03dH
	DB	055H
	DB	03dH
	DB	019H
	DB	05eH
	DB	05aH
	DB	07eH
	DB	0f7H
	DB	06dH
	DB	019H
	DB	066H
	DB	09cH
	DB	08eH
	DB	0dcH
	DB	096H
	DB	07bH
	DB	086H
	DB	09bH
	DB	086H
	DB	09aH
	DB	086H
	DB	09bH
	DB	086H
	DB	017H
	DB	07eH
	DB	034H
	DB	04dH
	DB	0b6H
	DB	055H
	DB	0d6H
	DB	065H
	DB	094H
	DB	055H
	DB	077H
	DB	02H
	DB	077H
	DB	02H
	DB	097H
	DB	02H
	DB	098H
	DB	0aH
	DB	098H
	DB	0aH
	DB	098H
	DB	0aH
	DB	098H
	DB	02H
	DB	0d8H
	DB	02H
	DB	0d8H
	DB	02H
	DB	0d8H
	DB	0aH
	DB	0d8H
	DB	0aH
	DB	0b8H
	DB	0aH
	DB	0b8H
	DB	0aH
	DB	0d8H
	DB	0aH
	DB	0d8H
	DB	0aH
	DB	0d8H
	DB	0aH
	DB	0d8H
	DB	0aH
	DB	0d8H
	DB	0aH
	DB	0d8H
	DB	0aH
	DB	0d8H
	DB	012H
	DB	0d9H
	DB	012H
	DB	0d9H
	DB	012H
	DB	0d9H
	DB	012H
	DB	0d9H
	DB	012H
	DB	0d9H
	DB	0aH
	DB	0f9H
	DB	012H
	DB	0f9H
	DB	012H
	DB	0f9H
	DB	012H
	DB	0f9H
	DB	012H
	DB	0f9H
	DB	012H
	DB	0f9H
	DB	012H
	DB	019H
	DB	013H
	DB	0f8H
	DB	012H
	DB	019H
	DB	013H
	DB	019H
	DB	013H
	DB	019H
	DB	013H
	DB	019H
	DB	013H
	DB	039H
	DB	013H
	DB	019H
	DB	013H
	DB	019H
	DB	01bH
	DB	019H
	DB	01bH
	DB	039H
	DB	01bH
	DB	039H
	DB	01bH
	DB	059H
	DB	01bH
	DB	059H
	DB	01bH
	DB	05aH
	DB	01bH
	DB	059H
	DB	01bH
	DB	05aH
	DB	01bH
	DB	059H
	DB	01bH
	DB	05aH
	DB	01bH
	DB	07aH
	DB	023H
	DB	07aH
	DB	023H
	DB	07aH
	DB	023H
	DB	07aH
	DB	023H
	DB	07aH
	DB	023H
	DB	07aH
	DB	023H
	DB	07aH
	DB	023H
	DB	07aH
	DB	023H
	DB	09aH
	DB	023H
	DB	09aH
	DB	02bH
	DB	09aH
	DB	02bH
	DB	09aH
	DB	033H
	DB	09aH
	DB	033H
	DB	0baH
	DB	03bH
	DB	0baH
	DB	03bH
	DB	0baH
	DB	043H
	DB	0b9H
	DB	043H
	DB	0baH
	DB	043H
	DB	0baH
	DB	043H
	DB	0d9H
	DB	04bH
	DB	0d9H
	DB	053H
	DB	019H
	DB	05cH
	DB	019H
	DB	064H
	DB	019H
	DB	064H
	DB	019H
	DB	05cH
	DB	01aH
	DB	054H
	DB	0f9H
	DB	04bH
	DB	0daH
	DB	043H
	DB	0daH
	DB	03bH
	DB	0daH
	DB	03bH
	DB	0faH
	DB	04bH
	DB	0faH
	DB	04bH
	DB	0d9H
	DB	04bH
	DB	0d9H
	DB	04bH
	DB	0d9H
	DB	04bH
	DB	0d9H
	DB	053H
	DB	0d9H
	DB	04bH
	DB	0d9H
	DB	04bH
	DB	0d9H
	DB	04bH
	DB	0d9H
	DB	04bH
	DB	0d9H
	DB	04bH
	DB	0d9H
	DB	04bH
	DB	0d9H
	DB	04bH
	DB	0d9H
	DB	043H
	DB	0d9H
	DB	043H
	DB	0d9H
	DB	043H
	DB	0d9H
	DB	043H
	DB	0d9H
	DB	043H
	DB	0b9H
	DB	04bH
	DB	0b9H
	DB	04bH
	DB	0d9H
	DB	043H
	DB	0d9H
	DB	043H
	DB	0d9H
	DB	043H
	DB	0b9H
	DB	043H
	DB	0b9H
	DB	043H
	DB	0b9H
	DB	043H
	DB	0b9H
	DB	043H
	DB	0b8H
	DB	043H
	DB	0b9H
	DB	043H
	DB	0b8H
	DB	043H
	DB	0b9H
	DB	043H
	DB	0b9H
	DB	043H
	DB	0b9H
	DB	043H
	DB	0d9H
	DB	043H
	DB	0b9H
	DB	043H
	DB	0b8H
	DB	043H
	DB	0b9H
	DB	043H
	DB	0b8H
	DB	043H
	DB	0b8H
	DB	043H
	DB	0b8H
	DB	043H
	DB	0b8H
	DB	043H
	DB	0b8H
	DB	043H
	DB	0b8H
	DB	043H
	DB	0b8H
	DB	03bH
	DB	0b9H
	DB	03bH
	DB	098H
	DB	03bH
	DB	0b8H
	DB	043H
	DB	0b8H
	DB	043H
	DB	098H
	DB	03bH
	DB	098H
	DB	03bH
	DB	056H
	DB	03bH
	DB	08eH
	DB	011H
	DB	02aH
	DB	011H
	DB	0d1H
	DB	04bH
	DB	03eH
	DB	0a7H
	DB	0bfH
	DB	0d7H
	DB	09fH
	DB	0e7H
	DB	05eH
	DB	0f7H
	DB	0bcH
	DB	0d6H
	DB	05bH
	DB	0ceH
	DB	05bH
	DB	0b6H
	DB	03aH
	DB	0a6H
	DB	03bH
	DB	0a6H
	DB	01bH
	DB	09eH
	DB	05cH
	DB	09eH
	DB	07cH
	DB	096H
	DB	07cH
	DB	08eH
	DB	07dH
	DB	096H
	DB	01bH
	DB	08eH
	DB	03cH
	DB	08eH
	DB	099H
	DB	075H
	DB	078H
	DB	065H
	DB	098H
	DB	065H
	DB	057H
	DB	05dH
	DB	036H
	DB	055H
	DB	057H
	DB	055H
	DB	056H
	DB	055H
	DB	099H
	DB	065H
	DB	03bH
	DB	086H
	DB	03cH
	DB	086H
	DB	0dbH
	DB	06dH
	DB	099H
	DB	065H
	DB	01bH
	DB	06eH
	DB	0faH
	DB	065H
	DB	0d9H
	DB	05dH
	DB	0f9H
	DB	065H
	DB	036H
	DB	045H
	DB	019H
	DB	056H
	DB	0b7H
	DB	055H
	DB	076H
	DB	04dH
	DB	098H
	DB	055H
	DB	0b9H
	DB	05dH
	DB	099H
	DB	05dH
	DB	01bH
	DB	06eH
	DB	03bH
	DB	076H
	DB	03aH
	DB	07eH
	DB	098H
	DB	065H
	DB	0d9H
	DB	05dH
	DB	076H
	DB	04dH
	DB	097H
	DB	055H
	DB	0b7H
	DB	05dH
	DB	056H
	DB	05dH
	DB	077H
	DB	04dH
	DB	077H
	DB	055H
	DB	076H
	DB	055H
	DB	0b7H
	DB	055H
	DB	0b7H
	DB	055H
	DB	0d8H
	DB	05dH
	DB	0b8H
	DB	055H
	DB	076H
	DB	055H
	DB	014H
	DB	045H
	DB	035H
	DB	04dH
	DB	0f5H
	DB	044H
	DB	036H
	DB	04dH
	DB	0b8H
	DB	065H
	DB	039H
	DB	086H
	DB	096H
	DB	055H
	DB	096H
	DB	04dH
	DB	034H
	DB	03dH
	DB	055H
	DB	04dH
	DB	075H
	DB	04dH
	DB	0d8H
	DB	055H
	DB	0b7H
	DB	055H
	DB	0d8H
	DB	055H
	DB	054H
	DB	05dH
	DB	050H
	DB	034H
	DB	0d3H
	DB	034H
	DB	0d3H
	DB	03cH
	DB	0d3H
	DB	034H
	DB	0f5H
	DB	044H
	DB	0f4H
	DB	044H
	DB	0f3H
	DB	03cH
	DB	0f3H
	DB	03cH
	DB	034H
	DB	04dH
	DB	0b2H
	DB	03cH
	DB	0d4H
	DB	044H
	DB	035H
	DB	05dH
	DB	055H
	DB	055H
	DB	076H
	DB	055H
	DB	096H
	DB	055H
	DB	0d1H
	DB	034H
	DB	0d1H
	DB	034H
	DB	02fH
	DB	01cH
	DB	034H
	DB	03dH
	DB	076H
	DB	045H
	DB	019H
	DB	06eH
	DB	05aH
	DB	07eH
	DB	0f8H
	DB	06dH
	DB	039H
	DB	06eH
	DB	0bcH
	DB	08eH
	DB	0bcH
	DB	096H
	DB	0bbH
	DB	096H
	DB	07bH
	DB	086H
	DB	0bbH
	DB	08eH
	DB	0bbH
	DB	08eH
	DB	037H
	DB	07eH
	DB	055H
	DB	04dH
	DB	076H
	DB	055H
	DB	0b5H
	DB	05dH
	DB	0b5H
	DB	05dH
	DB	057H
	DB	02H
	DB	077H
	DB	02H
	DB	097H
	DB	02H
	DB	097H
	DB	02H
	DB	097H
	DB	02H
	DB	098H
	DB	0aH
	DB	098H
	DB	02H
	DB	0d8H
	DB	02H
	DB	0d8H
	DB	02H
	DB	0b8H
	DB	0aH
	DB	0b8H
	DB	0aH
	DB	0b8H
	DB	0aH
	DB	0b8H
	DB	0aH
	DB	0d8H
	DB	0aH
	DB	0d9H
	DB	0aH
	DB	0f9H
	DB	0aH
	DB	0b8H
	DB	0aH
	DB	0d8H
	DB	0aH
	DB	0d8H
	DB	0aH
	DB	0d8H
	DB	0aH
	DB	0d9H
	DB	012H
	DB	0f9H
	DB	012H
	DB	0b8H
	DB	012H
	DB	0d8H
	DB	012H
	DB	0f9H
	DB	012H
	DB	0f9H
	DB	012H
	DB	0f9H
	DB	012H
	DB	0f9H
	DB	012H
	DB	0f9H
	DB	012H
	DB	0f9H
	DB	012H
	DB	0f9H
	DB	012H
	DB	019H
	DB	013H
	DB	019H
	DB	013H
	DB	019H
	DB	013H
	DB	019H
	DB	013H
	DB	039H
	DB	013H
	DB	039H
	DB	013H
	DB	039H
	DB	01bH
	DB	039H
	DB	01bH
	DB	039H
	DB	01bH
	DB	039H
	DB	01bH
	DB	039H
	DB	01bH
	DB	039H
	DB	01bH
	DB	059H
	DB	01bH
	DB	059H
	DB	01bH
	DB	05aH
	DB	01bH
	DB	059H
	DB	01bH
	DB	05aH
	DB	01bH
	DB	05aH
	DB	023H
	DB	05aH
	DB	01bH
	DB	05aH
	DB	023H
	DB	07aH
	DB	023H
	DB	079H
	DB	023H
	DB	07aH
	DB	023H
	DB	07aH
	DB	023H
	DB	09aH
	DB	023H
	DB	07aH
	DB	023H
	DB	07aH
	DB	023H
	DB	07aH
	DB	023H
	DB	09aH
	DB	02bH
	DB	09aH
	DB	02bH
	DB	09aH
	DB	02bH
	DB	09aH
	DB	033H
	DB	0baH
	DB	033H
	DB	0baH
	DB	033H
	DB	0baH
	DB	03bH
	DB	0baH
	DB	03bH
	DB	0baH
	DB	043H
	DB	0daH
	DB	043H
	DB	0d9H
	DB	04bH
	DB	019H
	DB	05cH
	DB	019H
	DB	064H
	DB	019H
	DB	064H
	DB	039H
	DB	064H
	DB	039H
	DB	064H
	DB	01aH
	DB	054H
	DB	0faH
	DB	04bH
	DB	0daH
	DB	043H
	DB	0daH
	DB	043H
	DB	0daH
	DB	043H
	DB	0faH
	DB	04bH
	DB	0faH
	DB	053H
	DB	0faH
	DB	05bH
	DB	0f9H
	DB	05bH
	DB	0f9H
	DB	05bH
	DB	0faH
	DB	053H
	DB	0faH
	DB	053H
	DB	0faH
	DB	053H
	DB	0faH
	DB	053H
	DB	0faH
	DB	04bH
	DB	0d9H
	DB	04bH
	DB	0f9H
	DB	04bH
	DB	0d9H
	DB	04bH
	DB	0d9H
	DB	04bH
	DB	0d9H
	DB	043H
	DB	0d9H
	DB	043H
	DB	0d9H
	DB	043H
	DB	0d9H
	DB	04bH
	DB	0d9H
	DB	04bH
	DB	0d9H
	DB	04bH
	DB	0d9H
	DB	04bH
	DB	0b9H
	DB	043H
	DB	0d9H
	DB	043H
	DB	0d9H
	DB	043H
	DB	0b9H
	DB	043H
	DB	0b9H
	DB	043H
	DB	0b9H
	DB	043H
	DB	0d9H
	DB	043H
	DB	0d9H
	DB	043H
	DB	0b9H
	DB	043H
	DB	0b9H
	DB	043H
	DB	0b9H
	DB	043H
	DB	0b9H
	DB	043H
	DB	0b9H
	DB	043H
	DB	0d9H
	DB	043H
	DB	0b8H
	DB	043H
	DB	0b8H
	DB	043H
	DB	0b9H
	DB	043H
	DB	0b9H
	DB	043H
	DB	0b8H
	DB	043H
	DB	0b8H
	DB	043H
	DB	098H
	DB	03bH
	DB	0b9H
	DB	043H
	DB	0b8H
	DB	03bH
	DB	0b8H
	DB	03bH
	DB	098H
	DB	03bH
	DB	0b8H
	DB	03bH
	DB	0b8H
	DB	043H
	DB	098H
	DB	03bH
	DB	098H
	DB	03bH
	DB	077H
	DB	03bH
	DB	0afH
	DB	011H
	DB	04aH
	DB	011H
	DB	032H
	DB	04cH
	DB	03eH
	DB	0a7H
	DB	0bfH
	DB	0d7H
	DB	09fH
	DB	0e7H
	DB	01dH
	DB	0efH
	DB	0bcH
	DB	0d6H
	DB	09bH
	DB	0ceH
	DB	05bH
	DB	0beH
	DB	01aH
	DB	0a6H
	DB	01aH
	DB	09eH
	DB	01bH
	DB	09eH
	DB	05cH
	DB	09eH
	DB	05cH
	DB	096H
	DB	05cH
	DB	096H
	DB	07cH
	DB	096H
	DB	01bH
	DB	086H
	DB	05cH
	DB	08eH
	DB	099H
	DB	07dH
	DB	078H
	DB	065H
	DB	078H
	DB	065H
	DB	057H
	DB	065H
	DB	036H
	DB	055H
	DB	057H
	DB	055H
	DB	077H
	DB	055H
	DB	098H
	DB	05dH
	DB	03bH
	DB	07eH
	DB	03cH
	DB	086H
	DB	0daH
	DB	06dH
	DB	0b9H
	DB	06dH
	DB	0daH
	DB	065H
	DB	0faH
	DB	065H
	DB	01aH
	DB	066H
	DB	0f9H
	DB	06dH
	DB	057H
	DB	045H
	DB	05bH
	DB	056H
	DB	0f9H
	DB	05dH
	DB	096H
	DB	04dH
	DB	077H
	DB	055H
	DB	0daH
	DB	065H
	DB	0b9H
	DB	065H
	DB	0faH
	DB	065H
	DB	05bH
	DB	07eH
	DB	03bH
	DB	07eH
	DB	0b9H
	DB	06dH
	DB	01aH
	DB	066H
	DB	076H
	DB	055H
	DB	0b8H
	DB	055H
	DB	0f9H
	DB	05dH
	DB	0d8H
	DB	065H
	DB	097H
	DB	04dH
	DB	056H
	DB	04dH
	DB	076H
	DB	055H
	DB	0b7H
	DB	04dH
	DB	0b7H
	DB	055H
	DB	0d7H
	DB	05dH
	DB	0b7H
	DB	055H
	DB	019H
	DB	076H
	DB	076H
	DB	05dH
	DB	096H
	DB	065H
	DB	0d4H
	DB	04cH
	DB	015H
	DB	045H
	DB	098H
	DB	05dH
	DB	03aH
	DB	086H
	DB	095H
	DB	055H
	DB	075H
	DB	04dH
	DB	035H
	DB	045H
	DB	095H
	DB	05dH
	DB	0b6H
	DB	05dH
	DB	0b8H
	DB	055H
	DB	0f7H
	DB	05dH
	DB	097H
	DB	045H
	DB	0f7H
	DB	06dH
	DB	0b2H
	DB	044H
	DB	0d3H
	DB	034H
	DB	014H
	DB	045H
	DB	0d3H
	DB	034H
	DB	035H
	DB	04dH
	DB	014H
	DB	045H
	DB	014H
	DB	03dH
	DB	0f4H
	DB	044H
	DB	034H
	DB	04dH
	DB	0b2H
	DB	044H
	DB	0b3H
	DB	03cH
	DB	015H
	DB	055H
	DB	036H
	DB	04dH
	DB	056H
	DB	055H
	DB	075H
	DB	04dH
	DB	012H
	DB	035H
	DB	032H
	DB	03dH
	DB	070H
	DB	024H
	DB	075H
	DB	045H
	DB	0d7H
	DB	055H
	DB	03aH
	DB	06eH
	DB	0f8H
	DB	06dH
	DB	038H
	DB	076H
	DB	05aH
	DB	076H
	DB	0bcH
	DB	08eH
	DB	0bcH
	DB	08eH
	DB	0bbH
	DB	08eH
	DB	07aH
	DB	086H
	DB	09bH
	DB	07eH
	DB	0bbH
	DB	086H
	DB	037H
	DB	07eH
	DB	075H
	DB	055H
	DB	095H
	DB	055H
	DB	0d6H
	DB	05dH
	DB	018H
	DB	076H
	DB	077H
	DB	02H
	DB	077H
	DB	0aH
	DB	077H
	DB	02H
	DB	077H
	DB	02H
	DB	097H
	DB	02H
	DB	077H
	DB	02H
	DB	097H
	DB	02H
	DB	098H
	DB	02H
	DB	0b8H
	DB	0aH
	DB	0b8H
	DB	02H
	DB	0b8H
	DB	0aH
	DB	098H
	DB	0aH
	DB	098H
	DB	0aH
	DB	0b8H
	DB	0aH
	DB	0d8H
	DB	0aH
	DB	0b8H
	DB	0aH
	DB	0b8H
	DB	0aH
	DB	0d8H
	DB	012H
	DB	0b8H
	DB	0aH
	DB	0d9H
	DB	012H
	DB	0d9H
	DB	012H
	DB	0d9H
	DB	012H
	DB	0b8H
	DB	012H
	DB	0d9H
	DB	012H
	DB	0f9H
	DB	012H
	DB	0f9H
	DB	012H
	DB	0d9H
	DB	012H
	DB	0f9H
	DB	012H
	DB	0f9H
	DB	012H
	DB	0f9H
	DB	012H
	DB	0f9H
	DB	012H
	DB	0f9H
	DB	012H
	DB	019H
	DB	013H
	DB	019H
	DB	013H
	DB	019H
	DB	013H
	DB	019H
	DB	013H
	DB	019H
	DB	013H
	DB	019H
	DB	01bH
	DB	03aH
	DB	01bH
	DB	039H
	DB	01bH
	DB	039H
	DB	01bH
	DB	039H
	DB	01bH
	DB	059H
	DB	01bH
	DB	039H
	DB	01bH
	DB	059H
	DB	01bH
	DB	059H
	DB	01bH
	DB	059H
	DB	01bH
	DB	059H
	DB	01bH
	DB	05aH
	DB	023H
	DB	05aH
	DB	023H
	DB	05aH
	DB	023H
	DB	059H
	DB	01bH
	DB	07aH
	DB	023H
	DB	07aH
	DB	023H
	DB	07aH
	DB	023H
	DB	09aH
	DB	023H
	DB	07aH
	DB	023H
	DB	07aH
	DB	023H
	DB	09aH
	DB	02bH
	DB	09aH
	DB	02bH
	DB	09aH
	DB	02bH
	DB	09aH
	DB	02bH
	DB	09aH
	DB	033H
	DB	09aH
	DB	033H
	DB	099H
	DB	033H
	DB	0baH
	DB	03bH
	DB	0baH
	DB	03bH
	DB	0daH
	DB	043H
	DB	0b9H
	DB	043H
	DB	0f9H
	DB	053H
	DB	01aH
	DB	05cH
	DB	01aH
	DB	064H
	DB	03aH
	DB	064H
	DB	05aH
	DB	064H
	DB	039H
	DB	064H
	DB	01aH
	DB	054H
	DB	01aH
	DB	04cH
	DB	0faH
	DB	043H
	DB	0daH
	DB	043H
	DB	0d9H
	DB	043H
	DB	0faH
	DB	053H
	DB	03aH
	DB	064H
	DB	059H
	DB	06cH
	DB	059H
	DB	074H
	DB	039H
	DB	06cH
	DB	039H
	DB	064H
	DB	019H
	DB	054H
	DB	0f9H
	DB	053H
	DB	0faH
	DB	053H
	DB	0faH
	DB	04bH
	DB	0f9H
	DB	04bH
	DB	0d9H
	DB	04bH
	DB	0f9H
	DB	04bH
	DB	0faH
	DB	04bH
	DB	0d9H
	DB	04bH
	DB	0b9H
	DB	043H
	DB	0d9H
	DB	04bH
	DB	0d9H
	DB	04bH
	DB	0d9H
	DB	04bH
	DB	0d9H
	DB	04bH
	DB	0d9H
	DB	04bH
	DB	0d9H
	DB	043H
	DB	0d9H
	DB	043H
	DB	0b9H
	DB	043H
	DB	0b9H
	DB	043H
	DB	0b9H
	DB	043H
	DB	0b9H
	DB	043H
	DB	0d9H
	DB	043H
	DB	0b9H
	DB	043H
	DB	0b9H
	DB	043H
	DB	0b8H
	DB	043H
	DB	0b9H
	DB	043H
	DB	0b9H
	DB	043H
	DB	0b9H
	DB	043H
	DB	0b9H
	DB	043H
	DB	0d9H
	DB	043H
	DB	0b8H
	DB	043H
	DB	0b9H
	DB	043H
	DB	0b8H
	DB	043H
	DB	0b8H
	DB	043H
	DB	0b8H
	DB	043H
	DB	0b8H
	DB	043H
	DB	0b8H
	DB	043H
	DB	0b8H
	DB	043H
	DB	0b8H
	DB	043H
	DB	0b8H
	DB	043H
	DB	0b8H
	DB	043H
	DB	098H
	DB	043H
	DB	0b8H
	DB	043H
	DB	097H
	DB	03bH
	DB	076H
	DB	03bH
	DB	0afH
	DB	011H
	DB	04bH
	DB	09H
	DB	0d1H
	DB	04bH
	DB	03eH
	DB	0a7H
	DB	09fH
	DB	0cfH
	DB	09fH
	DB	0efH
	DB	0fdH
	DB	0e6H
	DB	09bH
	DB	0d6H
	DB	0bcH
	DB	0deH
	DB	07bH
	DB	0beH
	DB	03bH
	DB	0aeH
	DB	01aH
	DB	0a6H
	DB	01bH
	DB	09eH
	DB	03cH
	DB	096H
	DB	05cH
	DB	096H
	DB	03bH
	DB	08eH
	DB	09dH
	DB	09eH
	DB	01bH
	DB	08eH
	DB	05cH
	DB	096H
	DB	0b9H
	DB	075H
	DB	078H
	DB	065H
	DB	077H
	DB	065H
	DB	057H
	DB	065H
	DB	016H
	DB	05dH
	DB	058H
	DB	05dH
	DB	058H
	DB	05dH
	DB	078H
	DB	055H
	DB	03cH
	DB	07eH
	DB	09cH
	DB	096H
	DB	05bH
	DB	08eH
	DB	0daH
	DB	06dH
	DB	0faH
	DB	065H
	DB	0faH
	DB	065H
	DB	03bH
	DB	06eH
	DB	01aH
	DB	06eH
	DB	097H
	DB	04dH
	DB	01aH
	DB	056H
	DB	019H
	DB	05eH
	DB	0b7H
	DB	055H
	DB	0b9H
	DB	055H
	DB	01aH
	DB	06eH
	DB	0faH
	DB	06dH
	DB	0faH
	DB	065H
	DB	05bH
	DB	076H
	DB	03bH
	DB	07eH
	DB	0d9H
	DB	065H
	DB	01aH
	DB	066H
	DB	077H
	DB	055H
	DB	097H
	DB	04dH
	DB	0b8H
	DB	055H
	DB	0f9H
	DB	065H
	DB	077H
	DB	055H
	DB	076H
	DB	04dH
	DB	097H
	DB	055H
	DB	0b7H
	DB	04dH
	DB	0b7H
	DB	055H
	DB	0d8H
	DB	05dH
	DB	0d8H
	DB	065H
	DB	05bH
	DB	076H
	DB	019H
	DB	07eH
	DB	097H
	DB	065H
	DB	036H
	DB	055H
	DB	0f4H
	DB	044H
	DB	077H
	DB	055H
	DB	0f8H
	DB	075H
	DB	096H
	DB	055H
	DB	015H
	DB	045H
	DB	077H
	DB	055H
	DB	0f7H
	DB	055H
	DB	0d8H
	DB	05dH
	DB	096H
	DB	04dH
	DB	095H
	DB	045H
	DB	0b8H
	DB	055H
	DB	019H
	DB	06eH
	DB	0b2H
	DB	03cH
	DB	0d3H
	DB	034H
	DB	014H
	DB	045H
	DB	0b2H
	DB	02cH
	DB	076H
	DB	04dH
	DB	033H
	DB	045H
	DB	0f3H
	DB	03cH
	DB	014H
	DB	045H
	DB	0f4H
	DB	044H
	DB	0f3H
	DB	044H
	DB	0b3H
	DB	03cH
	DB	093H
	DB	044H
	DB	0f5H
	DB	04cH
	DB	056H
	DB	055H
	DB	055H
	DB	045H
	DB	012H
	DB	02dH
	DB	0d1H
	DB	02cH
	DB	0d2H
	DB	02cH
	DB	0d8H
	DB	055H
	DB	0f8H
	DB	065H
	DB	0f8H
	DB	06dH
	DB	0d7H
	DB	065H
	DB	039H
	DB	06eH
	DB	05aH
	DB	076H
	DB	09bH
	DB	086H
	DB	09cH
	DB	08eH
	DB	09bH
	DB	08eH
	DB	018H
	DB	06eH
	DB	03aH
	DB	06eH
	DB	07aH
	DB	076H
	DB	038H
	DB	076H
	DB	096H
	DB	05dH
	DB	0d6H
	DB	065H
	DB	0d6H
	DB	05dH
	DB	018H
	DB	06eH
	DB	077H
	DB	02H
	DB	077H
	DB	02H
	DB	077H
	DB	02H
	DB	077H
	DB	02H
	DB	097H
	DB	02H
	DB	098H
	DB	0aH
	DB	097H
	DB	02H
	DB	098H
	DB	02H
	DB	0b8H
	DB	02H
	DB	0d8H
	DB	0aH
	DB	0b8H
	DB	0aH
	DB	098H
	DB	0aH
	DB	098H
	DB	0aH
	DB	0b8H
	DB	0aH
	DB	0b8H
	DB	0aH
	DB	0b8H
	DB	0aH
	DB	0b8H
	DB	0aH
	DB	0b8H
	DB	0aH
	DB	0b8H
	DB	0aH
	DB	0d9H
	DB	012H
	DB	0d8H
	DB	0aH
	DB	0d8H
	DB	0aH
	DB	0d9H
	DB	0aH
	DB	0d9H
	DB	012H
	DB	0d8H
	DB	012H
	DB	0d9H
	DB	012H
	DB	0f9H
	DB	012H
	DB	0f9H
	DB	012H
	DB	0f9H
	DB	012H
	DB	0f9H
	DB	012H
	DB	0f9H
	DB	012H
	DB	0f9H
	DB	012H
	DB	019H
	DB	013H
	DB	019H
	DB	013H
	DB	019H
	DB	013H
	DB	019H
	DB	013H
	DB	019H
	DB	013H
	DB	019H
	DB	01bH
	DB	03aH
	DB	01bH
	DB	019H
	DB	01bH
	DB	019H
	DB	01bH
	DB	039H
	DB	01bH
	DB	039H
	DB	01bH
	DB	039H
	DB	01bH
	DB	059H
	DB	01bH
	DB	059H
	DB	01bH
	DB	059H
	DB	01bH
	DB	05aH
	DB	023H
	DB	05aH
	DB	023H
	DB	05aH
	DB	023H
	DB	05aH
	DB	023H
	DB	05aH
	DB	023H
	DB	07aH
	DB	023H
	DB	07aH
	DB	023H
	DB	07aH
	DB	023H
	DB	07aH
	DB	023H
	DB	09aH
	DB	023H
	DB	09aH
	DB	023H
	DB	09aH
	DB	02bH
	DB	09aH
	DB	02bH
	DB	09aH
	DB	02bH
	DB	09aH
	DB	02bH
	DB	09aH
	DB	033H
	DB	09aH
	DB	033H
	DB	0baH
	DB	03bH
	DB	0baH
	DB	03bH
	DB	0baH
	DB	03bH
	DB	0daH
	DB	043H
	DB	0daH
	DB	04bH
	DB	01aH
	DB	054H
	DB	01aH
	DB	05cH
	DB	0f9H
	DB	05bH
	DB	01aH
	DB	05cH
	DB	03aH
	DB	05cH
	DB	03aH
	DB	05cH
	DB	01aH
	DB	054H
	DB	01aH
	DB	04cH
	DB	0faH
	DB	043H
	DB	0daH
	DB	043H
	DB	0faH
	DB	04bH
	DB	019H
	DB	05cH
	DB	05aH
	DB	074H
	DB	09aH
	DB	07cH
	DB	07aH
	DB	07cH
	DB	05aH
	DB	074H
	DB	05aH
	DB	064H
	DB	019H
	DB	05cH
	DB	0f9H
	DB	053H
	DB	0f9H
	DB	053H
	DB	0d9H
	DB	04bH
	DB	0f9H
	DB	04bH
	DB	0f9H
	DB	04bH
	DB	0faH
	DB	04bH
	DB	0d9H
	DB	04bH
	DB	0d9H
	DB	04bH
	DB	0d9H
	DB	04bH
	DB	0b9H
	DB	04bH
	DB	0b9H
	DB	04bH
	DB	0b9H
	DB	04bH
	DB	0d9H
	DB	04bH
	DB	0d9H
	DB	043H
	DB	0d9H
	DB	043H
	DB	0d9H
	DB	04bH
	DB	0b9H
	DB	043H
	DB	0b9H
	DB	043H
	DB	0b9H
	DB	043H
	DB	0d9H
	DB	043H
	DB	0d9H
	DB	043H
	DB	0b9H
	DB	043H
	DB	0b9H
	DB	043H
	DB	0b9H
	DB	043H
	DB	0b9H
	DB	043H
	DB	0b9H
	DB	043H
	DB	0b9H
	DB	043H
	DB	0b9H
	DB	043H
	DB	0b8H
	DB	043H
	DB	0b8H
	DB	043H
	DB	0b9H
	DB	043H
	DB	0b9H
	DB	043H
	DB	0b9H
	DB	043H
	DB	0b9H
	DB	043H
	DB	0b9H
	DB	043H
	DB	0b8H
	DB	043H
	DB	0b8H
	DB	043H
	DB	0b8H
	DB	043H
	DB	0b8H
	DB	043H
	DB	0b8H
	DB	043H
	DB	098H
	DB	043H
	DB	0b8H
	DB	043H
	DB	097H
	DB	03bH
	DB	076H
	DB	03bH
	DB	0afH
	DB	019H
	DB	04bH
	DB	011H
	DB	090H
	DB	04bH
	DB	0feH
	DB	09eH
	DB	09fH
	DB	0d7H
	DB	09fH
	DB	0efH
	DB	0fdH
	DB	0eeH
	DB	09bH
	DB	0d6H
	DB	0bcH
	DB	0deH
	DB	05bH
	DB	0beH
	DB	05bH
	DB	0aeH
	DB	01aH
	DB	0a6H
	DB	03bH
	DB	0a6H
	DB	03cH
	DB	096H
	DB	05cH
	DB	096H
	DB	03bH
	DB	096H
	DB	07cH
	DB	09eH
	DB	05cH
	DB	096H
	DB	07cH
	DB	096H
	DB	099H
	DB	075H
	DB	077H
	DB	06dH
	DB	077H
	DB	06dH
	DB	057H
	DB	065H
	DB	016H
	DB	05dH
	DB	037H
	DB	055H
	DB	058H
	DB	05dH
	DB	057H
	DB	055H
	DB	03bH
	DB	076H
	DB	09dH
	DB	08eH
	DB	09cH
	DB	096H
	DB	0b9H
	DB	06dH
	DB	03bH
	DB	06eH
	DB	0fbH
	DB	06dH
	DB	0fbH
	DB	065H
	DB	0faH
	DB	06dH
	DB	097H
	DB	055H
	DB	0f9H
	DB	05dH
	DB	01aH
	DB	066H
	DB	0b7H
	DB	05dH
	DB	0b9H
	DB	05dH
	DB	0faH
	DB	06dH
	DB	01bH
	DB	076H
	DB	0faH
	DB	065H
	DB	07cH
	DB	07eH
	DB	01bH
	DB	07eH
	DB	098H
	DB	05dH
	DB	0f9H
	DB	05dH
	DB	077H
	DB	055H
	DB	056H
	DB	045H
	DB	077H
	DB	04dH
	DB	0b8H
	DB	05dH
	DB	014H
	DB	04dH
	DB	034H
	DB	045H
	DB	0b7H
	DB	04dH
	DB	0b7H
	DB	055H
	DB	0b7H
	DB	055H
	DB	0d8H
	DB	05dH
	DB	0f9H
	DB	065H
	DB	03aH
	DB	076H
	DB	07bH
	DB	086H
	DB	0b7H
	DB	06dH
	DB	016H
	DB	04dH
	DB	0b3H
	DB	03cH
	DB	058H
	DB	04dH
	DB	0b8H
	DB	075H
	DB	097H
	DB	05dH
	DB	015H
	DB	04dH
	DB	097H
	DB	05dH
	DB	095H
	DB	055H
	DB	055H
	DB	04dH
	DB	034H
	DB	045H
	DB	055H
	DB	045H
	DB	0d7H
	DB	055H
	DB	054H
	DB	055H
	DB	071H
	DB	034H
	DB	0f4H
	DB	03cH
	DB	035H
	DB	055H
	DB	0d3H
	DB	034H
	DB	055H
	DB	045H
	DB	0f3H
	DB	03cH
	DB	034H
	DB	045H
	DB	034H
	DB	04dH
	DB	0f4H
	DB	044H
	DB	014H
	DB	045H
	DB	0b2H
	DB	03cH
	DB	093H
	DB	044H
	DB	0d5H
	DB	04cH
	DB	036H
	DB	04dH
	DB	014H
	DB	03dH
	DB	0d1H
	DB	02cH
	DB	06fH
	DB	024H
	DB	034H
	DB	035H
	DB	0f8H
	DB	05dH
	DB	0b7H
	DB	055H
	DB	0d8H
	DB	05dH
	DB	0d7H
	DB	05dH
	DB	0d7H
	DB	055H
	DB	05aH
	DB	06eH
	DB	09bH
	DB	086H
	DB	0bcH
	DB	096H
	DB	07aH
	DB	086H
	DB	0d7H
	DB	065H
	DB	0f8H
	DB	065H
	DB	018H
	DB	066H
	DB	058H
	DB	076H
	DB	0b7H
	DB	065H
	DB	018H
	DB	06eH
	DB	0d7H
	DB	065H
	DB	0d7H
	DB	065H
	DB	077H
	DB	02H
	DB	097H
	DB	02H
	DB	097H
	DB	02H
	DB	097H
	DB	02H
	DB	098H
	DB	0aH
	DB	098H
	DB	0aH
	DB	098H
	DB	0aH
	DB	0b8H
	DB	0aH
	DB	0b8H
	DB	0aH
	DB	0b8H
	DB	0aH
	DB	0b8H
	DB	0aH
	DB	0b8H
	DB	0aH
	DB	098H
	DB	0aH
	DB	0b8H
	DB	0aH
	DB	0b8H
	DB	0aH
	DB	0b8H
	DB	0aH
	DB	0b8H
	DB	0aH
	DB	0b8H
	DB	0aH
	DB	0b8H
	DB	0aH
	DB	0d9H
	DB	012H
	DB	0d8H
	DB	012H
	DB	0d9H
	DB	012H
	DB	0d9H
	DB	012H
	DB	0f9H
	DB	012H
	DB	0d9H
	DB	012H
	DB	0d9H
	DB	012H
	DB	0f9H
	DB	012H
	DB	019H
	DB	013H
	DB	0f9H
	DB	012H
	DB	0f9H
	DB	012H
	DB	019H
	DB	013H
	DB	0f9H
	DB	012H
	DB	0f9H
	DB	012H
	DB	019H
	DB	013H
	DB	039H
	DB	013H
	DB	019H
	DB	013H
	DB	019H
	DB	013H
	DB	039H
	DB	01bH
	DB	03aH
	DB	01bH
	DB	039H
	DB	01bH
	DB	039H
	DB	01bH
	DB	039H
	DB	01bH
	DB	039H
	DB	023H
	DB	039H
	DB	01bH
	DB	05aH
	DB	023H
	DB	059H
	DB	023H
	DB	059H
	DB	023H
	DB	059H
	DB	023H
	DB	05aH
	DB	023H
	DB	05aH
	DB	023H
	DB	05aH
	DB	023H
	DB	07aH
	DB	023H
	DB	07aH
	DB	023H
	DB	07aH
	DB	023H
	DB	07aH
	DB	023H
	DB	09aH
	DB	023H
	DB	09aH
	DB	023H
	DB	09aH
	DB	023H
	DB	09aH
	DB	02bH
	DB	09aH
	DB	02bH
	DB	09aH
	DB	02bH
	DB	09aH
	DB	02bH
	DB	09aH
	DB	033H
	DB	0baH
	DB	033H
	DB	0baH
	DB	03bH
	DB	0daH
	DB	03bH
	DB	0daH
	DB	043H
	DB	0b9H
	DB	043H
	DB	0faH
	DB	04bH
	DB	01aH
	DB	054H
	DB	0f9H
	DB	053H
	DB	01aH
	DB	054H
	DB	03aH
	DB	05cH
	DB	01aH
	DB	054H
	DB	01aH
	DB	054H
	DB	0faH
	DB	04bH
	DB	0faH
	DB	04bH
	DB	0faH
	DB	043H
	DB	0faH
	DB	04bH
	DB	01aH
	DB	054H
	DB	03aH
	DB	064H
	DB	07aH
	DB	074H
	DB	09aH
	DB	07cH
	DB	09aH
	DB	07cH
	DB	09aH
	DB	074H
	DB	05aH
	DB	06cH
	DB	019H
	DB	05cH
	DB	0f9H
	DB	053H
	DB	0f9H
	DB	053H
	DB	0f9H
	DB	04bH
	DB	0d9H
	DB	04bH
	DB	0d9H
	DB	04bH
	DB	0faH
	DB	04bH
	DB	0f9H
	DB	04bH
	DB	0f9H
	DB	04bH
	DB	0f9H
	DB	04bH
	DB	0d9H
	DB	04bH
	DB	0d9H
	DB	053H
	DB	0d9H
	DB	04bH
	DB	0f9H
	DB	04bH
	DB	0d9H
	DB	043H
	DB	0d9H
	DB	043H
	DB	0d9H
	DB	04bH
	DB	0d9H
	DB	04bH
	DB	0b9H
	DB	043H
	DB	0b9H
	DB	043H
	DB	0d9H
	DB	043H
	DB	0d9H
	DB	043H
	DB	0d9H
	DB	043H
	DB	0b9H
	DB	043H
	DB	0b9H
	DB	043H
	DB	0b9H
	DB	043H
	DB	0b9H
	DB	043H
	DB	0b9H
	DB	043H
	DB	0d9H
	DB	043H
	DB	0b8H
	DB	043H
	DB	0b9H
	DB	043H
	DB	0b9H
	DB	043H
	DB	0b9H
	DB	043H
	DB	0b9H
	DB	043H
	DB	0b9H
	DB	043H
	DB	0b9H
	DB	043H
	DB	0b8H
	DB	043H
	DB	0b8H
	DB	043H
	DB	0b8H
	DB	043H
	DB	0b8H
	DB	043H
	DB	0b8H
	DB	043H
	DB	098H
	DB	043H
	DB	0b8H
	DB	043H
	DB	0b8H
	DB	03bH
	DB	076H
	DB	03bH
	DB	0cfH
	DB	019H
	DB	04aH
	DB	011H
	DB	0f0H
	DB	053H
	DB	0fdH
	DB	09eH
	DB	09fH
	DB	0d7H
	DB	09fH
	DB	0efH
	DB	01dH
	DB	0efH
	DB	07bH
	DB	0d6H
	DB	0dcH
	DB	0deH
	DB	07bH
	DB	0beH
	DB	07bH
	DB	0b6H
	DB	01aH
	DB	0a6H
	DB	03bH
	DB	0a6H
	DB	03cH
	DB	09eH
	DB	07cH
	DB	09eH
	DB	07cH
	DB	09eH
	DB	05cH
	DB	096H
	DB	05cH
	DB	096H
	DB	03bH
	DB	08eH
	DB	0b9H
	DB	075H
	DB	078H
	DB	06dH
	DB	078H
	DB	06dH
	DB	057H
	DB	05dH
	DB	056H
	DB	05dH
	DB	036H
	DB	055H
	DB	098H
	DB	065H
	DB	057H
	DB	055H
	DB	0daH
	DB	05dH
	DB	0bdH
	DB	096H
	DB	09cH
	DB	096H
	DB	0b9H
	DB	065H
	DB	03bH
	DB	06eH
	DB	0d9H
	DB	065H
	DB	0faH
	DB	065H
	DB	01bH
	DB	076H
	DB	0b8H
	DB	05dH
	DB	01aH
	DB	05eH
	DB	01aH
	DB	066H
	DB	0f9H
	DB	065H
	DB	0b9H
	DB	065H
	DB	0faH
	DB	065H
	DB	03bH
	DB	076H
	DB	03aH
	DB	06eH
	DB	03bH
	DB	076H
	DB	05bH
	DB	07eH
	DB	0b9H
	DB	06dH
	DB	0b9H
	DB	05dH
	DB	097H
	DB	055H
	DB	036H
	DB	045H
	DB	097H
	DB	055H
	DB	0d8H
	DB	065H
	DB	076H
	DB	055H
	DB	055H
	DB	04dH
	DB	076H
	DB	04dH
	DB	0b7H
	DB	05dH
	DB	097H
	DB	04dH
	DB	0d7H
	DB	055H
	DB	039H
	DB	06eH
	DB	05bH
	DB	07eH
	DB	03aH
	DB	076H
	DB	0b8H
	DB	06dH
	DB	015H
	DB	04dH
	DB	0d3H
	DB	044H
	DB	037H
	DB	04dH
	DB	0b8H
	DB	07dH
	DB	076H
	DB	05dH
	DB	035H
	DB	055H
	DB	0f8H
	DB	06dH
	DB	0f6H
	DB	075H
	DB	013H
	DB	045H
	DB	033H
	DB	04dH
	DB	034H
	DB	03dH
	DB	074H
	DB	045H
	DB	0f2H
	DB	04cH
	DB	092H
	DB	03cH
	DB	0f5H
	DB	03cH
	DB	096H
	DB	05dH
	DB	0f4H
	DB	03cH
	DB	056H
	DB	04dH
	DB	035H
	DB	04dH
	DB	096H
	DB	055H
	DB	034H
	DB	04dH
	DB	0f3H
	DB	044H
	DB	013H
	DB	045H
	DB	0d3H
	DB	044H
	DB	0b4H
	DB	04cH
	DB	0f5H
	DB	054H
	DB	055H
	DB	055H
	DB	033H
	DB	045H
	DB	012H
	DB	03dH
	DB	0b0H
	DB	034H
	DB	075H
	DB	045H
	DB	0b6H
	DB	055H
	DB	055H
	DB	04dH
	DB	0b7H
	DB	055H
	DB	0d7H
	DB	05dH
	DB	0b7H
	DB	055H
	DB	05aH
	DB	06eH
	DB	09bH
	DB	086H
	DB	09aH
	DB	086H
	DB	018H
	DB	076H
	DB	0f8H
	DB	06dH
	DB	0b6H
	DB	05dH
	DB	0f8H
	DB	05dH
	DB	059H
	DB	076H
	DB	0d6H
	DB	065H
	DB	0b7H
	DB	065H
	DB	0d6H
	DB	065H
	DB	0f7H
	DB	06dH
	DB	078H
	DB	02H
	DB	097H
	DB	02H
	DB	097H
	DB	02H
	DB	097H
	DB	02H
	DB	098H
	DB	02H
	DB	098H
	DB	0aH
	DB	098H
	DB	02H
	DB	098H
	DB	02H
	DB	098H
	DB	0aH
	DB	098H
	DB	0aH
	DB	0b8H
	DB	0aH
	DB	0b8H
	DB	0aH
	DB	0b8H
	DB	0aH
	DB	0b8H
	DB	0aH
	DB	0b8H
	DB	0aH
	DB	0b8H
	DB	0aH
	DB	0b8H
	DB	0aH
	DB	0b8H
	DB	0aH
	DB	0b8H
	DB	0aH
	DB	0b8H
	DB	0aH
	DB	0d8H
	DB	0aH
	DB	0f9H
	DB	0aH
	DB	0d9H
	DB	012H
	DB	0d8H
	DB	012H
	DB	0d9H
	DB	012H
	DB	0f9H
	DB	012H
	DB	019H
	DB	013H
	DB	019H
	DB	013H
	DB	0f9H
	DB	012H
	DB	0f9H
	DB	012H
	DB	019H
	DB	013H
	DB	0f9H
	DB	012H
	DB	019H
	DB	013H
	DB	019H
	DB	013H
	DB	019H
	DB	013H
	DB	039H
	DB	01bH
	DB	039H
	DB	01bH
	DB	039H
	DB	01bH
	DB	039H
	DB	01bH
	DB	019H
	DB	01bH
	DB	039H
	DB	01bH
	DB	039H
	DB	01bH
	DB	039H
	DB	01bH
	DB	039H
	DB	01bH
	DB	05aH
	DB	01bH
	DB	05aH
	DB	023H
	DB	05aH
	DB	023H
	DB	05aH
	DB	023H
	DB	059H
	DB	01bH
	DB	07aH
	DB	023H
	DB	05aH
	DB	023H
	DB	07aH
	DB	023H
	DB	07aH
	DB	023H
	DB	07aH
	DB	023H
	DB	07aH
	DB	023H
	DB	07aH
	DB	023H
	DB	09aH
	DB	02bH
	DB	07aH
	DB	023H
	DB	09aH
	DB	02bH
	DB	09aH
	DB	02bH
	DB	09aH
	DB	02bH
	DB	09aH
	DB	02bH
	DB	09aH
	DB	033H
	DB	0baH
	DB	03bH
	DB	0baH
	DB	043H
	DB	0daH
	DB	043H
	DB	0daH
	DB	043H
	DB	0daH
	DB	043H
	DB	0faH
	DB	04bH
	DB	0faH
	DB	04bH
	DB	0faH
	DB	04bH
	DB	0faH
	DB	053H
	DB	01aH
	DB	054H
	DB	0faH
	DB	04bH
	DB	01aH
	DB	04cH
	DB	0faH
	DB	04bH
	DB	0faH
	DB	04bH
	DB	0faH
	DB	04bH
	DB	0faH
	DB	04bH
	DB	01aH
	DB	05cH
	DB	05aH
	DB	074H
	DB	07aH
	DB	074H
	DB	09aH
	DB	07cH
	DB	09aH
	DB	084H
	DB	09aH
	DB	07cH
	DB	059H
	DB	074H
	DB	039H
	DB	064H
	DB	019H
	DB	05cH
	DB	0f9H
	DB	053H
	DB	0f9H
	DB	053H
	DB	0d9H
	DB	04bH
	DB	0f9H
	DB	04bH
	DB	0f9H
	DB	04bH
	DB	0f9H
	DB	04bH
	DB	0d9H
	DB	04bH
	DB	0d9H
	DB	04bH
	DB	0f9H
	DB	04bH
	DB	0d9H
	DB	053H
	DB	0f9H
	DB	04bH
	DB	0f9H
	DB	04bH
	DB	0d9H
	DB	04bH
	DB	0d9H
	DB	04bH
	DB	0d9H
	DB	04bH
	DB	0d9H
	DB	043H
	DB	0d9H
	DB	043H
	DB	0b9H
	DB	043H
	DB	0d9H
	DB	043H
	DB	0d9H
	DB	043H
	DB	0d9H
	DB	043H
	DB	0d9H
	DB	043H
	DB	0b9H
	DB	043H
	DB	0b9H
	DB	043H
	DB	0d9H
	DB	043H
	DB	0b9H
	DB	043H
	DB	0d9H
	DB	043H
	DB	0d9H
	DB	043H
	DB	0b9H
	DB	043H
	DB	0b9H
	DB	043H
	DB	0b9H
	DB	043H
	DB	0d9H
	DB	043H
	DB	0b9H
	DB	043H
	DB	0b8H
	DB	043H
	DB	0b8H
	DB	043H
	DB	0b8H
	DB	043H
	DB	0b8H
	DB	043H
	DB	0b8H
	DB	043H
	DB	0b8H
	DB	03bH
	DB	0b8H
	DB	043H
	DB	0b8H
	DB	043H
	DB	097H
	DB	03bH
	DB	077H
	DB	03bH
	DB	0f0H
	DB	019H
	DB	04aH
	DB	09H
	DB	08eH
	DB	04bH
	DB	0dcH
	DB	096H
	DB	09fH
	DB	0d7H
	DB	07fH
	DB	0efH
	DB	03eH
	DB	0efH
	DB	05bH
	DB	0d6H
	DB	0bcH
	DB	0deH
	DB	07bH
	DB	0c6H
	DB	05bH
	DB	0b6H
	DB	01aH
	DB	0a6H
	DB	01bH
	DB	09eH
	DB	03bH
	DB	09eH
	DB	05bH
	DB	09eH
	DB	09dH
	DB	09eH
	DB	09dH
	DB	09eH
	DB	05cH
	DB	096H
	DB	05cH
	DB	096H
	DB	0d9H
	DB	07dH
	DB	078H
	DB	06dH
	DB	057H
	DB	065H
	DB	056H
	DB	05dH
	DB	057H
	DB	05dH
	DB	056H
	DB	055H
	DB	098H
	DB	05dH
	DB	057H
	DB	055H
	DB	0b9H
	DB	05dH
	DB	0bdH
	DB	08eH
	DB	05cH
	DB	086H
	DB	0daH
	DB	06dH
	DB	03bH
	DB	076H
	DB	0daH
	DB	065H
	DB	0faH
	DB	06dH
	DB	01bH
	DB	076H
	DB	0d9H
	DB	055H
	DB	01aH
	DB	05eH
	DB	01aH
	DB	05eH
	DB	019H
	DB	066H
	DB	0faH
	DB	065H
	DB	0f9H
	DB	065H
	DB	03bH
	DB	06eH
	DB	07bH
	DB	076H
	DB	0faH
	DB	065H
	DB	07cH
	DB	086H
	DB	0faH
	DB	075H
	DB	098H
	DB	05dH
	DB	077H
	DB	055H
	DB	056H
	DB	055H
	DB	098H
	DB	05dH
	DB	0d8H
	DB	05dH
	DB	097H
	DB	04dH
	DB	097H
	DB	055H
	DB	096H
	DB	055H
	DB	0b7H
	DB	05dH
	DB	096H
	DB	055H
	DB	0b6H
	DB	05dH
	DB	019H
	DB	06eH
	DB	09cH
	DB	086H
	DB	0f9H
	DB	075H
	DB	097H
	DB	065H
	DB	036H
	DB	04dH
	DB	0f4H
	DB	044H
	DB	0f6H
	DB	044H
	DB	01aH
	DB	086H
	DB	076H
	DB	065H
	DB	0d7H
	DB	065H
	DB	0d8H
	DB	065H
	DB	0d8H
	DB	065H
	DB	055H
	DB	04dH
	DB	096H
	DB	055H
	DB	034H
	DB	045H
	DB	012H
	DB	045H
	DB	033H
	DB	055H
	DB	0b2H
	DB	044H
	DB	015H
	DB	045H
	DB	096H
	DB	05dH
	DB	014H
	DB	045H
	DB	097H
	DB	055H
	DB	096H
	DB	055H
	DB	014H
	DB	03dH
	DB	0d3H
	DB	03cH
	DB	014H
	DB	045H
	DB	034H
	DB	04dH
	DB	0b2H
	DB	044H
	DB	0f4H
	DB	04cH
	DB	0f5H
	DB	04cH
	DB	035H
	DB	04dH
	DB	033H
	DB	03dH
	DB	012H
	DB	03dH
	DB	032H
	DB	03dH
	DB	074H
	DB	045H
	DB	075H
	DB	055H
	DB	076H
	DB	04dH
	DB	0b7H
	DB	05dH
	DB	0b6H
	DB	05dH
	DB	0d7H
	DB	05dH
	DB	018H
	DB	066H
	DB	05bH
	DB	076H
	DB	059H
	DB	07eH
	DB	0f8H
	DB	06dH
	DB	0f8H
	DB	06dH
	DB	0b7H
	DB	05dH
	DB	0d7H
	DB	05dH
	DB	017H
	DB	066H
	DB	0f7H
	DB	06dH
	DB	096H
	DB	05dH
	DB	018H
	DB	06eH
	DB	018H
	DB	076H
	DB	078H
	DB	02H
	DB	097H
	DB	02H
	DB	098H
	DB	0aH
	DB	098H
	DB	0aH
	DB	098H
	DB	02H
	DB	097H
	DB	02H
	DB	098H
	DB	02H
	DB	0b8H
	DB	02H
	DB	098H
	DB	0aH
	DB	098H
	DB	0aH
	DB	098H
	DB	0aH
	DB	0b8H
	DB	0aH
	DB	0b8H
	DB	0aH
	DB	0b8H
	DB	0aH
	DB	0b8H
	DB	0aH
	DB	0b8H
	DB	0aH
	DB	0b8H
	DB	0aH
	DB	0d8H
	DB	0aH
	DB	0d9H
	DB	012H
	DB	0d8H
	DB	0aH
	DB	0f9H
	DB	012H
	DB	0d9H
	DB	012H
	DB	0d8H
	DB	012H
	DB	0d8H
	DB	012H
	DB	0d8H
	DB	012H
	DB	0f9H
	DB	012H
	DB	0f9H
	DB	012H
	DB	019H
	DB	013H
	DB	0f9H
	DB	012H
	DB	0f9H
	DB	012H
	DB	019H
	DB	013H
	DB	0f9H
	DB	012H
	DB	019H
	DB	013H
	DB	019H
	DB	013H
	DB	019H
	DB	013H
	DB	019H
	DB	013H
	DB	019H
	DB	013H
	DB	039H
	DB	013H
	DB	039H
	DB	01bH
	DB	039H
	DB	01bH
	DB	039H
	DB	01bH
	DB	039H
	DB	01bH
	DB	03aH
	DB	01bH
	DB	039H
	DB	01bH
	DB	05aH
	DB	01bH
	DB	05aH
	DB	023H
	DB	05aH
	DB	023H
	DB	05aH
	DB	023H
	DB	05aH
	DB	023H
	DB	07aH
	DB	023H
	DB	05aH
	DB	023H
	DB	07aH
	DB	023H
	DB	07aH
	DB	023H
	DB	07aH
	DB	023H
	DB	09aH
	DB	023H
	DB	09aH
	DB	023H
	DB	07aH
	DB	023H
	DB	07aH
	DB	023H
	DB	09aH
	DB	02bH
	DB	09aH
	DB	02bH
	DB	09aH
	DB	02bH
	DB	0baH
	DB	033H
	DB	0baH
	DB	03bH
	DB	0baH
	DB	03bH
	DB	0faH
	DB	043H
	DB	0daH
	DB	043H
	DB	0baH
	DB	03bH
	DB	0daH
	DB	043H
	DB	0faH
	DB	04bH
	DB	0faH
	DB	04bH
	DB	0faH
	DB	04bH
	DB	0faH
	DB	04bH
	DB	01aH
	DB	04cH
	DB	0faH
	DB	04bH
	DB	0faH
	DB	04bH
	DB	0faH
	DB	04bH
	DB	0f9H
	DB	04bH
	DB	0faH
	DB	04bH
	DB	0faH
	DB	053H
	DB	019H
	DB	05cH
	DB	07aH
	DB	074H
	DB	09aH
	DB	07cH
	DB	09aH
	DB	084H
	DB	09aH
	DB	084H
	DB	09aH
	DB	07cH
	DB	09aH
	DB	07cH
	DB	05aH
	DB	06cH
	DB	019H
	DB	05cH
	DB	0f9H
	DB	05bH
	DB	0f9H
	DB	053H
	DB	0f9H
	DB	053H
	DB	0f9H
	DB	053H
	DB	0f9H
	DB	04bH
	DB	0f9H
	DB	04bH
	DB	0f9H
	DB	053H
	DB	0f9H
	DB	04bH
	DB	0f9H
	DB	053H
	DB	0f9H
	DB	053H
	DB	0f9H
	DB	04bH
	DB	0d9H
	DB	04bH
	DB	0f9H
	DB	04bH
	DB	0d9H
	DB	04bH
	DB	0d9H
	DB	04bH
	DB	0b9H
	DB	043H
	DB	0d9H
	DB	043H
	DB	0d9H
	DB	043H
	DB	0d9H
	DB	043H
	DB	0d9H
	DB	043H
	DB	0d9H
	DB	043H
	DB	0d9H
	DB	043H
	DB	0d9H
	DB	043H
	DB	0b9H
	DB	043H
	DB	0d9H
	DB	043H
	DB	0d9H
	DB	043H
	DB	0b9H
	DB	043H
	DB	0b9H
	DB	043H
	DB	0b9H
	DB	043H
	DB	0b9H
	DB	043H
	DB	0b8H
	DB	043H
	DB	0b9H
	DB	043H
	DB	0b9H
	DB	043H
	DB	0b8H
	DB	043H
	DB	098H
	DB	043H
	DB	0b8H
	DB	043H
	DB	0b8H
	DB	043H
	DB	0b8H
	DB	043H
	DB	0b8H
	DB	043H
	DB	0b8H
	DB	043H
	DB	0b8H
	DB	043H
	DB	097H
	DB	043H
	DB	077H
	DB	03bH
	DB	0f0H
	DB	019H
	DB	02aH
	DB	09H
	DB	04eH
	DB	043H
	DB	0ddH
	DB	09eH
	DB	07fH
	DB	0cfH
	DB	05fH
	DB	0efH
	DB	07eH
	DB	0f7H
	DB	05aH
	DB	0ceH
	DB	0bcH
	DB	0d6H
	DB	09cH
	DB	0ceH
	DB	05bH
	DB	0b6H
	DB	01bH
	DB	0a6H
	DB	01bH
	DB	0a6H
	DB	05cH
	DB	09eH
	DB	07cH
	DB	09eH
	DB	05cH
	DB	096H
	DB	07cH
	DB	096H
	DB	03cH
	DB	08eH
	DB	05cH
	DB	096H
	DB	0b9H
	DB	075H
	DB	058H
	DB	06dH
	DB	057H
	DB	06dH
	DB	036H
	DB	065H
	DB	057H
	DB	05dH
	DB	076H
	DB	055H
	DB	097H
	DB	055H
	DB	077H
	DB	055H
	DB	0b8H
	DB	055H
	DB	05cH
	DB	07eH
	DB	03bH
	DB	086H
	DB	0faH
	DB	06dH
	DB	05bH
	DB	06eH
	DB	0faH
	DB	06dH
	DB	0fbH
	DB	06dH
	DB	01bH
	DB	076H
	DB	0f9H
	DB	05dH
	DB	0f9H
	DB	05dH
	DB	03aH
	DB	066H
	DB	0f9H
	DB	05dH
	DB	0faH
	DB	06dH
	DB	0f9H
	DB	065H
	DB	03aH
	DB	066H
	DB	05bH
	DB	076H
	DB	0daH
	DB	05dH
	DB	05cH
	DB	07eH
	DB	0b9H
	DB	06dH
	DB	098H
	DB	05dH
	DB	097H
	DB	05dH
	DB	0b8H
	DB	06dH
	DB	078H
	DB	065H
	DB	0b8H
	DB	05dH
	DB	056H
	DB	04dH
	DB	076H
	DB	055H
	DB	077H
	DB	055H
	DB	097H
	DB	055H
	DB	0d7H
	DB	05dH
	DB	0f7H
	DB	05dH
	DB	0f9H
	DB	065H
	DB	05aH
	DB	076H
	DB	019H
	DB	076H
	DB	076H
	DB	05dH
	DB	036H
	DB	04dH
	DB	076H
	DB	055H
	DB	0b4H
	DB	034H
	DB	03bH
	DB	07eH
	DB	0b8H
	DB	06dH
	DB	0b8H
	DB	05dH
	DB	097H
	DB	04dH
	DB	097H
	DB	04dH
	DB	097H
	DB	055H
	DB	076H
	DB	055H
	DB	054H
	DB	04dH
	DB	0f2H
	DB	044H
	DB	0f2H
	DB	044H
	DB	092H
	DB	03cH
	DB	016H
	DB	045H
	DB	056H
	DB	055H
	DB	014H
	DB	045H
	DB	076H
	DB	04dH
	DB	055H
	DB	04dH
	DB	0b3H
	DB	03cH
	DB	014H
	DB	045H
	DB	054H
	DB	04dH
	DB	054H
	DB	04dH
	DB	0b2H
	DB	044H
	DB	0f4H
	DB	044H
	DB	0d5H
	DB	04cH
	DB	0f4H
	DB	04cH
	DB	013H
	DB	045H
	DB	012H
	DB	03dH
	DB	033H
	DB	03dH
	DB	0b6H
	DB	055H
	DB	0d7H
	DB	065H
	DB	0b7H
	DB	05dH
	DB	019H
	DB	06eH
	DB	0b6H
	DB	05dH
	DB	018H
	DB	05eH
	DB	0d7H
	DB	055H
	DB	019H
	DB	05eH
	DB	038H
	DB	06eH
	DB	0d7H
	DB	065H
	DB	0d8H
	DB	065H
	DB	0b7H
	DB	05dH
	DB	0d7H
	DB	05dH
	DB	039H
	DB	06eH
	DB	018H
	DB	076H
	DB	096H
	DB	05dH
	DB	039H
	DB	06eH
	DB	017H
	DB	076H
	DB	097H
	DB	02H
	DB	098H
	DB	02H
	DB	098H
	DB	0aH
	DB	098H
	DB	0aH
	DB	098H
	DB	02H
	DB	097H
	DB	02H
	DB	097H
	DB	02H
	DB	098H
	DB	02H
	DB	098H
	DB	0aH
	DB	098H
	DB	0aH
	DB	0b8H
	DB	0aH
	DB	0b8H
	DB	0aH
	DB	0b8H
	DB	0aH
	DB	0b8H
	DB	0aH
	DB	0b8H
	DB	0aH
	DB	0b8H
	DB	0aH
	DB	0b8H
	DB	0aH
	DB	0d8H
	DB	0aH
	DB	0b8H
	DB	0aH
	DB	0d9H
	DB	012H
	DB	0d9H
	DB	012H
	DB	0b8H
	DB	012H
	DB	0b8H
	DB	012H
	DB	0d8H
	DB	012H
	DB	0d9H
	DB	012H
	DB	0d8H
	DB	012H
	DB	0f9H
	DB	012H
	DB	0f9H
	DB	012H
	DB	0f9H
	DB	012H
	DB	0f9H
	DB	012H
	DB	0f9H
	DB	012H
	DB	0f9H
	DB	012H
	DB	019H
	DB	013H
	DB	0f9H
	DB	012H
	DB	019H
	DB	013H
	DB	039H
	DB	013H
	DB	039H
	DB	01bH
	DB	039H
	DB	013H
	DB	039H
	DB	01bH
	DB	039H
	DB	01bH
	DB	039H
	DB	013H
	DB	05aH
	DB	01bH
	DB	039H
	DB	01bH
	DB	039H
	DB	01bH
	DB	03aH
	DB	01bH
	DB	05aH
	DB	023H
	DB	05aH
	DB	023H
	DB	05aH
	DB	023H
	DB	05aH
	DB	023H
	DB	05aH
	DB	023H
	DB	05aH
	DB	023H
	DB	05aH
	DB	023H
	DB	05aH
	DB	023H
	DB	07aH
	DB	023H
	DB	07aH
	DB	023H
	DB	07aH
	DB	023H
	DB	09aH
	DB	023H
	DB	09aH
	DB	02bH
	DB	09aH
	DB	02bH
	DB	09aH
	DB	02bH
	DB	09aH
	DB	033H
	DB	0baH
	DB	033H
	DB	0daH
	DB	03bH
	DB	0daH
	DB	03bH
	DB	0daH
	DB	03bH
	DB	0daH
	DB	03bH
	DB	0daH
	DB	043H
	DB	0baH
	DB	043H
	DB	0daH
	DB	04bH
	DB	0faH
	DB	04bH
	DB	0faH
	DB	04bH
	DB	0daH
	DB	04bH
	DB	0faH
	DB	04bH
	DB	0faH
	DB	04bH
	DB	0faH
	DB	04bH
	DB	0faH
	DB	053H
	DB	0f9H
	DB	053H
	DB	0f9H
	DB	053H
	DB	019H
	DB	064H
	DB	059H
	DB	074H
	DB	079H
	DB	07cH
	DB	09aH
	DB	084H
	DB	09aH
	DB	084H
	DB	09aH
	DB	084H
	DB	09aH
	DB	084H
	DB	0baH
	DB	084H
	DB	079H
	DB	074H
	DB	039H
	DB	064H
	DB	019H
	DB	05cH
	DB	0f9H
	DB	053H
	DB	0f9H
	DB	053H
	DB	0f9H
	DB	053H
	DB	0f9H
	DB	04bH
	DB	0f9H
	DB	04bH
	DB	0f9H
	DB	04bH
	DB	0f9H
	DB	04bH
	DB	0f9H
	DB	053H
	DB	0f9H
	DB	053H
	DB	0d9H
	DB	04bH
	DB	0d9H
	DB	04bH
	DB	0f9H
	DB	04bH
	DB	0d9H
	DB	04bH
	DB	0d9H
	DB	04bH
	DB	0d9H
	DB	04bH
	DB	0d9H
	DB	04bH
	DB	0d9H
	DB	04bH
	DB	0d9H
	DB	043H
	DB	0d9H
	DB	043H
	DB	0d9H
	DB	043H
	DB	0d9H
	DB	043H
	DB	0d9H
	DB	043H
	DB	0d9H
	DB	043H
	DB	0d9H
	DB	043H
	DB	0d9H
	DB	043H
	DB	0b9H
	DB	043H
	DB	0b9H
	DB	043H
	DB	0b9H
	DB	043H
	DB	0b9H
	DB	043H
	DB	0b9H
	DB	043H
	DB	0b8H
	DB	043H
	DB	0b8H
	DB	043H
	DB	098H
	DB	043H
	DB	0b8H
	DB	043H
	DB	0b8H
	DB	043H
	DB	0b8H
	DB	043H
	DB	0b8H
	DB	043H
	DB	098H
	DB	043H
	DB	0b8H
	DB	043H
	DB	0b8H
	DB	043H
	DB	098H
	DB	043H
	DB	097H
	DB	043H
	DB	0f0H
	DB	019H
	DB	02aH
	DB	09H
	DB	06fH
	DB	04bH
	DB	0ddH
	DB	09eH
	DB	09fH
	DB	0d7H
	DB	09fH
	DB	0efH
	DB	0dfH
	DB	0ffH
	DB	07bH
	DB	0d6H
	DB	09cH
	DB	0d6H
	DB	0bcH
	DB	0d6H
	DB	05bH
	DB	0b6H
	DB	01aH
	DB	0a6H
	DB	01aH
	DB	0a6H
	DB	03cH
	DB	09eH
	DB	09dH
	DB	0a6H
	DB	03bH
	DB	096H
	DB	07cH
	DB	096H
	DB	01bH
	DB	08eH
	DB	03cH
	DB	08eH
	DB	0d9H
	DB	07dH
	DB	057H
	DB	06dH
	DB	078H
	DB	06dH
	DB	057H
	DB	065H
	DB	077H
	DB	065H
	DB	056H
	DB	055H
	DB	097H
	DB	05dH
	DB	077H
	DB	055H
	DB	0b8H
	DB	05dH
	DB	05cH
	DB	07eH
	DB	03bH
	DB	07eH
	DB	01bH
	DB	06eH
	DB	01bH
	DB	06eH
	DB	03bH
	DB	076H
	DB	0fbH
	DB	06dH
	DB	03cH
	DB	076H
	DB	0d9H
	DB	05dH
	DB	0daH
	DB	05dH
	DB	01aH
	DB	066H
	DB	0f9H
	DB	05dH
	DB	0faH
	DB	06dH
	DB	0d9H
	DB	065H
	DB	01bH
	DB	066H
	DB	0faH
	DB	065H
	DB	0faH
	DB	05dH
	DB	01bH
	DB	06eH
	DB	0d9H
	DB	06dH
	DB	0d9H
	DB	065H
	DB	0d9H
	DB	065H
	DB	019H
	DB	07eH
	DB	077H
	DB	06dH
	DB	097H
	DB	065H
	DB	036H
	DB	04dH
	DB	036H
	DB	055H
	DB	077H
	DB	05dH
	DB	097H
	DB	05dH
	DB	0d8H
	DB	05dH
	DB	0d8H
	DB	05dH
	DB	0d8H
	DB	065H
	DB	0d8H
	DB	05dH
	DB	05aH
	DB	076H
	DB	056H
	DB	05dH
	DB	057H
	DB	055H
	DB	0d7H
	DB	065H
	DB	072H
	DB	02cH
	DB	0b9H
	DB	05dH
	DB	078H
	DB	05dH
	DB	077H
	DB	05dH
	DB	036H
	DB	045H
	DB	077H
	DB	04dH
	DB	097H
	DB	055H
	DB	076H
	DB	055H
	DB	054H
	DB	04dH
	DB	012H
	DB	04dH
	DB	0b0H
	DB	03cH
	DB	092H
	DB	034H
	DB	015H
	DB	045H
	DB	055H
	DB	045H
	DB	034H
	DB	045H
	DB	076H
	DB	04dH
	DB	034H
	DB	04dH
	DB	0d2H
	DB	03cH
	DB	075H
	DB	04dH
	DB	095H
	DB	055H
	DB	074H
	DB	055H
	DB	0d2H
	DB	044H
	DB	0d3H
	DB	044H
	DB	0d4H
	DB	04cH
	DB	0f5H
	DB	054H
	DB	0f4H
	DB	044H
	DB	033H
	DB	045H
	DB	073H
	DB	045H
	DB	0d8H
	DB	05dH
	DB	0f8H
	DB	065H
	DB	097H
	DB	055H
	DB	03aH
	DB	076H
	DB	096H
	DB	05dH
	DB	0d7H
	DB	055H
	DB	0d6H
	DB	055H
	DB	0b6H
	DB	04dH
	DB	0d7H
	DB	055H
	DB	0b7H
	DB	065H
	DB	0d7H
	DB	065H
	DB	0b7H
	DB	05dH
	DB	0d8H
	DB	05dH
	DB	05aH
	DB	076H
	DB	0f8H
	DB	075H
	DB	076H
	DB	05dH
	DB	019H
	DB	06eH
	DB	0f6H
	DB	06dH
	DB	097H
	DB	02H
	DB	097H
	DB	02H
	DB	077H
	DB	02H
	DB	077H
	DB	02H
	DB	097H
	DB	02H
	DB	098H
	DB	0aH
	DB	098H
	DB	02H
	DB	098H
	DB	0aH
	DB	098H
	DB	02H
	DB	098H
	DB	0aH
	DB	098H
	DB	0aH
	DB	0b8H
	DB	0aH
	DB	0b8H
	DB	0aH
	DB	0b8H
	DB	0aH
	DB	0b8H
	DB	0aH
	DB	0b8H
	DB	0aH
	DB	0b8H
	DB	0aH
	DB	0d8H
	DB	0aH
	DB	0d8H
	DB	0aH
	DB	0d8H
	DB	012H
	DB	0b8H
	DB	0aH
	DB	0d8H
	DB	012H
	DB	0d9H
	DB	012H
	DB	0d9H
	DB	012H
	DB	0d9H
	DB	012H
	DB	0d9H
	DB	012H
	DB	0d9H
	DB	012H
	DB	0f9H
	DB	012H
	DB	0f9H
	DB	012H
	DB	019H
	DB	013H
	DB	0f9H
	DB	012H
	DB	0f9H
	DB	012H
	DB	0f9H
	DB	012H
	DB	019H
	DB	013H
	DB	0f9H
	DB	012H
	DB	039H
	DB	01bH
	DB	019H
	DB	013H
	DB	039H
	DB	01bH
	DB	039H
	DB	01bH
	DB	039H
	DB	01bH
	DB	039H
	DB	01bH
	DB	03aH
	DB	01bH
	DB	03aH
	DB	01bH
	DB	03aH
	DB	01bH
	DB	03aH
	DB	023H
	DB	039H
	DB	01bH
	DB	059H
	DB	023H
	DB	05aH
	DB	023H
	DB	059H
	DB	023H
	DB	05aH
	DB	023H
	DB	05aH
	DB	023H
	DB	07aH
	DB	023H
	DB	07aH
	DB	023H
	DB	07aH
	DB	023H
	DB	07aH
	DB	023H
	DB	07aH
	DB	023H
	DB	07aH
	DB	023H
	DB	09aH
	DB	023H
	DB	09aH
	DB	02bH
	DB	09aH
	DB	02bH
	DB	09aH
	DB	02bH
	DB	09aH
	DB	02bH
	DB	0baH
	DB	033H
	DB	0baH
	DB	03bH
	DB	0daH
	DB	033H
	DB	0daH
	DB	03bH
	DB	0baH
	DB	043H
	DB	0d9H
	DB	043H
	DB	0faH
	DB	04bH
	DB	0faH
	DB	04bH
	DB	0faH
	DB	04bH
	DB	0faH
	DB	04bH
	DB	0faH
	DB	04bH
	DB	01aH
	DB	04cH
	DB	01aH
	DB	054H
	DB	0faH
	DB	053H
	DB	01aH
	DB	05cH
	DB	019H
	DB	064H
	DB	05aH
	DB	07cH
	DB	09aH
	DB	084H
	DB	0baH
	DB	08cH
	DB	0daH
	DB	08cH
	DB	0daH
	DB	08cH
	DB	0baH
	DB	08cH
	DB	0baH
	DB	08cH
	DB	0baH
	DB	084H
	DB	0baH
	DB	084H
	DB	05aH
	DB	074H
	DB	039H
	DB	064H
	DB	0f9H
	DB	05bH
	DB	0f9H
	DB	053H
	DB	0f9H
	DB	053H
	DB	0f9H
	DB	053H
	DB	0faH
	DB	04bH
	DB	0d9H
	DB	04bH
	DB	0f9H
	DB	04bH
	DB	0d9H
	DB	04bH
	DB	0d9H
	DB	04bH
	DB	0d9H
	DB	04bH
	DB	0d9H
	DB	04bH
	DB	0f9H
	DB	04bH
	DB	0d9H
	DB	04bH
	DB	0d9H
	DB	04bH
	DB	0d9H
	DB	04bH
	DB	0d9H
	DB	04bH
	DB	0d9H
	DB	04bH
	DB	0d9H
	DB	043H
	DB	0f9H
	DB	04bH
	DB	0d9H
	DB	043H
	DB	0d9H
	DB	043H
	DB	0b9H
	DB	043H
	DB	0b9H
	DB	043H
	DB	0d9H
	DB	043H
	DB	0d9H
	DB	043H
	DB	0b9H
	DB	043H
	DB	0d9H
	DB	043H
	DB	0b9H
	DB	043H
	DB	0d9H
	DB	043H
	DB	0d9H
	DB	043H
	DB	0b8H
	DB	043H
	DB	0b8H
	DB	043H
	DB	0b8H
	DB	043H
	DB	0b8H
	DB	043H
	DB	0b8H
	DB	043H
	DB	0b8H
	DB	043H
	DB	0b8H
	DB	043H
	DB	0b8H
	DB	043H
	DB	0b8H
	DB	043H
	DB	0b8H
	DB	043H
	DB	098H
	DB	043H
	DB	077H
	DB	03bH
	DB	011H
	DB	022H
	DB	04aH
	DB	011H
	DB	08fH
	DB	04bH
	DB	0ddH
	DB	09eH
	DB	09fH
	DB	0d7H
	DB	0ffH
	DB	0ffH
	DB	0ffH
	DB	0ffH
	DB	0bcH
	DB	0deH
	DB	09cH
	DB	0d6H
	DB	0dcH
	DB	0d6H
	DB	07bH
	DB	0beH
	DB	01aH
	DB	0a6H
	DB	05bH
	DB	0aeH
	DB	03bH
	DB	09eH
	DB	07cH
	DB	09eH
	DB	05bH
	DB	08eH
	DB	05bH
	DB	08eH
	DB	03bH
	DB	096H
	DB	05cH
	DB	096H
	DB	0b9H
	DB	075H
	DB	057H
	DB	065H
	DB	078H
	DB	06dH
	DB	057H
	DB	06dH
	DB	077H
	DB	065H
	DB	056H
	DB	05dH
	DB	076H
	DB	055H
	DB	055H
	DB	055H
	DB	0b8H
	DB	065H
	DB	09dH
	DB	08eH
	DB	0fbH
	DB	07dH
	DB	01aH
	DB	06eH
	DB	03bH
	DB	06eH
	DB	05bH
	DB	076H
	DB	01bH
	DB	06eH
	DB	01bH
	DB	076H
	DB	0d9H
	DB	055H
	DB	0faH
	DB	05dH
	DB	0d9H
	DB	055H
	DB	0d9H
	DB	065H
	DB	0faH
	DB	06dH
	DB	0d9H
	DB	065H
	DB	03bH
	DB	066H
	DB	0faH
	DB	065H
	DB	0faH
	DB	065H
	DB	01bH
	DB	066H
	DB	0daH
	DB	06dH
	DB	0faH
	DB	065H
	DB	01aH
	DB	06eH
	DB	03aH
	DB	07eH
	DB	098H
	DB	06dH
	DB	057H
	DB	05dH
	DB	016H
	DB	04dH
	DB	057H
	DB	055H
	DB	077H
	DB	05dH
	DB	0b8H
	DB	05dH
	DB	097H
	DB	055H
	DB	0b8H
	DB	04dH
	DB	0b7H
	DB	05dH
	DB	0b7H
	DB	05dH
	DB	03aH
	DB	076H
	DB	056H
	DB	05dH
	DB	097H
	DB	055H
	DB	0b6H
	DB	055H
	DB	092H
	DB	034H
	DB	0d5H
	DB	03cH
	DB	036H
	DB	055H
	DB	097H
	DB	065H
	DB	056H
	DB	055H
	DB	056H
	DB	04dH
	DB	057H
	DB	04dH
	DB	055H
	DB	055H
	DB	033H
	DB	04dH
	DB	0f1H
	DB	044H
	DB	0b0H
	DB	03cH
	DB	0d2H
	DB	03cH
	DB	014H
	DB	045H
	DB	056H
	DB	045H
	DB	096H
	DB	04dH
	DB	055H
	DB	04dH
	DB	034H
	DB	04dH
	DB	0f3H
	DB	04cH
	DB	033H
	DB	045H
	DB	034H
	DB	04dH
	DB	014H
	DB	045H
	DB	014H
	DB	04dH
	DB	0b2H
	DB	03cH
	DB	0f5H
	DB	054H
	DB	016H
	DB	055H
	DB	035H
	DB	055H
	DB	074H
	DB	04dH
	DB	054H
	DB	045H
	DB	096H
	DB	04dH
	DB	097H
	DB	055H
	DB	077H
	DB	04dH
	DB	019H
	DB	06eH
	DB	075H
	DB	04dH
	DB	0b7H
	DB	055H
	DB	096H
	DB	04dH
	DB	0b7H
	DB	055H
	DB	096H
	DB	055H
	DB	0d7H
	DB	05dH
	DB	0d7H
	DB	065H
	DB	0d7H
	DB	05dH
	DB	018H
	DB	066H
	DB	019H
	DB	06eH
	DB	018H
	DB	07eH
	DB	095H
	DB	05dH
	DB	018H
	DB	06eH
	DB	0d6H
	DB	065H
	DB	077H
	DB	02H
	DB	098H
	DB	02H
	DB	097H
	DB	02H
	DB	097H
	DB	0aH
	DB	098H
	DB	0aH
	DB	098H
	DB	02H
	DB	097H
	DB	02H
	DB	0b8H
	DB	0aH
	DB	098H
	DB	0aH
	DB	0b8H
	DB	0aH
	DB	098H
	DB	0aH
	DB	098H
	DB	0aH
	DB	098H
	DB	0aH
	DB	0b8H
	DB	0aH
	DB	0b8H
	DB	0aH
	DB	0b8H
	DB	0aH
	DB	0b8H
	DB	0aH
	DB	0d8H
	DB	0aH
	DB	0b8H
	DB	0aH
	DB	0d9H
	DB	012H
	DB	0d8H
	DB	012H
	DB	0d9H
	DB	012H
	DB	0d9H
	DB	012H
	DB	0f9H
	DB	012H
	DB	0f9H
	DB	012H
	DB	0f9H
	DB	012H
	DB	0f9H
	DB	012H
	DB	019H
	DB	013H
	DB	0f9H
	DB	012H
	DB	019H
	DB	013H
	DB	0f9H
	DB	012H
	DB	019H
	DB	013H
	DB	0f9H
	DB	012H
	DB	019H
	DB	013H
	DB	019H
	DB	013H
	DB	019H
	DB	013H
	DB	019H
	DB	013H
	DB	019H
	DB	01bH
	DB	03aH
	DB	01bH
	DB	03aH
	DB	01bH
	DB	039H
	DB	01bH
	DB	03aH
	DB	01bH
	DB	039H
	DB	01bH
	DB	03aH
	DB	01bH
	DB	03aH
	DB	023H
	DB	05aH
	DB	023H
	DB	05aH
	DB	023H
	DB	05aH
	DB	023H
	DB	05aH
	DB	023H
	DB	05aH
	DB	023H
	DB	05aH
	DB	023H
	DB	07aH
	DB	023H
	DB	07aH
	DB	023H
	DB	09aH
	DB	02bH
	DB	07aH
	DB	023H
	DB	07aH
	DB	023H
	DB	07aH
	DB	023H
	DB	07aH
	DB	023H
	DB	09aH
	DB	02bH
	DB	09aH
	DB	02bH
	DB	0baH
	DB	033H
	DB	0baH
	DB	033H
	DB	0baH
	DB	033H
	DB	0baH
	DB	03bH
	DB	0baH
	DB	033H
	DB	0baH
	DB	03bH
	DB	0baH
	DB	043H
	DB	0faH
	DB	04bH
	DB	01aH
	DB	054H
	DB	0faH
	DB	04bH
	DB	0faH
	DB	04bH
	DB	0faH
	DB	04bH
	DB	0faH
	DB	04bH
	DB	0faH
	DB	053H
	DB	0f9H
	DB	063H
	DB	039H
	DB	074H
	DB	059H
	DB	07cH
	DB	079H
	DB	084H
	DB	0baH
	DB	08cH
	DB	0fbH
	DB	094H
	DB	0fbH
	DB	094H
	DB	0fbH
	DB	094H
	DB	0faH
	DB	094H
	DB	0fbH
	DB	09cH
	DB	0fbH
	DB	094H
	DB	0baH
	DB	08cH
	DB	0baH
	DB	084H
	DB	07aH
	DB	07cH
	DB	05aH
	DB	06cH
	DB	019H
	DB	05cH
	DB	019H
	DB	054H
	DB	019H
	DB	054H
	DB	0f9H
	DB	053H
	DB	0f9H
	DB	04bH
	DB	0d9H
	DB	053H
	DB	0d9H
	DB	04bH
	DB	0d9H
	DB	04bH
	DB	0d9H
	DB	04bH
	DB	0d9H
	DB	04bH
	DB	0d9H
	DB	04bH
	DB	0d9H
	DB	04bH
	DB	0d9H
	DB	04bH
	DB	0d9H
	DB	04bH
	DB	0d9H
	DB	04bH
	DB	0f9H
	DB	04bH
	DB	0d9H
	DB	04bH
	DB	0d9H
	DB	04bH
	DB	0d9H
	DB	043H
	DB	0b9H
	DB	043H
	DB	0d9H
	DB	04bH
	DB	0b9H
	DB	043H
	DB	0d9H
	DB	043H
	DB	0d9H
	DB	043H
	DB	0b9H
	DB	043H
	DB	0b9H
	DB	043H
	DB	0b9H
	DB	043H
	DB	0b9H
	DB	043H
	DB	0b9H
	DB	043H
	DB	0b8H
	DB	043H
	DB	0b8H
	DB	043H
	DB	0b9H
	DB	043H
	DB	0b9H
	DB	043H
	DB	0b8H
	DB	043H
	DB	0b9H
	DB	043H
	DB	0b8H
	DB	043H
	DB	0b8H
	DB	043H
	DB	0b8H
	DB	043H
	DB	0b8H
	DB	043H
	DB	0b8H
	DB	043H
	DB	078H
	DB	043H
	DB	077H
	DB	043H
	DB	031H
	DB	022H
	DB	02aH
	DB	011H
	DB	08fH
	DB	04bH
	DB	09cH
	DB	096H
	DB	09fH
	DB	0d7H
	DB	0ffH
	DB	0ffH
	DB	0ffH
	DB	0ffH
	DB	0fdH
	DB	0e6H
	DB	07cH
	DB	0d6H
	DB	0dcH
	DB	0deH
	DB	09bH
	DB	0c6H
	DB	0f9H
	DB	09dH
	DB	05bH
	DB	0aeH
	DB	03bH
	DB	0a6H
	DB	07cH
	DB	09eH
	DB	05cH
	DB	096H
	DB	05cH
	DB	096H
	DB	05cH
	DB	096H
	DB	05bH
	DB	096H
	DB	0d9H
	DB	07dH
	DB	057H
	DB	06dH
	DB	098H
	DB	06dH
	DB	098H
	DB	06dH
	DB	077H
	DB	065H
	DB	056H
	DB	05dH
	DB	076H
	DB	055H
	DB	035H
	DB	04dH
	DB	0b8H
	DB	065H
	DB	05cH
	DB	086H
	DB	01bH
	DB	07eH
	DB	0faH
	DB	06dH
	DB	05bH
	DB	06eH
	DB	01bH
	DB	06eH
	DB	01bH
	DB	076H
	DB	01bH
	DB	07eH
	DB	01aH
	DB	066H
	DB	0d9H
	DB	065H
	DB	0b8H
	DB	055H
	DB	0f9H
	DB	065H
	DB	01aH
	DB	076H
	DB	0f9H
	DB	065H
	DB	0faH
	DB	05dH
	DB	0f9H
	DB	05dH
	DB	0daH
	DB	05dH
	DB	0faH
	DB	065H
	DB	0d9H
	DB	06dH
	DB	0d9H
	DB	065H
	DB	0d9H
	DB	065H
	DB	01aH
	DB	076H
	DB	0b9H
	DB	06dH
	DB	036H
	DB	065H
	DB	036H
	DB	04dH
	DB	077H
	DB	055H
	DB	077H
	DB	065H
	DB	097H
	DB	055H
	DB	076H
	DB	04dH
	DB	097H
	DB	04dH
	DB	0d7H
	DB	05dH
	DB	0f9H
	DB	065H
	DB	05bH
	DB	076H
	DB	076H
	DB	05dH
	DB	057H
	DB	04dH
	DB	034H
	DB	045H
	DB	0f3H
	DB	03cH
	DB	072H
	DB	03cH
	DB	0f5H
	DB	044H
	DB	037H
	DB	055H
	DB	0b8H
	DB	05dH
	DB	077H
	DB	05dH
	DB	057H
	DB	055H
	DB	035H
	DB	055H
	DB	012H
	DB	04dH
	DB	0b0H
	DB	03cH
	DB	0d1H
	DB	03cH
	DB	0f4H
	DB	044H
	DB	016H
	DB	04dH
	DB	077H
	DB	04dH
	DB	096H
	DB	04dH
	DB	014H
	DB	045H
	DB	015H
	DB	04dH
	DB	015H
	DB	055H
	DB	0f2H
	DB	044H
	DB	091H
	DB	03cH
	DB	0d3H
	DB	034H
	DB	035H
	DB	04dH
	DB	092H
	DB	03cH
	DB	015H
	DB	055H
	DB	057H
	DB	065H
	DB	097H
	DB	065H
	DB	054H
	DB	055H
	DB	012H
	DB	03dH
	DB	096H
	DB	04dH
	DB	096H
	DB	055H
	DB	0d8H
	DB	05dH
	DB	0d8H
	DB	065H
	DB	095H
	DB	055H
	DB	0d7H
	DB	05dH
	DB	0b6H
	DB	04dH
	DB	0d7H
	DB	055H
	DB	0b7H
	DB	055H
	DB	0b7H
	DB	05dH
	DB	0b7H
	DB	065H
	DB	0d8H
	DB	065H
	DB	0f8H
	DB	065H
	DB	0f9H
	DB	065H
	DB	09bH
	DB	096H
	DB	0f7H
	DB	06dH
	DB	018H
	DB	06eH
	DB	0d6H
	DB	065H
	DB	077H
	DB	02H
	DB	097H
	DB	02H
	DB	097H
	DB	02H
	DB	077H
	DB	02H
	DB	098H
	DB	0aH
	DB	098H
	DB	0aH
	DB	098H
	DB	0aH
	DB	0b8H
	DB	0aH
	DB	0b8H
	DB	0aH
	DB	0b8H
	DB	0aH
	DB	0d8H
	DB	0aH
	DB	0b8H
	DB	0aH
	DB	098H
	DB	0aH
	DB	0b8H
	DB	0aH
	DB	0b8H
	DB	0aH
	DB	0b8H
	DB	0aH
	DB	0d9H
	DB	012H
	DB	0f9H
	DB	0aH
	DB	0d8H
	DB	0aH
	DB	0d9H
	DB	012H
	DB	0d8H
	DB	0aH
	DB	0f9H
	DB	012H
	DB	0d9H
	DB	012H
	DB	0d8H
	DB	0aH
	DB	0f9H
	DB	012H
	DB	0d9H
	DB	012H
	DB	0f9H
	DB	012H
	DB	019H
	DB	013H
	DB	019H
	DB	013H
	DB	0f9H
	DB	012H
	DB	0f9H
	DB	012H
	DB	0f9H
	DB	012H
	DB	0f9H
	DB	012H
	DB	019H
	DB	013H
	DB	01aH
	DB	01bH
	DB	019H
	DB	013H
	DB	019H
	DB	013H
	DB	019H
	DB	01bH
	DB	039H
	DB	01bH
	DB	019H
	DB	01bH
	DB	03aH
	DB	01bH
	DB	03aH
	DB	01bH
	DB	059H
	DB	01bH
	DB	05aH
	DB	023H
	DB	039H
	DB	01bH
	DB	05aH
	DB	023H
	DB	05aH
	DB	023H
	DB	05aH
	DB	023H
	DB	05aH
	DB	023H
	DB	059H
	DB	023H
	DB	05aH
	DB	023H
	DB	07aH
	DB	023H
	DB	05aH
	DB	023H
	DB	07aH
	DB	023H
	DB	07aH
	DB	023H
	DB	07aH
	DB	023H
	DB	09aH
	DB	02bH
	DB	09aH
	DB	02bH
	DB	09aH
	DB	02bH
	DB	09aH
	DB	02bH
	DB	09aH
	DB	02bH
	DB	0baH
	DB	033H
	DB	0baH
	DB	033H
	DB	0baH
	DB	03bH
	DB	0baH
	DB	03bH
	DB	0baH
	DB	03bH
	DB	0daH
	DB	04bH
	DB	01aH
	DB	054H
	DB	01aH
	DB	054H
	DB	0faH
	DB	04bH
	DB	0faH
	DB	04bH
	DB	0faH
	DB	04bH
	DB	0f9H
	DB	05bH
	DB	039H
	DB	074H
	DB	0daH
	DB	09cH
	DB	03bH
	DB	0adH
	DB	01bH
	DB	0adH
	DB	05bH
	DB	0adH
	DB	03bH
	DB	09dH
	DB	01bH
	DB	09dH
	DB	03bH
	DB	09dH
	DB	03bH
	DB	0a5H
	DB	03bH
	DB	0a5H
	DB	01bH
	DB	09dH
	DB	01bH
	DB	09dH
	DB	0fbH
	DB	094H
	DB	0daH
	DB	08cH
	DB	0baH
	DB	084H
	DB	05aH
	DB	06cH
	DB	019H
	DB	05cH
	DB	019H
	DB	054H
	DB	019H
	DB	054H
	DB	0f9H
	DB	053H
	DB	0f9H
	DB	053H
	DB	0f9H
	DB	053H
	DB	0d9H
	DB	053H
	DB	0d9H
	DB	04bH
	DB	0d9H
	DB	04bH
	DB	0f9H
	DB	04bH
	DB	0d9H
	DB	04bH
	DB	0d9H
	DB	04bH
	DB	0d9H
	DB	04bH
	DB	0d9H
	DB	04bH
	DB	0d9H
	DB	04bH
	DB	0d9H
	DB	043H
	DB	0d9H
	DB	043H
	DB	0b9H
	DB	04bH
	DB	0d9H
	DB	04bH
	DB	0d9H
	DB	04bH
	DB	0d9H
	DB	043H
	DB	0d9H
	DB	043H
	DB	0d9H
	DB	043H
	DB	0d9H
	DB	043H
	DB	0d9H
	DB	043H
	DB	0b9H
	DB	043H
	DB	0b9H
	DB	043H
	DB	0d9H
	DB	043H
	DB	0b9H
	DB	043H
	DB	0b8H
	DB	043H
	DB	0b8H
	DB	043H
	DB	0b9H
	DB	043H
	DB	098H
	DB	043H
	DB	0b8H
	DB	043H
	DB	0b8H
	DB	043H
	DB	0b8H
	DB	043H
	DB	0b8H
	DB	043H
	DB	098H
	DB	043H
	DB	0b8H
	DB	043H
	DB	0b8H
	DB	043H
	DB	098H
	DB	043H
	DB	097H
	DB	03bH
	DB	072H
	DB	02aH
	DB	02bH
	DB	011H
	DB	0b0H
	DB	053H
	DB	0bcH
	DB	096H
	DB	09fH
	DB	0d7H
	DB	0ffH
	DB	0ffH
	DB	0ffH
	DB	0ffH
	DB	03dH
	DB	0efH
	DB	07cH
	DB	0d6H
	DB	0dcH
	DB	0deH
	DB	07bH
	DB	0c6H
	DB	0faH
	DB	0a5H
	DB	03bH
	DB	0aeH
	DB	03bH
	DB	09eH
	DB	09dH
	DB	0a6H
	DB	07cH
	DB	096H
	DB	07cH
	DB	09eH
	DB	09dH
	DB	0a6H
	DB	09cH
	DB	09eH
	DB	0faH
	DB	085H
	DB	078H
	DB	075H
	DB	078H
	DB	06dH
	DB	057H
	DB	06dH
	DB	098H
	DB	06dH
	DB	056H
	DB	05dH
	DB	096H
	DB	05dH
	DB	056H
	DB	055H
	DB	098H
	DB	065H
	DB	01bH
	DB	07eH
	DB	03bH
	DB	07eH
	DB	01bH
	DB	076H
	DB	05bH
	DB	076H
	DB	01bH
	DB	06eH
	DB	03bH
	DB	076H
	DB	03cH
	DB	07eH
	DB	01aH
	DB	06eH
	DB	0d9H
	DB	065H
	DB	0d9H
	DB	055H
	DB	0faH
	DB	065H
	DB	03bH
	DB	076H
	DB	0faH
	DB	06dH
	DB	0faH
	DB	05dH
	DB	0d9H
	DB	055H
	DB	0faH
	DB	05dH
	DB	01bH
	DB	06eH
	DB	0b9H
	DB	065H
	DB	0d9H
	DB	05dH
	DB	0b8H
	DB	05dH
	DB	098H
	DB	05dH
	DB	0b9H
	DB	06dH
	DB	057H
	DB	065H
	DB	036H
	DB	055H
	DB	057H
	DB	055H
	DB	057H
	DB	05dH
	DB	097H
	DB	055H
	DB	096H
	DB	04dH
	DB	0b7H
	DB	055H
	DB	0d8H
	DB	065H
	DB	098H
	DB	055H
	DB	07bH
	DB	07eH
	DB	015H
	DB	04dH
	DB	056H
	DB	055H
	DB	014H
	DB	03dH
	DB	035H
	DB	04dH
	DB	0b3H
	DB	03cH
	DB	0d5H
	DB	044H
	DB	0b4H
	DB	03cH
	DB	015H
	DB	03dH
	DB	056H
	DB	045H
	DB	098H
	DB	055H
	DB	014H
	DB	04dH
	DB	033H
	DB	055H
	DB	0d1H
	DB	044H
	DB	0f2H
	DB	03cH
	DB	036H
	DB	04dH
	DB	036H
	DB	055H
	DB	076H
	DB	04dH
	DB	0b7H
	DB	04dH
	DB	035H
	DB	04dH
	DB	015H
	DB	04dH
	DB	036H
	DB	055H
	DB	013H
	DB	04dH
	DB	0b2H
	DB	044H
	DB	0f3H
	DB	03cH
	DB	0f4H
	DB	03cH
	DB	0b3H
	DB	044H
	DB	035H
	DB	055H
	DB	098H
	DB	06dH
	DB	0b7H
	DB	06dH
	DB	034H
	DB	04dH
	DB	012H
	DB	03dH
	DB	096H
	DB	055H
	DB	097H
	DB	055H
	DB	0d8H
	DB	06dH
	DB	0d8H
	DB	065H
	DB	0d6H
	DB	05dH
	DB	0f7H
	DB	05dH
	DB	0b6H
	DB	055H
	DB	096H
	DB	055H
	DB	0b6H
	DB	055H
	DB	0b7H
	DB	05dH
	DB	0d7H
	DB	065H
	DB	0f8H
	DB	06dH
	DB	0d8H
	DB	065H
	DB	0f9H
	DB	065H
	DB	0dcH
	DB	096H
	DB	07aH
	DB	08eH
	DB	018H
	DB	06eH
	DB	0f7H
	DB	065H
	DB	098H
	DB	0aH
	DB	098H
	DB	02H
	DB	097H
	DB	02H
	DB	097H
	DB	02H
	DB	097H
	DB	02H
	DB	097H
	DB	02H
	DB	098H
	DB	0aH
	DB	098H
	DB	0aH
	DB	098H
	DB	0aH
	DB	098H
	DB	0aH
	DB	098H
	DB	0aH
	DB	0b8H
	DB	0aH
	DB	0b8H
	DB	0aH
	DB	0b8H
	DB	0aH
	DB	0b8H
	DB	0aH
	DB	0b8H
	DB	0aH
	DB	0d8H
	DB	012H
	DB	0f9H
	DB	012H
	DB	0d9H
	DB	0aH
	DB	0d9H
	DB	0aH
	DB	0d8H
	DB	0aH
	DB	0d8H
	DB	0aH
	DB	0d9H
	DB	012H
	DB	0d9H
	DB	012H
	DB	0f9H
	DB	012H
	DB	0f9H
	DB	012H
	DB	0d9H
	DB	012H
	DB	0f9H
	DB	012H
	DB	0f9H
	DB	012H
	DB	0f9H
	DB	012H
	DB	019H
	DB	013H
	DB	0f9H
	DB	012H
	DB	0f9H
	DB	012H
	DB	019H
	DB	013H
	DB	019H
	DB	013H
	DB	019H
	DB	01bH
	DB	019H
	DB	01bH
	DB	019H
	DB	013H
	DB	019H
	DB	01bH
	DB	019H
	DB	01bH
	DB	019H
	DB	01bH
	DB	03aH
	DB	01bH
	DB	059H
	DB	01bH
	DB	059H
	DB	01bH
	DB	05aH
	DB	023H
	DB	05aH
	DB	023H
	DB	03aH
	DB	023H
	DB	05aH
	DB	023H
	DB	05aH
	DB	023H
	DB	059H
	DB	023H
	DB	05aH
	DB	023H
	DB	07aH
	DB	023H
	DB	05aH
	DB	023H
	DB	07aH
	DB	023H
	DB	07aH
	DB	023H
	DB	07aH
	DB	023H
	DB	09aH
	DB	02bH
	DB	09aH
	DB	02bH
	DB	0baH
	DB	02bH
	DB	09aH
	DB	02bH
	DB	0bbH
	DB	033H
	DB	0baH
	DB	033H
	DB	0baH
	DB	033H
	DB	0baH
	DB	03bH
	DB	0baH
	DB	03bH
	DB	0baH
	DB	03bH
	DB	0faH
	DB	053H
	DB	01aH
	DB	054H
	DB	01aH
	DB	054H
	DB	01aH
	DB	054H
	DB	0faH
	DB	04bH
	DB	0faH
	DB	053H
	DB	039H
	DB	074H
	DB	03bH
	DB	0adH
	DB	0dcH
	DB	0c5H
	DB	0fcH
	DB	0cdH
	DB	0fdH
	DB	0c5H
	DB	0dcH
	DB	0bdH
	DB	07cH
	DB	0a5H
	DB	01bH
	DB	09dH
	DB	05cH
	DB	0a5H
	DB	03bH
	DB	0a5H
	DB	05bH
	DB	0adH
	DB	05bH
	DB	0a5H
	DB	03bH
	DB	0a5H
	DB	0fbH
	DB	09cH
	DB	0daH
	DB	094H
	DB	0baH
	DB	08cH
	DB	07aH
	DB	074H
	DB	03aH
	DB	064H
	DB	019H
	DB	054H
	DB	01aH
	DB	05cH
	DB	0f9H
	DB	053H
	DB	019H
	DB	054H
	DB	0f9H
	DB	04bH
	DB	0f9H
	DB	04bH
	DB	0d9H
	DB	04bH
	DB	0d9H
	DB	04bH
	DB	0f9H
	DB	04bH
	DB	0f9H
	DB	04bH
	DB	0f9H
	DB	04bH
	DB	0d9H
	DB	04bH
	DB	0d9H
	DB	04bH
	DB	0d9H
	DB	04bH
	DB	0f9H
	DB	04bH
	DB	0d9H
	DB	04bH
	DB	0b9H
	DB	04bH
	DB	0d9H
	DB	04bH
	DB	0b9H
	DB	04bH
	DB	0b9H
	DB	043H
	DB	0d9H
	DB	043H
	DB	0d9H
	DB	043H
	DB	0d9H
	DB	043H
	DB	0d9H
	DB	043H
	DB	0b9H
	DB	043H
	DB	0b9H
	DB	043H
	DB	0b9H
	DB	043H
	DB	0b9H
	DB	043H
	DB	0b8H
	DB	043H
	DB	0b8H
	DB	043H
	DB	0b8H
	DB	043H
	DB	0b8H
	DB	043H
	DB	0d9H
	DB	043H
	DB	0d9H
	DB	043H
	DB	0b8H
	DB	043H
	DB	0b8H
	DB	043H
	DB	0b8H
	DB	043H
	DB	0b8H
	DB	043H
	DB	0b8H
	DB	043H
	DB	098H
	DB	043H
	DB	097H
	DB	03bH
	DB	072H
	DB	022H
	DB	02bH
	DB	09H
	DB	08fH
	DB	04bH
	DB	09cH
	DB	096H
	DB	09fH
	DB	0d7H
	DB	0ffH
	DB	0ffH
	DB	0ffH
	DB	0ffH
	DB	05eH
	DB	0efH
	DB	07cH
	DB	0d6H
	DB	0dcH
	DB	0deH
	DB	07bH
	DB	0c6H
	DB	01aH
	DB	0aeH
	DB	03bH
	DB	0aeH
	DB	05cH
	DB	0a6H
	DB	07cH
	DB	09eH
	DB	05cH
	DB	096H
	DB	05bH
	DB	096H
	DB	09cH
	DB	09eH
	DB	07cH
	DB	09eH
	DB	0d9H
	DB	07dH
	DB	098H
	DB	075H
	DB	078H
	DB	06dH
	DB	058H
	DB	06dH
	DB	057H
	DB	06dH
	DB	077H
	DB	065H
	DB	0b7H
	DB	065H
	DB	057H
	DB	055H
	DB	099H
	DB	065H
	DB	0baH
	DB	06dH
	DB	01bH
	DB	07eH
	DB	0faH
	DB	06dH
	DB	03bH
	DB	076H
	DB	0faH
	DB	06dH
	DB	03bH
	DB	076H
	DB	03bH
	DB	07eH
	DB	0faH
	DB	06dH
	DB	0b9H
	DB	05dH
	DB	0d9H
	DB	055H
	DB	0faH
	DB	065H
	DB	01aH
	DB	076H
	DB	01bH
	DB	076H
	DB	0faH
	DB	065H
	DB	0b8H
	DB	055H
	DB	01aH
	DB	066H
	DB	01bH
	DB	06eH
	DB	0b9H
	DB	065H
	DB	098H
	DB	05dH
	DB	0b7H
	DB	05dH
	DB	098H
	DB	05dH
	DB	0b9H
	DB	065H
	DB	057H
	DB	06dH
	DB	036H
	DB	055H
	DB	057H
	DB	055H
	DB	057H
	DB	05dH
	DB	097H
	DB	05dH
	DB	0b7H
	DB	055H
	DB	0b8H
	DB	055H
	DB	0b7H
	DB	05dH
	DB	056H
	DB	04dH
	DB	07aH
	DB	07eH
	DB	0f5H
	DB	04cH
	DB	056H
	DB	055H
	DB	035H
	DB	03dH
	DB	097H
	DB	05dH
	DB	0f4H
	DB	044H
	DB	0d4H
	DB	044H
	DB	0d3H
	DB	044H
	DB	0d4H
	DB	03cH
	DB	0b3H
	DB	034H
	DB	057H
	DB	055H
	DB	014H
	DB	04dH
	DB	0d7H
	DB	065H
	DB	013H
	DB	055H
	DB	075H
	DB	055H
	DB	057H
	DB	055H
	DB	077H
	DB	055H
	DB	055H
	DB	045H
	DB	097H
	DB	04dH
	DB	056H
	DB	04dH
	DB	056H
	DB	055H
	DB	015H
	DB	055H
	DB	055H
	DB	05dH
	DB	0d3H
	DB	04cH
	DB	0b3H
	DB	034H
	DB	0d3H
	DB	03cH
	DB	0d3H
	DB	044H
	DB	036H
	DB	05dH
	DB	0d9H
	DB	075H
	DB	097H
	DB	06dH
	DB	034H
	DB	04dH
	DB	054H
	DB	045H
	DB	0b7H
	DB	05dH
	DB	0b7H
	DB	065H
	DB	0d8H
	DB	06dH
	DB	0f8H
	DB	065H
	DB	0f7H
	DB	05dH
	DB	0d6H
	DB	05dH
	DB	0b6H
	DB	05dH
	DB	0d6H
	DB	05dH
	DB	0d6H
	DB	055H
	DB	0b6H
	DB	055H
	DB	0b7H
	DB	065H
	DB	019H
	DB	06eH
	DB	0d8H
	DB	065H
	DB	0d9H
	DB	05dH
	DB	0bcH
	DB	08eH
	DB	0bcH
	DB	09eH
	DB	0f8H
	DB	065H
	DB	0f7H
	DB	065H
	DB	097H
	DB	02H
	DB	077H
	DB	02H
	DB	077H
	DB	02H
	DB	097H
	DB	02H
	DB	097H
	DB	02H
	DB	097H
	DB	0aH
	DB	097H
	DB	02H
	DB	0b8H
	DB	0aH
	DB	098H
	DB	0aH
	DB	098H
	DB	0aH
	DB	098H
	DB	0aH
	DB	0b8H
	DB	0aH
	DB	0b8H
	DB	0aH
	DB	0b9H
	DB	0aH
	DB	0b8H
	DB	0aH
	DB	0d8H
	DB	0aH
	DB	0b8H
	DB	0aH
	DB	0d8H
	DB	012H
	DB	0d8H
	DB	0aH
	DB	0d8H
	DB	0aH
	DB	0d8H
	DB	012H
	DB	0d9H
	DB	012H
	DB	0d9H
	DB	012H
	DB	0d9H
	DB	012H
	DB	0f9H
	DB	012H
	DB	0d9H
	DB	012H
	DB	0f9H
	DB	012H
	DB	0f9H
	DB	012H
	DB	0f9H
	DB	012H
	DB	0f9H
	DB	012H
	DB	019H
	DB	013H
	DB	01aH
	DB	013H
	DB	0f9H
	DB	012H
	DB	019H
	DB	013H
	DB	019H
	DB	013H
	DB	019H
	DB	01bH
	DB	039H
	DB	01bH
	DB	039H
	DB	01bH
	DB	019H
	DB	01bH
	DB	019H
	DB	01bH
	DB	019H
	DB	01bH
	DB	03aH
	DB	01bH
	DB	03aH
	DB	01bH
	DB	05aH
	DB	023H
	DB	059H
	DB	023H
	DB	05aH
	DB	023H
	DB	05aH
	DB	023H
	DB	059H
	DB	023H
	DB	05aH
	DB	023H
	DB	05aH
	DB	023H
	DB	05aH
	DB	023H
	DB	07aH
	DB	023H
	DB	07aH
	DB	023H
	DB	07aH
	DB	023H
	DB	07aH
	DB	023H
	DB	09aH
	DB	02bH
	DB	09aH
	DB	02bH
	DB	09aH
	DB	02bH
	DB	09aH
	DB	02bH
	DB	09aH
	DB	02bH
	DB	0bbH
	DB	033H
	DB	0baH
	DB	033H
	DB	0baH
	DB	033H
	DB	0dbH
	DB	03bH
	DB	0baH
	DB	03bH
	DB	0baH
	DB	043H
	DB	01aH
	DB	054H
	DB	01aH
	DB	054H
	DB	01aH
	DB	054H
	DB	01aH
	DB	054H
	DB	01aH
	DB	054H
	DB	01aH
	DB	05cH
	DB	0baH
	DB	08cH
	DB	0bcH
	DB	0c5H
	DB	05eH
	DB	0d6H
	DB	05eH
	DB	0ceH
	DB	05eH
	DB	0ceH
	DB	0bcH
	DB	0b5H
	DB	05bH
	DB	0a5H
	DB	05bH
	DB	0a5H
	DB	05cH
	DB	0adH
	DB	05bH
	DB	0adH
	DB	05cH
	DB	0adH
	DB	05cH
	DB	0adH
	DB	03bH
	DB	0a5H
	DB	01bH
	DB	09dH
	DB	0fbH
	DB	09cH
	DB	0daH
	DB	08cH
	DB	07aH
	DB	074H
	DB	059H
	DB	064H
	DB	019H
	DB	05cH
	DB	0f9H
	DB	053H
	DB	019H
	DB	054H
	DB	0f9H
	DB	053H
	DB	0f9H
	DB	04bH
	DB	0d9H
	DB	04bH
	DB	0f9H
	DB	04bH
	DB	0d9H
	DB	04bH
	DB	0f9H
	DB	04bH
	DB	0d9H
	DB	04bH
	DB	0d9H
	DB	04bH
	DB	0d9H
	DB	04bH
	DB	0d9H
	DB	04bH
	DB	0d9H
	DB	04bH
	DB	0d9H
	DB	04bH
	DB	0d9H
	DB	04bH
	DB	0d9H
	DB	04bH
	DB	0d9H
	DB	04bH
	DB	0d9H
	DB	04bH
	DB	0d9H
	DB	04bH
	DB	0d9H
	DB	043H
	DB	0d9H
	DB	04bH
	DB	0b9H
	DB	043H
	DB	0d9H
	DB	043H
	DB	0b9H
	DB	043H
	DB	0b9H
	DB	043H
	DB	0d9H
	DB	043H
	DB	0b9H
	DB	043H
	DB	0b8H
	DB	043H
	DB	0b8H
	DB	043H
	DB	0b8H
	DB	043H
	DB	0b9H
	DB	043H
	DB	0b9H
	DB	043H
	DB	0b8H
	DB	043H
	DB	0d8H
	DB	043H
	DB	0d8H
	DB	043H
	DB	0b8H
	DB	043H
	DB	0b8H
	DB	043H
	DB	0b8H
	DB	043H
	DB	098H
	DB	043H
	DB	097H
	DB	043H
	DB	072H
	DB	02aH
	DB	02bH
	DB	09H
	DB	08fH
	DB	04bH
	DB	09cH
	DB	09eH
	DB	09fH
	DB	0d7H
	DB	0ffH
	DB	0ffH
	DB	0ffH
	DB	0ffH
	DB	05eH
	DB	0efH
	DB	09cH
	DB	0d6H
	DB	0dcH
	DB	0e6H
	DB	09bH
	DB	0ceH
	DB	03aH
	DB	0b6H
	DB	05bH
	DB	0a6H
	DB	03bH
	DB	09eH
	DB	05cH
	DB	09eH
	DB	05cH
	DB	096H
	DB	07cH
	DB	096H
	DB	07cH
	DB	096H
	DB	03bH
	DB	08eH
	DB	0d9H
	DB	085H
	DB	078H
	DB	075H
	DB	057H
	DB	06dH
	DB	078H
	DB	06dH
	DB	077H
	DB	065H
	DB	0b8H
	DB	06dH
	DB	097H
	DB	065H
	DB	077H
	DB	05dH
	DB	099H
	DB	065H
	DB	0daH
	DB	075H
	DB	03bH
	DB	07eH
	DB	0faH
	DB	06dH
	DB	01bH
	DB	076H
	DB	01bH
	DB	06eH
	DB	03bH
	DB	076H
	DB	03bH
	DB	07eH
	DB	0d9H
	DB	065H
	DB	0b9H
	DB	065H
	DB	0d9H
	DB	055H
	DB	0d9H
	DB	05dH
	DB	01aH
	DB	06eH
	DB	01bH
	DB	076H
	DB	01aH
	DB	066H
	DB	0f9H
	DB	065H
	DB	0d9H
	DB	05dH
	DB	0d9H
	DB	065H
	DB	0b9H
	DB	065H
	DB	098H
	DB	065H
	DB	019H
	DB	06eH
	DB	097H
	DB	05dH
	DB	0b9H
	DB	065H
	DB	037H
	DB	065H
	DB	077H
	DB	05dH
	DB	058H
	DB	05dH
	DB	057H
	DB	05dH
	DB	077H
	DB	05dH
	DB	096H
	DB	055H
	DB	0b7H
	DB	05dH
	DB	096H
	DB	065H
	DB	097H
	DB	05dH
	DB	09aH
	DB	08eH
	DB	0d4H
	DB	04cH
	DB	056H
	DB	04dH
	DB	035H
	DB	03dH
	DB	096H
	DB	04dH
	DB	0f5H
	DB	044H
	DB	015H
	DB	045H
	DB	055H
	DB	04dH
	DB	055H
	DB	04dH
	DB	0f3H
	DB	03cH
	DB	056H
	DB	055H
	DB	0f4H
	DB	04cH
	DB	0b7H
	DB	05dH
	DB	096H
	DB	05dH
	DB	0f8H
	DB	065H
	DB	057H
	DB	05dH
	DB	077H
	DB	05dH
	DB	035H
	DB	045H
	DB	076H
	DB	045H
	DB	076H
	DB	04dH
	DB	076H
	DB	05dH
	DB	035H
	DB	055H
	DB	056H
	DB	05dH
	DB	014H
	DB	055H
	DB	092H
	DB	03cH
	DB	0f4H
	DB	03cH
	DB	014H
	DB	04dH
	DB	076H
	DB	065H
	DB	0faH
	DB	07dH
	DB	076H
	DB	06dH
	DB	014H
	DB	04dH
	DB	096H
	DB	055H
	DB	0b7H
	DB	05dH
	DB	0d8H
	DB	06dH
	DB	0d8H
	DB	06dH
	DB	019H
	DB	066H
	DB	0d7H
	DB	05dH
	DB	0b5H
	DB	055H
	DB	096H
	DB	055H
	DB	0b7H
	DB	055H
	DB	0b6H
	DB	055H
	DB	0f7H
	DB	05dH
	DB	0b7H
	DB	065H
	DB	0f8H
	DB	06dH
	DB	0b7H
	DB	065H
	DB	097H
	DB	05dH
	DB	0dcH
	DB	08eH
	DB	0fcH
	DB	0a6H
	DB	019H
	DB	076H
	DB	018H
	DB	076H
	DB	077H
	DB	02H
	DB	077H
	DB	02H
	DB	077H
	DB	02H
	DB	098H
	DB	02H
	DB	098H
	DB	02H
	DB	077H
	DB	02H
	DB	098H
	DB	02H
	DB	0b8H
	DB	0aH
	DB	098H
	DB	0aH
	DB	098H
	DB	0aH
	DB	0b8H
	DB	0aH
	DB	0b8H
	DB	0aH
	DB	0b8H
	DB	0aH
	DB	0d9H
	DB	0aH
	DB	0d8H
	DB	0aH
	DB	0d9H
	DB	0aH
	DB	0f9H
	DB	012H
	DB	0d9H
	DB	012H
	DB	0d9H
	DB	012H
	DB	0d9H
	DB	012H
	DB	0d9H
	DB	012H
	DB	0d9H
	DB	012H
	DB	0d9H
	DB	012H
	DB	0d9H
	DB	0aH
	DB	0d9H
	DB	0aH
	DB	0f9H
	DB	012H
	DB	0f9H
	DB	012H
	DB	0f9H
	DB	012H
	DB	0f9H
	DB	012H
	DB	0f9H
	DB	012H
	DB	0f9H
	DB	012H
	DB	0f9H
	DB	012H
	DB	019H
	DB	013H
	DB	019H
	DB	013H
	DB	019H
	DB	013H
	DB	039H
	DB	01bH
	DB	039H
	DB	01bH
	DB	039H
	DB	01bH
	DB	03aH
	DB	01bH
	DB	019H
	DB	01bH
	DB	03aH
	DB	01bH
	DB	03aH
	DB	01bH
	DB	03aH
	DB	01bH
	DB	039H
	DB	01bH
	DB	039H
	DB	023H
	DB	03aH
	DB	01bH
	DB	05aH
	DB	023H
	DB	059H
	DB	023H
	DB	05aH
	DB	023H
	DB	05aH
	DB	023H
	DB	05aH
	DB	023H
	DB	05aH
	DB	023H
	DB	05aH
	DB	023H
	DB	07aH
	DB	02bH
	DB	09aH
	DB	02bH
	DB	09aH
	DB	02bH
	DB	07aH
	DB	02bH
	DB	09aH
	DB	02bH
	DB	09aH
	DB	02bH
	DB	0baH
	DB	02bH
	DB	09bH
	DB	02bH
	DB	0bbH
	DB	033H
	DB	0baH
	DB	033H
	DB	0daH
	DB	03bH
	DB	0baH
	DB	03bH
	DB	0daH
	DB	043H
	DB	0faH
	DB	04bH
	DB	01aH
	DB	054H
	DB	03aH
	DB	05cH
	DB	01aH
	DB	05cH
	DB	01aH
	DB	054H
	DB	03aH
	DB	064H
	DB	0fbH
	DB	09cH
	DB	03dH
	DB	0d6H
	DB	0beH
	DB	0deH
	DB	09eH
	DB	0d6H
	DB	0ddH
	DB	0bdH
	DB	0bcH
	DB	0bdH
	DB	0bcH
	DB	0bdH
	DB	07bH
	DB	0adH
	DB	09cH
	DB	0b5H
	DB	09cH
	DB	0b5H
	DB	0bcH
	DB	0bdH
	DB	07bH
	DB	0adH
	DB	05cH
	DB	0adH
	DB	05bH
	DB	0a5H
	DB	01bH
	DB	09dH
	DB	0fbH
	DB	094H
	DB	0baH
	DB	07cH
	DB	05aH
	DB	064H
	DB	019H
	DB	05cH
	DB	019H
	DB	054H
	DB	019H
	DB	054H
	DB	0f9H
	DB	053H
	DB	0f9H
	DB	053H
	DB	0f9H
	DB	04bH
	DB	0f9H
	DB	04bH
	DB	0f9H
	DB	04bH
	DB	0f9H
	DB	04bH
	DB	0f9H
	DB	04bH
	DB	0d9H
	DB	04bH
	DB	0d9H
	DB	04bH
	DB	0d9H
	DB	04bH
	DB	0d9H
	DB	04bH
	DB	0d9H
	DB	04bH
	DB	0d9H
	DB	04bH
	DB	0d9H
	DB	04bH
	DB	0d9H
	DB	04bH
	DB	0d9H
	DB	04bH
	DB	0d9H
	DB	04bH
	DB	0d9H
	DB	04bH
	DB	0d9H
	DB	04bH
	DB	0d9H
	DB	04bH
	DB	0d9H
	DB	043H
	DB	0b9H
	DB	043H
	DB	0d9H
	DB	04bH
	DB	0b9H
	DB	043H
	DB	0b9H
	DB	043H
	DB	0d9H
	DB	043H
	DB	0b9H
	DB	043H
	DB	0b9H
	DB	043H
	DB	0b9H
	DB	043H
	DB	0d9H
	DB	043H
	DB	0b8H
	DB	043H
	DB	0b8H
	DB	043H
	DB	0b8H
	DB	043H
	DB	0b8H
	DB	043H
	DB	0b8H
	DB	043H
	DB	0b8H
	DB	043H
	DB	0b8H
	DB	043H
	DB	097H
	DB	043H
	DB	072H
	DB	02aH
	DB	0bH
	DB	09H
	DB	06eH
	DB	04bH
	DB	07bH
	DB	096H
	DB	09fH
	DB	0d7H
	DB	0ffH
	DB	0ffH
	DB	0ffH
	DB	0ffH
	DB	09fH
	DB	0f7H
	DB	09cH
	DB	0d6H
	DB	0fdH
	DB	0e6H
	DB	0bcH
	DB	0d6H
	DB	03aH
	DB	0b6H
	DB	03aH
	DB	0a6H
	DB	0faH
	DB	09dH
	DB	05cH
	DB	09eH
	DB	05cH
	DB	096H
	DB	05cH
	DB	096H
	DB	07cH
	DB	09eH
	DB	03bH
	DB	08eH
	DB	0faH
	DB	085H
	DB	078H
	DB	075H
	DB	057H
	DB	06dH
	DB	098H
	DB	075H
	DB	077H
	DB	06dH
	DB	098H
	DB	065H
	DB	097H
	DB	065H
	DB	097H
	DB	06dH
	DB	078H
	DB	06dH
	DB	0dbH
	DB	075H
	DB	03cH
	DB	07eH
	DB	0daH
	DB	075H
	DB	0faH
	DB	06dH
	DB	01bH
	DB	06eH
	DB	01bH
	DB	076H
	DB	01bH
	DB	07eH
	DB	0b9H
	DB	065H
	DB	0b9H
	DB	065H
	DB	0b9H
	DB	055H
	DB	0d9H
	DB	065H
	DB	03bH
	DB	076H
	DB	01bH
	DB	076H
	DB	0b9H
	DB	05dH
	DB	0f9H
	DB	05dH
	DB	0d9H
	DB	05dH
	DB	0b8H
	DB	065H
	DB	0b8H
	DB	065H
	DB	078H
	DB	065H
	DB	0d8H
	DB	065H
	DB	0b7H
	DB	065H
	DB	098H
	DB	065H
	DB	078H
	DB	065H
	DB	077H
	DB	05dH
	DB	036H
	DB	04dH
	DB	077H
	DB	055H
	DB	097H
	DB	05dH
	DB	096H
	DB	055H
	DB	0d8H
	DB	065H
	DB	018H
	DB	076H
	DB	0f9H
	DB	065H
	DB	07aH
	DB	07eH
	DB	015H
	DB	055H
	DB	036H
	DB	04dH
	DB	076H
	DB	045H
	DB	035H
	DB	045H
	DB	015H
	DB	03dH
	DB	0f5H
	DB	03cH
	DB	056H
	DB	04dH
	DB	076H
	DB	04dH
	DB	034H
	DB	045H
	DB	076H
	DB	05dH
	DB	0d3H
	DB	054H
	DB	035H
	DB	04dH
	DB	097H
	DB	055H
	DB	0f9H
	DB	06dH
	DB	077H
	DB	065H
	DB	056H
	DB	055H
	DB	055H
	DB	045H
	DB	055H
	DB	03dH
	DB	076H
	DB	04dH
	DB	055H
	DB	055H
	DB	056H
	DB	055H
	DB	036H
	DB	055H
	DB	015H
	DB	05dH
	DB	071H
	DB	03cH
	DB	0d4H
	DB	03cH
	DB	055H
	DB	055H
	DB	097H
	DB	06dH
	DB	0b9H
	DB	075H
	DB	097H
	DB	06dH
	DB	035H
	DB	055H
	DB	097H
	DB	05dH
	DB	0d7H
	DB	065H
	DB	097H
	DB	05dH
	DB	0d8H
	DB	065H
	DB	0f8H
	DB	05dH
	DB	0b5H
	DB	055H
	DB	0d5H
	DB	05dH
	DB	0b6H
	DB	055H
	DB	096H
	DB	055H
	DB	096H
	DB	055H
	DB	0f7H
	DB	05dH
	DB	0f8H
	DB	06dH
	DB	0f8H
	DB	06dH
	DB	0b6H
	DB	065H
	DB	056H
	DB	055H
	DB	0dcH
	DB	08eH
	DB	01dH
	DB	0a7H
	DB	09cH
	DB	08eH
	DB	079H
	DB	08eH
	DB	098H
	DB	02H
	DB	098H
	DB	0aH
	DB	077H
	DB	0aH
	DB	098H
	DB	02H
	DB	098H
	DB	0aH
	DB	098H
	DB	0aH
	DB	098H
	DB	02H
	DB	098H
	DB	0aH
	DB	0b8H
	DB	0aH
	DB	098H
	DB	0aH
	DB	0b8H
	DB	0aH
	DB	0b8H
	DB	0aH
	DB	0b8H
	DB	0aH
	DB	0d9H
	DB	0aH
	DB	0d8H
	DB	0aH
	DB	0d8H
	DB	0aH
	DB	0d9H
	DB	0aH
	DB	0d9H
	DB	012H
	DB	0d8H
	DB	012H
	DB	0d9H
	DB	012H
	DB	0d8H
	DB	012H
	DB	0d8H
	DB	0aH
	DB	0d9H
	DB	012H
	DB	0f9H
	DB	012H
	DB	0f9H
	DB	012H
	DB	0f9H
	DB	012H
	DB	0f9H
	DB	012H
	DB	0f9H
	DB	012H
	DB	0f9H
	DB	012H
	DB	0f9H
	DB	012H
	DB	0f9H
	DB	012H
	DB	0f9H
	DB	012H
	DB	0f9H
	DB	012H
	DB	019H
	DB	013H
	DB	019H
	DB	013H
	DB	019H
	DB	013H
	DB	019H
	DB	01bH
	DB	03aH
	DB	01bH
	DB	03aH
	DB	01bH
	DB	03aH
	DB	01bH
	DB	03aH
	DB	01bH
	DB	03aH
	DB	01bH
	DB	03aH
	DB	01bH
	DB	039H
	DB	01bH
	DB	039H
	DB	023H
	DB	03aH
	DB	023H
	DB	05aH
	DB	023H
	DB	05aH
	DB	023H
	DB	05aH
	DB	023H
	DB	05aH
	DB	023H
	DB	05aH
	DB	023H
	DB	07aH
	DB	023H
	DB	07aH
	DB	023H
	DB	07aH
	DB	02bH
	DB	07aH
	DB	023H
	DB	09aH
	DB	02bH
	DB	09aH
	DB	02bH
	DB	09aH
	DB	02bH
	DB	09aH
	DB	02bH
	DB	09aH
	DB	02bH
	DB	09aH
	DB	02bH
	DB	0baH
	DB	033H
	DB	0baH
	DB	033H
	DB	0baH
	DB	033H
	DB	0baH
	DB	03bH
	DB	0daH
	DB	043H
	DB	01aH
	DB	054H
	DB	03aH
	DB	054H
	DB	03aH
	DB	05cH
	DB	01aH
	DB	05cH
	DB	01aH
	DB	05cH
	DB	05aH
	DB	074H
	DB	05bH
	DB	0adH
	DB	05eH
	DB	0d6H
	DB	07eH
	DB	0d6H
	DB	07eH
	DB	0d6H
	DB	0fdH
	DB	0c5H
	DB	0fdH
	DB	0c5H
	DB	0fcH
	DB	0c5H
	DB	09cH
	DB	0b5H
	DB	0bcH
	DB	0b5H
	DB	0fdH
	DB	0c5H
	DB	0dcH
	DB	0bdH
	DB	09cH
	DB	0b5H
	DB	07cH
	DB	0adH
	DB	05cH
	DB	0adH
	DB	03bH
	DB	0a5H
	DB	01bH
	DB	09dH
	DB	0baH
	DB	084H
	DB	059H
	DB	06cH
	DB	019H
	DB	05cH
	DB	019H
	DB	054H
	DB	019H
	DB	054H
	DB	0f9H
	DB	053H
	DB	0f9H
	DB	053H
	DB	0f9H
	DB	04bH
	DB	0f9H
	DB	04bH
	DB	0f9H
	DB	04bH
	DB	0f9H
	DB	04bH
	DB	0faH
	DB	04bH
	DB	0daH
	DB	04bH
	DB	0d9H
	DB	04bH
	DB	0d9H
	DB	04bH
	DB	0d9H
	DB	04bH
	DB	0d9H
	DB	04bH
	DB	0d9H
	DB	04bH
	DB	0d9H
	DB	04bH
	DB	0f9H
	DB	04bH
	DB	0d9H
	DB	04bH
	DB	0d9H
	DB	043H
	DB	0d9H
	DB	043H
	DB	0d9H
	DB	04bH
	DB	0d9H
	DB	04bH
	DB	0b9H
	DB	043H
	DB	0d9H
	DB	04bH
	DB	0b9H
	DB	043H
	DB	0b9H
	DB	043H
	DB	0b9H
	DB	043H
	DB	0d9H
	DB	043H
	DB	0d9H
	DB	043H
	DB	0b9H
	DB	043H
	DB	0b9H
	DB	043H
	DB	0b9H
	DB	043H
	DB	0b8H
	DB	043H
	DB	0b8H
	DB	043H
	DB	0b8H
	DB	043H
	DB	0d8H
	DB	043H
	DB	0b8H
	DB	043H
	DB	0b8H
	DB	043H
	DB	097H
	DB	043H
	DB	097H
	DB	043H
	DB	092H
	DB	02aH
	DB	02bH
	DB	09H
	DB	04eH
	DB	043H
	DB	05bH
	DB	096H
	DB	09fH
	DB	0d7H
	DB	0ffH
	DB	0ffH
	DB	0ffH
	DB	0ffH
	DB	09fH
	DB	0f7H
	DB	07bH
	DB	0d6H
	DB	0bcH
	DB	0deH
	DB	0bcH
	DB	0d6H
	DB	03aH
	DB	0b6H
	DB	01bH
	DB	0a6H
	DB	05cH
	DB	0a6H
	DB	07cH
	DB	0a6H
	DB	05cH
	DB	096H
	DB	07cH
	DB	09eH
	DB	07cH
	DB	09eH
	DB	03cH
	DB	096H
	DB	0baH
	DB	07dH
	DB	078H
	DB	06dH
	DB	057H
	DB	06dH
	DB	098H
	DB	075H
	DB	098H
	DB	075H
	DB	098H
	DB	06dH
	DB	098H
	DB	06dH
	DB	098H
	DB	06dH
	DB	058H
	DB	065H
	DB	01bH
	DB	07eH
	DB	01bH
	DB	07eH
	DB	0baH
	DB	075H
	DB	0faH
	DB	075H
	DB	01bH
	DB	076H
	DB	01bH
	DB	076H
	DB	03bH
	DB	07eH
	DB	0baH
	DB	065H
	DB	099H
	DB	05dH
	DB	0b8H
	DB	05dH
	DB	0d9H
	DB	065H
	DB	01aH
	DB	06eH
	DB	0faH
	DB	075H
	DB	0b9H
	DB	05dH
	DB	0d9H
	DB	05dH
	DB	0daH
	DB	05dH
	DB	0d9H
	DB	065H
	DB	099H
	DB	06dH
	DB	0d9H
	DB	075H
	DB	077H
	DB	05dH
	DB	03aH
	DB	07eH
	DB	0b8H
	DB	06dH
	DB	036H
	DB	04dH
	DB	057H
	DB	055H
	DB	057H
	DB	055H
	DB	057H
	DB	055H
	DB	097H
	DB	055H
	DB	0b7H
	DB	05dH
	DB	0f9H
	DB	065H
	DB	039H
	DB	06eH
	DB	0d8H
	DB	05dH
	DB	0f8H
	DB	065H
	DB	036H
	DB	055H
	DB	056H
	DB	055H
	DB	056H
	DB	045H
	DB	035H
	DB	045H
	DB	014H
	DB	045H
	DB	0d3H
	DB	03cH
	DB	056H
	DB	04dH
	DB	097H
	DB	055H
	DB	034H
	DB	03dH
	DB	0d8H
	DB	065H
	DB	0f4H
	DB	05cH
	DB	0b3H
	DB	044H
	DB	015H
	DB	04dH
	DB	0d9H
	DB	075H
	DB	0d8H
	DB	06dH
	DB	056H
	DB	055H
	DB	034H
	DB	03dH
	DB	0f3H
	DB	034H
	DB	055H
	DB	045H
	DB	015H
	DB	04dH
	DB	0d4H
	DB	044H
	DB	0b4H
	DB	04cH
	DB	015H
	DB	055H
	DB	092H
	DB	03cH
	DB	015H
	DB	04dH
	DB	0f8H
	DB	075H
	DB	0b7H
	DB	075H
	DB	0b9H
	DB	075H
	DB	098H
	DB	075H
	DB	097H
	DB	065H
	DB	0b7H
	DB	05dH
	DB	0b6H
	DB	05dH
	DB	014H
	DB	045H
	DB	0b7H
	DB	05dH
	DB	0f8H
	DB	065H
	DB	0d6H
	DB	05dH
	DB	0f6H
	DB	065H
	DB	0b6H
	DB	055H
	DB	0b6H
	DB	055H
	DB	096H
	DB	055H
	DB	0f8H
	DB	065H
	DB	018H
	DB	06eH
	DB	0b8H
	DB	05dH
	DB	0b7H
	DB	065H
	DB	035H
	DB	04dH
	DB	07bH
	DB	076H
	DB	0fdH
	DB	09eH
	DB	09cH
	DB	086H
	DB	038H
	DB	086H
	DB	098H
	DB	0aH
	DB	078H
	DB	02H
	DB	098H
	DB	0aH
	DB	077H
	DB	02H
	DB	098H
	DB	0aH
	DB	098H
	DB	0aH
	DB	098H
	DB	0aH
	DB	098H
	DB	0aH
	DB	098H
	DB	0aH
	DB	0b8H
	DB	0aH
	DB	0b8H
	DB	0aH
	DB	0b8H
	DB	0aH
	DB	0b8H
	DB	0aH
	DB	0b8H
	DB	0aH
	DB	0b8H
	DB	0aH
	DB	0b8H
	DB	0aH
	DB	0b8H
	DB	012H
	DB	0b8H
	DB	012H
	DB	0b8H
	DB	0aH
	DB	0d8H
	DB	0aH
	DB	0d9H
	DB	012H
	DB	0d9H
	DB	012H
	DB	0d9H
	DB	012H
	DB	0f9H
	DB	012H
	DB	0f9H
	DB	012H
	DB	0f9H
	DB	012H
	DB	0f9H
	DB	012H
	DB	0f9H
	DB	012H
	DB	019H
	DB	013H
	DB	0f9H
	DB	012H
	DB	019H
	DB	013H
	DB	0f9H
	DB	012H
	DB	019H
	DB	013H
	DB	019H
	DB	013H
	DB	0f9H
	DB	012H
	DB	0f9H
	DB	012H
	DB	01aH
	DB	01bH
	DB	039H
	DB	01bH
	DB	03aH
	DB	01bH
	DB	039H
	DB	01bH
	DB	039H
	DB	01bH
	DB	039H
	DB	01bH
	DB	039H
	DB	01bH
	DB	039H
	DB	023H
	DB	039H
	DB	023H
	DB	03aH
	DB	023H
	DB	05aH
	DB	023H
	DB	03aH
	DB	023H
	DB	07aH
	DB	023H
	DB	07aH
	DB	023H
	DB	07aH
	DB	023H
	DB	07aH
	DB	023H
	DB	09aH
	DB	02bH
	DB	07aH
	DB	023H
	DB	09aH
	DB	023H
	DB	09aH
	DB	023H
	DB	09aH
	DB	02bH
	DB	09bH
	DB	02bH
	DB	0bbH
	DB	02bH
	DB	09aH
	DB	02bH
	DB	0baH
	DB	033H
	DB	0baH
	DB	033H
	DB	0baH
	DB	033H
	DB	0baH
	DB	033H
	DB	0daH
	DB	03bH
	DB	0fbH
	DB	04bH
	DB	0faH
	DB	04bH
	DB	01aH
	DB	054H
	DB	01aH
	DB	05cH
	DB	01aH
	DB	05cH
	DB	01aH
	DB	064H
	DB	0baH
	DB	08cH
	DB	01dH
	DB	0ceH
	DB	03dH
	DB	0ceH
	DB	09eH
	DB	0d6H
	DB	09eH
	DB	0d6H
	DB	0fdH
	DB	0c5H
	DB	03eH
	DB	0c6H
	DB	01dH
	DB	0c6H
	DB	0bcH
	DB	0bdH
	DB	0ddH
	DB	0c5H
	DB	03eH
	DB	0ceH
	DB	0fdH
	DB	0c5H
	DB	0ddH
	DB	0bdH
	DB	09cH
	DB	0b5H
	DB	07cH
	DB	0adH
	DB	03bH
	DB	0a5H
	DB	0fbH
	DB	094H
	DB	0baH
	DB	084H
	DB	05aH
	DB	06cH
	DB	039H
	DB	05cH
	DB	019H
	DB	054H
	DB	0f9H
	DB	053H
	DB	0f9H
	DB	053H
	DB	0f9H
	DB	053H
	DB	0f9H
	DB	04bH
	DB	0d9H
	DB	04bH
	DB	0f9H
	DB	04bH
	DB	0f9H
	DB	04bH
	DB	0f9H
	DB	04bH
	DB	0d9H
	DB	04bH
	DB	0d9H
	DB	04bH
	DB	0d9H
	DB	04bH
	DB	0d9H
	DB	04bH
	DB	0f9H
	DB	04bH
	DB	0f9H
	DB	04bH
	DB	0f9H
	DB	04bH
	DB	0f9H
	DB	04bH
	DB	0f9H
	DB	04bH
	DB	0f9H
	DB	04bH
	DB	0d9H
	DB	043H
	DB	0d9H
	DB	043H
	DB	0b9H
	DB	043H
	DB	0d9H
	DB	043H
	DB	0d9H
	DB	04bH
	DB	0d9H
	DB	043H
	DB	0d9H
	DB	043H
	DB	0b9H
	DB	043H
	DB	0b9H
	DB	043H
	DB	0b8H
	DB	043H
	DB	0b9H
	DB	043H
	DB	0b8H
	DB	043H
	DB	0d8H
	DB	043H
	DB	0d9H
	DB	043H
	DB	0b8H
	DB	043H
	DB	0b8H
	DB	043H
	DB	0b8H
	DB	043H
	DB	0b8H
	DB	043H
	DB	098H
	DB	043H
	DB	0b8H
	DB	043H
	DB	097H
	DB	043H
	DB	0b3H
	DB	032H
	DB	0aH
	DB	011H
	DB	0eH
	DB	043H
	DB	05bH
	DB	096H
	DB	0bfH
	DB	0dfH
	DB	0ffH
	DB	0ffH
	DB	0ffH
	DB	0ffH
	DB	09eH
	DB	0f7H
	DB	05bH
	DB	0d6H
	DB	0bcH
	DB	0e6H
	DB	0bcH
	DB	0d6H
	DB	05aH
	DB	0beH
	DB	01bH
	DB	0a6H
	DB	05bH
	DB	0a6H
	DB	07cH
	DB	0a6H
	DB	07cH
	DB	09eH
	DB	07cH
	DB	09eH
	DB	07cH
	DB	09eH
	DB	05cH
	DB	09eH
	DB	0b9H
	DB	085H
	DB	078H
	DB	075H
	DB	098H
	DB	075H
	DB	098H
	DB	075H
	DB	098H
	DB	075H
	DB	099H
	DB	06dH
	DB	0b8H
	DB	075H
	DB	098H
	DB	065H
	DB	037H
	DB	05dH
	DB	0fbH
	DB	07dH
	DB	03bH
	DB	086H
	DB	0daH
	DB	075H
	DB	01bH
	DB	076H
	DB	0daH
	DB	06dH
	DB	0fbH
	DB	075H
	DB	01bH
	DB	076H
	DB	0fbH
	DB	075H
	DB	099H
	DB	065H
	DB	098H
	DB	05dH
	DB	0b8H
	DB	05dH
	DB	0faH
	DB	06dH
	DB	01aH
	DB	06eH
	DB	0b9H
	DB	065H
	DB	0d9H
	DB	065H
	DB	0b9H
	DB	05dH
	DB	0b9H
	DB	065H
	DB	0b9H
	DB	06dH
	DB	03bH
	DB	07eH
	DB	098H
	DB	065H
	DB	09bH
	DB	08eH
	DB	0d9H
	DB	075H
	DB	016H
	DB	055H
	DB	057H
	DB	04dH
	DB	098H
	DB	055H
	DB	077H
	DB	055H
	DB	077H
	DB	055H
	DB	018H
	DB	066H
	DB	018H
	DB	05eH
	DB	0f9H
	DB	065H
	DB	0b6H
	DB	055H
	DB	076H
	DB	04dH
	DB	0b8H
	DB	065H
	DB	076H
	DB	055H
	DB	035H
	DB	045H
	DB	076H
	DB	04dH
	DB	014H
	DB	045H
	DB	0f5H
	DB	03cH
	DB	056H
	DB	04dH
	DB	097H
	DB	04dH
	DB	014H
	DB	035H
	DB	057H
	DB	04dH
	DB	0d4H
	DB	054H
	DB	092H
	DB	044H
	DB	0d4H
	DB	044H
	DB	098H
	DB	05dH
	DB	0d9H
	DB	06dH
	DB	035H
	DB	04dH
	DB	0b2H
	DB	034H
	DB	0d3H
	DB	02cH
	DB	055H
	DB	045H
	DB	014H
	DB	04dH
	DB	0d3H
	DB	044H
	DB	094H
	DB	044H
	DB	036H
	DB	05dH
	DB	0b3H
	DB	03cH
	DB	0b8H
	DB	05dH
	DB	05aH
	DB	07eH
	DB	0b7H
	DB	06dH
	DB	0d9H
	DB	075H
	DB	0f9H
	DB	085H
	DB	077H
	DB	065H
	DB	0b7H
	DB	065H
	DB	095H
	DB	05dH
	DB	034H
	DB	04dH
	DB	0b7H
	DB	05dH
	DB	0f8H
	DB	06dH
	DB	038H
	DB	076H
	DB	018H
	DB	06eH
	DB	0d7H
	DB	05dH
	DB	0b7H
	DB	065H
	DB	0b6H
	DB	05dH
	DB	0f8H
	DB	065H
	DB	018H
	DB	076H
	DB	077H
	DB	05dH
	DB	0d8H
	DB	06dH
	DB	0f3H
	DB	04cH
	DB	0d9H
	DB	05dH
	DB	0dcH
	DB	096H
	DB	0bcH
	DB	08eH
	DB	017H
	DB	086H
	DB	098H
	DB	02H
	DB	078H
	DB	02H
	DB	078H
	DB	0aH
	DB	078H
	DB	0aH
	DB	098H
	DB	0aH
	DB	098H
	DB	0aH
	DB	098H
	DB	0aH
	DB	098H
	DB	0aH
	DB	098H
	DB	0aH
	DB	0b8H
	DB	0aH
	DB	0b8H
	DB	0aH
	DB	0b8H
	DB	0aH
	DB	0b8H
	DB	0aH
	DB	0b8H
	DB	0aH
	DB	0d8H
	DB	0aH
	DB	0d8H
	DB	0aH
	DB	0b8H
	DB	012H
	DB	0b8H
	DB	0aH
	DB	0b8H
	DB	012H
	DB	0d8H
	DB	012H
	DB	0d9H
	DB	012H
	DB	0f9H
	DB	012H
	DB	0f9H
	DB	012H
	DB	0f9H
	DB	012H
	DB	0f9H
	DB	012H
	DB	0f9H
	DB	012H
	DB	0f9H
	DB	012H
	DB	0f9H
	DB	012H
	DB	0f9H
	DB	012H
	DB	0f9H
	DB	012H
	DB	0f9H
	DB	012H
	DB	019H
	DB	013H
	DB	019H
	DB	013H
	DB	019H
	DB	013H
	DB	01aH
	DB	01bH
	DB	0f9H
	DB	012H
	DB	01aH
	DB	01bH
	DB	019H
	DB	01bH
	DB	039H
	DB	01bH
	DB	039H
	DB	01bH
	DB	039H
	DB	01bH
	DB	039H
	DB	01bH
	DB	05aH
	DB	023H
	DB	05aH
	DB	023H
	DB	05aH
	DB	023H
	DB	07aH
	DB	023H
	DB	05aH
	DB	023H
	DB	05aH
	DB	023H
	DB	07aH
	DB	023H
	DB	07aH
	DB	023H
	DB	07aH
	DB	023H
	DB	09aH
	DB	023H
	DB	07aH
	DB	023H
	DB	09aH
	DB	023H
	DB	09aH
	DB	02bH
	DB	09aH
	DB	02bH
	DB	09aH
	DB	02bH
	DB	09bH
	DB	02bH
	DB	0bbH
	DB	02bH
	DB	09aH
	DB	02bH
	DB	0baH
	DB	033H
	DB	0baH
	DB	033H
	DB	0baH
	DB	033H
	DB	0baH
	DB	033H
	DB	0baH
	DB	03bH
	DB	0faH
	DB	043H
	DB	0faH
	DB	043H
	DB	01aH
	DB	054H
	DB	03aH
	DB	05cH
	DB	01aH
	DB	064H
	DB	059H
	DB	07cH
	DB	07cH
	DB	0b5H
	DB	03dH
	DB	0ceH
	DB	07eH
	DB	0d6H
	DB	0deH
	DB	0e6H
	DB	0dfH
	DB	0e6H
	DB	01dH
	DB	0ceH
	DB	01dH
	DB	0c6H
	DB	0ddH
	DB	0bdH
	DB	0dcH
	DB	0bdH
	DB	01eH
	DB	0ceH
	DB	03dH
	DB	0ceH
	DB	01dH
	DB	0c6H
	DB	0fdH
	DB	0bdH
	DB	09cH
	DB	0b5H
	DB	07cH
	DB	0adH
	DB	05cH
	DB	0a5H
	DB	0fbH
	DB	094H
	DB	0baH
	DB	07cH
	DB	05aH
	DB	06cH
	DB	039H
	DB	05cH
	DB	01aH
	DB	054H
	DB	0f9H
	DB	053H
	DB	0f9H
	DB	053H
	DB	0f9H
	DB	053H
	DB	0f9H
	DB	04bH
	DB	0f9H
	DB	04bH
	DB	0faH
	DB	04bH
	DB	0faH
	DB	04bH
	DB	0f9H
	DB	04bH
	DB	0d9H
	DB	04bH
	DB	0d9H
	DB	04bH
	DB	0d9H
	DB	04bH
	DB	0d9H
	DB	04bH
	DB	0f9H
	DB	04bH
	DB	0f9H
	DB	04bH
	DB	0d9H
	DB	04bH
	DB	0d9H
	DB	04bH
	DB	0f9H
	DB	04bH
	DB	0d9H
	DB	04bH
	DB	0d9H
	DB	04bH
	DB	0d9H
	DB	04bH
	DB	0d9H
	DB	04bH
	DB	0d9H
	DB	043H
	DB	0b9H
	DB	043H
	DB	0d9H
	DB	043H
	DB	0d9H
	DB	043H
	DB	0d9H
	DB	043H
	DB	0b9H
	DB	043H
	DB	0b9H
	DB	043H
	DB	0b9H
	DB	043H
	DB	0d9H
	DB	043H
	DB	0d9H
	DB	043H
	DB	0d9H
	DB	043H
	DB	0b9H
	DB	043H
	DB	0b8H
	DB	043H
	DB	0d8H
	DB	043H
	DB	0d8H
	DB	043H
	DB	0d8H
	DB	043H
	DB	0b8H
	DB	043H
	DB	097H
	DB	043H
	DB	0b3H
	DB	032H
	DB	02bH
	DB	019H
	DB	0cdH
	DB	03aH
	DB	07bH
	DB	096H
	DB	0bfH
	DB	0dfH
	DB	0ffH
	DB	0ffH
	DB	0ffH
	DB	0ffH
	DB	09fH
	DB	0f7H
	DB	0f9H
	DB	0c5H
	DB	0dcH
	DB	0e6H
	DB	0dcH
	DB	0deH
	DB	03aH
	DB	0beH
	DB	01aH
	DB	0aeH
	DB	03bH
	DB	0a6H
	DB	05cH
	DB	0a6H
	DB	05cH
	DB	09eH
	DB	07cH
	DB	09eH
	DB	09cH
	DB	09eH
	DB	05cH
	DB	09eH
	DB	0daH
	DB	085H
	DB	078H
	DB	075H
	DB	098H
	DB	075H
	DB	078H
	DB	06dH
	DB	0b8H
	DB	075H
	DB	099H
	DB	06dH
	DB	0d9H
	DB	075H
	DB	098H
	DB	065H
	DB	078H
	DB	065H
	DB	0fbH
	DB	075H
	DB	03cH
	DB	086H
	DB	0fbH
	DB	07dH
	DB	01bH
	DB	076H
	DB	01bH
	DB	06eH
	DB	01bH
	DB	076H
	DB	01bH
	DB	076H
	DB	01bH
	DB	076H
	DB	099H
	DB	065H
	DB	098H
	DB	05dH
	DB	0d9H
	DB	065H
	DB	0faH
	DB	06dH
	DB	0faH
	DB	06dH
	DB	0b9H
	DB	065H
	DB	0b9H
	DB	05dH
	DB	098H
	DB	05dH
	DB	098H
	DB	065H
	DB	0baH
	DB	065H
	DB	0d9H
	DB	065H
	DB	057H
	DB	055H
	DB	07bH
	DB	086H
	DB	0b8H
	DB	075H
	DB	016H
	DB	05dH
	DB	057H
	DB	04dH
	DB	077H
	DB	055H
	DB	097H
	DB	055H
	DB	097H
	DB	055H
	DB	0b8H
	DB	05dH
	DB	0f8H
	DB	05dH
	DB	0d8H
	DB	055H
	DB	055H
	DB	04dH
	DB	056H
	DB	045H
	DB	0f9H
	DB	06dH
	DB	056H
	DB	04dH
	DB	056H
	DB	045H
	DB	056H
	DB	045H
	DB	0f5H
	DB	03cH
	DB	036H
	DB	045H
	DB	0f5H
	DB	03cH
	DB	056H
	DB	045H
	DB	0f3H
	DB	02cH
	DB	035H
	DB	045H
	DB	093H
	DB	04cH
	DB	093H
	DB	044H
	DB	0b4H
	DB	044H
	DB	098H
	DB	05dH
	DB	098H
	DB	06dH
	DB	055H
	DB	04dH
	DB	0b1H
	DB	034H
	DB	072H
	DB	024H
	DB	055H
	DB	045H
	DB	014H
	DB	04dH
	DB	0d3H
	DB	04cH
	DB	0b4H
	DB	044H
	DB	056H
	DB	065H
	DB	0d3H
	DB	044H
	DB	019H
	DB	06eH
	DB	0f9H
	DB	075H
	DB	097H
	DB	065H
	DB	0f9H
	DB	075H
	DB	039H
	DB	08eH
	DB	076H
	DB	065H
	DB	097H
	DB	05dH
	DB	054H
	DB	055H
	DB	095H
	DB	05dH
	DB	0b7H
	DB	065H
	DB	039H
	DB	06eH
	DB	079H
	DB	076H
	DB	016H
	DB	06eH
	DB	074H
	DB	04dH
	DB	0d7H
	DB	055H
	DB	0f7H
	DB	065H
	DB	019H
	DB	06eH
	DB	018H
	DB	076H
	DB	076H
	DB	055H
	DB	0f7H
	DB	065H
	DB	0d2H
	DB	04cH
	DB	035H
	DB	04dH
	DB	0bcH
	DB	086H
	DB	0bcH
	DB	08eH
	DB	038H
	DB	08eH
	DB	078H
	DB	02H
	DB	078H
	DB	02H
	DB	078H
	DB	0aH
	DB	078H
	DB	0aH
	DB	098H
	DB	0aH
	DB	098H
	DB	0aH
	DB	0b8H
	DB	0aH
	DB	098H
	DB	0aH
	DB	098H
	DB	0aH
	DB	098H
	DB	0aH
	DB	0b8H
	DB	0aH
	DB	0b8H
	DB	0aH
	DB	0b8H
	DB	0aH
	DB	0b8H
	DB	0aH
	DB	0b8H
	DB	0aH
	DB	0d8H
	DB	0aH
	DB	0b8H
	DB	0aH
	DB	0b8H
	DB	0aH
	DB	0b8H
	DB	012H
	DB	0d9H
	DB	012H
	DB	0d8H
	DB	012H
	DB	0d9H
	DB	012H
	DB	0d9H
	DB	012H
	DB	0d9H
	DB	012H
	DB	0f9H
	DB	012H
	DB	0f9H
	DB	012H
	DB	0f9H
	DB	012H
	DB	019H
	DB	013H
	DB	0f9H
	DB	012H
	DB	0f9H
	DB	012H
	DB	0f9H
	DB	012H
	DB	0f9H
	DB	012H
	DB	019H
	DB	013H
	DB	019H
	DB	013H
	DB	019H
	DB	01bH
	DB	019H
	DB	013H
	DB	03aH
	DB	01bH
	DB	019H
	DB	01bH
	DB	039H
	DB	01bH
	DB	039H
	DB	01bH
	DB	03aH
	DB	01bH
	DB	05aH
	DB	01bH
	DB	05aH
	DB	01bH
	DB	05aH
	DB	01bH
	DB	07aH
	DB	023H
	DB	03aH
	DB	023H
	DB	05aH
	DB	023H
	DB	05aH
	DB	023H
	DB	07aH
	DB	023H
	DB	07aH
	DB	023H
	DB	07aH
	DB	023H
	DB	07aH
	DB	023H
	DB	07aH
	DB	023H
	DB	07aH
	DB	023H
	DB	09aH
	DB	02bH
	DB	09aH
	DB	02bH
	DB	09aH
	DB	02bH
	DB	09bH
	DB	02bH
	DB	09bH
	DB	02bH
	DB	0baH
	DB	02bH
	DB	0baH
	DB	033H
	DB	0baH
	DB	033H
	DB	0baH
	DB	033H
	DB	0dbH
	DB	03bH
	DB	0dbH
	DB	03bH
	DB	0faH
	DB	03bH
	DB	0fbH
	DB	043H
	DB	01aH
	DB	054H
	DB	03aH
	DB	05cH
	DB	03aH
	DB	064H
	DB	0dbH
	DB	08cH
	DB	0bdH
	DB	0bdH
	DB	03dH
	DB	0ceH
	DB	09eH
	DB	0deH
	DB	01fH
	DB	0efH
	DB	0dfH
	DB	0e6H
	DB	03dH
	DB	0ceH
	DB	0fdH
	DB	0c5H
	DB	0bcH
	DB	0bdH
	DB	0ddH
	DB	0c5H
	DB	01dH
	DB	0ceH
	DB	03dH
	DB	0c6H
	DB	0fdH
	DB	0c5H
	DB	0ddH
	DB	0bdH
	DB	0bcH
	DB	0b5H
	DB	07cH
	DB	0adH
	DB	03bH
	DB	09dH
	DB	01bH
	DB	095H
	DB	0baH
	DB	07cH
	DB	05aH
	DB	06cH
	DB	039H
	DB	05cH
	DB	019H
	DB	054H
	DB	0f9H
	DB	053H
	DB	019H
	DB	054H
	DB	0f9H
	DB	053H
	DB	0f9H
	DB	04bH
	DB	0f9H
	DB	04bH
	DB	01aH
	DB	04cH
	DB	01aH
	DB	04cH
	DB	0f9H
	DB	04bH
	DB	0f9H
	DB	04bH
	DB	0d9H
	DB	04bH
	DB	0d9H
	DB	04bH
	DB	0d9H
	DB	04bH
	DB	0f9H
	DB	04bH
	DB	0d9H
	DB	04bH
	DB	0d9H
	DB	04bH
	DB	0d9H
	DB	04bH
	DB	0d9H
	DB	04bH
	DB	0d9H
	DB	04bH
	DB	0d9H
	DB	04bH
	DB	0b9H
	DB	04bH
	DB	0d9H
	DB	04bH
	DB	0d9H
	DB	043H
	DB	0d9H
	DB	04bH
	DB	0d9H
	DB	04bH
	DB	0d9H
	DB	04bH
	DB	0b9H
	DB	04bH
	DB	0d9H
	DB	04bH
	DB	0b9H
	DB	043H
	DB	0b9H
	DB	043H
	DB	0b9H
	DB	043H
	DB	0d9H
	DB	043H
	DB	0d9H
	DB	043H
	DB	0d9H
	DB	043H
	DB	0d9H
	DB	04bH
	DB	0d8H
	DB	043H
	DB	0d9H
	DB	04bH
	DB	0b8H
	DB	043H
	DB	0b8H
	DB	043H
	DB	0b8H
	DB	043H
	DB	0d4H
	DB	032H
	DB	02bH
	DB	011H
	DB	0edH
	DB	03aH
	DB	05aH
	DB	096H
	DB	0bfH
	DB	0dfH
	DB	0ffH
	DB	0ffH
	DB	0ffH
	DB	0ffH
	DB	0bfH
	DB	0ffH
	DB	019H
	DB	0ceH
	DB	0dcH
	DB	0e6H
	DB	0dcH
	DB	0deH
	DB	05aH
	DB	0beH
	DB	03bH
	DB	0aeH
	DB	03bH
	DB	0a6H
	DB	05cH
	DB	0a6H
	DB	05cH
	DB	09eH
	DB	05cH
	DB	096H
	DB	07cH
	DB	09eH
	DB	05cH
	DB	09eH
	DB	0d9H
	DB	085H
	DB	0b8H
	DB	075H
	DB	098H
	DB	06dH
	DB	078H
	DB	06dH
	DB	0b9H
	DB	07dH
	DB	099H
	DB	075H
	DB	0b8H
	DB	075H
	DB	077H
	DB	065H
	DB	037H
	DB	05dH
	DB	0fbH
	DB	075H
	DB	07dH
	DB	086H
	DB	01bH
	DB	07eH
	DB	03bH
	DB	07eH
	DB	03bH
	DB	076H
	DB	03bH
	DB	07eH
	DB	01bH
	DB	06eH
	DB	05cH
	DB	07eH
	DB	0b9H
	DB	06dH
	DB	098H
	DB	065H
	DB	0faH
	DB	06dH
	DB	0faH
	DB	06dH
	DB	0d9H
	DB	065H
	DB	098H
	DB	05dH
	DB	0b9H
	DB	065H
	DB	098H
	DB	065H
	DB	099H
	DB	065H
	DB	0b9H
	DB	06dH
	DB	097H
	DB	065H
	DB	097H
	DB	05dH
	DB	09bH
	DB	086H
	DB	0b8H
	DB	06dH
	DB	036H
	DB	05dH
	DB	056H
	DB	055H
	DB	097H
	DB	05dH
	DB	077H
	DB	055H
	DB	098H
	DB	055H
	DB	0f8H
	DB	05dH
	DB	039H
	DB	06eH
	DB	076H
	DB	055H
	DB	034H
	DB	04dH
	DB	097H
	DB	055H
	DB	01aH
	DB	076H
	DB	036H
	DB	055H
	DB	056H
	DB	045H
	DB	0f5H
	DB	044H
	DB	0f4H
	DB	03cH
	DB	015H
	DB	045H
	DB	0d4H
	DB	03cH
	DB	0f4H
	DB	034H
	DB	013H
	DB	035H
	DB	035H
	DB	045H
	DB	014H
	DB	055H
	DB	0b3H
	DB	04cH
	DB	093H
	DB	044H
	DB	098H
	DB	05dH
	DB	098H
	DB	065H
	DB	014H
	DB	045H
	DB	0d1H
	DB	03cH
	DB	051H
	DB	024H
	DB	035H
	DB	03dH
	DB	055H
	DB	055H
	DB	0f4H
	DB	04cH
	DB	0d5H
	DB	04cH
	DB	077H
	DB	065H
	DB	0d3H
	DB	044H
	DB	019H
	DB	06eH
	DB	0b7H
	DB	06dH
	DB	0f8H
	DB	075H
	DB	0d8H
	DB	075H
	DB	0f9H
	DB	085H
	DB	056H
	DB	05dH
	DB	056H
	DB	055H
	DB	034H
	DB	04dH
	DB	0b6H
	DB	065H
	DB	0d8H
	DB	06dH
	DB	018H
	DB	06eH
	DB	058H
	DB	076H
	DB	094H
	DB	05dH
	DB	0d2H
	DB	034H
	DB	075H
	DB	045H
	DB	0f7H
	DB	05dH
	DB	019H
	DB	066H
	DB	0d7H
	DB	075H
	DB	055H
	DB	055H
	DB	0b7H
	DB	065H
	DB	0f3H
	DB	04cH
	DB	0f5H
	DB	03cH
	DB	09cH
	DB	07eH
	DB	0bcH
	DB	08eH
	DB	079H
	DB	096H
	DB	097H
	DB	02H
	DB	098H
	DB	0aH
	DB	077H
	DB	0aH
	DB	078H
	DB	0aH
	DB	098H
	DB	0aH
	DB	098H
	DB	0aH
	DB	098H
	DB	0aH
	DB	098H
	DB	0aH
	DB	0b8H
	DB	0aH
	DB	0b8H
	DB	0aH
	DB	098H
	DB	0aH
	DB	0b8H
	DB	0aH
	DB	0b8H
	DB	0aH
	DB	0b8H
	DB	0aH
	DB	0b8H
	DB	0aH
	DB	0b8H
	DB	0aH
	DB	0b8H
	DB	012H
	DB	0b8H
	DB	012H
	DB	0b8H
	DB	012H
	DB	0d8H
	DB	012H
	DB	0d9H
	DB	012H
	DB	0d9H
	DB	012H
	DB	0d9H
	DB	012H
	DB	0d9H
	DB	012H
	DB	0f9H
	DB	012H
	DB	0f9H
	DB	012H
	DB	0f9H
	DB	012H
	DB	019H
	DB	013H
	DB	019H
	DB	013H
	DB	0f9H
	DB	012H
	DB	019H
	DB	013H
	DB	0f9H
	DB	012H
	DB	0f9H
	DB	012H
	DB	019H
	DB	01bH
	DB	0f9H
	DB	012H
	DB	0f9H
	DB	012H
	DB	019H
	DB	01bH
	DB	039H
	DB	01bH
	DB	019H
	DB	01bH
	DB	03aH
	DB	01bH
	DB	03aH
	DB	01bH
	DB	03aH
	DB	01bH
	DB	05aH
	DB	023H
	DB	05aH
	DB	023H
	DB	05aH
	DB	023H
	DB	05aH
	DB	023H
	DB	05aH
	DB	023H
	DB	05aH
	DB	023H
	DB	07aH
	DB	023H
	DB	07aH
	DB	023H
	DB	07aH
	DB	023H
	DB	07aH
	DB	023H
	DB	07aH
	DB	023H
	DB	07aH
	DB	02bH
	DB	09aH
	DB	02bH
	DB	09aH
	DB	02bH
	DB	09bH
	DB	02bH
	DB	09aH
	DB	02bH
	DB	0baH
	DB	02bH
	DB	0baH
	DB	02bH
	DB	0baH
	DB	033H
	DB	09aH
	DB	033H
	DB	0baH
	DB	033H
	DB	0dbH
	DB	03bH
	DB	0fbH
	DB	03bH
	DB	0fbH
	DB	03bH
	DB	0faH
	DB	043H
	DB	01bH
	DB	04cH
	DB	03aH
	DB	05cH
	DB	03aH
	DB	064H
	DB	0dbH
	DB	09cH
	DB	01dH
	DB	0c6H
	DB	07eH
	DB	0d6H
	DB	0dfH
	DB	0deH
	DB	01fH
	DB	0efH
	DB	0beH
	DB	0deH
	DB	07eH
	DB	0d6H
	DB	01dH
	DB	0ceH
	DB	0fcH
	DB	0c5H
	DB	01cH
	DB	0ceH
	DB	03dH
	DB	0ceH
	DB	03dH
	DB	0ceH
	DB	01dH
	DB	0c6H
	DB	0ddH
	DB	0bdH
	DB	09cH
	DB	0b5H
	DB	07cH
	DB	0adH
	DB	03bH
	DB	09dH
	DB	0fbH
	DB	094H
	DB	09aH
	DB	07cH
	DB	05aH
	DB	064H
	DB	019H
	DB	05cH
	DB	019H
	DB	05cH
	DB	0f9H
	DB	053H
	DB	019H
	DB	054H
	DB	0f9H
	DB	053H
	DB	0f9H
	DB	04bH
	DB	0f9H
	DB	04bH
	DB	0f9H
	DB	04bH
	DB	0f9H
	DB	04bH
	DB	0f9H
	DB	04bH
	DB	0f9H
	DB	04bH
	DB	0f9H
	DB	04bH
	DB	0f9H
	DB	04bH
	DB	0d9H
	DB	04bH
	DB	0d9H
	DB	04bH
	DB	0d9H
	DB	04bH
	DB	0d9H
	DB	04bH
	DB	0d9H
	DB	04bH
	DB	0d9H
	DB	04bH
	DB	0d9H
	DB	04bH
	DB	0d9H
	DB	04bH
	DB	0d9H
	DB	04bH
	DB	0d9H
	DB	043H
	DB	0d9H
	DB	04bH
	DB	0b9H
	DB	04bH
	DB	0b9H
	DB	04bH
	DB	0d9H
	DB	04bH
	DB	0d9H
	DB	04bH
	DB	0d9H
	DB	04bH
	DB	0d9H
	DB	043H
	DB	0d9H
	DB	043H
	DB	0d9H
	DB	04bH
	DB	0b9H
	DB	043H
	DB	0d9H
	DB	043H
	DB	0d9H
	DB	04bH
	DB	0d9H
	DB	04bH
	DB	0d9H
	DB	043H
	DB	0d9H
	DB	04bH
	DB	0d8H
	DB	043H
	DB	0d8H
	DB	043H
	DB	0b7H
	DB	043H
	DB	0f4H
	DB	03aH
	DB	02cH
	DB	011H
	DB	0cdH
	DB	03aH
	DB	03aH
	DB	08eH
	DB	0dfH
	DB	0efH
	DB	0ffH
	DB	0ffH
	DB	0ffH
	DB	0ffH
	DB	0bfH
	DB	0ffH
	DB	03aH
	DB	0ceH
	DB	0bcH
	DB	0e6H
	DB	0bcH
	DB	0deH
	DB	07aH
	DB	0c6H
	DB	03bH
	DB	0b6H
	DB	03bH
	DB	0aeH
	DB	03bH
	DB	0a6H
	DB	03bH
	DB	09eH
	DB	05cH
	DB	096H
	DB	05cH
	DB	09eH
	DB	05cH
	DB	09eH
	DB	0b9H
	DB	085H
	DB	0b9H
	DB	075H
	DB	098H
	DB	06dH
	DB	078H
	DB	075H
	DB	0faH
	DB	085H
	DB	0daH
	DB	07dH
	DB	0d9H
	DB	07dH
	DB	078H
	DB	065H
	DB	057H
	DB	065H
	DB	0faH
	DB	075H
	DB	05cH
	DB	07eH
	DB	03bH
	DB	07eH
	DB	05bH
	DB	07eH
	DB	03bH
	DB	076H
	DB	03bH
	DB	07eH
	DB	0daH
	DB	06dH
	DB	03bH
	DB	076H
	DB	0b9H
	DB	06dH
	DB	0b9H
	DB	06dH
	DB	0b9H
	DB	05dH
	DB	0faH
	DB	06dH
	DB	0daH
	DB	06dH
	DB	078H
	DB	05dH
	DB	098H
	DB	065H
	DB	0b8H
	DB	06dH
	DB	0b9H
	DB	06dH
	DB	0b9H
	DB	06dH
	DB	01aH
	DB	076H
	DB	03aH
	DB	07eH
	DB	05bH
	DB	07eH
	DB	0d8H
	DB	06dH
	DB	016H
	DB	05dH
	DB	0b8H
	DB	05dH
	DB	0f8H
	DB	065H
	DB	077H
	DB	055H
	DB	0f8H
	DB	065H
	DB	0d9H
	DB	065H
	DB	01aH
	DB	06eH
	DB	055H
	DB	055H
	DB	076H
	DB	055H
	DB	019H
	DB	066H
	DB	09cH
	DB	096H
	DB	036H
	DB	05dH
	DB	097H
	DB	055H
	DB	055H
	DB	055H
	DB	014H
	DB	04dH
	DB	0f4H
	DB	044H
	DB	015H
	DB	045H
	DB	034H
	DB	03dH
	DB	013H
	DB	035H
	DB	014H
	DB	03dH
	DB	0b7H
	DB	065H
	DB	0d4H
	DB	054H
	DB	0b4H
	DB	044H
	DB	098H
	DB	05dH
	DB	077H
	DB	065H
	DB	014H
	DB	045H
	DB	0d1H
	DB	03cH
	DB	050H
	DB	024H
	DB	014H
	DB	03dH
	DB	035H
	DB	04dH
	DB	0d4H
	DB	04cH
	DB	0b4H
	DB	04cH
	DB	036H
	DB	05dH
	DB	0f4H
	DB	04cH
	DB	039H
	DB	07eH
	DB	077H
	DB	065H
	DB	0d8H
	DB	06dH
	DB	077H
	DB	065H
	DB	056H
	DB	065H
	DB	056H
	DB	05dH
	DB	036H
	DB	055H
	DB	036H
	DB	055H
	DB	0b7H
	DB	065H
	DB	0f8H
	DB	075H
	DB	018H
	DB	066H
	DB	0f6H
	DB	065H
	DB	073H
	DB	04dH
	DB	033H
	DB	045H
	DB	074H
	DB	045H
	DB	076H
	DB	045H
	DB	039H
	DB	06eH
	DB	07aH
	DB	08eH
	DB	075H
	DB	06dH
	DB	0d8H
	DB	065H
	DB	0f3H
	DB	054H
	DB	0d4H
	DB	03cH
	DB	05bH
	DB	076H
	DB	0bcH
	DB	08eH
	DB	099H
	DB	08eH
	DB	098H
	DB	02H
	DB	078H
	DB	0aH
	DB	078H
	DB	0aH
	DB	098H
	DB	0aH
	DB	098H
	DB	0aH
	DB	098H
	DB	0aH
	DB	098H
	DB	0aH
	DB	098H
	DB	0aH
	DB	098H
	DB	0aH
	DB	098H
	DB	0aH
	DB	098H
	DB	0aH
	DB	0b8H
	DB	0aH
	DB	0b8H
	DB	0aH
	DB	098H
	DB	0aH
	DB	0b8H
	DB	0aH
	DB	0b9H
	DB	012H
	DB	0b8H
	DB	0aH
	DB	0b8H
	DB	0aH
	DB	0b8H
	DB	012H
	DB	0d9H
	DB	012H
	DB	0d8H
	DB	012H
	DB	0d9H
	DB	012H
	DB	0d9H
	DB	012H
	DB	0d9H
	DB	012H
	DB	0f9H
	DB	012H
	DB	0f9H
	DB	012H
	DB	0f9H
	DB	012H
	DB	0f9H
	DB	012H
	DB	0f9H
	DB	012H
	DB	0f9H
	DB	012H
	DB	019H
	DB	013H
	DB	0f9H
	DB	012H
	DB	019H
	DB	01bH
	DB	019H
	DB	013H
	DB	019H
	DB	01bH
	DB	01aH
	DB	01bH
	DB	019H
	DB	01bH
	DB	019H
	DB	01bH
	DB	03aH
	DB	01bH
	DB	03aH
	DB	01bH
	DB	03aH
	DB	01bH
	DB	03aH
	DB	01bH
	DB	05aH
	DB	023H
	DB	05aH
	DB	023H
	DB	05aH
	DB	023H
	DB	05aH
	DB	023H
	DB	05aH
	DB	023H
	DB	05aH
	DB	023H
	DB	07aH
	DB	023H
	DB	07aH
	DB	023H
	DB	07aH
	DB	023H
	DB	07aH
	DB	023H
	DB	09aH
	DB	02bH
	DB	09aH
	DB	02bH
	DB	07aH
	DB	02bH
	DB	09aH
	DB	02bH
	DB	09bH
	DB	02bH
	DB	09aH
	DB	02bH
	DB	0baH
	DB	02bH
	DB	0bbH
	DB	033H
	DB	0bbH
	DB	033H
	DB	0baH
	DB	033H
	DB	0dbH
	DB	033H
	DB	0dbH
	DB	03bH
	DB	0fbH
	DB	03bH
	DB	0daH
	DB	03bH
	DB	0fbH
	DB	043H
	DB	01bH
	DB	04cH
	DB	03bH
	DB	054H
	DB	05aH
	DB	064H
	DB	07cH
	DB	0adH
	DB	03eH
	DB	0ceH
	DB	09eH
	DB	0deH
	DB	0ffH
	DB	0e6H
	DB	0ffH
	DB	0e6H
	DB	0beH
	DB	0deH
	DB	0bfH
	DB	0deH
	DB	09eH
	DB	0deH
	DB	07eH
	DB	0d6H
	DB	05dH
	DB	0d6H
	DB	05dH
	DB	0d6H
	DB	05dH
	DB	0ceH
	DB	01dH
	DB	0c6H
	DB	0dcH
	DB	0bdH
	DB	09cH
	DB	0b5H
	DB	07cH
	DB	0adH
	DB	03bH
	DB	09dH
	DB	01bH
	DB	095H
	DB	09aH
	DB	07cH
	DB	03aH
	DB	064H
	DB	019H
	DB	05cH
	DB	0f9H
	DB	053H
	DB	0f9H
	DB	053H
	DB	019H
	DB	054H
	DB	0f9H
	DB	053H
	DB	0faH
	DB	053H
	DB	0f9H
	DB	04bH
	DB	0f9H
	DB	04bH
	DB	0f9H
	DB	04bH
	DB	0f9H
	DB	04bH
	DB	0faH
	DB	04bH
	DB	0d9H
	DB	04bH
	DB	0f9H
	DB	04bH
	DB	0faH
	DB	04bH
	DB	0d9H
	DB	04bH
	DB	0d9H
	DB	04bH
	DB	0f9H
	DB	04bH
	DB	0d9H
	DB	04bH
	DB	0f9H
	DB	04bH
	DB	0d9H
	DB	04bH
	DB	0d9H
	DB	04bH
	DB	0d9H
	DB	04bH
	DB	0d9H
	DB	04bH
	DB	0d9H
	DB	04bH
	DB	0b9H
	DB	04bH
	DB	0b8H
	DB	04bH
	DB	0b9H
	DB	04bH
	DB	0d9H
	DB	04bH
	DB	0d9H
	DB	04bH
	DB	0d9H
	DB	04bH
	DB	0d9H
	DB	04bH
	DB	0d9H
	DB	04bH
	DB	0b9H
	DB	043H
	DB	0d9H
	DB	043H
	DB	0d9H
	DB	04bH
	DB	0d9H
	DB	04bH
	DB	0d9H
	DB	043H
	DB	0d9H
	DB	04bH
	DB	0d9H
	DB	04bH
	DB	0b8H
	DB	043H
	DB	097H
	DB	043H
	DB	0f4H
	DB	03aH
	DB	0ebH
	DB	010H
	DB	0adH
	DB	03aH
	DB	01aH
	DB	08eH
	DB	0dfH
	DB	0efH
	DB	0ffH
	DB	0ffH
	DB	0ffH
	DB	0ffH
	DB	0bfH
	DB	0ffH
	DB	03aH
	DB	0ceH
	DB	0bcH
	DB	0e6H
	DB	0bcH
	DB	0deH
	DB	07aH
	DB	0c6H
	DB	01aH
	DB	0aeH
	DB	03bH
	DB	0aeH
	DB	05cH
	DB	0a6H
	DB	05cH
	DB	09eH
	DB	07cH
	DB	09eH
	DB	07cH
	DB	09eH
	DB	09cH
	DB	0a6H
	DB	0f9H
	DB	08dH
	DB	0b8H
	DB	075H
	DB	098H
	DB	06dH
	DB	0b9H
	DB	075H
	DB	03bH
	DB	086H
	DB	0faH
	DB	085H
	DB	0d9H
	DB	07dH
	DB	0daH
	DB	07dH
	DB	077H
	DB	06dH
	DB	0faH
	DB	075H
	DB	01bH
	DB	07eH
	DB	03bH
	DB	07eH
	DB	05cH
	DB	07eH
	DB	07cH
	DB	086H
	DB	05cH
	DB	086H
	DB	0faH
	DB	075H
	DB	0faH
	DB	06dH
	DB	099H
	DB	06dH
	DB	0faH
	DB	075H
	DB	0b9H
	DB	065H
	DB	0d9H
	DB	065H
	DB	0d9H
	DB	06dH
	DB	098H
	DB	05dH
	DB	098H
	DB	065H
	DB	0d9H
	DB	06dH
	DB	0faH
	DB	075H
	DB	0b9H
	DB	06dH
	DB	01aH
	DB	06eH
	DB	0daH
	DB	065H
	DB	01aH
	DB	076H
	DB	098H
	DB	065H
	DB	016H
	DB	05dH
	DB	057H
	DB	04dH
	DB	096H
	DB	04dH
	DB	077H
	DB	055H
	DB	0f9H
	DB	065H
	DB	0d9H
	DB	065H
	DB	0d9H
	DB	065H
	DB	0b7H
	DB	05dH
	DB	0b7H
	DB	05dH
	DB	039H
	DB	06eH
	DB	0dcH
	DB	09eH
	DB	036H
	DB	05dH
	DB	0d8H
	DB	065H
	DB	018H
	DB	076H
	DB	055H
	DB	055H
	DB	036H
	DB	04dH
	DB	035H
	DB	045H
	DB	075H
	DB	04dH
	DB	034H
	DB	03dH
	DB	0f4H
	DB	034H
	DB	0b8H
	DB	055H
	DB	0b3H
	DB	04cH
	DB	0b4H
	DB	044H
	DB	078H
	DB	05dH
	DB	077H
	DB	065H
	DB	014H
	DB	04dH
	DB	04fH
	DB	02cH
	DB	070H
	DB	02cH
	DB	035H
	DB	045H
	DB	055H
	DB	055H
	DB	0f4H
	DB	04cH
	DB	0b4H
	DB	04cH
	DB	037H
	DB	065H
	DB	076H
	DB	065H
	DB	019H
	DB	07eH
	DB	076H
	DB	065H
	DB	096H
	DB	065H
	DB	077H
	DB	065H
	DB	015H
	DB	05dH
	DB	077H
	DB	065H
	DB	056H
	DB	05dH
	DB	077H
	DB	05dH
	DB	0b7H
	DB	05dH
	DB	019H
	DB	07eH
	DB	0f7H
	DB	065H
	DB	033H
	DB	04dH
	DB	033H
	DB	03dH
	DB	053H
	DB	045H
	DB	053H
	DB	03dH
	DB	075H
	DB	045H
	DB	0bcH
	DB	07eH
	DB	0bbH
	DB	09eH
	DB	0b7H
	DB	07dH
	DB	0b7H
	DB	065H
	DB	0f3H
	DB	054H
	DB	0b3H
	DB	03cH
	DB	0f9H
	DB	05dH
	DB	0bcH
	DB	096H
	DB	09aH
	DB	096H
	DB	098H
	DB	02H
	DB	078H
	DB	02H
	DB	078H
	DB	0aH
	DB	098H
	DB	0aH
	DB	098H
	DB	0aH
	DB	098H
	DB	0aH
	DB	098H
	DB	0aH
	DB	0b8H
	DB	0aH
	DB	098H
	DB	0aH
	DB	098H
	DB	0aH
	DB	098H
	DB	0aH
	DB	0b8H
	DB	0aH
	DB	0b8H
	DB	0aH
	DB	0b8H
	DB	0aH
	DB	0b8H
	DB	0aH
	DB	0b8H
	DB	0aH
	DB	0b8H
	DB	0aH
	DB	0d9H
	DB	012H
	DB	0d9H
	DB	012H
	DB	0b8H
	DB	012H
	DB	0d8H
	DB	012H
	DB	0d9H
	DB	012H
	DB	0d9H
	DB	012H
	DB	0f9H
	DB	012H
	DB	0f9H
	DB	012H
	DB	0f9H
	DB	012H
	DB	0f9H
	DB	012H
	DB	0f9H
	DB	012H
	DB	0f9H
	DB	012H
	DB	019H
	DB	013H
	DB	0f9H
	DB	012H
	DB	01aH
	DB	01bH
	DB	019H
	DB	013H
	DB	019H
	DB	013H
	DB	019H
	DB	013H
	DB	01aH
	DB	01bH
	DB	03aH
	DB	01bH
	DB	03aH
	DB	01bH
	DB	03aH
	DB	01bH
	DB	03aH
	DB	01bH
	DB	05aH
	DB	01bH
	DB	03aH
	DB	01bH
	DB	03aH
	DB	023H
	DB	05aH
	DB	023H
	DB	05aH
	DB	023H
	DB	05aH
	DB	023H
	DB	05aH
	DB	023H
	DB	05aH
	DB	023H
	DB	05aH
	DB	023H
	DB	05aH
	DB	023H
	DB	05aH
	DB	023H
	DB	05aH
	DB	023H
	DB	07aH
	DB	02bH
	DB	09bH
	DB	02bH
	DB	09aH
	DB	02bH
	DB	09aH
	DB	02bH
	DB	09aH
	DB	02bH
	DB	0baH
	DB	02bH
	DB	0baH
	DB	02bH
	DB	0bbH
	DB	033H
	DB	0bbH
	DB	033H
	DB	0bbH
	DB	033H
	DB	0dbH
	DB	033H
	DB	0fbH
	DB	03bH
	DB	0dbH
	DB	03bH
	DB	0dbH
	DB	043H
	DB	0fbH
	DB	043H
	DB	01aH
	DB	04cH
	DB	01aH
	DB	05cH
	DB	059H
	DB	074H
	DB	07bH
	DB	0b5H
	DB	05eH
	DB	0d6H
	DB	0beH
	DB	0deH
	DB	01fH
	DB	0efH
	DB	0ffH
	DB	0e6H
	DB	0beH
	DB	0deH
	DB	0dfH
	DB	0e6H
	DB	0beH
	DB	0deH
	DB	0bfH
	DB	0e6H
	DB	0beH
	DB	0deH
	DB	07eH
	DB	0d6H
	DB	07eH
	DB	0d6H
	DB	03dH
	DB	0ceH
	DB	0dcH
	DB	0bdH
	DB	09cH
	DB	0b5H
	DB	07cH
	DB	0adH
	DB	03bH
	DB	0a5H
	DB	0fbH
	DB	094H
	DB	09aH
	DB	074H
	DB	039H
	DB	064H
	DB	019H
	DB	05cH
	DB	019H
	DB	05cH
	DB	0f9H
	DB	053H
	DB	01aH
	DB	054H
	DB	01aH
	DB	054H
	DB	01aH
	DB	054H
	DB	01aH
	DB	04cH
	DB	0f9H
	DB	04bH
	DB	0f9H
	DB	04bH
	DB	0f9H
	DB	04bH
	DB	0f9H
	DB	04bH
	DB	0d9H
	DB	04bH
	DB	0faH
	DB	04bH
	DB	0f9H
	DB	04bH
	DB	0d9H
	DB	04bH
	DB	0d9H
	DB	04bH
	DB	0f9H
	DB	04bH
	DB	0d9H
	DB	04bH
	DB	0d9H
	DB	04bH
	DB	0faH
	DB	04bH
	DB	0d9H
	DB	04bH
	DB	0d9H
	DB	04bH
	DB	0d9H
	DB	04bH
	DB	0d9H
	DB	04bH
	DB	0d9H
	DB	04bH
	DB	0d9H
	DB	04bH
	DB	0d9H
	DB	053H
	DB	0d9H
	DB	053H
	DB	0d9H
	DB	04bH
	DB	0d9H
	DB	04bH
	DB	0d9H
	DB	04bH
	DB	0d9H
	DB	04bH
	DB	0d9H
	DB	04bH
	DB	0d8H
	DB	043H
	DB	0d8H
	DB	04bH
	DB	0b8H
	DB	043H
	DB	0d8H
	DB	043H
	DB	0d8H
	DB	04bH
	DB	0d9H
	DB	04bH
	DB	0b8H
	DB	04bH
	DB	097H
	DB	043H
	DB	0f4H
	DB	03aH
	DB	02cH
	DB	011H
	DB	0cdH
	DB	03aH
	DB	0f9H
	DB	08dH
	DB	0dfH
	DB	0efH
	DB	0ffH
	DB	0ffH
	DB	0dfH
	DB	0ffH
	DB	0bfH
	DB	0ffH
	DB	03aH
	DB	0ceH
	DB	09bH
	DB	0deH
	DB	0bcH
	DB	0e6H
	DB	07bH
	DB	0ceH
	DB	03bH
	DB	0b6H
	DB	03bH
	DB	0aeH
	DB	07cH
	DB	0aeH
	DB	07cH
	DB	0a6H
	DB	07cH
	DB	0a6H
	DB	07cH
	DB	09eH
	DB	07cH
	DB	09eH
	DB	0faH
	DB	085H
	DB	0b8H
	DB	075H
	DB	098H
	DB	06dH
	DB	098H
	DB	075H
	DB	01aH
	DB	086H
	DB	0faH
	DB	085H
	DB	0daH
	DB	07dH
	DB	0faH
	DB	07dH
	DB	097H
	DB	06dH
	DB	0faH
	DB	075H
	DB	01bH
	DB	07eH
	DB	03bH
	DB	07eH
	DB	05cH
	DB	076H
	DB	07cH
	DB	07eH
	DB	03bH
	DB	076H
	DB	0fbH
	DB	06dH
	DB	0fbH
	DB	06dH
	DB	099H
	DB	06dH
	DB	0faH
	DB	075H
	DB	0d9H
	DB	05dH
	DB	0d9H
	DB	065H
	DB	0d9H
	DB	06dH
	DB	098H
	DB	05dH
	DB	077H
	DB	05dH
	DB	0d9H
	DB	06dH
	DB	0d9H
	DB	06dH
	DB	098H
	DB	06dH
	DB	098H
	DB	05dH
	DB	077H
	DB	05dH
	DB	076H
	DB	04dH
	DB	057H
	DB	055H
	DB	017H
	DB	05dH
	DB	036H
	DB	04dH
	DB	015H
	DB	045H
	DB	057H
	DB	055H
	DB	0b8H
	DB	05dH
	DB	0b8H
	DB	065H
	DB	077H
	DB	05dH
	DB	0b7H
	DB	05dH
	DB	0f8H
	DB	065H
	DB	019H
	DB	066H
	DB	03aH
	DB	07eH
	DB	057H
	DB	05dH
	DB	0b8H
	DB	055H
	DB	05aH
	DB	076H
	DB	0b7H
	DB	05dH
	DB	056H
	DB	04dH
	DB	0f5H
	DB	03cH
	DB	076H
	DB	045H
	DB	034H
	DB	03dH
	DB	0f4H
	DB	034H
	DB	036H
	DB	045H
	DB	0f4H
	DB	044H
	DB	0d4H
	DB	044H
	DB	077H
	DB	05dH
	DB	0b8H
	DB	06dH
	DB	035H
	DB	055H
	DB	0d1H
	DB	044H
	DB	0f1H
	DB	03cH
	DB	076H
	DB	04dH
	DB	075H
	DB	05dH
	DB	0f3H
	DB	054H
	DB	0d4H
	DB	044H
	DB	098H
	DB	06dH
	DB	0d8H
	DB	075H
	DB	098H
	DB	065H
	DB	097H
	DB	065H
	DB	076H
	DB	05dH
	DB	0b8H
	DB	06dH
	DB	056H
	DB	05dH
	DB	0b7H
	DB	065H
	DB	076H
	DB	065H
	DB	077H
	DB	05dH
	DB	076H
	DB	055H
	DB	01aH
	DB	076H
	DB	094H
	DB	055H
	DB	0f2H
	DB	044H
	DB	053H
	DB	045H
	DB	033H
	DB	045H
	DB	053H
	DB	045H
	DB	096H
	DB	04dH
	DB	07bH
	DB	076H
	DB	0dcH
	DB	09eH
	DB	0d7H
	DB	07dH
	DB	0b7H
	DB	06dH
	DB	055H
	DB	065H
	DB	093H
	DB	03cH
	DB	0f9H
	DB	065H
	DB	0fdH
	DB	096H
	DB	05aH
	DB	086H
	DB	078H
	DB	02H
	DB	078H
	DB	02H
	DB	078H
	DB	02H
	DB	098H
	DB	0aH
	DB	098H
	DB	0aH
	DB	098H
	DB	0aH
	DB	098H
	DB	0aH
	DB	098H
	DB	0aH
	DB	098H
	DB	0aH
	DB	098H
	DB	0aH
	DB	098H
	DB	0aH
	DB	098H
	DB	0aH
	DB	0b8H
	DB	0aH
	DB	0b8H
	DB	0aH
	DB	0b8H
	DB	0aH
	DB	0b8H
	DB	0aH
	DB	0b8H
	DB	0aH
	DB	0d8H
	DB	0aH
	DB	0d8H
	DB	012H
	DB	0d9H
	DB	012H
	DB	0d9H
	DB	012H
	DB	0d9H
	DB	012H
	DB	0f9H
	DB	012H
	DB	0f9H
	DB	012H
	DB	0f9H
	DB	012H
	DB	0f9H
	DB	012H
	DB	0f9H
	DB	012H
	DB	0f9H
	DB	012H
	DB	0f9H
	DB	012H
	DB	019H
	DB	013H
	DB	019H
	DB	013H
	DB	019H
	DB	013H
	DB	03aH
	DB	013H
	DB	019H
	DB	013H
	DB	03aH
	DB	01bH
	DB	01aH
	DB	01bH
	DB	01aH
	DB	01bH
	DB	03aH
	DB	01bH
	DB	01aH
	DB	01bH
	DB	05aH
	DB	01bH
	DB	039H
	DB	01bH
	DB	03aH
	DB	023H
	DB	03aH
	DB	023H
	DB	05aH
	DB	023H
	DB	05aH
	DB	023H
	DB	03aH
	DB	023H
	DB	05aH
	DB	023H
	DB	05aH
	DB	023H
	DB	07aH
	DB	023H
	DB	07aH
	DB	023H
	DB	07aH
	DB	023H
	DB	07aH
	DB	02bH
	DB	09aH
	DB	02bH
	DB	09bH
	DB	02bH
	DB	09bH
	DB	02bH
	DB	09aH
	DB	02bH
	DB	09bH
	DB	02bH
	DB	0bbH
	DB	033H
	DB	0bbH
	DB	033H
	DB	0bbH
	DB	033H
	DB	0dbH
	DB	033H
	DB	0dbH
	DB	033H
	DB	0dbH
	DB	03bH
	DB	0dbH
	DB	03bH
	DB	0dbH
	DB	03bH
	DB	0faH
	DB	043H
	DB	0faH
	DB	04bH
	DB	01aH
	DB	054H
	DB	039H
	DB	074H
	DB	01bH
	DB	0adH
	DB	03dH
	DB	0d6H
	DB	09fH
	DB	0deH
	DB	0deH
	DB	0e6H
	DB	01fH
	DB	0efH
	DB	0dfH
	DB	0e6H
	DB	0beH
	DB	0deH
	DB	0deH
	DB	0e6H
	DB	0dfH
	DB	0e6H
	DB	0dfH
	DB	0e6H
	DB	0beH
	DB	0deH
	DB	07eH
	DB	0deH
	DB	05dH
	DB	0d6H
	DB	01dH
	DB	0c6H
	DB	0ddH
	DB	0bdH
	DB	0bcH
	DB	0b5H
	DB	07cH
	DB	0adH
	DB	03bH
	DB	0a5H
	DB	0fbH
	DB	094H
	DB	09aH
	DB	07cH
	DB	05aH
	DB	064H
	DB	019H
	DB	05cH
	DB	019H
	DB	054H
	DB	01aH
	DB	054H
	DB	01aH
	DB	054H
	DB	019H
	DB	054H
	DB	0f9H
	DB	053H
	DB	01aH
	DB	04cH
	DB	01aH
	DB	04cH
	DB	0f9H
	DB	04bH
	DB	0f9H
	DB	04bH
	DB	0f9H
	DB	04bH
	DB	0f9H
	DB	04bH
	DB	0f9H
	DB	04bH
	DB	0f9H
	DB	04bH
	DB	0f9H
	DB	053H
	DB	0d9H
	DB	053H
	DB	0d9H
	DB	04bH
	DB	0d9H
	DB	04bH
	DB	0d9H
	DB	04bH
	DB	0f9H
	DB	04bH
	DB	0f9H
	DB	04bH
	DB	0d9H
	DB	04bH
	DB	0d9H
	DB	043H
	DB	0d9H
	DB	04bH
	DB	0d9H
	DB	04bH
	DB	0d9H
	DB	053H
	DB	0d9H
	DB	053H
	DB	0d9H
	DB	053H
	DB	0d9H
	DB	04bH
	DB	0d9H
	DB	04bH
	DB	0d9H
	DB	04bH
	DB	0d9H
	DB	04bH
	DB	0d9H
	DB	04bH
	DB	0d9H
	DB	043H
	DB	0b9H
	DB	043H
	DB	0d8H
	DB	04bH
	DB	0d9H
	DB	04bH
	DB	0d8H
	DB	043H
	DB	0b8H
	DB	043H
	DB	0d8H
	DB	04bH
	DB	0b7H
	DB	043H
	DB	014H
	DB	03bH
	DB	02bH
	DB	011H
	DB	0aeH
	DB	032H
	DB	0b8H
	DB	08dH
	DB	0ffH
	DB	0efH
	DB	0ffH
	DB	0ffH
	DB	0dfH
	DB	0ffH
	DB	0bfH
	DB	0ffH
	DB	03aH
	DB	0ceH
	DB	09cH
	DB	0deH
	DB	0dcH
	DB	0e6H
	DB	07aH
	DB	0ceH
	DB	03aH
	DB	0b6H
	DB	03bH
	DB	0aeH
	DB	05bH
	DB	0a6H
	DB	07cH
	DB	0a6H
	DB	07cH
	DB	0a6H
	DB	05cH
	DB	09eH
	DB	03bH
	DB	096H
	DB	0b9H
	DB	085H
	DB	0b8H
	DB	075H
	DB	077H
	DB	06dH
	DB	098H
	DB	075H
	DB	01aH
	DB	086H
	DB	0daH
	DB	07dH
	DB	0faH
	DB	07dH
	DB	0d9H
	DB	075H
	DB	0b8H
	DB	06dH
	DB	01aH
	DB	076H
	DB	0fbH
	DB	07dH
	DB	03bH
	DB	07eH
	DB	0daH
	DB	06dH
	DB	03cH
	DB	076H
	DB	03bH
	DB	07eH
	DB	01bH
	DB	076H
	DB	0faH
	DB	075H
	DB	099H
	DB	06dH
	DB	0d9H
	DB	065H
	DB	0f9H
	DB	05dH
	DB	0faH
	DB	065H
	DB	0b9H
	DB	065H
	DB	098H
	DB	065H
	DB	037H
	DB	04dH
	DB	057H
	DB	055H
	DB	0faH
	DB	075H
	DB	098H
	DB	06dH
	DB	097H
	DB	05dH
	DB	057H
	DB	05dH
	DB	0f4H
	DB	044H
	DB	036H
	DB	055H
	DB	017H
	DB	05dH
	DB	015H
	DB	04dH
	DB	015H
	DB	045H
	DB	057H
	DB	055H
	DB	077H
	DB	05dH
	DB	077H
	DB	05dH
	DB	0d9H
	DB	06dH
	DB	0b8H
	DB	05dH
	DB	0f8H
	DB	065H
	DB	0f8H
	DB	05dH
	DB	0d9H
	DB	06dH
	DB	077H
	DB	05dH
	DB	077H
	DB	055H
	DB	03aH
	DB	06eH
	DB	0b7H
	DB	05dH
	DB	015H
	DB	045H
	DB	0d4H
	DB	03cH
	DB	014H
	DB	035H
	DB	033H
	DB	03dH
	DB	0b2H
	DB	034H
	DB	015H
	DB	035H
	DB	035H
	DB	04dH
	DB	0f5H
	DB	04cH
	DB	077H
	DB	05dH
	DB	0b8H
	DB	05dH
	DB	057H
	DB	055H
	DB	0d5H
	DB	05dH
	DB	075H
	DB	055H
	DB	075H
	DB	055H
	DB	076H
	DB	055H
	DB	0f3H
	DB	04cH
	DB	0f5H
	DB	04cH
	DB	0b8H
	DB	065H
	DB	0b8H
	DB	065H
	DB	036H
	DB	05dH
	DB	036H
	DB	055H
	DB	076H
	DB	055H
	DB	097H
	DB	05dH
	DB	0b7H
	DB	065H
	DB	096H
	DB	065H
	DB	035H
	DB	05dH
	DB	077H
	DB	05dH
	DB	036H
	DB	04dH
	DB	0d8H
	DB	06dH
	DB	033H
	DB	04dH
	DB	013H
	DB	045H
	DB	095H
	DB	055H
	DB	013H
	DB	045H
	DB	054H
	DB	045H
	DB	054H
	DB	045H
	DB	019H
	DB	05eH
	DB	0ddH
	DB	09eH
	DB	0d7H
	DB	085H
	DB	0d7H
	DB	06dH
	DB	095H
	DB	07dH
	DB	0b3H
	DB	03cH
	DB	0d8H
	DB	055H
	DB	0dcH
	DB	096H
	DB	039H
	DB	07eH
	DB	078H
	DB	02H
	DB	098H
	DB	02H
	DB	098H
	DB	0aH
	DB	098H
	DB	0aH
	DB	098H
	DB	0aH
	DB	098H
	DB	0aH
	DB	098H
	DB	0aH
	DB	098H
	DB	0aH
	DB	098H
	DB	0aH
	DB	098H
	DB	0aH
	DB	098H
	DB	0aH
	DB	0b8H
	DB	0aH
	DB	0b8H
	DB	0aH
	DB	0b8H
	DB	0aH
	DB	0b8H
	DB	0aH
	DB	0b8H
	DB	0aH
	DB	0b8H
	DB	0aH
	DB	0d9H
	DB	012H
	DB	0d9H
	DB	012H
	DB	0d9H
	DB	012H
	DB	0d9H
	DB	012H
	DB	0d9H
	DB	012H
	DB	0f9H
	DB	012H
	DB	0d9H
	DB	012H
	DB	0f9H
	DB	012H
	DB	0d9H
	DB	012H
	DB	0f9H
	DB	012H
	DB	0f9H
	DB	012H
	DB	0f9H
	DB	012H
	DB	01aH
	DB	01bH
	DB	0f9H
	DB	012H
	DB	019H
	DB	013H
	DB	019H
	DB	013H
	DB	019H
	DB	01bH
	DB	019H
	DB	013H
	DB	03aH
	DB	01bH
	DB	03aH
	DB	01bH
	DB	03aH
	DB	01bH
	DB	03aH
	DB	01bH
	DB	03aH
	DB	01bH
	DB	039H
	DB	01bH
	DB	03aH
	DB	023H
	DB	05aH
	DB	023H
	DB	05aH
	DB	023H
	DB	05aH
	DB	023H
	DB	05aH
	DB	023H
	DB	07aH
	DB	023H
	DB	07aH
	DB	02bH
	DB	07aH
	DB	023H
	DB	07aH
	DB	023H
	DB	09aH
	DB	023H
	DB	09aH
	DB	02bH
	DB	09aH
	DB	02bH
	DB	09aH
	DB	02bH
	DB	09aH
	DB	02bH
	DB	09aH
	DB	02bH
	DB	09aH
	DB	02bH
	DB	0bbH
	DB	033H
	DB	0bbH
	DB	033H
	DB	0bbH
	DB	033H
	DB	0dbH
	DB	033H
	DB	0dbH
	DB	033H
	DB	0dbH
	DB	03bH
	DB	0dbH
	DB	03bH
	DB	0dbH
	DB	03bH
	DB	0fbH
	DB	043H
	DB	0fbH
	DB	04bH
	DB	03bH
	DB	054H
	DB	07aH
	DB	084H
	DB	03eH
	DB	0d6H
	DB	09fH
	DB	0deH
	DB	0beH
	DB	0deH
	DB	0ffH
	DB	0e6H
	DB	01fH
	DB	0efH
	DB	09eH
	DB	0deH
	DB	09fH
	DB	0deH
	DB	0dfH
	DB	0e6H
	DB	0dfH
	DB	0e6H
	DB	0bfH
	DB	0deH
	DB	0bfH
	DB	0deH
	DB	09eH
	DB	0d6H
	DB	05dH
	DB	0ceH
	DB	01dH
	DB	0c6H
	DB	0fdH
	DB	0c5H
	DB	0bcH
	DB	0b5H
	DB	07cH
	DB	0adH
	DB	05bH
	DB	0a5H
	DB	0faH
	DB	094H
	DB	07aH
	DB	074H
	DB	039H
	DB	064H
	DB	019H
	DB	05cH
	DB	019H
	DB	054H
	DB	01aH
	DB	054H
	DB	0f9H
	DB	053H
	DB	019H
	DB	054H
	DB	0f9H
	DB	053H
	DB	01aH
	DB	054H
	DB	019H
	DB	04cH
	DB	0f9H
	DB	04bH
	DB	0f9H
	DB	04bH
	DB	0f9H
	DB	04bH
	DB	0f9H
	DB	04bH
	DB	0f9H
	DB	04bH
	DB	0f9H
	DB	04bH
	DB	0f9H
	DB	053H
	DB	0d9H
	DB	053H
	DB	0f9H
	DB	04bH
	DB	0d9H
	DB	04bH
	DB	0d9H
	DB	04bH
	DB	0f9H
	DB	04bH
	DB	0d9H
	DB	04bH
	DB	0d9H
	DB	04bH
	DB	0f9H
	DB	04bH
	DB	0d9H
	DB	04bH
	DB	0d9H
	DB	04bH
	DB	0f9H
	DB	053H
	DB	0d9H
	DB	053H
	DB	0d9H
	DB	053H
	DB	0d9H
	DB	04bH
	DB	0d9H
	DB	04bH
	DB	0d9H
	DB	04bH
	DB	0d9H
	DB	04bH
	DB	0d9H
	DB	04bH
	DB	0d9H
	DB	04bH
	DB	0d9H
	DB	04bH
	DB	0d9H
	DB	04bH
	DB	0d8H
	DB	043H
	DB	0d8H
	DB	043H
	DB	0d8H
	DB	04bH
	DB	0b8H
	DB	043H
	DB	098H
	DB	043H
	DB	035H
	DB	03bH
	DB	02bH
	DB	011H
	DB	04dH
	DB	032H
	DB	098H
	DB	08dH
	DB	0dfH
	DB	0f7H
	DB	0ffH
	DB	0ffH
	DB	0dfH
	DB	0ffH
	DB	0beH
	DB	0ffH
	DB	03aH
	DB	0ceH
	DB	09bH
	DB	0deH
	DB	0dcH
	DB	0e6H
	DB	07bH
	DB	0d6H
	DB	05aH
	DB	0b6H
	DB	01bH
	DB	0aeH
	DB	05bH
	DB	0aeH
	DB	05cH
	DB	0a6H
	DB	05bH
	DB	09eH
	DB	07cH
	DB	09eH
	DB	05cH
	DB	096H
	DB	0b9H
	DB	085H
	DB	0b8H
	DB	07dH
	DB	077H
	DB	06dH
	DB	0b9H
	DB	07dH
	DB	0faH
	DB	08dH
	DB	0faH
	DB	085H
	DB	0b9H
	DB	07dH
	DB	0b9H
	DB	075H
	DB	098H
	DB	06dH
	DB	0faH
	DB	075H
	DB	01bH
	DB	07eH
	DB	01bH
	DB	07eH
	DB	0daH
	DB	075H
	DB	0fbH
	DB	075H
	DB	07cH
	DB	086H
	DB	09cH
	DB	08eH
	DB	0faH
	DB	075H
	DB	0b9H
	DB	075H
	DB	0d9H
	DB	05dH
	DB	0f9H
	DB	05dH
	DB	0faH
	DB	065H
	DB	099H
	DB	065H
	DB	0d9H
	DB	06dH
	DB	0d4H
	DB	044H
	DB	0f6H
	DB	04cH
	DB	0dbH
	DB	075H
	DB	0b9H
	DB	075H
	DB	077H
	DB	05dH
	DB	057H
	DB	05dH
	DB	014H
	DB	045H
	DB	077H
	DB	055H
	DB	037H
	DB	065H
	DB	036H
	DB	055H
	DB	076H
	DB	055H
	DB	036H
	DB	055H
	DB	077H
	DB	05dH
	DB	077H
	DB	05dH
	DB	0b8H
	DB	065H
	DB	077H
	DB	055H
	DB	0d7H
	DB	05dH
	DB	0d8H
	DB	05dH
	DB	0b9H
	DB	065H
	DB	0b8H
	DB	065H
	DB	035H
	DB	04dH
	DB	0d9H
	DB	05dH
	DB	096H
	DB	055H
	DB	0f4H
	DB	044H
	DB	0f4H
	DB	03cH
	DB	014H
	DB	03dH
	DB	095H
	DB	04dH
	DB	013H
	DB	03dH
	DB	0d4H
	DB	034H
	DB	076H
	DB	055H
	DB	077H
	DB	05dH
	DB	077H
	DB	065H
	DB	035H
	DB	04dH
	DB	077H
	DB	055H
	DB	0f8H
	DB	06dH
	DB	038H
	DB	076H
	DB	075H
	DB	05dH
	DB	076H
	DB	055H
	DB	014H
	DB	04dH
	DB	015H
	DB	04dH
	DB	077H
	DB	065H
	DB	057H
	DB	05dH
	DB	0f5H
	DB	04cH
	DB	0b4H
	DB	03cH
	DB	056H
	DB	04dH
	DB	077H
	DB	05dH
	DB	0d8H
	DB	06dH
	DB	035H
	DB	055H
	DB	016H
	DB	055H
	DB	036H
	DB	055H
	DB	015H
	DB	04dH
	DB	0b8H
	DB	06dH
	DB	013H
	DB	045H
	DB	013H
	DB	03dH
	DB	054H
	DB	045H
	DB	054H
	DB	045H
	DB	054H
	DB	045H
	DB	054H
	DB	045H
	DB	0d8H
	DB	055H
	DB	0ddH
	DB	096H
	DB	0b6H
	DB	07dH
	DB	018H
	DB	076H
	DB	017H
	DB	096H
	DB	0d4H
	DB	04cH
	DB	097H
	DB	055H
	DB	039H
	DB	07eH
	DB	039H
	DB	07eH
	DB	098H
	DB	02H
	DB	098H
	DB	02H
	DB	078H
	DB	02H
	DB	098H
	DB	0aH
	DB	0b8H
	DB	0aH
	DB	098H
	DB	0aH
	DB	098H
	DB	0aH
	DB	098H
	DB	0aH
	DB	098H
	DB	0aH
	DB	098H
	DB	0aH
	DB	098H
	DB	0aH
	DB	0b8H
	DB	0aH
	DB	0b8H
	DB	0aH
	DB	0b8H
	DB	0aH
	DB	0b8H
	DB	0aH
	DB	0b8H
	DB	0aH
	DB	0d8H
	DB	0aH
	DB	0d9H
	DB	012H
	DB	0d9H
	DB	012H
	DB	0d9H
	DB	012H
	DB	0d9H
	DB	012H
	DB	0d9H
	DB	012H
	DB	0d9H
	DB	012H
	DB	0f9H
	DB	012H
	DB	0d9H
	DB	012H
	DB	0d9H
	DB	012H
	DB	0f9H
	DB	012H
	DB	0f9H
	DB	012H
	DB	0f9H
	DB	012H
	DB	01aH
	DB	01bH
	DB	019H
	DB	01bH
	DB	01aH
	DB	01bH
	DB	019H
	DB	01bH
	DB	01aH
	DB	01bH
	DB	019H
	DB	01bH
	DB	019H
	DB	01bH
	DB	01aH
	DB	01bH
	DB	03aH
	DB	01bH
	DB	03aH
	DB	01bH
	DB	03aH
	DB	01bH
	DB	03aH
	DB	01bH
	DB	03aH
	DB	023H
	DB	05aH
	DB	023H
	DB	05aH
	DB	023H
	DB	07aH
	DB	023H
	DB	05aH
	DB	023H
	DB	07aH
	DB	023H
	DB	07aH
	DB	02bH
	DB	07aH
	DB	023H
	DB	07aH
	DB	023H
	DB	07aH
	DB	023H
	DB	09aH
	DB	02bH
	DB	09aH
	DB	02bH
	DB	09aH
	DB	02bH
	DB	09aH
	DB	02bH
	DB	0bbH
	DB	02bH
	DB	0bbH
	DB	02bH
	DB	0bbH
	DB	033H
	DB	0bbH
	DB	033H
	DB	0baH
	DB	033H
	DB	0bbH
	DB	033H
	DB	0dbH
	DB	03bH
	DB	0dbH
	DB	03bH
	DB	0fbH
	DB	03bH
	DB	0dbH
	DB	043H
	DB	0faH
	DB	04bH
	DB	0faH
	DB	053H
	DB	03aH
	DB	06cH
	DB	0faH
	DB	0a4H
	DB	0bfH
	DB	0e6H
	DB	0dfH
	DB	0e6H
	DB	0deH
	DB	0e6H
	DB	01fH
	DB	0efH
	DB	01fH
	DB	0efH
	DB	09eH
	DB	0deH
	DB	09eH
	DB	0deH
	DB	0dfH
	DB	0deH
	DB	0dfH
	DB	0e6H
	DB	0bfH
	DB	0deH
	DB	09eH
	DB	0d6H
	DB	07eH
	DB	0d6H
	DB	03dH
	DB	0ceH
	DB	0fdH
	DB	0c5H
	DB	0fdH
	DB	0c5H
	DB	0bcH
	DB	0bdH
	DB	09cH
	DB	0b5H
	DB	05bH
	DB	0a5H
	DB	0fbH
	DB	094H
	DB	07aH
	DB	074H
	DB	039H
	DB	064H
	DB	019H
	DB	05cH
	DB	019H
	DB	054H
	DB	0f9H
	DB	053H
	DB	019H
	DB	054H
	DB	019H
	DB	054H
	DB	0f9H
	DB	053H
	DB	019H
	DB	04cH
	DB	0f9H
	DB	04bH
	DB	0f9H
	DB	04bH
	DB	019H
	DB	04cH
	DB	0f9H
	DB	04bH
	DB	0f9H
	DB	04bH
	DB	0f9H
	DB	04bH
	DB	0f9H
	DB	053H
	DB	0f9H
	DB	053H
	DB	0d9H
	DB	053H
	DB	0f9H
	DB	04bH
	DB	0d9H
	DB	04bH
	DB	0d9H
	DB	04bH
	DB	0f9H
	DB	04bH
	DB	0d9H
	DB	04bH
	DB	0d9H
	DB	04bH
	DB	0faH
	DB	04bH
	DB	0d9H
	DB	04bH
	DB	0d9H
	DB	04bH
	DB	0d9H
	DB	053H
	DB	0b9H
	DB	053H
	DB	0d9H
	DB	04bH
	DB	0d9H
	DB	04bH
	DB	0d9H
	DB	04bH
	DB	0d9H
	DB	04bH
	DB	0d9H
	DB	04bH
	DB	0d9H
	DB	04bH
	DB	0d9H
	DB	04bH
	DB	0d9H
	DB	04bH
	DB	0d9H
	DB	04bH
	DB	0d9H
	DB	04bH
	DB	0d9H
	DB	04bH
	DB	0d8H
	DB	04bH
	DB	0d8H
	DB	04bH
	DB	0b8H
	DB	043H
	DB	035H
	DB	043H
	DB	02bH
	DB	011H
	DB	06dH
	DB	032H
	DB	056H
	DB	085H
	DB	0ffH
	DB	0f7H
	DB	0ffH
	DB	0ffH
	DB	0dfH
	DB	0ffH
	DB	0bfH
	DB	0ffH
	DB	05bH
	DB	0d6H
	DB	09bH
	DB	0deH
	DB	09bH
	DB	0deH
	DB	09bH
	DB	0d6H
	DB	03aH
	DB	0b6H
	DB	03bH
	DB	0aeH
	DB	05cH
	DB	0aeH
	DB	05bH
	DB	09eH
	DB	07cH
	DB	0a6H
	DB	07cH
	DB	09eH
	DB	07cH
	DB	09eH
	DB	0d9H
	DB	085H
	DB	098H
	DB	075H
	DB	0b8H
	DB	075H
	DB	0d9H
	DB	085H
	DB	0faH
	DB	08dH
	DB	03bH
	DB	096H
	DB	0b9H
	DB	07dH
	DB	0b8H
	DB	075H
	DB	097H
	DB	065H
	DB	0faH
	DB	075H
	DB	03bH
	DB	086H
	DB	01bH
	DB	07eH
	DB	01bH
	DB	07eH
	DB	01bH
	DB	07eH
	DB	07cH
	DB	08eH
	DB	09cH
	DB	096H
	DB	01bH
	DB	07eH
	DB	0daH
	DB	07dH
	DB	0d9H
	DB	05dH
	DB	0faH
	DB	05dH
	DB	0d9H
	DB	05dH
	DB	058H
	DB	055H
	DB	0d8H
	DB	065H
	DB	035H
	DB	055H
	DB	058H
	DB	05dH
	DB	0faH
	DB	075H
	DB	0d9H
	DB	075H
	DB	077H
	DB	065H
	DB	057H
	DB	05dH
	DB	035H
	DB	04dH
	DB	077H
	DB	055H
	DB	078H
	DB	06dH
	DB	036H
	DB	055H
	DB	097H
	DB	05dH
	DB	036H
	DB	055H
	DB	078H
	DB	05dH
	DB	057H
	DB	05dH
	DB	0b7H
	DB	065H
	DB	096H
	DB	05dH
	DB	0f8H
	DB	05dH
	DB	0d8H
	DB	065H
	DB	0b8H
	DB	06dH
	DB	0b8H
	DB	065H
	DB	056H
	DB	055H
	DB	098H
	DB	055H
	DB	076H
	DB	055H
	DB	0f4H
	DB	044H
	DB	0d4H
	DB	03cH
	DB	014H
	DB	03dH
	DB	0d7H
	DB	05dH
	DB	096H
	DB	055H
	DB	0d3H
	DB	034H
	DB	056H
	DB	04dH
	DB	0d8H
	DB	065H
	DB	0d8H
	DB	075H
	DB	035H
	DB	055H
	DB	097H
	DB	05dH
	DB	03aH
	DB	076H
	DB	059H
	DB	086H
	DB	055H
	DB	05dH
	DB	0b6H
	DB	05dH
	DB	0d3H
	DB	044H
	DB	015H
	DB	04dH
	DB	057H
	DB	05dH
	DB	016H
	DB	055H
	DB	0d4H
	DB	044H
	DB	093H
	DB	03cH
	DB	036H
	DB	04dH
	DB	096H
	DB	05dH
	DB	0b7H
	DB	065H
	DB	0f4H
	DB	054H
	DB	016H
	DB	055H
	DB	0f5H
	DB	04cH
	DB	036H
	DB	04dH
	DB	0b7H
	DB	065H
	DB	0f2H
	DB	044H
	DB	033H
	DB	03dH
	DB	033H
	DB	03dH
	DB	074H
	DB	045H
	DB	054H
	DB	045H
	DB	054H
	DB	04dH
	DB	0b7H
	DB	055H
	DB	0bcH
	DB	08eH
	DB	0b6H
	DB	075H
	DB	039H
	DB	076H
	DB	09aH
	DB	0a6H
	DB	034H
	DB	055H
	DB	0f4H
	DB	044H
	DB	019H
	DB	06eH
	DB	05aH
	DB	096H
	DB	078H
	DB	02H
	DB	078H
	DB	02H
	DB	078H
	DB	02H
	DB	098H
	DB	0aH
	DB	098H
	DB	0aH
	DB	098H
	DB	0aH
	DB	098H
	DB	0aH
	DB	098H
	DB	0aH
	DB	098H
	DB	0aH
	DB	098H
	DB	0aH
	DB	098H
	DB	0aH
	DB	0b8H
	DB	0aH
	DB	0b8H
	DB	0aH
	DB	0b8H
	DB	0aH
	DB	098H
	DB	0aH
	DB	0b8H
	DB	0aH
	DB	0d8H
	DB	0aH
	DB	0d8H
	DB	012H
	DB	0d9H
	DB	012H
	DB	0d9H
	DB	012H
	DB	0d9H
	DB	012H
	DB	0d9H
	DB	012H
	DB	0d9H
	DB	012H
	DB	0d9H
	DB	012H
	DB	0d9H
	DB	012H
	DB	0d9H
	DB	012H
	DB	0f9H
	DB	012H
	DB	0d9H
	DB	012H
	DB	0f9H
	DB	01aH
	DB	0f9H
	DB	012H
	DB	019H
	DB	013H
	DB	019H
	DB	013H
	DB	019H
	DB	01bH
	DB	019H
	DB	01bH
	DB	01aH
	DB	01bH
	DB	03aH
	DB	01bH
	DB	03aH
	DB	01bH
	DB	03aH
	DB	01bH
	DB	03aH
	DB	01bH
	DB	05aH
	DB	01bH
	DB	05aH
	DB	023H
	DB	03aH
	DB	023H
	DB	05aH
	DB	023H
	DB	05aH
	DB	023H
	DB	05aH
	DB	023H
	DB	07aH
	DB	02bH
	DB	07aH
	DB	023H
	DB	07aH
	DB	023H
	DB	07aH
	DB	023H
	DB	07aH
	DB	023H
	DB	09aH
	DB	02bH
	DB	09bH
	DB	02bH
	DB	09aH
	DB	02bH
	DB	09aH
	DB	02bH
	DB	09bH
	DB	02bH
	DB	09aH
	DB	02bH
	DB	0bbH
	DB	02bH
	DB	09bH
	DB	02bH
	DB	0baH
	DB	033H
	DB	0baH
	DB	033H
	DB	0baH
	DB	033H
	DB	0baH
	DB	03bH
	DB	0daH
	DB	03bH
	DB	0fbH
	DB	043H
	DB	0fbH
	DB	043H
	DB	0fbH
	DB	053H
	DB	05aH
	DB	07cH
	DB	01aH
	DB	0adH
	DB	03dH
	DB	0d6H
	DB	0ffH
	DB	0eeH
	DB	01fH
	DB	0efH
	DB	05fH
	DB	0f7H
	DB	07fH
	DB	0f7H
	DB	05fH
	DB	0f7H
	DB	0ffH
	DB	0e6H
	DB	09eH
	DB	0deH
	DB	0bfH
	DB	0deH
	DB	0beH
	DB	0deH
	DB	09eH
	DB	0deH
	DB	05eH
	DB	0ceH
	DB	05eH
	DB	0ceH
	DB	01dH
	DB	0c6H
	DB	0fdH
	DB	0c5H
	DB	0dcH
	DB	0bdH
	DB	0dcH
	DB	0bdH
	DB	0bcH
	DB	0b5H
	DB	05cH
	DB	0adH
	DB	0fbH
	DB	094H
	DB	07aH
	DB	074H
	DB	039H
	DB	064H
	DB	019H
	DB	05cH
	DB	019H
	DB	054H
	DB	0f9H
	DB	053H
	DB	0f9H
	DB	053H
	DB	019H
	DB	054H
	DB	019H
	DB	054H
	DB	019H
	DB	04cH
	DB	019H
	DB	04cH
	DB	019H
	DB	04cH
	DB	019H
	DB	04cH
	DB	01aH
	DB	054H
	DB	0f9H
	DB	04bH
	DB	0f9H
	DB	053H
	DB	0f9H
	DB	053H
	DB	0f9H
	DB	053H
	DB	0f9H
	DB	053H
	DB	0f9H
	DB	04bH
	DB	0f9H
	DB	04bH
	DB	0d9H
	DB	04bH
	DB	0d9H
	DB	04bH
	DB	0d9H
	DB	04bH
	DB	0f9H
	DB	04bH
	DB	0f9H
	DB	04bH
	DB	0d9H
	DB	04bH
	DB	0d9H
	DB	04bH
	DB	0d9H
	DB	053H
	DB	0d9H
	DB	053H
	DB	0d9H
	DB	04bH
	DB	0d9H
	DB	04bH
	DB	0f9H
	DB	04bH
	DB	0d9H
	DB	04bH
	DB	0d9H
	DB	04bH
	DB	0d9H
	DB	04bH
	DB	0d9H
	DB	04bH
	DB	0d9H
	DB	04bH
	DB	0d9H
	DB	04bH
	DB	0d8H
	DB	04bH
	DB	0f9H
	DB	04bH
	DB	0d9H
	DB	04bH
	DB	0d8H
	DB	04bH
	DB	0b8H
	DB	04bH
	DB	035H
	DB	03bH
	DB	02bH
	DB	011H
	DB	04cH
	DB	03aH
	DB	035H
	DB	08dH
	DB	0ffH
	DB	0f7H
	DB	0ffH
	DB	0ffH
	DB	0ffH
	DB	0ffH
	DB	0bfH
	DB	0ffH
	DB	03aH
	DB	0ceH
	DB	07cH
	DB	0deH
	DB	07bH
	DB	0d6H
	DB	09bH
	DB	0d6H
	DB	01aH
	DB	0b6H
	DB	03bH
	DB	0aeH
	DB	03bH
	DB	0a6H
	DB	05cH
	DB	09eH
	DB	09cH
	DB	0a6H
	DB	09dH
	DB	0a6H
	DB	07cH
	DB	09eH
	DB	0d9H
	DB	085H
	DB	098H
	DB	075H
	DB	0d9H
	DB	07dH
	DB	0d9H
	DB	07dH
	DB	01aH
	DB	08eH
	DB	03bH
	DB	096H
	DB	098H
	DB	075H
	DB	0d9H
	DB	07dH
	DB	0d8H
	DB	075H
	DB	099H
	DB	065H
	DB	05cH
	DB	086H
	DB	03bH
	DB	07eH
	DB	01bH
	DB	07eH
	DB	03cH
	DB	07eH
	DB	09dH
	DB	096H
	DB	0bdH
	DB	09eH
	DB	03bH
	DB	086H
	DB	0daH
	DB	07dH
	DB	0b9H
	DB	065H
	DB	0b8H
	DB	055H
	DB	057H
	DB	04dH
	DB	058H
	DB	055H
	DB	098H
	DB	05dH
	DB	0b8H
	DB	065H
	DB	078H
	DB	065H
	DB	0daH
	DB	06dH
	DB	01aH
	DB	07eH
	DB	0d9H
	DB	075H
	DB	078H
	DB	065H
	DB	076H
	DB	055H
	DB	0d9H
	DB	065H
	DB	098H
	DB	065H
	DB	016H
	DB	055H
	DB	077H
	DB	05dH
	DB	016H
	DB	04dH
	DB	099H
	DB	05dH
	DB	077H
	DB	05dH
	DB	0b8H
	DB	065H
	DB	097H
	DB	055H
	DB	0f8H
	DB	065H
	DB	0b8H
	DB	065H
	DB	0f9H
	DB	075H
	DB	0f8H
	DB	065H
	DB	097H
	DB	065H
	DB	056H
	DB	055H
	DB	076H
	DB	055H
	DB	015H
	DB	04dH
	DB	035H
	DB	04dH
	DB	035H
	DB	04dH
	DB	0b7H
	DB	055H
	DB	0d7H
	DB	05dH
	DB	034H
	DB	04dH
	DB	056H
	DB	055H
	DB	0b8H
	DB	05dH
	DB	0d9H
	DB	06dH
	DB	077H
	DB	05dH
	DB	0b8H
	DB	065H
	DB	03aH
	DB	06eH
	DB	07aH
	DB	086H
	DB	055H
	DB	05dH
	DB	0f7H
	DB	06dH
	DB	0b3H
	DB	044H
	DB	036H
	DB	04dH
	DB	036H
	DB	05dH
	DB	015H
	DB	055H
	DB	0d4H
	DB	044H
	DB	015H
	DB	04dH
	DB	076H
	DB	05dH
	DB	0b7H
	DB	065H
	DB	076H
	DB	065H
	DB	0d4H
	DB	04cH
	DB	0f5H
	DB	04cH
	DB	0d4H
	DB	044H
	DB	016H
	DB	04dH
	DB	0b8H
	DB	065H
	DB	033H
	DB	04dH
	DB	033H
	DB	03dH
	DB	034H
	DB	03dH
	DB	075H
	DB	045H
	DB	034H
	DB	03dH
	DB	074H
	DB	04dH
	DB	097H
	DB	055H
	DB	05bH
	DB	07eH
	DB	0d7H
	DB	075H
	DB	039H
	DB	07eH
	DB	07aH
	DB	096H
	DB	0b6H
	DB	06dH
	DB	0f4H
	DB	04cH
	DB	0bbH
	DB	08eH
	DB	019H
	DB	08eH
	DB	077H
	DB	02H
	DB	078H
	DB	02H
	DB	098H
	DB	0aH
	DB	098H
	DB	0aH
	DB	098H
	DB	0aH
	DB	098H
	DB	0aH
	DB	098H
	DB	0aH
	DB	098H
	DB	0aH
	DB	098H
	DB	0aH
	DB	098H
	DB	0aH
	DB	0b8H
	DB	0aH
	DB	098H
	DB	0aH
	DB	0b8H
	DB	0aH
	DB	0b8H
	DB	0aH
	DB	0b8H
	DB	0aH
	DB	0b9H
	DB	012H
	DB	0d9H
	DB	012H
	DB	0d9H
	DB	012H
	DB	0d9H
	DB	012H
	DB	0d9H
	DB	012H
	DB	0d9H
	DB	012H
	DB	0d9H
	DB	012H
	DB	0d9H
	DB	012H
	DB	0d9H
	DB	012H
	DB	0f9H
	DB	012H
	DB	0d9H
	DB	012H
	DB	0f9H
	DB	012H
	DB	0d9H
	DB	012H
	DB	0f9H
	DB	01aH
	DB	0f9H
	DB	01aH
	DB	01aH
	DB	01bH
	DB	019H
	DB	01bH
	DB	019H
	DB	01bH
	DB	019H
	DB	01bH
	DB	01aH
	DB	01bH
	DB	019H
	DB	01bH
	DB	019H
	DB	01bH
	DB	039H
	DB	01bH
	DB	03aH
	DB	01bH
	DB	039H
	DB	01bH
	DB	039H
	DB	01bH
	DB	03aH
	DB	023H
	DB	03aH
	DB	023H
	DB	05aH
	DB	023H
	DB	07aH
	DB	023H
	DB	07aH
	DB	02bH
	DB	07aH
	DB	023H
	DB	07aH
	DB	02bH
	DB	07aH
	DB	02bH
	DB	07aH
	DB	023H
	DB	07aH
	DB	023H
	DB	09aH
	DB	02bH
	DB	09aH
	DB	02bH
	DB	09bH
	DB	02bH
	DB	09aH
	DB	02bH
	DB	09aH
	DB	02bH
	DB	09aH
	DB	02bH
	DB	0bbH
	DB	033H
	DB	0baH
	DB	033H
	DB	0baH
	DB	033H
	DB	0daH
	DB	03bH
	DB	0baH
	DB	03bH
	DB	0daH
	DB	03bH
	DB	0fbH
	DB	043H
	DB	0faH
	DB	04bH
	DB	01aH
	DB	05cH
	DB	05bH
	DB	0adH
	DB	07eH
	DB	0deH
	DB	0dfH
	DB	0e6H
	DB	03fH
	DB	0f7H
	DB	07fH
	DB	0f7H
	DB	07fH
	DB	0f7H
	DB	07fH
	DB	0f7H
	DB	07fH
	DB	0f7H
	DB	01fH
	DB	0efH
	DB	07dH
	DB	0d6H
	DB	0beH
	DB	0deH
	DB	09eH
	DB	0deH
	DB	07eH
	DB	0d6H
	DB	03dH
	DB	0ceH
	DB	01dH
	DB	0c6H
	DB	0dcH
	DB	0bdH
	DB	0dcH
	DB	0bdH
	DB	0ddH
	DB	0bdH
	DB	0dcH
	DB	0bdH
	DB	0bcH
	DB	0b5H
	DB	05cH
	DB	0a5H
	DB	0fbH
	DB	094H
	DB	07aH
	DB	074H
	DB	03aH
	DB	064H
	DB	03aH
	DB	05cH
	DB	01aH
	DB	054H
	DB	01aH
	DB	054H
	DB	019H
	DB	054H
	DB	0f9H
	DB	053H
	DB	01aH
	DB	054H
	DB	01aH
	DB	04cH
	DB	01aH
	DB	04cH
	DB	01aH
	DB	04cH
	DB	01aH
	DB	04cH
	DB	019H
	DB	04cH
	DB	0f9H
	DB	04bH
	DB	0f9H
	DB	053H
	DB	0f9H
	DB	053H
	DB	0f9H
	DB	053H
	DB	0f9H
	DB	053H
	DB	0f9H
	DB	04bH
	DB	0f9H
	DB	04bH
	DB	0f9H
	DB	04bH
	DB	0f9H
	DB	04bH
	DB	0d9H
	DB	04bH
	DB	0f9H
	DB	04bH
	DB	0f9H
	DB	04bH
	DB	0d9H
	DB	04bH
	DB	0d9H
	DB	04bH
	DB	0d9H
	DB	04bH
	DB	0f9H
	DB	053H
	DB	0d9H
	DB	053H
	DB	0d9H
	DB	04bH
	DB	0d9H
	DB	04bH
	DB	0d9H
	DB	04bH
	DB	0d9H
	DB	04bH
	DB	0d9H
	DB	04bH
	DB	0d9H
	DB	04bH
	DB	0d9H
	DB	04bH
	DB	0d9H
	DB	04bH
	DB	0d9H
	DB	04bH
	DB	0f9H
	DB	04bH
	DB	0f9H
	DB	04bH
	DB	0d8H
	DB	04bH
	DB	0b8H
	DB	043H
	DB	056H
	DB	043H
	DB	02bH
	DB	019H
	DB	06dH
	DB	03aH
	DB	056H
	DB	095H
	DB	0ffH
	DB	0ffH
	DB	0ffH
	DB	0ffH
	DB	0dfH
	DB	0ffH
	DB	0bfH
	DB	0ffH
	DB	05aH
	DB	0d6H
	DB	05bH
	DB	0d6H
	DB	05bH
	DB	0d6H
	DB	0bcH
	DB	0deH
	DB	03aH
	DB	0b6H
	DB	03aH
	DB	0aeH
	DB	07bH
	DB	0aeH
	DB	09cH
	DB	0aeH
	DB	09cH
	DB	0a6H
	DB	09cH
	DB	0a6H
	DB	07cH
	DB	0a6H
	DB	0d9H
	DB	08dH
	DB	098H
	DB	075H
	DB	0f9H
	DB	07dH
	DB	0d9H
	DB	07dH
	DB	0faH
	DB	08dH
	DB	07cH
	DB	096H
	DB	098H
	DB	07dH
	DB	0d9H
	DB	07dH
	DB	0d9H
	DB	075H
	DB	058H
	DB	065H
	DB	05cH
	DB	086H
	DB	05cH
	DB	07eH
	DB	01aH
	DB	076H
	DB	03bH
	DB	07eH
	DB	03cH
	DB	086H
	DB	07cH
	DB	08eH
	DB	03bH
	DB	086H
	DB	0faH
	DB	07dH
	DB	0b9H
	DB	06dH
	DB	0f9H
	DB	06dH
	DB	057H
	DB	055H
	DB	037H
	DB	055H
	DB	097H
	DB	05dH
	DB	0d8H
	DB	06dH
	DB	078H
	DB	065H
	DB	0faH
	DB	06dH
	DB	03bH
	DB	086H
	DB	0b9H
	DB	06dH
	DB	078H
	DB	065H
	DB	076H
	DB	055H
	DB	0d9H
	DB	065H
	DB	058H
	DB	055H
	DB	016H
	DB	055H
	DB	037H
	DB	055H
	DB	036H
	DB	055H
	DB	098H
	DB	05dH
	DB	057H
	DB	055H
	DB	098H
	DB	065H
	DB	076H
	DB	055H
	DB	0d8H
	DB	065H
	DB	0d8H
	DB	06dH
	DB	019H
	DB	076H
	DB	05aH
	DB	07eH
	DB	0f9H
	DB	075H
	DB	036H
	DB	05dH
	DB	097H
	DB	055H
	DB	077H
	DB	055H
	DB	035H
	DB	04dH
	DB	076H
	DB	055H
	DB	096H
	DB	04dH
	DB	0b7H
	DB	055H
	DB	0b7H
	DB	05dH
	DB	019H
	DB	076H
	DB	0b7H
	DB	05dH
	DB	0d9H
	DB	075H
	DB	098H
	DB	06dH
	DB	0b8H
	DB	06dH
	DB	019H
	DB	066H
	DB	0d7H
	DB	06dH
	DB	096H
	DB	065H
	DB	018H
	DB	076H
	DB	072H
	DB	03cH
	DB	036H
	DB	04dH
	DB	056H
	DB	05dH
	DB	015H
	DB	055H
	DB	016H
	DB	04dH
	DB	077H
	DB	055H
	DB	0b8H
	DB	065H
	DB	038H
	DB	076H
	DB	055H
	DB	05dH
	DB	0f4H
	DB	04cH
	DB	0f5H
	DB	04cH
	DB	0b4H
	DB	03cH
	DB	035H
	DB	045H
	DB	098H
	DB	065H
	DB	095H
	DB	05dH
	DB	054H
	DB	045H
	DB	034H
	DB	03dH
	DB	054H
	DB	045H
	DB	0b6H
	DB	055H
	DB	0f6H
	DB	065H
	DB	055H
	DB	04dH
	DB	01aH
	DB	06eH
	DB	0d8H
	DB	06dH
	DB	019H
	DB	076H
	DB	03aH
	DB	07eH
	DB	059H
	DB	086H
	DB	056H
	DB	065H
	DB	019H
	DB	076H
	DB	017H
	DB	086H
	DB	078H
	DB	02H
	DB	098H
	DB	0aH
	DB	098H
	DB	0aH
	DB	098H
	DB	0aH
	DB	098H
	DB	0aH
	DB	098H
	DB	0aH
	DB	098H
	DB	0aH
	DB	098H
	DB	0aH
	DB	098H
	DB	0aH
	DB	0b8H
	DB	0aH
	DB	0d9H
	DB	0aH
	DB	098H
	DB	0aH
	DB	0b8H
	DB	0aH
	DB	0b9H
	DB	0aH
	DB	0b9H
	DB	012H
	DB	0b9H
	DB	012H
	DB	0d8H
	DB	012H
	DB	0b8H
	DB	0aH
	DB	0d9H
	DB	012H
	DB	0d9H
	DB	012H
	DB	0d9H
	DB	012H
	DB	0d9H
	DB	012H
	DB	0d9H
	DB	012H
	DB	0d9H
	DB	012H
	DB	0d9H
	DB	012H
	DB	0d9H
	DB	012H
	DB	0f9H
	DB	012H
	DB	0f9H
	DB	01aH
	DB	0d9H
	DB	01aH
	DB	0d9H
	DB	01aH
	DB	0f9H
	DB	01aH
	DB	019H
	DB	01bH
	DB	0f9H
	DB	012H
	DB	019H
	DB	01bH
	DB	019H
	DB	01bH
	DB	019H
	DB	01bH
	DB	019H
	DB	01bH
	DB	03aH
	DB	01bH
	DB	03aH
	DB	01bH
	DB	039H
	DB	01bH
	DB	039H
	DB	01bH
	DB	03aH
	DB	023H
	DB	03aH
	DB	023H
	DB	05aH
	DB	023H
	DB	05aH
	DB	023H
	DB	07aH
	DB	023H
	DB	07aH
	DB	023H
	DB	07aH
	DB	02bH
	DB	07aH
	DB	02bH
	DB	07aH
	DB	023H
	DB	09aH
	DB	023H
	DB	07aH
	DB	02bH
	DB	07aH
	DB	02bH
	DB	09bH
	DB	02bH
	DB	09bH
	DB	02bH
	DB	09aH
	DB	02bH
	DB	09aH
	DB	02bH
	DB	09aH
	DB	02bH
	DB	0baH
	DB	033H
	DB	0baH
	DB	033H
	DB	0baH
	DB	033H
	DB	0baH
	DB	03bH
	DB	0baH
	DB	03bH
	DB	0dbH
	DB	043H
	DB	01bH
	DB	054H
	DB	01aH
	DB	06cH
	DB	0bcH
	DB	0b5H
	DB	0bfH
	DB	0deH
	DB	0dfH
	DB	0e6H
	DB	03fH
	DB	0efH
	DB	03fH
	DB	0efH
	DB	03fH
	DB	0efH
	DB	03fH
	DB	0efH
	DB	05fH
	DB	0f7H
	DB	03fH
	DB	0efH
	DB	0beH
	DB	0deH
	DB	0beH
	DB	0deH
	DB	09eH
	DB	0deH
	DB	05eH
	DB	0d6H
	DB	01dH
	DB	0c6H
	DB	0fdH
	DB	0bdH
	DB	0ddH
	DB	0bdH
	DB	0bcH
	DB	0bdH
	DB	0ddH
	DB	0bdH
	DB	0bcH
	DB	0bdH
	DB	0bcH
	DB	0b5H
	DB	07cH
	DB	0adH
	DB	01bH
	DB	095H
	DB	09aH
	DB	074H
	DB	05aH
	DB	064H
	DB	03aH
	DB	05cH
	DB	019H
	DB	054H
	DB	0f9H
	DB	053H
	DB	019H
	DB	054H
	DB	019H
	DB	054H
	DB	019H
	DB	054H
	DB	01aH
	DB	054H
	DB	01aH
	DB	054H
	DB	019H
	DB	054H
	DB	019H
	DB	04cH
	DB	019H
	DB	04cH
	DB	019H
	DB	054H
	DB	0f9H
	DB	053H
	DB	0f9H
	DB	053H
	DB	0f9H
	DB	053H
	DB	0f9H
	DB	053H
	DB	0d9H
	DB	04bH
	DB	0d9H
	DB	04bH
	DB	0f9H
	DB	04bH
	DB	0d9H
	DB	04bH
	DB	0d9H
	DB	04bH
	DB	0f9H
	DB	04bH
	DB	0d9H
	DB	04bH
	DB	0d9H
	DB	04bH
	DB	0d9H
	DB	04bH
	DB	0d9H
	DB	04bH
	DB	0f9H
	DB	04bH
	DB	0d9H
	DB	04bH
	DB	0b9H
	DB	04bH
	DB	0d9H
	DB	04bH
	DB	0d9H
	DB	04bH
	DB	0d9H
	DB	04bH
	DB	0d9H
	DB	04bH
	DB	0d9H
	DB	04bH
	DB	0d9H
	DB	04bH
	DB	0d9H
	DB	04bH
	DB	0d9H
	DB	04bH
	DB	0d9H
	DB	04bH
	DB	0d9H
	DB	04bH
	DB	0d8H
	DB	04bH
	DB	0b8H
	DB	04bH
	DB	056H
	DB	043H
	DB	02bH
	DB	019H
	DB	04dH
	DB	03aH
	DB	097H
	DB	09dH
	DB	0ffH
	DB	0ffH
	DB	0ffH
	DB	0ffH
	DB	0dfH
	DB	0ffH
	DB	0bfH
	DB	0ffH
	DB	05bH
	DB	0d6H
	DB	0faH
	DB	0cdH
	DB	03aH
	DB	0d6H
	DB	0dcH
	DB	0deH
	DB	03aH
	DB	0beH
	DB	05bH
	DB	0b6H
	DB	07cH
	DB	0aeH
	DB	07cH
	DB	0a6H
	DB	07cH
	DB	09eH
	DB	09dH
	DB	0a6H
	DB	05cH
	DB	09eH
	DB	0faH
	DB	095H
	DB	097H
	DB	075H
	DB	0b9H
	DB	075H
	DB	0faH
	DB	085H
	DB	0faH
	DB	08dH
	DB	05cH
	DB	096H
	DB	077H
	DB	075H
	DB	0b9H
	DB	075H
	DB	098H
	DB	06dH
	DB	077H
	DB	065H
	DB	07cH
	DB	086H
	DB	01bH
	DB	07eH
	DB	0daH
	DB	06dH
	DB	03bH
	DB	086H
	DB	03bH
	DB	07eH
	DB	05cH
	DB	086H
	DB	03bH
	DB	086H
	DB	0daH
	DB	075H
	DB	0d9H
	DB	06dH
	DB	0f9H
	DB	06dH
	DB	057H
	DB	05dH
	DB	078H
	DB	05dH
	DB	098H
	DB	05dH
	DB	0b8H
	DB	065H
	DB	0b9H
	DB	06dH
	DB	03bH
	DB	076H
	DB	05bH
	DB	07eH
	DB	0b8H
	DB	06dH
	DB	0b8H
	DB	065H
	DB	076H
	DB	055H
	DB	0f9H
	DB	06dH
	DB	057H
	DB	055H
	DB	017H
	DB	055H
	DB	057H
	DB	05dH
	DB	0f8H
	DB	075H
	DB	0d9H
	DB	06dH
	DB	057H
	DB	065H
	DB	0d8H
	DB	06dH
	DB	055H
	DB	04dH
	DB	0b8H
	DB	05dH
	DB	0b7H
	DB	05dH
	DB	019H
	DB	06eH
	DB	09bH
	DB	086H
	DB	039H
	DB	07eH
	DB	057H
	DB	065H
	DB	098H
	DB	05dH
	DB	097H
	DB	05dH
	DB	0f4H
	DB	044H
	DB	076H
	DB	055H
	DB	076H
	DB	04dH
	DB	0f8H
	DB	065H
	DB	035H
	DB	04dH
	DB	0f8H
	DB	065H
	DB	0f9H
	DB	06dH
	DB	0f9H
	DB	075H
	DB	01aH
	DB	086H
	DB	0f8H
	DB	07dH
	DB	097H
	DB	05dH
	DB	0b7H
	DB	065H
	DB	076H
	DB	05dH
	DB	039H
	DB	07eH
	DB	0b2H
	DB	04cH
	DB	015H
	DB	04dH
	DB	056H
	DB	05dH
	DB	015H
	DB	055H
	DB	076H
	DB	055H
	DB	056H
	DB	04dH
	DB	0f9H
	DB	065H
	DB	039H
	DB	076H
	DB	034H
	DB	05dH
	DB	035H
	DB	05dH
	DB	015H
	DB	055H
	DB	0b3H
	DB	03cH
	DB	035H
	DB	04dH
	DB	077H
	DB	05dH
	DB	0b6H
	DB	05dH
	DB	075H
	DB	055H
	DB	034H
	DB	045H
	DB	0b5H
	DB	055H
	DB	017H
	DB	066H
	DB	0b4H
	DB	05dH
	DB	033H
	DB	03dH
	DB	0f9H
	DB	06dH
	DB	0d8H
	DB	06dH
	DB	019H
	DB	076H
	DB	05aH
	DB	086H
	DB	0dcH
	DB	09eH
	DB	0f8H
	DB	08dH
	DB	097H
	DB	065H
	DB	0d7H
	DB	07dH
	DB	078H
	DB	02H
	DB	098H
	DB	0aH
	DB	098H
	DB	0aH
	DB	098H
	DB	0aH
	DB	098H
	DB	0aH
	DB	098H
	DB	0aH
	DB	098H
	DB	0aH
	DB	098H
	DB	0aH
	DB	0b8H
	DB	0aH
	DB	0b8H
	DB	0aH
	DB	0b9H
	DB	0aH
	DB	0b9H
	DB	0aH
	DB	0b9H
	DB	012H
	DB	0b9H
	DB	012H
	DB	0b9H
	DB	012H
	DB	0d9H
	DB	012H
	DB	0d9H
	DB	012H
	DB	0b8H
	DB	0aH
	DB	0d8H
	DB	012H
	DB	0d8H
	DB	012H
	DB	0d9H
	DB	012H
	DB	0f9H
	DB	012H
	DB	0d9H
	DB	012H
	DB	0d9H
	DB	012H
	DB	0d9H
	DB	012H
	DB	0f9H
	DB	012H
	DB	0f9H
	DB	012H
	DB	0f9H
	DB	01aH
	DB	0f9H
	DB	01aH
	DB	019H
	DB	01bH
	DB	0f9H
	DB	01aH
	DB	0f9H
	DB	012H
	DB	019H
	DB	01bH
	DB	019H
	DB	01bH
	DB	019H
	DB	01bH
	DB	019H
	DB	01bH
	DB	03aH
	DB	01bH
	DB	039H
	DB	01bH
	DB	039H
	DB	01bH
	DB	039H
	DB	01bH
	DB	05aH
	DB	01bH
	DB	05aH
	DB	023H
	DB	05aH
	DB	023H
	DB	03aH
	DB	023H
	DB	05aH
	DB	023H
	DB	07aH
	DB	023H
	DB	07aH
	DB	023H
	DB	07aH
	DB	02bH
	DB	07aH
	DB	02bH
	DB	07aH
	DB	023H
	DB	07aH
	DB	023H
	DB	07aH
	DB	02bH
	DB	09aH
	DB	02bH
	DB	09bH
	DB	033H
	DB	09aH
	DB	02bH
	DB	0bbH
	DB	02bH
	DB	09aH
	DB	02bH
	DB	09bH
	DB	033H
	DB	0bbH
	DB	033H
	DB	0baH
	DB	033H
	DB	0baH
	DB	033H
	DB	0dbH
	DB	03bH
	DB	0dbH
	DB	043H
	DB	0fbH
	DB	04bH
	DB	01aH
	DB	064H
	DB	0baH
	DB	094H
	DB	0fcH
	DB	0c5H
	DB	0bfH
	DB	0deH
	DB	0ffH
	DB	0e6H
	DB	01fH
	DB	0efH
	DB	03fH
	DB	0efH
	DB	03fH
	DB	0efH
	DB	05fH
	DB	0efH
	DB	03fH
	DB	0efH
	DB	01fH
	DB	0efH
	DB	09eH
	DB	0deH
	DB	09eH
	DB	0d6H
	DB	07eH
	DB	0d6H
	DB	05eH
	DB	0d6H
	DB	01dH
	DB	0c6H
	DB	0ddH
	DB	0bdH
	DB	09cH
	DB	0b5H
	DB	09cH
	DB	0b5H
	DB	0ddH
	DB	0c5H
	DB	0bcH
	DB	0bdH
	DB	09cH
	DB	0b5H
	DB	07cH
	DB	0a5H
	DB	01bH
	DB	095H
	DB	09aH
	DB	074H
	DB	03aH
	DB	064H
	DB	019H
	DB	05cH
	DB	019H
	DB	05cH
	DB	019H
	DB	054H
	DB	01aH
	DB	05cH
	DB	019H
	DB	054H
	DB	01aH
	DB	054H
	DB	01aH
	DB	054H
	DB	01aH
	DB	054H
	DB	0f9H
	DB	04bH
	DB	0f9H
	DB	04bH
	DB	01aH
	DB	054H
	DB	019H
	DB	054H
	DB	0f9H
	DB	053H
	DB	0f9H
	DB	053H
	DB	0d9H
	DB	053H
	DB	0f9H
	DB	053H
	DB	0d9H
	DB	04bH
	DB	0f9H
	DB	04bH
	DB	0f9H
	DB	04bH
	DB	0f9H
	DB	04bH
	DB	0d9H
	DB	04bH
	DB	0d9H
	DB	04bH
	DB	0d9H
	DB	04bH
	DB	0d9H
	DB	04bH
	DB	0d9H
	DB	04bH
	DB	0d9H
	DB	04bH
	DB	0d9H
	DB	04bH
	DB	0f9H
	DB	04bH
	DB	0b9H
	DB	04bH
	DB	0d9H
	DB	04bH
	DB	0f9H
	DB	053H
	DB	0f9H
	DB	04bH
	DB	0d9H
	DB	04bH
	DB	0d9H
	DB	04bH
	DB	0f9H
	DB	04bH
	DB	0d9H
	DB	04bH
	DB	0d9H
	DB	04bH
	DB	0d9H
	DB	04bH
	DB	0d9H
	DB	04bH
	DB	0d8H
	DB	04bH
	DB	0b8H
	DB	04bH
	DB	077H
	DB	043H
	DB	04bH
	DB	019H
	DB	04dH
	DB	03aH
	DB	076H
	DB	0a5H
	DB	0ffH
	DB	0ffH
	DB	0ffH
	DB	0ffH
	DB	0dfH
	DB	0ffH
	DB	0bfH
	DB	0ffH
	DB	07bH
	DB	0deH
	DB	01aH
	DB	0ceH
	DB	05bH
	DB	0d6H
	DB	0bcH
	DB	0deH
	DB	03aH
	DB	0beH
	DB	03bH
	DB	0aeH
	DB	05cH
	DB	0aeH
	DB	05cH
	DB	0a6H
	DB	07cH
	DB	0a6H
	DB	09cH
	DB	0a6H
	DB	03bH
	DB	09eH
	DB	01aH
	DB	096H
	DB	078H
	DB	075H
	DB	0b8H
	DB	075H
	DB	0b9H
	DB	07dH
	DB	0faH
	DB	08dH
	DB	05bH
	DB	096H
	DB	098H
	DB	07dH
	DB	0b8H
	DB	075H
	DB	077H
	DB	06dH
	DB	057H
	DB	065H
	DB	03bH
	DB	07eH
	DB	03bH
	DB	07eH
	DB	03bH
	DB	086H
	DB	03bH
	DB	086H
	DB	05bH
	DB	07eH
	DB	03bH
	DB	07eH
	DB	03bH
	DB	086H
	DB	0d9H
	DB	075H
	DB	0d9H
	DB	06dH
	DB	0d8H
	DB	065H
	DB	057H
	DB	055H
	DB	098H
	DB	065H
	DB	0b9H
	DB	06dH
	DB	0d9H
	DB	06dH
	DB	01aH
	DB	07eH
	DB	0d9H
	DB	065H
	DB	03bH
	DB	076H
	DB	0d9H
	DB	06dH
	DB	097H
	DB	05dH
	DB	097H
	DB	055H
	DB	0f9H
	DB	06dH
	DB	078H
	DB	05dH
	DB	037H
	DB	055H
	DB	077H
	DB	05dH
	DB	07aH
	DB	086H
	DB	0f9H
	DB	075H
	DB	0f9H
	DB	07dH
	DB	0b8H
	DB	06dH
	DB	0b6H
	DB	055H
	DB	0b7H
	DB	05dH
	DB	0b7H
	DB	05dH
	DB	0f9H
	DB	065H
	DB	09cH
	DB	086H
	DB	07aH
	DB	086H
	DB	077H
	DB	065H
	DB	098H
	DB	05dH
	DB	0b7H
	DB	065H
	DB	015H
	DB	04dH
	DB	056H
	DB	04dH
	DB	0b8H
	DB	05dH
	DB	018H
	DB	076H
	DB	013H
	DB	055H
	DB	055H
	DB	04dH
	DB	099H
	DB	065H
	DB	0b9H
	DB	065H
	DB	05bH
	DB	08eH
	DB	0d8H
	DB	07dH
	DB	0f8H
	DB	06dH
	DB	076H
	DB	05dH
	DB	076H
	DB	05dH
	DB	019H
	DB	06eH
	DB	014H
	DB	055H
	DB	035H
	DB	055H
	DB	015H
	DB	055H
	DB	0b4H
	DB	04cH
	DB	036H
	DB	055H
	DB	076H
	DB	055H
	DB	0b8H
	DB	05dH
	DB	0d7H
	DB	065H
	DB	076H
	DB	05dH
	DB	076H
	DB	065H
	DB	055H
	DB	05dH
	DB	0d4H
	DB	044H
	DB	0f4H
	DB	044H
	DB	076H
	DB	055H
	DB	0b6H
	DB	055H
	DB	095H
	DB	055H
	DB	055H
	DB	045H
	DB	018H
	DB	066H
	DB	037H
	DB	076H
	DB	0f2H
	DB	044H
	DB	013H
	DB	045H
	DB	0d8H
	DB	065H
	DB	05aH
	DB	086H
	DB	05aH
	DB	08eH
	DB	09bH
	DB	08eH
	DB	0fcH
	DB	0a6H
	DB	079H
	DB	09eH
	DB	097H
	DB	065H
	DB	0f8H
	DB	07dH
	DB	098H
	DB	02H
	DB	098H
	DB	0aH
	DB	098H
	DB	0aH
	DB	098H
	DB	0aH
	DB	098H
	DB	0aH
	DB	098H
	DB	0aH
	DB	098H
	DB	0aH
	DB	0b8H
	DB	0aH
	DB	0b8H
	DB	0aH
	DB	0b8H
	DB	0aH
	DB	0b9H
	DB	0aH
	DB	0b9H
	DB	0aH
	DB	0d9H
	DB	012H
	DB	0b8H
	DB	012H
	DB	0b8H
	DB	012H
	DB	0d9H
	DB	012H
	DB	0d9H
	DB	012H
	DB	0d8H
	DB	012H
	DB	0d9H
	DB	012H
	DB	0d9H
	DB	012H
	DB	0d9H
	DB	012H
	DB	0d9H
	DB	012H
	DB	0d9H
	DB	012H
	DB	0d9H
	DB	012H
	DB	0d9H
	DB	012H
	DB	0d9H
	DB	012H
	DB	0d9H
	DB	012H
	DB	0f9H
	DB	012H
	DB	0f9H
	DB	012H
	DB	0f9H
	DB	01aH
	DB	019H
	DB	01bH
	DB	019H
	DB	01bH
	DB	019H
	DB	01bH
	DB	01aH
	DB	01bH
	DB	03aH
	DB	01bH
	DB	019H
	DB	01bH
	DB	019H
	DB	01bH
	DB	039H
	DB	01bH
	DB	039H
	DB	01bH
	DB	039H
	DB	01bH
	DB	05aH
	DB	01bH
	DB	05aH
	DB	023H
	DB	03aH
	DB	023H
	DB	05aH
	DB	023H
	DB	05aH
	DB	023H
	DB	07aH
	DB	023H
	DB	07aH
	DB	023H
	DB	07aH
	DB	023H
	DB	07aH
	DB	02bH
	DB	07aH
	DB	02bH
	DB	09aH
	DB	02bH
	DB	09aH
	DB	023H
	DB	09aH
	DB	02bH
	DB	09aH
	DB	02bH
	DB	09aH
	DB	02bH
	DB	0bbH
	DB	02bH
	DB	0bbH
	DB	033H
	DB	09bH
	DB	033H
	DB	0bbH
	DB	033H
	DB	0bbH
	DB	033H
	DB	0daH
	DB	03bH
	DB	0dbH
	DB	043H
	DB	0daH
	DB	04bH
	DB	01aH
	DB	064H
	DB	05aH
	DB	07cH
	DB	09cH
	DB	0b5H
	DB	01dH
	DB	0ceH
	DB	0bfH
	DB	0e6H
	DB	0dfH
	DB	0e6H
	DB	01fH
	DB	0efH
	DB	01fH
	DB	0efH
	DB	01fH
	DB	0efH
	DB	03fH
	DB	0efH
	DB	01fH
	DB	0efH
	DB	0dfH
	DB	0e6H
	DB	09eH
	DB	0deH
	DB	07eH
	DB	0d6H
	DB	05eH
	DB	0d6H
	DB	03dH
	DB	0ceH
	DB	0dcH
	DB	0bdH
	DB	0bdH
	DB	0b5H
	DB	07cH
	DB	0adH
	DB	07cH
	DB	0b5H
	DB	0bcH
	DB	0bdH
	DB	09cH
	DB	0bdH
	DB	09cH
	DB	0b5H
	DB	05cH
	DB	0a5H
	DB	01bH
	DB	095H
	DB	07aH
	DB	074H
	DB	03aH
	DB	064H
	DB	019H
	DB	05cH
	DB	019H
	DB	05cH
	DB	019H
	DB	054H
	DB	0f9H
	DB	053H
	DB	019H
	DB	054H
	DB	019H
	DB	054H
	DB	0f9H
	DB	053H
	DB	0f9H
	DB	053H
	DB	0f9H
	DB	04bH
	DB	01aH
	DB	04cH
	DB	019H
	DB	04cH
	DB	0f9H
	DB	04bH
	DB	019H
	DB	054H
	DB	0f9H
	DB	053H
	DB	0f9H
	DB	053H
	DB	0f9H
	DB	053H
	DB	0d9H
	DB	04bH
	DB	0d9H
	DB	04bH
	DB	0f9H
	DB	04bH
	DB	0f9H
	DB	04bH
	DB	0d9H
	DB	04bH
	DB	0f9H
	DB	04bH
	DB	0d9H
	DB	04bH
	DB	0d9H
	DB	04bH
	DB	0d9H
	DB	04bH
	DB	0d9H
	DB	04bH
	DB	0f9H
	DB	04bH
	DB	0d9H
	DB	04bH
	DB	0d9H
	DB	04bH
	DB	0d9H
	DB	04bH
	DB	0f9H
	DB	053H
	DB	0d9H
	DB	04bH
	DB	0f9H
	DB	04bH
	DB	0d9H
	DB	04bH
	DB	0d9H
	DB	04bH
	DB	0f9H
	DB	04bH
	DB	0d9H
	DB	04bH
	DB	0f9H
	DB	04bH
	DB	0d8H
	DB	04bH
	DB	0d9H
	DB	04bH
	DB	097H
	DB	053H
	DB	096H
	DB	053H
	DB	08cH
	DB	021H
	DB	06cH
	DB	03aH
	DB	0b6H
	DB	0adH
	DB	0ffH
	DB	0ffH
	DB	0ffH
	DB	0ffH
	DB	0dfH
	DB	0ffH
	DB	0bfH
	DB	0ffH
	DB	0bcH
	DB	0e6H
	DB	01aH
	DB	0d6H
	DB	05bH
	DB	0d6H
	DB	0bcH
	DB	0deH
	DB	03aH
	DB	0beH
	DB	03bH
	DB	0b6H
	DB	05bH
	DB	0aeH
	DB	05bH
	DB	0a6H
	DB	05cH
	DB	0a6H
	DB	09cH
	DB	0a6H
	DB	09cH
	DB	0a6H
	DB	01bH
	DB	096H
	DB	078H
	DB	075H
	DB	0b8H
	DB	075H
	DB	0b9H
	DB	07dH
	DB	03bH
	DB	096H
	DB	05bH
	DB	09eH
	DB	098H
	DB	075H
	DB	0b9H
	DB	075H
	DB	077H
	DB	065H
	DB	0b8H
	DB	075H
	DB	03bH
	DB	086H
	DB	03bH
	DB	07eH
	DB	01bH
	DB	076H
	DB	03bH
	DB	086H
	DB	01bH
	DB	07eH
	DB	03bH
	DB	076H
	DB	07cH
	DB	086H
	DB	01aH
	DB	07eH
	DB	0b8H
	DB	06dH
	DB	097H
	DB	05dH
	DB	057H
	DB	055H
	DB	098H
	DB	05dH
	DB	0b9H
	DB	065H
	DB	0b9H
	DB	06dH
	DB	01aH
	DB	07eH
	DB	0f9H
	DB	06dH
	DB	03aH
	DB	076H
	DB	0d9H
	DB	06dH
	DB	0d8H
	DB	065H
	DB	097H
	DB	05dH
	DB	0d9H
	DB	065H
	DB	098H
	DB	05dH
	DB	057H
	DB	05dH
	DB	077H
	DB	065H
	DB	07bH
	DB	086H
	DB	01aH
	DB	07eH
	DB	01aH
	DB	07eH
	DB	0d8H
	DB	06dH
	DB	055H
	DB	04dH
	DB	097H
	DB	055H
	DB	0b7H
	DB	05dH
	DB	0f8H
	DB	065H
	DB	05bH
	DB	07eH
	DB	07bH
	DB	08eH
	DB	0d8H
	DB	075H
	DB	097H
	DB	05dH
	DB	0b7H
	DB	05dH
	DB	056H
	DB	055H
	DB	056H
	DB	04dH
	DB	0d7H
	DB	055H
	DB	0f8H
	DB	06dH
	DB	0f2H
	DB	044H
	DB	0d2H
	DB	044H
	DB	056H
	DB	055H
	DB	078H
	DB	05dH
	DB	03bH
	DB	08eH
	DB	0d8H
	DB	075H
	DB	097H
	DB	05dH
	DB	076H
	DB	05dH
	DB	056H
	DB	05dH
	DB	076H
	DB	04dH
	DB	035H
	DB	055H
	DB	036H
	DB	055H
	DB	0f4H
	DB	04cH
	DB	0f5H
	DB	04cH
	DB	077H
	DB	05dH
	DB	0b7H
	DB	05dH
	DB	035H
	DB	04dH
	DB	035H
	DB	045H
	DB	0b8H
	DB	065H
	DB	097H
	DB	065H
	DB	055H
	DB	05dH
	DB	0d3H
	DB	044H
	DB	015H
	DB	045H
	DB	076H
	DB	055H
	DB	0b6H
	DB	05dH
	DB	096H
	DB	055H
	DB	076H
	DB	04dH
	DB	018H
	DB	066H
	DB	0b6H
	DB	06dH
	DB	012H
	DB	045H
	DB	033H
	DB	055H
	DB	0d7H
	DB	05dH
	DB	0fcH
	DB	09eH
	DB	01aH
	DB	08eH
	DB	03aH
	DB	076H
	DB	0dcH
	DB	0a6H
	DB	07aH
	DB	096H
	DB	097H
	DB	065H
	DB	0f8H
	DB	075H
	DB	078H
	DB	0aH
	DB	058H
	DB	02H
	DB	078H
	DB	0aH
	DB	098H
	DB	0aH
	DB	098H
	DB	0aH
	DB	098H
	DB	0aH
	DB	098H
	DB	0aH
	DB	0b8H
	DB	0aH
	DB	0b8H
	DB	0aH
	DB	0b9H
	DB	0aH
	DB	0b9H
	DB	0aH
	DB	0b9H
	DB	0aH
	DB	0b9H
	DB	0aH
	DB	0b9H
	DB	012H
	DB	0d9H
	DB	012H
	DB	0d9H
	DB	012H
	DB	0d9H
	DB	012H
	DB	0f9H
	DB	012H
	DB	0d9H
	DB	012H
	DB	0d9H
	DB	012H
	DB	0d9H
	DB	012H
	DB	0d9H
	DB	012H
	DB	0d9H
	DB	012H
	DB	0d9H
	DB	012H
	DB	0f9H
	DB	012H
	DB	0f9H
	DB	012H
	DB	0d9H
	DB	012H
	DB	0f9H
	DB	012H
	DB	0f9H
	DB	01aH
	DB	0f9H
	DB	01aH
	DB	019H
	DB	01bH
	DB	019H
	DB	01bH
	DB	019H
	DB	01bH
	DB	019H
	DB	013H
	DB	01aH
	DB	01bH
	DB	01aH
	DB	01bH
	DB	019H
	DB	01bH
	DB	039H
	DB	01bH
	DB	039H
	DB	01bH
	DB	039H
	DB	01bH
	DB	05aH
	DB	01bH
	DB	05aH
	DB	023H
	DB	05aH
	DB	023H
	DB	05aH
	DB	023H
	DB	05aH
	DB	023H
	DB	05aH
	DB	023H
	DB	07aH
	DB	023H
	DB	07aH
	DB	02bH
	DB	09aH
	DB	02bH
	DB	07aH
	DB	02bH
	DB	07aH
	DB	02bH
	DB	09bH
	DB	02bH
	DB	09bH
	DB	02bH
	DB	09aH
	DB	02bH
	DB	09aH
	DB	02bH
	DB	0bbH
	DB	02bH
	DB	0bbH
	DB	033H
	DB	0bbH
	DB	033H
	DB	0dbH
	DB	033H
	DB	0bbH
	DB	03bH
	DB	0daH
	DB	03bH
	DB	0daH
	DB	043H
	DB	0faH
	DB	063H
	DB	0bbH
	DB	094H
	DB	09cH
	DB	0bdH
	DB	01dH
	DB	0ceH
	DB	07eH
	DB	0deH
	DB	0bfH
	DB	0deH
	DB	0dfH
	DB	0e6H
	DB	01fH
	DB	0efH
	DB	01fH
	DB	0efH
	DB	0ffH
	DB	0e6H
	DB	0ffH
	DB	0e6H
	DB	0dfH
	DB	0e6H
	DB	0bfH
	DB	0deH
	DB	07eH
	DB	0d6H
	DB	05eH
	DB	0ceH
	DB	03dH
	DB	0ceH
	DB	01dH
	DB	0c6H
	DB	0bcH
	DB	0b5H
	DB	0bcH
	DB	0b5H
	DB	09cH
	DB	0b5H
	DB	09cH
	DB	0b5H
	DB	09cH
	DB	0b5H
	DB	09cH
	DB	0b5H
	DB	07cH
	DB	0adH
	DB	05cH
	DB	0a5H
	DB	0fbH
	DB	08cH
	DB	07aH
	DB	06cH
	DB	03aH
	DB	064H
	DB	019H
	DB	05cH
	DB	019H
	DB	05cH
	DB	019H
	DB	05cH
	DB	01aH
	DB	054H
	DB	019H
	DB	054H
	DB	019H
	DB	054H
	DB	01aH
	DB	054H
	DB	0f9H
	DB	04bH
	DB	01aH
	DB	054H
	DB	019H
	DB	04cH
	DB	0f9H
	DB	04bH
	DB	019H
	DB	054H
	DB	0f9H
	DB	053H
	DB	0f9H
	DB	05bH
	DB	0f9H
	DB	05bH
	DB	0f9H
	DB	053H
	DB	0f9H
	DB	053H
	DB	0d9H
	DB	04bH
	DB	0f9H
	DB	04bH
	DB	0faH
	DB	04bH
	DB	0f9H
	DB	04bH
	DB	0f9H
	DB	04bH
	DB	0f9H
	DB	04bH
	DB	0faH
	DB	04bH
	DB	0d9H
	DB	04bH
	DB	0d9H
	DB	04bH
	DB	0d9H
	DB	04bH
	DB	0f9H
	DB	04bH
	DB	0d9H
	DB	04bH
	DB	0d9H
	DB	04bH
	DB	0f9H
	DB	053H
	DB	0d9H
	DB	053H
	DB	0f9H
	DB	04bH
	DB	0d9H
	DB	043H
	DB	0d9H
	DB	04bH
	DB	0d9H
	DB	04bH
	DB	0d9H
	DB	04bH
	DB	0d9H
	DB	04bH
	DB	0f8H
	DB	04bH
	DB	0d9H
	DB	04bH
	DB	018H
	DB	05cH
	DB	0b9H
	DB	084H
	DB	06bH
	DB	019H
	DB	08dH
	DB	042H
	DB	017H
	DB	0beH
	DB	0ffH
	DB	0ffH
	DB	0ffH
	DB	0ffH
	DB	0dfH
	DB	0ffH
	DB	0bfH
	DB	0ffH
	DB	01dH
	DB	0efH
	DB	03bH
	DB	0d6H
	DB	05bH
	DB	0deH
	DB	0bbH
	DB	0deH
	DB	05aH
	DB	0c6H
	DB	05bH
	DB	0b6H
	DB	03bH
	DB	0aeH
	DB	05bH
	DB	0aeH
	DB	07cH
	DB	0aeH
	DB	0bdH
	DB	0aeH
	DB	0bdH
	DB	0aeH
	DB	03bH
	DB	096H
	DB	057H
	DB	075H
	DB	0b8H
	DB	07dH
	DB	0d9H
	DB	085H
	DB	01aH
	DB	08eH
	DB	05bH
	DB	09eH
	DB	0d9H
	DB	07dH
	DB	0b8H
	DB	075H
	DB	0b8H
	DB	06dH
	DB	0b8H
	DB	06dH
	DB	05bH
	DB	086H
	DB	01bH
	DB	086H
	DB	0daH
	DB	075H
	DB	01bH
	DB	086H
	DB	01bH
	DB	07eH
	DB	05bH
	DB	076H
	DB	07cH
	DB	086H
	DB	01bH
	DB	07eH
	DB	0b9H
	DB	06dH
	DB	016H
	DB	055H
	DB	057H
	DB	055H
	DB	099H
	DB	065H
	DB	0b9H
	DB	06dH
	DB	0faH
	DB	075H
	DB	03bH
	DB	076H
	DB	03bH
	DB	076H
	DB	01aH
	DB	06eH
	DB	0d9H
	DB	065H
	DB	0d9H
	DB	065H
	DB	0d9H
	DB	065H
	DB	0b8H
	DB	065H
	DB	0d8H
	DB	065H
	DB	098H
	DB	06dH
	DB	0faH
	DB	07dH
	DB	09bH
	DB	08eH
	DB	019H
	DB	076H
	DB	019H
	DB	076H
	DB	0d8H
	DB	075H
	DB	076H
	DB	055H
	DB	0b7H
	DB	055H
	DB	0b7H
	DB	05dH
	DB	0d7H
	DB	065H
	DB	0d9H
	DB	06dH
	DB	03bH
	DB	07eH
	DB	03aH
	DB	07eH
	DB	077H
	DB	05dH
	DB	0b7H
	DB	05dH
	DB	0b7H
	DB	05dH
	DB	077H
	DB	05dH
	DB	055H
	DB	04dH
	DB	054H
	DB	055H
	DB	0d1H
	DB	044H
	DB	053H
	DB	05dH
	DB	015H
	DB	055H
	DB	057H
	DB	055H
	DB	01aH
	DB	07eH
	DB	0b7H
	DB	06dH
	DB	055H
	DB	05dH
	DB	056H
	DB	065H
	DB	076H
	DB	05dH
	DB	034H
	DB	045H
	DB	014H
	DB	04dH
	DB	015H
	DB	04dH
	DB	0f5H
	DB	04cH
	DB	015H
	DB	04dH
	DB	097H
	DB	055H
	DB	056H
	DB	04dH
	DB	015H
	DB	045H
	DB	0d4H
	DB	03cH
	DB	0d8H
	DB	06dH
	DB	0d8H
	DB	06dH
	DB	034H
	DB	055H
	DB	0d3H
	DB	03cH
	DB	015H
	DB	045H
	DB	056H
	DB	05dH
	DB	0b7H
	DB	065H
	DB	0b6H
	DB	05dH
	DB	096H
	DB	055H
	DB	0f8H
	DB	065H
	DB	053H
	DB	055H
	DB	074H
	DB	04dH
	DB	074H
	DB	05dH
	DB	0b7H
	DB	05dH
	DB	09bH
	DB	096H
	DB	0d8H
	DB	07dH
	DB	03aH
	DB	076H
	DB	0bbH
	DB	09eH
	DB	0d8H
	DB	07dH
	DB	056H
	DB	05dH
	DB	0f8H
	DB	075H
	DB	078H
	DB	02H
	DB	078H
	DB	0aH
	DB	078H
	DB	0aH
	DB	098H
	DB	0aH
	DB	098H
	DB	0aH
	DB	099H
	DB	0aH
	DB	0b8H
	DB	0aH
	DB	0b8H
	DB	0aH
	DB	0b8H
	DB	0aH
	DB	0b9H
	DB	0aH
	DB	0b9H
	DB	0aH
	DB	0b9H
	DB	0aH
	DB	0b9H
	DB	0aH
	DB	0b9H
	DB	0aH
	DB	0d8H
	DB	0aH
	DB	0f9H
	DB	012H
	DB	0f9H
	DB	012H
	DB	0f9H
	DB	012H
	DB	0f9H
	DB	012H
	DB	0f9H
	DB	012H
	DB	0d9H
	DB	012H
	DB	0d9H
	DB	012H
	DB	0d9H
	DB	012H
	DB	0f9H
	DB	012H
	DB	0d9H
	DB	012H
	DB	0f9H
	DB	012H
	DB	0d9H
	DB	012H
	DB	0d9H
	DB	01aH
	DB	0f9H
	DB	01aH
	DB	0f9H
	DB	01aH
	DB	0f9H
	DB	01aH
	DB	019H
	DB	01bH
	DB	01aH
	DB	01bH
	DB	019H
	DB	01bH
	DB	01aH
	DB	01bH
	DB	019H
	DB	01bH
	DB	01aH
	DB	01bH
	DB	039H
	DB	01bH
	DB	03aH
	DB	01bH
	DB	039H
	DB	01bH
	DB	05aH
	DB	01bH
	DB	05aH
	DB	023H
	DB	05aH
	DB	023H
	DB	05aH
	DB	023H
	DB	05aH
	DB	023H
	DB	07aH
	DB	023H
	DB	07aH
	DB	023H
	DB	07aH
	DB	02bH
	DB	09aH
	DB	023H
	DB	07aH
	DB	02bH
	DB	07aH
	DB	02bH
	DB	09bH
	DB	02bH
	DB	09aH
	DB	02bH
	DB	09aH
	DB	02bH
	DB	09aH
	DB	02bH
	DB	0bbH
	DB	02bH
	DB	0bbH
	DB	033H
	DB	0bbH
	DB	033H
	DB	0dbH
	DB	033H
	DB	0dbH
	DB	03bH
	DB	0daH
	DB	03bH
	DB	0daH
	DB	053H
	DB	09bH
	DB	084H
	DB	07cH
	DB	0b5H
	DB	01dH
	DB	0ceH
	DB	07eH
	DB	0d6H
	DB	09eH
	DB	0deH
	DB	0beH
	DB	0deH
	DB	01fH
	DB	0efH
	DB	01fH
	DB	0efH
	DB	01fH
	DB	0efH
	DB	0ffH
	DB	0e6H
	DB	0dfH
	DB	0e6H
	DB	0bfH
	DB	0deH
	DB	09fH
	DB	0d6H
	DB	05eH
	DB	0ceH
	DB	03dH
	DB	0ceH
	DB	01dH
	DB	0c6H
	DB	0ddH
	DB	0bdH
	DB	0ddH
	DB	0bdH
	DB	09cH
	DB	0adH
	DB	07cH
	DB	0adH
	DB	0bcH
	DB	0b5H
	DB	09cH
	DB	0b5H
	DB	07cH
	DB	0adH
	DB	03bH
	DB	09dH
	DB	01bH
	DB	095H
	DB	0dbH
	DB	084H
	DB	05aH
	DB	06cH
	DB	03aH
	DB	05cH
	DB	039H
	DB	05cH
	DB	039H
	DB	05cH
	DB	039H
	DB	05cH
	DB	01aH
	DB	054H
	DB	019H
	DB	054H
	DB	01aH
	DB	054H
	DB	01aH
	DB	054H
	DB	0f9H
	DB	053H
	DB	0f9H
	DB	053H
	DB	019H
	DB	054H
	DB	019H
	DB	054H
	DB	019H
	DB	054H
	DB	019H
	DB	05cH
	DB	019H
	DB	05cH
	DB	019H
	DB	05cH
	DB	0f9H
	DB	053H
	DB	0f9H
	DB	053H
	DB	0f9H
	DB	053H
	DB	0faH
	DB	04bH
	DB	0faH
	DB	04bH
	DB	0faH
	DB	04bH
	DB	0f9H
	DB	04bH
	DB	0f9H
	DB	04bH
	DB	0faH
	DB	04bH
	DB	0f9H
	DB	04bH
	DB	0d9H
	DB	04bH
	DB	0d9H
	DB	04bH
	DB	0f9H
	DB	04bH
	DB	0d9H
	DB	04bH
	DB	0d9H
	DB	04bH
	DB	0d9H
	DB	04bH
	DB	0d9H
	DB	053H
	DB	0f9H
	DB	04bH
	DB	01aH
	DB	04cH
	DB	0d9H
	DB	04bH
	DB	0d9H
	DB	04bH
	DB	0d9H
	DB	04bH
	DB	0d9H
	DB	04bH
	DB	0d9H
	DB	04bH
	DB	0f8H
	DB	04bH
	DB	0d8H
	DB	04bH
	DB	0b6H
	DB	04bH
	DB	08bH
	DB	021H
	DB	04cH
	DB	042H
	DB	059H
	DB	0c6H
	DB	0ffH
	DB	0ffH
	DB	0ffH
	DB	0ffH
	DB	0dfH
	DB	0ffH
	DB	0bfH
	DB	0f7H
	DB	01dH
	DB	0efH
	DB	03bH
	DB	0d6H
	DB	05bH
	DB	0d6H
	DB	0bcH
	DB	0e6H
	DB	05bH
	DB	0c6H
	DB	05bH
	DB	0b6H
	DB	03bH
	DB	0aeH
	DB	07cH
	DB	0aeH
	DB	07cH
	DB	0a6H
	DB	09dH
	DB	0a6H
	DB	09dH
	DB	0a6H
	DB	05bH
	DB	09eH
	DB	057H
	DB	075H
	DB	0d9H
	DB	07dH
	DB	0faH
	DB	085H
	DB	01bH
	DB	08eH
	DB	03bH
	DB	08eH
	DB	0f9H
	DB	085H
	DB	0b8H
	DB	075H
	DB	097H
	DB	06dH
	DB	077H
	DB	065H
	DB	07cH
	DB	086H
	DB	01bH
	DB	086H
	DB	0fbH
	DB	07dH
	DB	01bH
	DB	086H
	DB	0faH
	DB	07dH
	DB	03bH
	DB	076H
	DB	05cH
	DB	086H
	DB	0daH
	DB	06dH
	DB	0d9H
	DB	06dH
	DB	057H
	DB	05dH
	DB	078H
	DB	05dH
	DB	099H
	DB	065H
	DB	0faH
	DB	06dH
	DB	0faH
	DB	075H
	DB	05bH
	DB	07eH
	DB	05bH
	DB	07eH
	DB	03aH
	DB	076H
	DB	0d9H
	DB	065H
	DB	0b8H
	DB	065H
	DB	0f9H
	DB	06dH
	DB	0b8H
	DB	065H
	DB	05aH
	DB	076H
	DB	03aH
	DB	086H
	DB	01aH
	DB	086H
	DB	09cH
	DB	08eH
	DB	039H
	DB	07eH
	DB	0f9H
	DB	075H
	DB	077H
	DB	065H
	DB	0b8H
	DB	065H
	DB	0b8H
	DB	05dH
	DB	0d8H
	DB	05dH
	DB	0b6H
	DB	065H
	DB	0b8H
	DB	065H
	DB	019H
	DB	076H
	DB	05aH
	DB	086H
	DB	0b8H
	DB	065H
	DB	097H
	DB	05dH
	DB	0b8H
	DB	065H
	DB	057H
	DB	065H
	DB	075H
	DB	05dH
	DB	0f2H
	DB	04cH
	DB	013H
	DB	04dH
	DB	095H
	DB	065H
	DB	055H
	DB	055H
	DB	057H
	DB	055H
	DB	077H
	DB	065H
	DB	0b7H
	DB	065H
	DB	076H
	DB	05dH
	DB	076H
	DB	065H
	DB	055H
	DB	05dH
	DB	075H
	DB	04dH
	DB	0d2H
	DB	04cH
	DB	0d4H
	DB	044H
	DB	015H
	DB	04dH
	DB	0f4H
	DB	044H
	DB	056H
	DB	04dH
	DB	015H
	DB	045H
	DB	036H
	DB	04dH
	DB	036H
	DB	04dH
	DB	0d8H
	DB	06dH
	DB	0d8H
	DB	06dH
	DB	013H
	DB	055H
	DB	0d2H
	DB	044H
	DB	015H
	DB	04dH
	DB	056H
	DB	055H
	DB	0b6H
	DB	065H
	DB	018H
	DB	07eH
	DB	0b6H
	DB	05dH
	DB	0f8H
	DB	065H
	DB	053H
	DB	04dH
	DB	095H
	DB	04dH
	DB	074H
	DB	055H
	DB	0b6H
	DB	055H
	DB	039H
	DB	07eH
	DB	0b6H
	DB	06dH
	DB	0f9H
	DB	065H
	DB	079H
	DB	08eH
	DB	076H
	DB	065H
	DB	035H
	DB	04dH
	DB	0f8H
	DB	075H
	DB	098H
	DB	02H
	DB	078H
	DB	0aH
	DB	078H
	DB	0aH
	DB	098H
	DB	0aH
	DB	098H
	DB	0aH
	DB	098H
	DB	0aH
	DB	0b8H
	DB	0aH
	DB	0b8H
	DB	0aH
	DB	0b8H
	DB	0aH
	DB	098H
	DB	0aH
	DB	0b8H
	DB	0aH
	DB	0b8H
	DB	0aH
	DB	0b9H
	DB	0aH
	DB	0b9H
	DB	0aH
	DB	0d9H
	DB	0aH
	DB	0f9H
	DB	0aH
	DB	0f9H
	DB	012H
	DB	0f9H
	DB	012H
	DB	0f9H
	DB	012H
	DB	0f9H
	DB	012H
	DB	0f9H
	DB	012H
	DB	0d9H
	DB	012H
	DB	0d9H
	DB	012H
	DB	0f9H
	DB	012H
	DB	0f9H
	DB	012H
	DB	0f9H
	DB	012H
	DB	0f9H
	DB	012H
	DB	019H
	DB	01bH
	DB	019H
	DB	01bH
	DB	0f9H
	DB	01aH
	DB	019H
	DB	01bH
	DB	019H
	DB	01bH
	DB	019H
	DB	01bH
	DB	01aH
	DB	01bH
	DB	03aH
	DB	01bH
	DB	039H
	DB	01bH
	DB	039H
	DB	01bH
	DB	03aH
	DB	01bH
	DB	03aH
	DB	01bH
	DB	039H
	DB	01bH
	DB	03aH
	DB	01bH
	DB	05aH
	DB	023H
	DB	05aH
	DB	023H
	DB	05aH
	DB	023H
	DB	05aH
	DB	023H
	DB	07aH
	DB	023H
	DB	07aH
	DB	023H
	DB	07aH
	DB	02bH
	DB	09aH
	DB	02bH
	DB	07aH
	DB	02bH
	DB	07aH
	DB	02bH
	DB	09aH
	DB	02bH
	DB	09bH
	DB	02bH
	DB	09bH
	DB	02bH
	DB	0bbH
	DB	02bH
	DB	0bbH
	DB	02bH
	DB	0baH
	DB	033H
	DB	0bbH
	DB	033H
	DB	0dbH
	DB	033H
	DB	0daH
	DB	03bH
	DB	0daH
	DB	03bH
	DB	0faH
	DB	053H
	DB	0dbH
	DB	084H
	DB	0ddH
	DB	0bdH
	DB	09eH
	DB	0deH
	DB	0beH
	DB	0deH
	DB	0bfH
	DB	0e6H
	DB	0dfH
	DB	0e6H
	DB	0ffH
	DB	0e6H
	DB	0ffH
	DB	0e6H
	DB	0dfH
	DB	0e6H
	DB	0dfH
	DB	0e6H
	DB	0bfH
	DB	0e6H
	DB	09fH
	DB	0deH
	DB	07eH
	DB	0d6H
	DB	03eH
	DB	0ceH
	DB	03dH
	DB	0ceH
	DB	01dH
	DB	0c6H
	DB	0fdH
	DB	0bdH
	DB	0bcH
	DB	0b5H
	DB	07bH
	DB	0adH
	DB	09cH
	DB	0b5H
	DB	0bcH
	DB	0b5H
	DB	09cH
	DB	0adH
	DB	05bH
	DB	0a5H
	DB	01bH
	DB	09dH
	DB	0dbH
	DB	08cH
	DB	0baH
	DB	07cH
	DB	07aH
	DB	06cH
	DB	039H
	DB	064H
	DB	03aH
	DB	064H
	DB	03aH
	DB	05cH
	DB	01aH
	DB	05cH
	DB	0f9H
	DB	053H
	DB	019H
	DB	054H
	DB	019H
	DB	054H
	DB	01aH
	DB	054H
	DB	0f9H
	DB	053H
	DB	0f9H
	DB	053H
	DB	01aH
	DB	054H
	DB	01aH
	DB	054H
	DB	0f9H
	DB	053H
	DB	019H
	DB	064H
	DB	019H
	DB	064H
	DB	019H
	DB	05cH
	DB	019H
	DB	05cH
	DB	0f9H
	DB	053H
	DB	0d9H
	DB	053H
	DB	0f9H
	DB	04bH
	DB	0f9H
	DB	04bH
	DB	0f9H
	DB	04bH
	DB	0f9H
	DB	04bH
	DB	0f9H
	DB	04bH
	DB	0d9H
	DB	04bH
	DB	0d9H
	DB	04bH
	DB	0d9H
	DB	053H
	DB	0d9H
	DB	04bH
	DB	0d9H
	DB	04bH
	DB	0d9H
	DB	04bH
	DB	0d9H
	DB	04bH
	DB	0d9H
	DB	04bH
	DB	0d9H
	DB	04bH
	DB	0d9H
	DB	04bH
	DB	0f9H
	DB	04bH
	DB	0f9H
	DB	04bH
	DB	0f9H
	DB	04bH
	DB	0d9H
	DB	04bH
	DB	0f9H
	DB	04bH
	DB	0f9H
	DB	04bH
	DB	0d8H
	DB	04bH
	DB	0d8H
	DB	04bH
	DB	0b6H
	DB	053H
	DB	0abH
	DB	021H
	DB	02cH
	DB	042H
	DB	099H
	DB	0ceH
	DB	0ffH
	DB	0ffH
	DB	0ffH
	DB	0ffH
	DB	0dfH
	DB	0ffH
	DB	0bfH
	DB	0ffH
	DB	05eH
	DB	0f7H
	DB	03aH
	DB	0d6H
	DB	05aH
	DB	0d6H
	DB	0dcH
	DB	0e6H
	DB	05bH
	DB	0c6H
	DB	05bH
	DB	0b6H
	DB	05bH
	DB	0aeH
	DB	05bH
	DB	0aeH
	DB	05cH
	DB	0a6H
	DB	07cH
	DB	09eH
	DB	07cH
	DB	09eH
	DB	03bH
	DB	09eH
	DB	058H
	DB	075H
	DB	0d9H
	DB	07dH
	DB	0d9H
	DB	085H
	DB	01aH
	DB	08eH
	DB	03bH
	DB	096H
	DB	0f9H
	DB	08dH
	DB	098H
	DB	075H
	DB	077H
	DB	06dH
	DB	036H
	DB	065H
	DB	01bH
	DB	07eH
	DB	0daH
	DB	07dH
	DB	0daH
	DB	07dH
	DB	05cH
	DB	08eH
	DB	01aH
	DB	086H
	DB	05cH
	DB	086H
	DB	05bH
	DB	086H
	DB	0daH
	DB	075H
	DB	01aH
	DB	076H
	DB	057H
	DB	05dH
	DB	099H
	DB	065H
	DB	0b9H
	DB	06dH
	DB	0d9H
	DB	06dH
	DB	0b9H
	DB	065H
	DB	03bH
	DB	076H
	DB	05bH
	DB	076H
	DB	01aH
	DB	06eH
	DB	0d9H
	DB	06dH
	DB	098H
	DB	05dH
	DB	03aH
	DB	076H
	DB	0d9H
	DB	065H
	DB	0d9H
	DB	065H
	DB	03bH
	DB	07eH
	DB	07bH
	DB	086H
	DB	09cH
	DB	096H
	DB	07bH
	DB	086H
	DB	0f9H
	DB	075H
	DB	057H
	DB	065H
	DB	0d8H
	DB	06dH
	DB	0d8H
	DB	065H
	DB	019H
	DB	066H
	DB	096H
	DB	065H
	DB	097H
	DB	065H
	DB	0d8H
	DB	06dH
	DB	03aH
	DB	076H
	DB	0f9H
	DB	075H
	DB	077H
	DB	055H
	DB	077H
	DB	05dH
	DB	077H
	DB	05dH
	DB	055H
	DB	05dH
	DB	055H
	DB	055H
	DB	054H
	DB	04dH
	DB	075H
	DB	055H
	DB	055H
	DB	04dH
	DB	057H
	DB	05dH
	DB	077H
	DB	06dH
	DB	036H
	DB	05dH
	DB	076H
	DB	065H
	DB	055H
	DB	065H
	DB	055H
	DB	055H
	DB	0b7H
	DB	05dH
	DB	0f3H
	DB	04cH
	DB	0b3H
	DB	044H
	DB	015H
	DB	04dH
	DB	0f5H
	DB	044H
	DB	015H
	DB	055H
	DB	014H
	DB	045H
	DB	077H
	DB	05dH
	DB	097H
	DB	065H
	DB	0b8H
	DB	06dH
	DB	0d8H
	DB	06dH
	DB	076H
	DB	065H
	DB	034H
	DB	055H
	DB	076H
	DB	055H
	DB	056H
	DB	055H
	DB	0d7H
	DB	06dH
	DB	039H
	DB	06eH
	DB	0d7H
	DB	065H
	DB	038H
	DB	06eH
	DB	013H
	DB	04dH
	DB	054H
	DB	045H
	DB	054H
	DB	04dH
	DB	055H
	DB	04dH
	DB	0f9H
	DB	075H
	DB	0b7H
	DB	06dH
	DB	0b8H
	DB	05dH
	DB	07aH
	DB	08eH
	DB	056H
	DB	05dH
	DB	076H
	DB	055H
	DB	05aH
	DB	07eH
	DB	098H
	DB	02H
	DB	098H
	DB	0aH
	DB	078H
	DB	0aH
	DB	098H
	DB	0aH
	DB	098H
	DB	0aH
	DB	098H
	DB	0aH
	DB	098H
	DB	0aH
	DB	098H
	DB	0aH
	DB	098H
	DB	0aH
	DB	098H
	DB	0aH
	DB	0b8H
	DB	0aH
	DB	0b9H
	DB	0aH
	DB	0b8H
	DB	0aH
	DB	0b9H
	DB	0aH
	DB	0d9H
	DB	012H
	DB	0f9H
	DB	0aH
	DB	0f9H
	DB	012H
	DB	0d9H
	DB	012H
	DB	0d9H
	DB	012H
	DB	0d9H
	DB	012H
	DB	0d9H
	DB	012H
	DB	0d9H
	DB	012H
	DB	0d9H
	DB	012H
	DB	0d9H
	DB	012H
	DB	0d9H
	DB	012H
	DB	0f9H
	DB	012H
	DB	0f9H
	DB	012H
	DB	0f9H
	DB	012H
	DB	019H
	DB	01bH
	DB	0f9H
	DB	01aH
	DB	0f9H
	DB	01aH
	DB	0f9H
	DB	01aH
	DB	019H
	DB	01bH
	DB	019H
	DB	01bH
	DB	03aH
	DB	01bH
	DB	019H
	DB	01bH
	DB	03aH
	DB	01bH
	DB	03aH
	DB	01bH
	DB	039H
	DB	01bH
	DB	019H
	DB	01bH
	DB	039H
	DB	01bH
	DB	03aH
	DB	023H
	DB	05aH
	DB	023H
	DB	05aH
	DB	023H
	DB	05aH
	DB	023H
	DB	05aH
	DB	023H
	DB	07aH
	DB	023H
	DB	07aH
	DB	02bH
	DB	09aH
	DB	023H
	DB	09aH
	DB	02bH
	DB	07aH
	DB	02bH
	DB	07aH
	DB	02bH
	DB	09bH
	DB	02bH
	DB	09bH
	DB	02bH
	DB	0bbH
	DB	033H
	DB	0bbH
	DB	033H
	DB	0baH
	DB	02bH
	DB	0dbH
	DB	033H
	DB	0baH
	DB	033H
	DB	0daH
	DB	03bH
	DB	0baH
	DB	043H
	DB	0faH
	DB	05bH
	DB	0fbH
	DB	094H
	DB	0fdH
	DB	0c5H
	DB	0bfH
	DB	0deH
	DB	0dfH
	DB	0deH
	DB	0dfH
	DB	0deH
	DB	0bfH
	DB	0deH
	DB	0bfH
	DB	0deH
	DB	0ffH
	DB	0e6H
	DB	0dfH
	DB	0e6H
	DB	0beH
	DB	0deH
	DB	09eH
	DB	0deH
	DB	07eH
	DB	0deH
	DB	07eH
	DB	0d6H
	DB	03dH
	DB	0ceH
	DB	01dH
	DB	0c6H
	DB	0bcH
	DB	0bdH
	DB	09cH
	DB	0adH
	DB	07cH
	DB	0a5H
	DB	05bH
	DB	0a5H
	DB	09cH
	DB	0b5H
	DB	0bdH
	DB	0b5H
	DB	07cH
	DB	0a5H
	DB	03bH
	DB	09dH
	DB	0fbH
	DB	094H
	DB	0daH
	DB	08cH
	DB	0baH
	DB	07cH
	DB	07aH
	DB	06cH
	DB	03aH
	DB	064H
	DB	01aH
	DB	05cH
	DB	03aH
	DB	05cH
	DB	01aH
	DB	05cH
	DB	019H
	DB	054H
	DB	019H
	DB	054H
	DB	01aH
	DB	054H
	DB	01aH
	DB	054H
	DB	01aH
	DB	054H
	DB	01aH
	DB	054H
	DB	01aH
	DB	054H
	DB	01aH
	DB	054H
	DB	019H
	DB	05cH
	DB	039H
	DB	064H
	DB	039H
	DB	064H
	DB	039H
	DB	064H
	DB	019H
	DB	05cH
	DB	0f9H
	DB	05bH
	DB	0f9H
	DB	053H
	DB	0f9H
	DB	04bH
	DB	019H
	DB	04cH
	DB	0f9H
	DB	04bH
	DB	0f9H
	DB	04bH
	DB	0d9H
	DB	053H
	DB	0f9H
	DB	053H
	DB	0d9H
	DB	04bH
	DB	0d9H
	DB	04bH
	DB	0d9H
	DB	04bH
	DB	0d9H
	DB	04bH
	DB	0d9H
	DB	04bH
	DB	0d9H
	DB	04bH
	DB	0d9H
	DB	04bH
	DB	0d9H
	DB	04bH
	DB	0f9H
	DB	04bH
	DB	0d9H
	DB	04bH
	DB	0f9H
	DB	04bH
	DB	0d9H
	DB	04bH
	DB	0f9H
	DB	04bH
	DB	0d9H
	DB	04bH
	DB	0d9H
	DB	04bH
	DB	0f8H
	DB	04bH
	DB	0d8H
	DB	04bH
	DB	094H
	DB	04bH
	DB	0cbH
	DB	029H
	DB	0bH
	DB	042H
	DB	0daH
	DB	0deH
	DB	0ffH
	DB	0ffH
	DB	0ffH
	DB	0ffH
	DB	0dfH
	DB	0ffH
	DB	0dfH
	DB	0ffH
	DB	07eH
	DB	0f7H
	DB	03aH
	DB	0d6H
	DB	07bH
	DB	0d6H
	DB	0bcH
	DB	0e6H
	DB	05aH
	DB	0c6H
	DB	03bH
	DB	0b6H
	DB	01aH
	DB	0a6H
	DB	05bH
	DB	0aeH
	DB	03bH
	DB	0a6H
	DB	05cH
	DB	09eH
	DB	09dH
	DB	0a6H
	DB	05bH
	DB	09eH
	DB	0b9H
	DB	085H
	DB	098H
	DB	075H
	DB	0d9H
	DB	07dH
	DB	0daH
	DB	08dH
	DB	05bH
	DB	09eH
	DB	01aH
	DB	08eH
	DB	098H
	DB	075H
	DB	077H
	DB	06dH
	DB	077H
	DB	06dH
	DB	0daH
	DB	07dH
	DB	079H
	DB	075H
	DB	0daH
	DB	07dH
	DB	05cH
	DB	096H
	DB	07bH
	DB	096H
	DB	05cH
	DB	08eH
	DB	07cH
	DB	08eH
	DB	0faH
	DB	075H
	DB	0d9H
	DB	06dH
	DB	057H
	DB	05dH
	DB	099H
	DB	05dH
	DB	0baH
	DB	06dH
	DB	078H
	DB	065H
	DB	0d9H
	DB	065H
	DB	01aH
	DB	06eH
	DB	07cH
	DB	076H
	DB	03aH
	DB	06eH
	DB	0f9H
	DB	065H
	DB	078H
	DB	055H
	DB	019H
	DB	06eH
	DB	0d9H
	DB	065H
	DB	098H
	DB	05dH
	DB	01aH
	DB	076H
	DB	03bH
	DB	076H
	DB	0dcH
	DB	08eH
	DB	05aH
	DB	07eH
	DB	0d9H
	DB	06dH
	DB	077H
	DB	065H
	DB	0d9H
	DB	06dH
	DB	0d8H
	DB	065H
	DB	019H
	DB	06eH
	DB	097H
	DB	065H
	DB	0d8H
	DB	075H
	DB	0f8H
	DB	075H
	DB	039H
	DB	076H
	DB	0f9H
	DB	075H
	DB	036H
	DB	04dH
	DB	076H
	DB	055H
	DB	036H
	DB	055H
	DB	0f3H
	DB	044H
	DB	075H
	DB	055H
	DB	033H
	DB	045H
	DB	0f2H
	DB	03cH
	DB	055H
	DB	04dH
	DB	057H
	DB	05dH
	DB	0f9H
	DB	085H
	DB	035H
	DB	05dH
	DB	055H
	DB	05dH
	DB	036H
	DB	065H
	DB	056H
	DB	055H
	DB	0b7H
	DB	055H
	DB	014H
	DB	04dH
	DB	0f3H
	DB	04cH
	DB	0f5H
	DB	04cH
	DB	015H
	DB	045H
	DB	035H
	DB	055H
	DB	035H
	DB	055H
	DB	077H
	DB	05dH
	DB	097H
	DB	065H
	DB	0d8H
	DB	06dH
	DB	0b8H
	DB	065H
	DB	0b7H
	DB	065H
	DB	0b6H
	DB	05dH
	DB	0b7H
	DB	065H
	DB	097H
	DB	05dH
	DB	039H
	DB	076H
	DB	0f8H
	DB	05dH
	DB	017H
	DB	066H
	DB	017H
	DB	066H
	DB	012H
	DB	04dH
	DB	0d1H
	DB	034H
	DB	0f2H
	DB	03cH
	DB	055H
	DB	045H
	DB	0f9H
	DB	06dH
	DB	0b7H
	DB	06dH
	DB	0f9H
	DB	065H
	DB	019H
	DB	07eH
	DB	056H
	DB	04dH
	DB	0b8H
	DB	05dH
	DB	05aH
	DB	07eH
	DB	098H
	DB	02H
	DB	078H
	DB	02H
	DB	078H
	DB	0aH
	DB	078H
	DB	0aH
	DB	098H
	DB	0aH
	DB	098H
	DB	0aH
	DB	098H
	DB	0aH
	DB	098H
	DB	0aH
	DB	098H
	DB	0aH
	DB	0b8H
	DB	0aH
	DB	0d9H
	DB	0aH
	DB	0d9H
	DB	0aH
	DB	0d9H
	DB	0aH
	DB	0b9H
	DB	0aH
	DB	0f9H
	DB	012H
	DB	0d9H
	DB	0aH
	DB	0d9H
	DB	012H
	DB	0d9H
	DB	012H
	DB	0d9H
	DB	012H
	DB	0f9H
	DB	012H
	DB	0d9H
	DB	012H
	DB	0d9H
	DB	012H
	DB	0d9H
	DB	012H
	DB	0d9H
	DB	012H
	DB	0f9H
	DB	012H
	DB	0f9H
	DB	012H
	DB	0f9H
	DB	012H
	DB	019H
	DB	01bH
	DB	019H
	DB	01bH
	DB	0f9H
	DB	01aH
	DB	01aH
	DB	01bH
	DB	019H
	DB	01bH
	DB	019H
	DB	01bH
	DB	01aH
	DB	01bH
	DB	03aH
	DB	01bH
	DB	019H
	DB	01bH
	DB	03aH
	DB	01bH
	DB	03aH
	DB	01bH
	DB	039H
	DB	01bH
	DB	039H
	DB	01bH
	DB	03aH
	DB	01bH
	DB	05aH
	DB	023H
	DB	03aH
	DB	023H
	DB	05aH
	DB	023H
	DB	07aH
	DB	023H
	DB	07aH
	DB	02bH
	DB	07aH
	DB	023H
	DB	07aH
	DB	02bH
	DB	09aH
	DB	023H
	DB	09aH
	DB	02bH
	DB	09aH
	DB	02bH
	DB	09bH
	DB	02bH
	DB	09bH
	DB	02bH
	DB	09bH
	DB	02bH
	DB	0bbH
	DB	02bH
	DB	0bbH
	DB	02bH
	DB	0dbH
	DB	033H
	DB	0dbH
	DB	033H
	DB	0baH
	DB	033H
	DB	0baH
	DB	03bH
	DB	0daH
	DB	04bH
	DB	05aH
	DB	074H
	DB	03cH
	DB	0a5H
	DB	01eH
	DB	0c6H
	DB	09eH
	DB	0d6H
	DB	0bfH
	DB	0e6H
	DB	0bfH
	DB	0deH
	DB	0beH
	DB	0deH
	DB	0bfH
	DB	0deH
	DB	0dfH
	DB	0deH
	DB	09eH
	DB	0deH
	DB	09eH
	DB	0deH
	DB	05eH
	DB	0d6H
	DB	03dH
	DB	0d6H
	DB	05dH
	DB	0ceH
	DB	01eH
	DB	0c6H
	DB	0ddH
	DB	0bdH
	DB	09cH
	DB	0adH
	DB	03bH
	DB	09dH
	DB	01cH
	DB	095H
	DB	01bH
	DB	095H
	DB	09cH
	DB	0a5H
	DB	05cH
	DB	09dH
	DB	01bH
	DB	095H
	DB	01bH
	DB	095H
	DB	0fbH
	DB	08cH
	DB	0baH
	DB	084H
	DB	0baH
	DB	07cH
	DB	07aH
	DB	064H
	DB	01aH
	DB	05cH
	DB	01aH
	DB	05cH
	DB	01aH
	DB	05cH
	DB	01aH
	DB	05cH
	DB	01aH
	DB	054H
	DB	01aH
	DB	05cH
	DB	0f9H
	DB	053H
	DB	01aH
	DB	054H
	DB	01aH
	DB	054H
	DB	01aH
	DB	054H
	DB	019H
	DB	054H
	DB	0faH
	DB	053H
	DB	019H
	DB	05cH
	DB	039H
	DB	06cH
	DB	039H
	DB	06cH
	DB	039H
	DB	064H
	DB	019H
	DB	05cH
	DB	0f9H
	DB	05bH
	DB	019H
	DB	054H
	DB	019H
	DB	054H
	DB	0f9H
	DB	04bH
	DB	0f9H
	DB	04bH
	DB	0f9H
	DB	04bH
	DB	0d9H
	DB	053H
	DB	0f9H
	DB	053H
	DB	0f9H
	DB	053H
	DB	0d9H
	DB	053H
	DB	0d9H
	DB	04bH
	DB	0d9H
	DB	04bH
	DB	0d9H
	DB	04bH
	DB	0f9H
	DB	04bH
	DB	0d9H
	DB	04bH
	DB	0d9H
	DB	04bH
	DB	0d9H
	DB	04bH
	DB	0d9H
	DB	04bH
	DB	0d9H
	DB	04bH
	DB	0f9H
	DB	04bH
	DB	0f9H
	DB	04bH
	DB	0d9H
	DB	04bH
	DB	0f9H
	DB	04bH
	DB	0f8H
	DB	04bH
	DB	0f8H
	DB	053H
	DB	0f4H
	DB	05bH
	DB	0cH
	DB	03aH
	DB	02bH
	DB	04aH
	DB	0fbH
	DB	0deH
	DB	0ffH
	DB	0ffH
	DB	0ffH
	DB	0ffH
	DB	0dfH
	DB	0ffH
	DB	0bfH
	DB	0ffH
	DB	07eH
	DB	0f7H
	DB	03bH
	DB	0d6H
	DB	07bH
	DB	0d6H
	DB	0bcH
	DB	0e6H
	DB	05aH
	DB	0c6H
	DB	03bH
	DB	0b6H
	DB	03bH
	DB	0aeH
	DB	05bH
	DB	0aeH
	DB	03bH
	DB	0a6H
	DB	05bH
	DB	09eH
	DB	0bdH
	DB	0aeH
	DB	05bH
	DB	09eH
	DB	0d9H
	DB	085H
	DB	0b8H
	DB	07dH
	DB	0faH
	DB	085H
	DB	01bH
	DB	096H
	DB	01bH
	DB	096H
	DB	0b9H
	DB	085H
	DB	078H
	DB	075H
	DB	077H
	DB	06dH
	DB	057H
	DB	06dH
	DB	0b9H
	DB	06dH
	DB	0baH
	DB	07dH
	DB	099H
	DB	075H
	DB	09cH
	DB	096H
	DB	07cH
	DB	09eH
	DB	05cH
	DB	086H
	DB	07cH
	DB	08eH
	DB	0d9H
	DB	075H
	DB	0daH
	DB	06dH
	DB	0f9H
	DB	06dH
	DB	099H
	DB	065H
	DB	0dbH
	DB	075H
	DB	078H
	DB	05dH
	DB	098H
	DB	05dH
	DB	0b8H
	DB	05dH
	DB	05bH
	DB	076H
	DB	01aH
	DB	06eH
	DB	0f9H
	DB	065H
	DB	097H
	DB	05dH
	DB	0d8H
	DB	065H
	DB	0d9H
	DB	065H
	DB	0f9H
	DB	06dH
	DB	0b9H
	DB	06dH
	DB	0b8H
	DB	065H
	DB	09cH
	DB	08eH
	DB	019H
	DB	07eH
	DB	0d9H
	DB	06dH
	DB	057H
	DB	065H
	DB	0b9H
	DB	065H
	DB	0d8H
	DB	065H
	DB	0f9H
	DB	06dH
	DB	0b8H
	DB	065H
	DB	01aH
	DB	076H
	DB	05aH
	DB	086H
	DB	03aH
	DB	076H
	DB	019H
	DB	07eH
	DB	056H
	DB	05dH
	DB	0f5H
	DB	04cH
	DB	015H
	DB	055H
	DB	014H
	DB	045H
	DB	096H
	DB	055H
	DB	0f1H
	DB	044H
	DB	070H
	DB	02cH
	DB	076H
	DB	055H
	DB	078H
	DB	055H
	DB	03aH
	DB	086H
	DB	035H
	DB	065H
	DB	035H
	DB	05dH
	DB	097H
	DB	06dH
	DB	076H
	DB	055H
	DB	096H
	DB	04dH
	DB	034H
	DB	055H
	DB	014H
	DB	055H
	DB	0f4H
	DB	04cH
	DB	0f5H
	DB	044H
	DB	097H
	DB	05dH
	DB	0d8H
	DB	07dH
	DB	097H
	DB	05dH
	DB	097H
	DB	065H
	DB	0d8H
	DB	06dH
	DB	0d8H
	DB	06dH
	DB	0d8H
	DB	06dH
	DB	0b7H
	DB	05dH
	DB	0f8H
	DB	075H
	DB	0d7H
	DB	065H
	DB	039H
	DB	07eH
	DB	096H
	DB	04dH
	DB	0f7H
	DB	05dH
	DB	0f7H
	DB	05dH
	DB	032H
	DB	04dH
	DB	0b0H
	DB	03cH
	DB	091H
	DB	034H
	DB	056H
	DB	045H
	DB	0f9H
	DB	06dH
	DB	097H
	DB	065H
	DB	0f9H
	DB	065H
	DB	01aH
	DB	076H
	DB	077H
	DB	05dH
	DB	0d9H
	DB	06dH
	DB	07aH
	DB	086H
	DB	078H
	DB	02H
	DB	078H
	DB	0aH
	DB	098H
	DB	0aH
	DB	078H
	DB	0aH
	DB	078H
	DB	0aH
	DB	098H
	DB	0aH
	DB	098H
	DB	0aH
	DB	098H
	DB	0aH
	DB	098H
	DB	0aH
	DB	098H
	DB	0aH
	DB	0b9H
	DB	0aH
	DB	0f9H
	DB	0aH
	DB	0f9H
	DB	0aH
	DB	0d9H
	DB	0aH
	DB	0b8H
	DB	012H
	DB	0b8H
	DB	012H
	DB	0d9H
	DB	012H
	DB	0d9H
	DB	012H
	DB	0d9H
	DB	012H
	DB	0d9H
	DB	012H
	DB	0d9H
	DB	012H
	DB	0f9H
	DB	012H
	DB	0f9H
	DB	012H
	DB	0f9H
	DB	012H
	DB	0d9H
	DB	012H
	DB	0f9H
	DB	01aH
	DB	0f9H
	DB	01aH
	DB	0f9H
	DB	01aH
	DB	0f9H
	DB	01aH
	DB	0f9H
	DB	01aH
	DB	0f9H
	DB	01aH
	DB	01aH
	DB	01bH
	DB	039H
	DB	01bH
	DB	039H
	DB	01bH
	DB	039H
	DB	01bH
	DB	03aH
	DB	01bH
	DB	03aH
	DB	01bH
	DB	03aH
	DB	01bH
	DB	03aH
	DB	01bH
	DB	05aH
	DB	01bH
	DB	03aH
	DB	023H
	DB	03aH
	DB	023H
	DB	03aH
	DB	023H
	DB	05aH
	DB	023H
	DB	05aH
	DB	023H
	DB	07aH
	DB	023H
	DB	07aH
	DB	023H
	DB	07aH
	DB	02bH
	DB	09aH
	DB	02bH
	DB	09aH
	DB	02bH
	DB	09aH
	DB	02bH
	DB	09aH
	DB	02bH
	DB	09aH
	DB	02bH
	DB	09bH
	DB	02bH
	DB	0bbH
	DB	02bH
	DB	0bbH
	DB	033H
	DB	0baH
	DB	033H
	DB	0bbH
	DB	033H
	DB	0baH
	DB	033H
	DB	0daH
	DB	043H
	DB	03bH
	DB	06cH
	DB	0fcH
	DB	094H
	DB	05cH
	DB	0a5H
	DB	0feH
	DB	0c5H
	DB	07eH
	DB	0d6H
	DB	0bfH
	DB	0deH
	DB	0beH
	DB	0deH
	DB	0bfH
	DB	0e6H
	DB	0bfH
	DB	0deH
	DB	09fH
	DB	0d6H
	DB	07eH
	DB	0d6H
	DB	05eH
	DB	0d6H
	DB	05eH
	DB	0ceH
	DB	03dH
	DB	0ceH
	DB	01eH
	DB	0c6H
	DB	0fdH
	DB	0bdH
	DB	0bcH
	DB	0b5H
	DB	05cH
	DB	0a5H
	DB	0daH
	DB	084H
	DB	09bH
	DB	07cH
	DB	0dbH
	DB	084H
	DB	0fcH
	DB	08cH
	DB	0dbH
	DB	084H
	DB	0bbH
	DB	084H
	DB	0dbH
	DB	08cH
	DB	0baH
	DB	084H
	DB	0baH
	DB	07cH
	DB	07aH
	DB	074H
	DB	05aH
	DB	064H
	DB	019H
	DB	05cH
	DB	019H
	DB	05cH
	DB	01aH
	DB	05cH
	DB	019H
	DB	05cH
	DB	01aH
	DB	054H
	DB	01aH
	DB	054H
	DB	01aH
	DB	054H
	DB	01aH
	DB	054H
	DB	01aH
	DB	054H
	DB	01aH
	DB	054H
	DB	01aH
	DB	054H
	DB	0f9H
	DB	05bH
	DB	019H
	DB	064H
	DB	05aH
	DB	06cH
	DB	05aH
	DB	06cH
	DB	039H
	DB	064H
	DB	019H
	DB	064H
	DB	0f9H
	DB	05bH
	DB	0f9H
	DB	053H
	DB	019H
	DB	054H
	DB	01aH
	DB	054H
	DB	0f9H
	DB	04bH
	DB	0f9H
	DB	053H
	DB	0f9H
	DB	053H
	DB	0f9H
	DB	053H
	DB	0d9H
	DB	04bH
	DB	0f9H
	DB	053H
	DB	0d9H
	DB	04bH
	DB	0f9H
	DB	04bH
	DB	0f9H
	DB	04bH
	DB	0d9H
	DB	04bH
	DB	0f9H
	DB	04bH
	DB	0f9H
	DB	04bH
	DB	0f9H
	DB	04bH
	DB	0d9H
	DB	04bH
	DB	0d9H
	DB	04bH
	DB	0f9H
	DB	04bH
	DB	0f9H
	DB	04bH
	DB	0f9H
	DB	04bH
	DB	0f9H
	DB	04bH
	DB	0f9H
	DB	04bH
	DB	0d7H
	DB	04bH
	DB	093H
	DB	053H
	DB	0dH
	DB	032H
	DB	04bH
	DB	04aH
	DB	07cH
	DB	0efH
	DB	0ffH
	DB	0ffH
	DB	0ffH
	DB	0ffH
	DB	0dfH
	DB	0ffH
	DB	0bfH
	DB	0ffH
	DB	05eH
	DB	0f7H
	DB	05bH
	DB	0d6H
	DB	07aH
	DB	0deH
	DB	0dcH
	DB	0e6H
	DB	05bH
	DB	0c6H
	DB	03bH
	DB	0b6H
	DB	03bH
	DB	0aeH
	DB	03bH
	DB	0a6H
	DB	01bH
	DB	09eH
	DB	03cH
	DB	0a6H
	DB	09cH
	DB	0a6H
	DB	05cH
	DB	09eH
	DB	0d9H
	DB	085H
	DB	077H
	DB	075H
	DB	0d9H
	DB	085H
	DB	0faH
	DB	08dH
	DB	0faH
	DB	08dH
	DB	0d9H
	DB	07dH
	DB	057H
	DB	06dH
	DB	078H
	DB	06dH
	DB	077H
	DB	06dH
	DB	078H
	DB	065H
	DB	0d9H
	DB	06dH
	DB	0faH
	DB	07dH
	DB	07dH
	DB	096H
	DB	07cH
	DB	09eH
	DB	05cH
	DB	086H
	DB	05bH
	DB	086H
	DB	0faH
	DB	075H
	DB	0daH
	DB	06dH
	DB	05cH
	DB	07eH
	DB	0faH
	DB	075H
	DB	0daH
	DB	075H
	DB	078H
	DB	05dH
	DB	099H
	DB	065H
	DB	0d9H
	DB	05dH
	DB	05cH
	DB	07eH
	DB	07bH
	DB	076H
	DB	0d8H
	DB	05dH
	DB	097H
	DB	055H
	DB	077H
	DB	055H
	DB	0b9H
	DB	05dH
	DB	0d9H
	DB	065H
	DB	0faH
	DB	06dH
	DB	0b8H
	DB	065H
	DB	0f9H
	DB	065H
	DB	07aH
	DB	07eH
	DB	0b9H
	DB	06dH
	DB	098H
	DB	06dH
	DB	098H
	DB	065H
	DB	0b8H
	DB	065H
	DB	0f9H
	DB	06dH
	DB	098H
	DB	05dH
	DB	03bH
	DB	07eH
	DB	07bH
	DB	08eH
	DB	09cH
	DB	08eH
	DB	019H
	DB	076H
	DB	0b7H
	DB	06dH
	DB	0d4H
	DB	04cH
	DB	035H
	DB	055H
	DB	0f3H
	DB	03cH
	DB	014H
	DB	03dH
	DB	012H
	DB	045H
	DB	0f3H
	DB	03cH
	DB	077H
	DB	04dH
	DB	057H
	DB	055H
	DB	0d9H
	DB	075H
	DB	015H
	DB	05dH
	DB	035H
	DB	05dH
	DB	096H
	DB	065H
	DB	055H
	DB	05dH
	DB	075H
	DB	04dH
	DB	034H
	DB	055H
	DB	034H
	DB	055H
	DB	0d4H
	DB	04cH
	DB	0f5H
	DB	04cH
	DB	019H
	DB	076H
	DB	039H
	DB	08eH
	DB	097H
	DB	065H
	DB	077H
	DB	065H
	DB	0b7H
	DB	06dH
	DB	0f9H
	DB	06dH
	DB	0d8H
	DB	065H
	DB	0d7H
	DB	065H
	DB	0f8H
	DB	06dH
	DB	0b7H
	DB	065H
	DB	0f8H
	DB	05dH
	DB	054H
	DB	04dH
	DB	0b6H
	DB	055H
	DB	0f6H
	DB	065H
	DB	012H
	DB	04dH
	DB	012H
	DB	045H
	DB	013H
	DB	045H
	DB	075H
	DB	04dH
	DB	0f8H
	DB	06dH
	DB	0d8H
	DB	06dH
	DB	0d9H
	DB	05dH
	DB	03aH
	DB	07eH
	DB	0f9H
	DB	07dH
	DB	05aH
	DB	07eH
	DB	09bH
	DB	08eH
	DB	077H
	DB	0aH
	DB	078H
	DB	0aH
	DB	078H
	DB	0aH
	DB	098H
	DB	0aH
	DB	098H
	DB	0aH
	DB	098H
	DB	0aH
	DB	098H
	DB	0aH
	DB	099H
	DB	0aH
	DB	098H
	DB	0aH
	DB	098H
	DB	0aH
	DB	0b8H
	DB	0aH
	DB	0d9H
	DB	0aH
	DB	0b8H
	DB	0aH
	DB	0b8H
	DB	0aH
	DB	0b8H
	DB	012H
	DB	098H
	DB	0aH
	DB	0b8H
	DB	012H
	DB	0b8H
	DB	012H
	DB	0d9H
	DB	012H
	DB	0d9H
	DB	012H
	DB	0d9H
	DB	012H
	DB	0f9H
	DB	012H
	DB	0f9H
	DB	012H
	DB	0d9H
	DB	012H
	DB	0d9H
	DB	012H
	DB	0f9H
	DB	01aH
	DB	0f9H
	DB	01aH
	DB	0f9H
	DB	012H
	DB	0f9H
	DB	01aH
	DB	019H
	DB	01bH
	DB	019H
	DB	01bH
	DB	03aH
	DB	01bH
	DB	03aH
	DB	01bH
	DB	019H
	DB	01bH
	DB	03aH
	DB	01bH
	DB	03aH
	DB	01bH
	DB	019H
	DB	01bH
	DB	019H
	DB	01bH
	DB	03aH
	DB	01bH
	DB	03aH
	DB	01bH
	DB	03aH
	DB	01bH
	DB	03aH
	DB	023H
	DB	05aH
	DB	023H
	DB	05aH
	DB	023H
	DB	05aH
	DB	023H
	DB	07aH
	DB	023H
	DB	07aH
	DB	023H
	DB	07aH
	DB	023H
	DB	09aH
	DB	02bH
	DB	09bH
	DB	02bH
	DB	09bH
	DB	02bH
	DB	09aH
	DB	02bH
	DB	09aH
	DB	02bH
	DB	09aH
	DB	02bH
	DB	09aH
	DB	02bH
	DB	09aH
	DB	033H
	DB	0baH
	DB	033H
	DB	09aH
	DB	033H
	DB	0baH
	DB	03bH
	DB	0daH
	DB	043H
	DB	03bH
	DB	054H
	DB	01cH
	DB	08dH
	DB	07cH
	DB	0adH
	DB	0ddH
	DB	0b5H
	DB	05eH
	DB	0ceH
	DB	09eH
	DB	0d6H
	DB	0bfH
	DB	0deH
	DB	0bfH
	DB	0deH
	DB	09eH
	DB	0d6H
	DB	07eH
	DB	0d6H
	DB	03dH
	DB	0ceH
	DB	03dH
	DB	0ceH
	DB	03eH
	DB	0ceH
	DB	01dH
	DB	0c6H
	DB	0ddH
	DB	0c5H
	DB	0ddH
	DB	0bdH
	DB	0bcH
	DB	0b5H
	DB	03cH
	DB	09dH
	DB	0baH
	DB	07cH
	DB	07aH
	DB	074H
	DB	07aH
	DB	06cH
	DB	0bbH
	DB	07cH
	DB	09bH
	DB	07cH
	DB	0bbH
	DB	07cH
	DB	09aH
	DB	07cH
	DB	09aH
	DB	07cH
	DB	09aH
	DB	07cH
	DB	07aH
	DB	074H
	DB	05aH
	DB	064H
	DB	01aH
	DB	05cH
	DB	03aH
	DB	05cH
	DB	01aH
	DB	05cH
	DB	01aH
	DB	05cH
	DB	019H
	DB	054H
	DB	01aH
	DB	054H
	DB	01aH
	DB	054H
	DB	01aH
	DB	054H
	DB	01aH
	DB	054H
	DB	01aH
	DB	054H
	DB	01aH
	DB	054H
	DB	01aH
	DB	05cH
	DB	03aH
	DB	064H
	DB	039H
	DB	06cH
	DB	05aH
	DB	06cH
	DB	019H
	DB	064H
	DB	019H
	DB	05cH
	DB	019H
	DB	05cH
	DB	0f9H
	DB	053H
	DB	019H
	DB	054H
	DB	01aH
	DB	054H
	DB	0f9H
	DB	04bH
	DB	0d9H
	DB	053H
	DB	0f9H
	DB	053H
	DB	0f9H
	DB	053H
	DB	0d9H
	DB	053H
	DB	0d9H
	DB	053H
	DB	0d9H
	DB	04bH
	DB	0d9H
	DB	04bH
	DB	0f9H
	DB	04bH
	DB	0f9H
	DB	04bH
	DB	0faH
	DB	04bH
	DB	0f9H
	DB	04bH
	DB	0f9H
	DB	04bH
	DB	0d9H
	DB	04bH
	DB	0d9H
	DB	04bH
	DB	0d9H
	DB	04bH
	DB	0f9H
	DB	04bH
	DB	0f9H
	DB	04bH
	DB	0f9H
	DB	04bH
	DB	0d9H
	DB	04bH
	DB	0d7H
	DB	053H
	DB	092H
	DB	053H
	DB	02dH
	DB	042H
	DB	02bH
	DB	04aH
	DB	09dH
	DB	0f7H
	DB	0ffH
	DB	0ffH
	DB	0ffH
	DB	0ffH
	DB	0dfH
	DB	0ffH
	DB	0bfH
	DB	0f7H
	DB	05eH
	DB	0f7H
	DB	05bH
	DB	0d6H
	DB	05bH
	DB	0deH
	DB	0dcH
	DB	0e6H
	DB	05bH
	DB	0ceH
	DB	03aH
	DB	0b6H
	DB	03bH
	DB	0aeH
	DB	03bH
	DB	0a6H
	DB	03bH
	DB	0a6H
	DB	03bH
	DB	09eH
	DB	09cH
	DB	0a6H
	DB	07cH
	DB	09eH
	DB	0f9H
	DB	085H
	DB	098H
	DB	075H
	DB	0d9H
	DB	085H
	DB	01aH
	DB	08eH
	DB	03bH
	DB	096H
	DB	0daH
	DB	085H
	DB	077H
	DB	075H
	DB	077H
	DB	06dH
	DB	077H
	DB	065H
	DB	037H
	DB	05dH
	DB	0d9H
	DB	06dH
	DB	0daH
	DB	075H
	DB	07dH
	DB	08eH
	DB	07cH
	DB	096H
	DB	05cH
	DB	086H
	DB	05bH
	DB	086H
	DB	01aH
	DB	076H
	DB	0daH
	DB	05dH
	DB	01bH
	DB	06eH
	DB	03bH
	DB	07eH
	DB	0daH
	DB	06dH
	DB	099H
	DB	065H
	DB	0b9H
	DB	06dH
	DB	0faH
	DB	06dH
	DB	07cH
	DB	07eH
	DB	05bH
	DB	076H
	DB	03aH
	DB	06eH
	DB	097H
	DB	055H
	DB	098H
	DB	055H
	DB	0b9H
	DB	065H
	DB	0daH
	DB	06dH
	DB	0daH
	DB	06dH
	DB	077H
	DB	05dH
	DB	0f4H
	DB	03cH
	DB	0b8H
	DB	055H
	DB	098H
	DB	065H
	DB	0b8H
	DB	06dH
	DB	098H
	DB	065H
	DB	0b8H
	DB	065H
	DB	0d8H
	DB	06dH
	DB	036H
	DB	055H
	DB	03bH
	DB	07eH
	DB	07bH
	DB	086H
	DB	07bH
	DB	076H
	DB	01aH
	DB	076H
	DB	0d8H
	DB	06dH
	DB	036H
	DB	055H
	DB	056H
	DB	05dH
	DB	0b2H
	DB	044H
	DB	091H
	DB	034H
	DB	070H
	DB	034H
	DB	054H
	DB	045H
	DB	035H
	DB	04dH
	DB	077H
	DB	05dH
	DB	097H
	DB	06dH
	DB	035H
	DB	05dH
	DB	055H
	DB	05dH
	DB	075H
	DB	055H
	DB	096H
	DB	05dH
	DB	075H
	DB	055H
	DB	055H
	DB	05dH
	DB	076H
	DB	065H
	DB	0f4H
	DB	054H
	DB	036H
	DB	055H
	DB	0f9H
	DB	06dH
	DB	0d8H
	DB	07dH
	DB	097H
	DB	05dH
	DB	077H
	DB	05dH
	DB	0f8H
	DB	075H
	DB	0f9H
	DB	075H
	DB	0b7H
	DB	065H
	DB	0f8H
	DB	065H
	DB	0f8H
	DB	06dH
	DB	0d7H
	DB	065H
	DB	0d6H
	DB	055H
	DB	074H
	DB	045H
	DB	095H
	DB	055H
	DB	0f6H
	DB	065H
	DB	033H
	DB	04dH
	DB	033H
	DB	045H
	DB	034H
	DB	045H
	DB	097H
	DB	055H
	DB	03aH
	DB	07eH
	DB	0d7H
	DB	06dH
	DB	056H
	DB	04dH
	DB	05bH
	DB	086H
	DB	07bH
	DB	08eH
	DB	07bH
	DB	08eH
	DB	07aH
	DB	08eH
	DB	098H
	DB	0aH
	DB	098H
	DB	0aH
	DB	078H
	DB	02H
	DB	078H
	DB	0aH
	DB	058H
	DB	0aH
	DB	098H
	DB	0aH
	DB	098H
	DB	0aH
	DB	0b9H
	DB	0aH
	DB	098H
	DB	0aH
	DB	098H
	DB	0aH
	DB	098H
	DB	0aH
	DB	0b8H
	DB	0aH
	DB	098H
	DB	0aH
	DB	098H
	DB	0aH
	DB	098H
	DB	012H
	DB	0b8H
	DB	012H
	DB	0d9H
	DB	012H
	DB	0d9H
	DB	012H
	DB	0d9H
	DB	012H
	DB	0d9H
	DB	012H
	DB	0f9H
	DB	012H
	DB	0f9H
	DB	012H
	DB	0d9H
	DB	012H
	DB	0d9H
	DB	012H
	DB	0d9H
	DB	012H
	DB	0f9H
	DB	01aH
	DB	0f9H
	DB	01aH
	DB	0f9H
	DB	01aH
	DB	01aH
	DB	01bH
	DB	019H
	DB	01bH
	DB	01aH
	DB	01bH
	DB	03aH
	DB	01bH
	DB	03aH
	DB	01bH
	DB	039H
	DB	01bH
	DB	03aH
	DB	01bH
	DB	03aH
	DB	01bH
	DB	03aH
	DB	01bH
	DB	03aH
	DB	01bH
	DB	03aH
	DB	01bH
	DB	03aH
	DB	01bH
	DB	03aH
	DB	023H
	DB	05aH
	DB	023H
	DB	05aH
	DB	023H
	DB	05aH
	DB	023H
	DB	07aH
	DB	023H
	DB	05aH
	DB	02bH
	DB	07aH
	DB	02bH
	DB	07aH
	DB	02bH
	DB	07aH
	DB	02bH
	DB	09bH
	DB	02bH
	DB	09bH
	DB	02bH
	DB	09aH
	DB	02bH
	DB	09aH
	DB	033H
	DB	09aH
	DB	033H
	DB	09bH
	DB	02bH
	DB	0bbH
	DB	033H
	DB	0bbH
	DB	033H
	DB	0baH
	DB	033H
	DB	0baH
	DB	03bH
	DB	0dbH
	DB	03bH
	DB	0faH
	DB	043H
	DB	05bH
	DB	064H
	DB	05dH
	DB	0a5H
	DB	0bdH
	DB	0b5H
	DB	03eH
	DB	0ceH
	DB	07eH
	DB	0d6H
	DB	0bfH
	DB	0deH
	DB	09fH
	DB	0deH
	DB	07eH
	DB	0d6H
	DB	03dH
	DB	0ceH
	DB	01dH
	DB	0ceH
	DB	01dH
	DB	0ceH
	DB	0fdH
	DB	0bdH
	DB	0fdH
	DB	0bdH
	DB	0ddH
	DB	0bdH
	DB	0bdH
	DB	0adH
	DB	07cH
	DB	0a5H
	DB	0dbH
	DB	084H
	DB	09aH
	DB	074H
	DB	07aH
	DB	06cH
	DB	05aH
	DB	064H
	DB	07aH
	DB	06cH
	DB	07aH
	DB	074H
	DB	07aH
	DB	074H
	DB	07aH
	DB	07cH
	DB	09aH
	DB	07cH
	DB	09aH
	DB	074H
	DB	07aH
	DB	06cH
	DB	03aH
	DB	05cH
	DB	01aH
	DB	05cH
	DB	01aH
	DB	05cH
	DB	03aH
	DB	05cH
	DB	019H
	DB	05cH
	DB	0f9H
	DB	053H
	DB	01aH
	DB	054H
	DB	01aH
	DB	054H
	DB	01aH
	DB	054H
	DB	01aH
	DB	054H
	DB	01aH
	DB	054H
	DB	01aH
	DB	054H
	DB	019H
	DB	054H
	DB	019H
	DB	064H
	DB	019H
	DB	064H
	DB	03aH
	DB	064H
	DB	01aH
	DB	064H
	DB	019H
	DB	05cH
	DB	019H
	DB	05cH
	DB	0f9H
	DB	053H
	DB	0f9H
	DB	053H
	DB	0f9H
	DB	053H
	DB	0f9H
	DB	053H
	DB	0f9H
	DB	053H
	DB	019H
	DB	054H
	DB	0f9H
	DB	053H
	DB	0d9H
	DB	053H
	DB	0d9H
	DB	053H
	DB	0d9H
	DB	04bH
	DB	0d9H
	DB	04bH
	DB	0faH
	DB	04bH
	DB	0f9H
	DB	04bH
	DB	0f9H
	DB	04bH
	DB	0d9H
	DB	04bH
	DB	0f9H
	DB	04bH
	DB	0f9H
	DB	04bH
	DB	0f9H
	DB	04bH
	DB	0f9H
	DB	04bH
	DB	0f9H
	DB	04bH
	DB	0f9H
	DB	04bH
	DB	0f9H
	DB	04bH
	DB	0f9H
	DB	04bH
	DB	0d7H
	DB	053H
	DB	0b3H
	DB	053H
	DB	04eH
	DB	042H
	DB	06cH
	DB	052H
	DB	0deH
	DB	0ffH
	DB	0ffH
	DB	0ffH
	DB	0ffH
	DB	0ffH
	DB	0dfH
	DB	0ffH
	DB	0bfH
	DB	0ffH
	DB	09eH
	DB	0f7H
	DB	05bH
	DB	0d6H
	DB	07bH
	DB	0deH
	DB	0dcH
	DB	0e6H
	DB	07bH
	DB	0ceH
	DB	03aH
	DB	0b6H
	DB	01aH
	DB	0aeH
	DB	01bH
	DB	0a6H
	DB	03bH
	DB	0a6H
	DB	01bH
	DB	096H
	DB	09cH
	DB	0a6H
	DB	07cH
	DB	0a6H
	DB	01aH
	DB	08eH
	DB	0b8H
	DB	07dH
	DB	0f9H
	DB	07dH
	DB	03aH
	DB	08eH
	DB	01bH
	DB	096H
	DB	0b9H
	DB	07dH
	DB	078H
	DB	075H
	DB	077H
	DB	065H
	DB	077H
	DB	065H
	DB	036H
	DB	05dH
	DB	05cH
	DB	086H
	DB	0faH
	DB	07dH
	DB	01bH
	DB	07eH
	DB	03bH
	DB	086H
	DB	03bH
	DB	07eH
	DB	07cH
	DB	08eH
	DB	0daH
	DB	075H
	DB	0d9H
	DB	06dH
	DB	0daH
	DB	06dH
	DB	01bH
	DB	076H
	DB	0b9H
	DB	06dH
	DB	099H
	DB	06dH
	DB	0b9H
	DB	06dH
	DB	03bH
	DB	076H
	DB	03bH
	DB	076H
	DB	03aH
	DB	06eH
	DB	019H
	DB	06eH
	DB	0b8H
	DB	05dH
	DB	0d9H
	DB	05dH
	DB	0daH
	DB	05dH
	DB	03bH
	DB	076H
	DB	0d9H
	DB	075H
	DB	056H
	DB	055H
	DB	0d2H
	DB	044H
	DB	056H
	DB	04dH
	DB	099H
	DB	065H
	DB	0b9H
	DB	06dH
	DB	077H
	DB	05dH
	DB	0f9H
	DB	065H
	DB	0f8H
	DB	075H
	DB	055H
	DB	05dH
	DB	098H
	DB	05dH
	DB	05aH
	DB	076H
	DB	0f9H
	DB	065H
	DB	019H
	DB	06eH
	DB	0d8H
	DB	06dH
	DB	036H
	DB	055H
	DB	056H
	DB	055H
	DB	034H
	DB	055H
	DB	0b1H
	DB	03cH
	DB	050H
	DB	034H
	DB	055H
	DB	045H
	DB	096H
	DB	055H
	DB	077H
	DB	05dH
	DB	077H
	DB	065H
	DB	056H
	DB	065H
	DB	056H
	DB	065H
	DB	014H
	DB	04dH
	DB	0b6H
	DB	055H
	DB	096H
	DB	055H
	DB	076H
	DB	055H
	DB	096H
	DB	065H
	DB	055H
	DB	065H
	DB	077H
	DB	065H
	DB	0f8H
	DB	06dH
	DB	0b7H
	DB	07dH
	DB	056H
	DB	055H
	DB	097H
	DB	05dH
	DB	0f8H
	DB	075H
	DB	0f9H
	DB	075H
	DB	096H
	DB	05dH
	DB	0d7H
	DB	05dH
	DB	018H
	DB	06eH
	DB	0d7H
	DB	065H
	DB	075H
	DB	045H
	DB	075H
	DB	045H
	DB	0f7H
	DB	05dH
	DB	0b5H
	DB	05dH
	DB	013H
	DB	045H
	DB	0f2H
	DB	03cH
	DB	033H
	DB	045H
	DB	0d7H
	DB	05dH
	DB	07bH
	DB	086H
	DB	075H
	DB	065H
	DB	034H
	DB	04dH
	DB	03aH
	DB	07eH
	DB	09cH
	DB	08eH
	DB	05aH
	DB	086H
	DB	039H
	DB	076H
	DB	078H
	DB	02H
	DB	098H
	DB	02H
	DB	098H
	DB	0aH
	DB	078H
	DB	0aH
	DB	078H
	DB	0aH
	DB	098H
	DB	0aH
	DB	098H
	DB	0aH
	DB	0b9H
	DB	0aH
	DB	098H
	DB	0aH
	DB	0b8H
	DB	0aH
	DB	0b8H
	DB	0aH
	DB	0b9H
	DB	0aH
	DB	0b9H
	DB	0aH
	DB	0b8H
	DB	0aH
	DB	0b8H
	DB	0aH
	DB	0b9H
	DB	012H
	DB	0d9H
	DB	012H
	DB	0d9H
	DB	012H
	DB	0f9H
	DB	0aH
	DB	0d9H
	DB	012H
	DB	0d9H
	DB	012H
	DB	0d9H
	DB	012H
	DB	0d9H
	DB	012H
	DB	0d9H
	DB	012H
	DB	0d9H
	DB	012H
	DB	0d9H
	DB	01aH
	DB	0f9H
	DB	01aH
	DB	019H
	DB	01bH
	DB	01aH
	DB	01bH
	DB	019H
	DB	01bH
	DB	019H
	DB	01bH
	DB	019H
	DB	01bH
	DB	01aH
	DB	01bH
	DB	03aH
	DB	01bH
	DB	01aH
	DB	01bH
	DB	039H
	DB	01bH
	DB	039H
	DB	01bH
	DB	03aH
	DB	01bH
	DB	03aH
	DB	01bH
	DB	03aH
	DB	01bH
	DB	05aH
	DB	023H
	DB	05aH
	DB	023H
	DB	05aH
	DB	023H
	DB	05aH
	DB	023H
	DB	07aH
	DB	023H
	DB	07aH
	DB	02bH
	DB	07aH
	DB	02bH
	DB	07aH
	DB	02bH
	DB	07aH
	DB	02bH
	DB	07aH
	DB	02bH
	DB	09bH
	DB	02bH
	DB	09aH
	DB	02bH
	DB	09aH
	DB	02bH
	DB	07aH
	DB	02bH
	DB	09bH
	DB	02bH
	DB	0dbH
	DB	033H
	DB	0dbH
	DB	033H
	DB	0dbH
	DB	033H
	DB	0bbH
	DB	033H
	DB	0dbH
	DB	03bH
	DB	0fbH
	DB	043H
	DB	0fbH
	DB	04bH
	DB	09bH
	DB	074H
	DB	09dH
	DB	0adH
	DB	0ddH
	DB	0bdH
	DB	03eH
	DB	0ceH
	DB	07eH
	DB	0d6H
	DB	07eH
	DB	0d6H
	DB	05eH
	DB	0d6H
	DB	01dH
	DB	0ceH
	DB	0fdH
	DB	0c5H
	DB	0fdH
	DB	0c5H
	DB	0ddH
	DB	0b5H
	DB	09dH
	DB	0adH
	DB	09cH
	DB	0adH
	DB	05cH
	DB	09dH
	DB	01cH
	DB	08dH
	DB	09bH
	DB	074H
	DB	07aH
	DB	06cH
	DB	05aH
	DB	064H
	DB	05aH
	DB	064H
	DB	07bH
	DB	074H
	DB	07aH
	DB	074H
	DB	07aH
	DB	074H
	DB	09aH
	DB	074H
	DB	09aH
	DB	074H
	DB	09aH
	DB	074H
	DB	05aH
	DB	06cH
	DB	03aH
	DB	05cH
	DB	01aH
	DB	05cH
	DB	01aH
	DB	05cH
	DB	01aH
	DB	05cH
	DB	019H
	DB	05cH
	DB	01aH
	DB	054H
	DB	019H
	DB	054H
	DB	01aH
	DB	054H
	DB	01aH
	DB	054H
	DB	01aH
	DB	054H
	DB	01aH
	DB	04cH
	DB	01aH
	DB	054H
	DB	019H
	DB	054H
	DB	01aH
	DB	05cH
	DB	039H
	DB	05cH
	DB	039H
	DB	064H
	DB	039H
	DB	064H
	DB	019H
	DB	05cH
	DB	019H
	DB	054H
	DB	0f9H
	DB	053H
	DB	0f9H
	DB	053H
	DB	0f9H
	DB	053H
	DB	0f9H
	DB	053H
	DB	019H
	DB	05cH
	DB	019H
	DB	05cH
	DB	0f9H
	DB	05bH
	DB	0f9H
	DB	053H
	DB	0f9H
	DB	04bH
	DB	0f9H
	DB	04bH
	DB	0f9H
	DB	04bH
	DB	0d9H
	DB	04bH
	DB	0d9H
	DB	053H
	DB	0f9H
	DB	04bH
	DB	0d9H
	DB	04bH
	DB	0d9H
	DB	04bH
	DB	0f9H
	DB	04bH
	DB	0d9H
	DB	04bH
	DB	0f9H
	DB	04bH
	DB	0f9H
	DB	04bH
	DB	0f9H
	DB	04bH
	DB	019H
	DB	054H
	DB	0f9H
	DB	04bH
	DB	0d7H
	DB	053H
	DB	053H
	DB	04bH
	DB	04eH
	DB	03aH
	DB	0eH
	DB	06bH
	DB	0ffH
	DB	0ffH
	DB	0ffH
	DB	0ffH
	DB	0dfH
	DB	0ffH
	DB	0dfH
	DB	0ffH
	DB	0dfH
	DB	0ffH
	DB	09fH
	DB	0f7H
	DB	05aH
	DB	0d6H
	DB	05bH
	DB	0deH
	DB	09bH
	DB	0e6H
	DB	09bH
	DB	0d6H
	DB	03aH
	DB	0beH
	DB	03bH
	DB	0aeH
	DB	03bH
	DB	0aeH
	DB	05bH
	DB	0aeH
	DB	01bH
	DB	09eH
	DB	09cH
	DB	0a6H
	DB	09dH
	DB	0aeH
	DB	0f9H
	DB	095H
	DB	0f9H
	DB	07dH
	DB	0d9H
	DB	07dH
	DB	0f9H
	DB	07dH
	DB	01aH
	DB	08eH
	DB	0b9H
	DB	085H
	DB	057H
	DB	075H
	DB	097H
	DB	06dH
	DB	077H
	DB	065H
	DB	056H
	DB	055H
	DB	099H
	DB	065H
	DB	0b9H
	DB	06dH
	DB	0baH
	DB	06dH
	DB	05cH
	DB	086H
	DB	03bH
	DB	07eH
	DB	09cH
	DB	08eH
	DB	0daH
	DB	075H
	DB	05bH
	DB	07eH
	DB	09cH
	DB	08eH
	DB	01bH
	DB	076H
	DB	01bH
	DB	076H
	DB	0daH
	DB	07dH
	DB	099H
	DB	06dH
	DB	01bH
	DB	07eH
	DB	01aH
	DB	076H
	DB	07bH
	DB	086H
	DB	05aH
	DB	086H
	DB	0d9H
	DB	06dH
	DB	01aH
	DB	06eH
	DB	0b9H
	DB	05dH
	DB	0f9H
	DB	065H
	DB	0f9H
	DB	07dH
	DB	056H
	DB	05dH
	DB	0d7H
	DB	065H
	DB	0b7H
	DB	065H
	DB	057H
	DB	05dH
	DB	098H
	DB	065H
	DB	077H
	DB	05dH
	DB	0d8H
	DB	065H
	DB	0d8H
	DB	06dH
	DB	0f4H
	DB	054H
	DB	072H
	DB	034H
	DB	097H
	DB	055H
	DB	019H
	DB	06eH
	DB	019H
	DB	06eH
	DB	0b7H
	DB	06dH
	DB	0f4H
	DB	04cH
	DB	036H
	DB	04dH
	DB	076H
	DB	065H
	DB	0f2H
	DB	044H
	DB	0b2H
	DB	03cH
	DB	055H
	DB	045H
	DB	018H
	DB	06eH
	DB	076H
	DB	065H
	DB	0f5H
	DB	054H
	DB	036H
	DB	05dH
	DB	056H
	DB	06dH
	DB	0f4H
	DB	054H
	DB	055H
	DB	04dH
	DB	034H
	DB	045H
	DB	076H
	DB	05dH
	DB	0b7H
	DB	065H
	DB	0b7H
	DB	075H
	DB	096H
	DB	065H
	DB	0f9H
	DB	075H
	DB	0d8H
	DB	075H
	DB	077H
	DB	055H
	DB	098H
	DB	06dH
	DB	0d8H
	DB	075H
	DB	0d8H
	DB	06dH
	DB	096H
	DB	065H
	DB	0b7H
	DB	05dH
	DB	018H
	DB	06eH
	DB	0b6H
	DB	065H
	DB	0f2H
	DB	034H
	DB	075H
	DB	045H
	DB	0d6H
	DB	065H
	DB	012H
	DB	04dH
	DB	0d2H
	DB	03cH
	DB	013H
	DB	045H
	DB	033H
	DB	045H
	DB	096H
	DB	055H
	DB	05bH
	DB	07eH
	DB	075H
	DB	065H
	DB	055H
	DB	055H
	DB	03aH
	DB	07eH
	DB	07cH
	DB	08eH
	DB	0f8H
	DB	07dH
	DB	0d8H
	DB	05dH
	DB	078H
	DB	02H
	DB	078H
	DB	0aH
	DB	098H
	DB	0aH
	DB	098H
	DB	0aH
	DB	078H
	DB	0aH
	DB	098H
	DB	0aH
	DB	098H
	DB	0aH
	DB	098H
	DB	0aH
	DB	098H
	DB	0aH
	DB	0b8H
	DB	0aH
	DB	0b9H
	DB	0aH
	DB	098H
	DB	0aH
	DB	0b8H
	DB	0aH
	DB	0b9H
	DB	0aH
	DB	0b9H
	DB	012H
	DB	0b9H
	DB	012H
	DB	0b8H
	DB	012H
	DB	0b8H
	DB	012H
	DB	0d9H
	DB	012H
	DB	0d9H
	DB	012H
	DB	0d9H
	DB	012H
	DB	0d9H
	DB	012H
	DB	0d9H
	DB	012H
	DB	0d9H
	DB	012H
	DB	0d9H
	DB	012H
	DB	0d9H
	DB	01aH
	DB	0f9H
	DB	01aH
	DB	019H
	DB	01bH
	DB	01aH
	DB	01bH
	DB	019H
	DB	01bH
	DB	03aH
	DB	01bH
	DB	03aH
	DB	01bH
	DB	03aH
	DB	01bH
	DB	03aH
	DB	01bH
	DB	01aH
	DB	01bH
	DB	03aH
	DB	01bH
	DB	03aH
	DB	01bH
	DB	03aH
	DB	01bH
	DB	03aH
	DB	023H
	DB	05aH
	DB	023H
	DB	05aH
	DB	023H
	DB	05aH
	DB	023H
	DB	05aH
	DB	023H
	DB	05aH
	DB	023H
	DB	07aH
	DB	023H
	DB	09bH
	DB	023H
	DB	07aH
	DB	023H
	DB	07aH
	DB	023H
	DB	07aH
	DB	02bH
	DB	07aH
	DB	02bH
	DB	09bH
	DB	02bH
	DB	09bH
	DB	02bH
	DB	09aH
	DB	02bH
	DB	0bbH
	DB	02bH
	DB	0bbH
	DB	033H
	DB	0bbH
	DB	033H
	DB	0bbH
	DB	033H
	DB	0bbH
	DB	033H
	DB	0bbH
	DB	033H
	DB	0dbH
	DB	03bH
	DB	0fbH
	DB	03bH
	DB	0daH
	DB	043H
	DB	03aH
	DB	064H
	DB	07dH
	DB	09dH
	DB	0bdH
	DB	0b5H
	DB	0fdH
	DB	0c5H
	DB	05eH
	DB	0ceH
	DB	05eH
	DB	0ceH
	DB	05eH
	DB	0ceH
	DB	01dH
	DB	0c6H
	DB	0fdH
	DB	0c5H
	DB	0fdH
	DB	0bdH
	DB	0bdH
	DB	0b5H
	DB	07cH
	DB	0a5H
	DB	05cH
	DB	0a5H
	DB	0fbH
	DB	094H
	DB	0bbH
	DB	07cH
	DB	05aH
	DB	06cH
	DB	05aH
	DB	064H
	DB	05bH
	DB	064H
	DB	07aH
	DB	064H
	DB	09aH
	DB	06cH
	DB	09bH
	DB	074H
	DB	07bH
	DB	074H
	DB	07aH
	DB	074H
	DB	09aH
	DB	074H
	DB	07aH
	DB	06cH
	DB	05aH
	DB	06cH
	DB	01aH
	DB	05cH
	DB	0f9H
	DB	053H
	DB	019H
	DB	054H
	DB	03aH
	DB	05cH
	DB	0f9H
	DB	053H
	DB	01aH
	DB	054H
	DB	019H
	DB	054H
	DB	019H
	DB	054H
	DB	01aH
	DB	054H
	DB	01aH
	DB	054H
	DB	01aH
	DB	054H
	DB	01aH
	DB	054H
	DB	03aH
	DB	05cH
	DB	019H
	DB	05cH
	DB	019H
	DB	05cH
	DB	03aH
	DB	064H
	DB	01aH
	DB	064H
	DB	019H
	DB	05cH
	DB	0f9H
	DB	053H
	DB	0f9H
	DB	053H
	DB	01aH
	DB	054H
	DB	0f9H
	DB	053H
	DB	0f9H
	DB	05bH
	DB	039H
	DB	06cH
	DB	019H
	DB	064H
	DB	0f9H
	DB	05bH
	DB	0f9H
	DB	053H
	DB	0d9H
	DB	04bH
	DB	0f9H
	DB	053H
	DB	0faH
	DB	053H
	DB	0d9H
	DB	053H
	DB	0d9H
	DB	053H
	DB	0d9H
	DB	04bH
	DB	0f9H
	DB	04bH
	DB	0f9H
	DB	04bH
	DB	0f9H
	DB	04bH
	DB	0f9H
	DB	04bH
	DB	0f9H
	DB	04bH
	DB	0f9H
	DB	04bH
	DB	0f9H
	DB	04bH
	DB	019H
	DB	04cH
	DB	0d8H
	DB	04bH
	DB	0d7H
	DB	053H
	DB	094H
	DB	053H
	DB	04eH
	DB	042H
	DB	0b0H
	DB	083H
	DB	0ffH
	DB	0ffH
	DB	0ffH
	DB	0ffH
	DB	0ffH
	DB	0ffH
	DB	0dfH
	DB	0ffH
	DB	0dfH
	DB	0ffH
	DB	09fH
	DB	0f7H
	DB	03aH
	DB	0d6H
	DB	05bH
	DB	0deH
	DB	09bH
	DB	0deH
	DB	09bH
	DB	0d6H
	DB	03aH
	DB	0b6H
	DB	05bH
	DB	0aeH
	DB	05bH
	DB	0aeH
	DB	07bH
	DB	0aeH
	DB	05bH
	DB	0a6H
	DB	07cH
	DB	0a6H
	DB	09dH
	DB	0aeH
	DB	0f9H
	DB	095H
	DB	0f9H
	DB	085H
	DB	0d9H
	DB	07dH
	DB	0faH
	DB	085H
	DB	0faH
	DB	085H
	DB	0faH
	DB	085H
	DB	098H
	DB	075H
	DB	098H
	DB	06dH
	DB	056H
	DB	05dH
	DB	057H
	DB	05dH
	DB	098H
	DB	06dH
	DB	078H
	DB	06dH
	DB	079H
	DB	06dH
	DB	03bH
	DB	086H
	DB	05bH
	DB	086H
	DB	09cH
	DB	08eH
	DB	01bH
	DB	086H
	DB	05cH
	DB	07eH
	DB	0bcH
	DB	08eH
	DB	03bH
	DB	07eH
	DB	05cH
	DB	086H
	DB	0faH
	DB	07dH
	DB	098H
	DB	06dH
	DB	05cH
	DB	086H
	DB	07cH
	DB	07eH
	DB	0feH
	DB	096H
	DB	01eH
	DB	09fH
	DB	05cH
	DB	086H
	DB	03bH
	DB	076H
	DB	0d9H
	DB	065H
	DB	0b9H
	DB	065H
	DB	0faH
	DB	07dH
	DB	035H
	DB	05dH
	DB	039H
	DB	076H
	DB	097H
	DB	065H
	DB	056H
	DB	05dH
	DB	057H
	DB	065H
	DB	057H
	DB	05dH
	DB	0d8H
	DB	065H
	DB	0d8H
	DB	06dH
	DB	0d3H
	DB	054H
	DB	072H
	DB	03cH
	DB	039H
	DB	06eH
	DB	03aH
	DB	076H
	DB	019H
	DB	06eH
	DB	076H
	DB	065H
	DB	0f4H
	DB	054H
	DB	036H
	DB	055H
	DB	097H
	DB	065H
	DB	034H
	DB	055H
	DB	013H
	DB	055H
	DB	034H
	DB	04dH
	DB	05aH
	DB	07eH
	DB	077H
	DB	065H
	DB	036H
	DB	05dH
	DB	056H
	DB	065H
	DB	056H
	DB	065H
	DB	0f3H
	DB	04cH
	DB	013H
	DB	045H
	DB	013H
	DB	045H
	DB	096H
	DB	05dH
	DB	0b7H
	DB	06dH
	DB	039H
	DB	08eH
	DB	035H
	DB	065H
	DB	097H
	DB	065H
	DB	077H
	DB	06dH
	DB	036H
	DB	055H
	DB	077H
	DB	065H
	DB	0d8H
	DB	075H
	DB	0d7H
	DB	065H
	DB	0b7H
	DB	065H
	DB	0b7H
	DB	05dH
	DB	0f8H
	DB	06dH
	DB	0d6H
	DB	06dH
	DB	012H
	DB	03dH
	DB	096H
	DB	04dH
	DB	017H
	DB	076H
	DB	094H
	DB	065H
	DB	053H
	DB	055H
	DB	012H
	DB	045H
	DB	034H
	DB	04dH
	DB	035H
	DB	04dH
	DB	03aH
	DB	07eH
	DB	055H
	DB	05dH
	DB	097H
	DB	05dH
	DB	03aH
	DB	07eH
	DB	07cH
	DB	086H
	DB	0f7H
	DB	075H
	DB	075H
	DB	055H
	DB	078H
	DB	02H
	DB	078H
	DB	0aH
	DB	078H
	DB	0aH
	DB	078H
	DB	0aH
	DB	078H
	DB	0aH
	DB	098H
	DB	0aH
	DB	098H
	DB	0aH
	DB	098H
	DB	0aH
	DB	0b8H
	DB	0aH
	DB	0b9H
	DB	0aH
	DB	0b9H
	DB	0aH
	DB	0b9H
	DB	0aH
	DB	0b9H
	DB	0aH
	DB	0b9H
	DB	012H
	DB	0b8H
	DB	012H
	DB	098H
	DB	012H
	DB	0b8H
	DB	012H
	DB	0b8H
	DB	012H
	DB	0d9H
	DB	012H
	DB	0d9H
	DB	012H
	DB	0f9H
	DB	012H
	DB	0f9H
	DB	012H
	DB	0d9H
	DB	012H
	DB	0f9H
	DB	012H
	DB	0f9H
	DB	012H
	DB	0f9H
	DB	012H
	DB	019H
	DB	013H
	DB	019H
	DB	01bH
	DB	0f9H
	DB	01aH
	DB	019H
	DB	01bH
	DB	03aH
	DB	01bH
	DB	03aH
	DB	01bH
	DB	03aH
	DB	01bH
	DB	03aH
	DB	01bH
	DB	01aH
	DB	01bH
	DB	03aH
	DB	01bH
	DB	03aH
	DB	01bH
	DB	03aH
	DB	01bH
	DB	05aH
	DB	023H
	DB	03aH
	DB	023H
	DB	05aH
	DB	023H
	DB	05aH
	DB	023H
	DB	05aH
	DB	023H
	DB	05aH
	DB	023H
	DB	05aH
	DB	023H
	DB	07aH
	DB	023H
	DB	07aH
	DB	02bH
	DB	07aH
	DB	02bH
	DB	09bH
	DB	02bH
	DB	09bH
	DB	02bH
	DB	09bH
	DB	02bH
	DB	0bbH
	DB	02bH
	DB	0bbH
	DB	02bH
	DB	0bbH
	DB	033H
	DB	0bbH
	DB	02bH
	DB	0bbH
	DB	033H
	DB	0baH
	DB	033H
	DB	0bbH
	DB	033H
	DB	0bbH
	DB	033H
	DB	0baH
	DB	033H
	DB	0daH
	DB	03bH
	DB	0faH
	DB	043H
	DB	01aH
	DB	054H
	DB	0bbH
	DB	07cH
	DB	07cH
	DB	0adH
	DB	0ddH
	DB	0bdH
	DB	01dH
	DB	0c6H
	DB	03dH
	DB	0ceH
	DB	01eH
	DB	0ceH
	DB	0fdH
	DB	0c5H
	DB	0fdH
	DB	0bdH
	DB	0ddH
	DB	0bdH
	DB	0bdH
	DB	0adH
	DB	03cH
	DB	09dH
	DB	03cH
	DB	09dH
	DB	01cH
	DB	095H
	DB	0bbH
	DB	07cH
	DB	05aH
	DB	064H
	DB	05aH
	DB	05cH
	DB	03bH
	DB	05cH
	DB	05bH
	DB	05cH
	DB	07aH
	DB	064H
	DB	07bH
	DB	06cH
	DB	05aH
	DB	064H
	DB	05aH
	DB	064H
	DB	07aH
	DB	06cH
	DB	05aH
	DB	064H
	DB	01aH
	DB	05cH
	DB	03aH
	DB	05cH
	DB	0f9H
	DB	053H
	DB	01aH
	DB	054H
	DB	01aH
	DB	054H
	DB	01aH
	DB	054H
	DB	01aH
	DB	054H
	DB	01aH
	DB	054H
	DB	01aH
	DB	054H
	DB	0faH
	DB	053H
	DB	01aH
	DB	054H
	DB	01aH
	DB	054H
	DB	01aH
	DB	054H
	DB	01aH
	DB	054H
	DB	019H
	DB	05cH
	DB	019H
	DB	05cH
	DB	01aH
	DB	05cH
	DB	01aH
	DB	05cH
	DB	019H
	DB	05cH
	DB	0f9H
	DB	053H
	DB	0f9H
	DB	053H
	DB	0faH
	DB	053H
	DB	0f9H
	DB	053H
	DB	019H
	DB	064H
	DB	039H
	DB	06cH
	DB	019H
	DB	06cH
	DB	019H
	DB	05cH
	DB	0f9H
	DB	053H
	DB	0f9H
	DB	053H
	DB	0d9H
	DB	053H
	DB	0f9H
	DB	053H
	DB	0d9H
	DB	053H
	DB	0d9H
	DB	053H
	DB	0d9H
	DB	04bH
	DB	0f9H
	DB	04bH
	DB	0f9H
	DB	04bH
	DB	0f9H
	DB	04bH
	DB	0f9H
	DB	04bH
	DB	0f9H
	DB	04bH
	DB	0f9H
	DB	04bH
	DB	0f9H
	DB	04bH
	DB	019H
	DB	054H
	DB	0f9H
	DB	053H
	DB	0f7H
	DB	053H
	DB	094H
	DB	053H
	DB	02dH
	DB	042H
	DB	011H
	DB	094H
	DB	0ffH
	DB	0ffH
	DB	0ffH
	DB	0ffH
	DB	0dfH
	DB	0ffH
	DB	0dfH
	DB	0ffH
	DB	0dfH
	DB	0ffH
	DB	09eH
	DB	0f7H
	DB	03aH
	DB	0d6H
	DB	07bH
	DB	0deH
	DB	09bH
	DB	0deH
	DB	09bH
	DB	0d6H
	DB	03aH
	DB	0beH
	DB	05bH
	DB	0b6H
	DB	05bH
	DB	0aeH
	DB	05bH
	DB	0aeH
	DB	05cH
	DB	0a6H
	DB	07cH
	DB	0a6H
	DB	09cH
	DB	0a6H
	DB	05bH
	DB	09eH
	DB	0d8H
	DB	07dH
	DB	0d9H
	DB	07dH
	DB	0d9H
	DB	085H
	DB	0faH
	DB	08dH
	DB	0d9H
	DB	07dH
	DB	078H
	DB	075H
	DB	057H
	DB	065H
	DB	035H
	DB	05dH
	DB	056H
	DB	065H
	DB	0b9H
	DB	06dH
	DB	098H
	DB	065H
	DB	099H
	DB	06dH
	DB	05bH
	DB	086H
	DB	09cH
	DB	086H
	DB	09cH
	DB	086H
	DB	07cH
	DB	08eH
	DB	09cH
	DB	086H
	DB	0ddH
	DB	096H
	DB	07cH
	DB	08eH
	DB	05cH
	DB	086H
	DB	01bH
	DB	086H
	DB	0b9H
	DB	075H
	DB	07cH
	DB	086H
	DB	05cH
	DB	076H
	DB	09cH
	DB	07eH
	DB	0fdH
	DB	096H
	DB	01aH
	DB	076H
	DB	01aH
	DB	06eH
	DB	03bH
	DB	076H
	DB	0b9H
	DB	065H
	DB	03aH
	DB	086H
	DB	015H
	DB	055H
	DB	019H
	DB	06eH
	DB	0b8H
	DB	065H
	DB	0b8H
	DB	06dH
	DB	036H
	DB	05dH
	DB	077H
	DB	05dH
	DB	098H
	DB	065H
	DB	0d9H
	DB	06dH
	DB	015H
	DB	05dH
	DB	076H
	DB	05dH
	DB	039H
	DB	066H
	DB	0f8H
	DB	05dH
	DB	0f8H
	DB	065H
	DB	077H
	DB	065H
	DB	056H
	DB	05dH
	DB	016H
	DB	055H
	DB	057H
	DB	055H
	DB	056H
	DB	05dH
	DB	034H
	DB	055H
	DB	055H
	DB	055H
	DB	0d9H
	DB	06dH
	DB	097H
	DB	06dH
	DB	097H
	DB	06dH
	DB	056H
	DB	065H
	DB	055H
	DB	05dH
	DB	055H
	DB	04dH
	DB	033H
	DB	045H
	DB	013H
	DB	03dH
	DB	076H
	DB	055H
	DB	0b7H
	DB	05dH
	DB	0f8H
	DB	07dH
	DB	055H
	DB	06dH
	DB	057H
	DB	05dH
	DB	056H
	DB	05dH
	DB	057H
	DB	055H
	DB	097H
	DB	06dH
	DB	0b8H
	DB	06dH
	DB	0d7H
	DB	05dH
	DB	0b7H
	DB	05dH
	DB	0b8H
	DB	065H
	DB	039H
	DB	07eH
	DB	0d6H
	DB	075H
	DB	054H
	DB	045H
	DB	0f8H
	DB	05dH
	DB	09aH
	DB	086H
	DB	018H
	DB	07eH
	DB	094H
	DB	065H
	DB	0d1H
	DB	03cH
	DB	0f3H
	DB	044H
	DB	014H
	DB	045H
	DB	03aH
	DB	07eH
	DB	096H
	DB	05dH
	DB	0d8H
	DB	05dH
	DB	03aH
	DB	07eH
	DB	05bH
	DB	07eH
	DB	018H
	DB	07eH
	DB	075H
	DB	055H
	DB	078H
	DB	02H
	DB	078H
	DB	0aH
	DB	098H
	DB	0aH
	DB	078H
	DB	0aH
	DB	098H
	DB	0aH
	DB	098H
	DB	0aH
	DB	098H
	DB	0aH
	DB	098H
	DB	0aH
	DB	0b8H
	DB	0aH
	DB	0b9H
	DB	0aH
	DB	098H
	DB	0aH
	DB	0b8H
	DB	0aH
	DB	0b9H
	DB	0aH
	DB	0b8H
	DB	012H
	DB	0b8H
	DB	012H
	DB	0b8H
	DB	012H
	DB	0b8H
	DB	012H
	DB	0b8H
	DB	012H
	DB	0d9H
	DB	012H
	DB	0d9H
	DB	012H
	DB	0f9H
	DB	012H
	DB	0f9H
	DB	012H
	DB	0f9H
	DB	012H
	DB	019H
	DB	013H
	DB	0f9H
	DB	012H
	DB	0f9H
	DB	012H
	DB	0f9H
	DB	01aH
	DB	019H
	DB	01bH
	DB	0f9H
	DB	01aH
	DB	019H
	DB	01bH
	DB	03aH
	DB	01bH
	DB	03aH
	DB	01bH
	DB	03aH
	DB	01bH
	DB	03aH
	DB	01bH
	DB	03aH
	DB	01bH
	DB	03aH
	DB	01bH
	DB	03aH
	DB	01bH
	DB	03aH
	DB	01bH
	DB	05aH
	DB	01bH
	DB	05aH
	DB	023H
	DB	05aH
	DB	023H
	DB	07aH
	DB	023H
	DB	07aH
	DB	023H
	DB	07aH
	DB	023H
	DB	05aH
	DB	023H
	DB	07aH
	DB	02bH
	DB	07aH
	DB	02bH
	DB	07bH
	DB	02bH
	DB	07aH
	DB	02bH
	DB	09bH
	DB	02bH
	DB	09aH
	DB	02bH
	DB	09aH
	DB	02bH
	DB	0bbH
	DB	02bH
	DB	0bbH
	DB	02bH
	DB	0bbH
	DB	02bH
	DB	0bbH
	DB	033H
	DB	0baH
	DB	033H
	DB	0baH
	DB	033H
	DB	0dbH
	DB	03bH
	DB	0daH
	DB	03bH
	DB	0daH
	DB	03bH
	DB	0daH
	DB	043H
	DB	0faH
	DB	05bH
	DB	05aH
	DB	07cH
	DB	03bH
	DB	0adH
	DB	0ddH
	DB	0c5H
	DB	01dH
	DB	0ceH
	DB	01dH
	DB	0ceH
	DB	01dH
	DB	0c6H
	DB	0fdH
	DB	0c5H
	DB	0ddH
	DB	0bdH
	DB	0bdH
	DB	0b5H
	DB	07cH
	DB	0adH
	DB	01bH
	DB	095H
	DB	03cH
	DB	09dH
	DB	0fbH
	DB	08cH
	DB	0bbH
	DB	07cH
	DB	05bH
	DB	064H
	DB	05aH
	DB	05cH
	DB	03aH
	DB	05cH
	DB	03bH
	DB	054H
	DB	03aH
	DB	05cH
	DB	01aH
	DB	05cH
	DB	03aH
	DB	05cH
	DB	03aH
	DB	05cH
	DB	05aH
	DB	064H
	DB	01aH
	DB	05cH
	DB	019H
	DB	05cH
	DB	01aH
	DB	05cH
	DB	01aH
	DB	05cH
	DB	01aH
	DB	054H
	DB	0faH
	DB	053H
	DB	01aH
	DB	054H
	DB	03aH
	DB	054H
	DB	03aH
	DB	054H
	DB	01aH
	DB	054H
	DB	0faH
	DB	053H
	DB	0faH
	DB	053H
	DB	01aH
	DB	054H
	DB	01aH
	DB	054H
	DB	01aH
	DB	054H
	DB	0f9H
	DB	053H
	DB	0f9H
	DB	053H
	DB	019H
	DB	05cH
	DB	03aH
	DB	05cH
	DB	019H
	DB	05cH
	DB	0f9H
	DB	053H
	DB	0f9H
	DB	053H
	DB	0f9H
	DB	053H
	DB	0f9H
	DB	053H
	DB	019H
	DB	064H
	DB	019H
	DB	074H
	DB	019H
	DB	06cH
	DB	019H
	DB	064H
	DB	0f9H
	DB	053H
	DB	0f9H
	DB	053H
	DB	0f9H
	DB	053H
	DB	0f9H
	DB	053H
	DB	0f9H
	DB	053H
	DB	0d9H
	DB	053H
	DB	0d9H
	DB	053H
	DB	0d9H
	DB	04bH
	DB	0f9H
	DB	04bH
	DB	0f9H
	DB	04bH
	DB	0f9H
	DB	04bH
	DB	0f9H
	DB	04bH
	DB	0f9H
	DB	04bH
	DB	0f9H
	DB	04bH
	DB	019H
	DB	054H
	DB	0f9H
	DB	053H
	DB	0f8H
	DB	053H
	DB	093H
	DB	04bH
	DB	04dH
	DB	04aH
	DB	052H
	DB	09cH
	DB	0ffH
	DB	0ffH
	DB	0ffH
	DB	0ffH
	DB	0ffH
	DB	0ffH
	DB	0dfH
	DB	0ffH
	DB	0dfH
	DB	0ffH
	DB	09fH
	DB	0ffH
	DB	03aH
	DB	0d6H
	DB	05bH
	DB	0deH
	DB	09bH
	DB	0deH
	DB	0bbH
	DB	0d6H
	DB	05bH
	DB	0beH
	DB	07bH
	DB	0b6H
	DB	05bH
	DB	0b6H
	DB	03bH
	DB	0aeH
	DB	07cH
	DB	0a6H
	DB	07cH
	DB	09eH
	DB	09cH
	DB	0a6H
	DB	07cH
	DB	0a6H
	DB	0d9H
	DB	085H
	DB	0d9H
	DB	07dH
	DB	0b9H
	DB	085H
	DB	0faH
	DB	08dH
	DB	0b9H
	DB	085H
	DB	057H
	DB	075H
	DB	078H
	DB	075H
	DB	077H
	DB	06dH
	DB	078H
	DB	06dH
	DB	01aH
	DB	07eH
	DB	0b8H
	DB	06dH
	DB	099H
	DB	065H
	DB	05cH
	DB	07eH
	DB	07cH
	DB	07eH
	DB	09cH
	DB	086H
	DB	07cH
	DB	086H
	DB	0bdH
	DB	08eH
	DB	0bdH
	DB	096H
	DB	09cH
	DB	08eH
	DB	03bH
	DB	086H
	DB	05bH
	DB	086H
	DB	0faH
	DB	075H
	DB	05cH
	DB	07eH
	DB	03bH
	DB	06eH
	DB	09dH
	DB	086H
	DB	0bcH
	DB	08eH
	DB	05bH
	DB	086H
	DB	01aH
	DB	076H
	DB	05bH
	DB	07eH
	DB	0d9H
	DB	065H
	DB	03aH
	DB	07eH
	DB	077H
	DB	05dH
	DB	0f8H
	DB	065H
	DB	0b8H
	DB	065H
	DB	0f9H
	DB	07dH
	DB	016H
	DB	05dH
	DB	078H
	DB	05dH
	DB	0d8H
	DB	06dH
	DB	0b8H
	DB	065H
	DB	0b7H
	DB	06dH
	DB	0d8H
	DB	06dH
	DB	096H
	DB	05dH
	DB	0b2H
	DB	03cH
	DB	035H
	DB	045H
	DB	0b8H
	DB	065H
	DB	015H
	DB	055H
	DB	0b4H
	DB	044H
	DB	0f4H
	DB	03cH
	DB	056H
	DB	055H
	DB	055H
	DB	055H
	DB	0d8H
	DB	065H
	DB	0f9H
	DB	075H
	DB	0b7H
	DB	075H
	DB	0d8H
	DB	075H
	DB	036H
	DB	065H
	DB	035H
	DB	05dH
	DB	055H
	DB	04dH
	DB	033H
	DB	045H
	DB	0b2H
	DB	034H
	DB	055H
	DB	04dH
	DB	076H
	DB	055H
	DB	056H
	DB	065H
	DB	096H
	DB	075H
	DB	016H
	DB	065H
	DB	0d4H
	DB	044H
	DB	057H
	DB	055H
	DB	0b8H
	DB	075H
	DB	076H
	DB	05dH
	DB	0b7H
	DB	05dH
	DB	0d7H
	DB	05dH
	DB	0d8H
	DB	065H
	DB	05aH
	DB	086H
	DB	075H
	DB	065H
	DB	096H
	DB	04dH
	DB	0f8H
	DB	05dH
	DB	07aH
	DB	076H
	DB	018H
	DB	076H
	DB	0b5H
	DB	06dH
	DB	012H
	DB	045H
	DB	014H
	DB	04dH
	DB	035H
	DB	04dH
	DB	05aH
	DB	086H
	DB	055H
	DB	05dH
	DB	098H
	DB	055H
	DB	07bH
	DB	086H
	DB	03bH
	DB	086H
	DB	039H
	DB	086H
	DB	055H
	DB	04dH
	DB	078H
	DB	0aH
	DB	078H
	DB	0aH
	DB	098H
	DB	0aH
	DB	098H
	DB	0aH
	DB	098H
	DB	0aH
	DB	098H
	DB	0aH
	DB	098H
	DB	0aH
	DB	098H
	DB	0aH
	DB	098H
	DB	0aH
	DB	0b8H
	DB	0aH
	DB	098H
	DB	0aH
	DB	0b9H
	DB	0aH
	DB	0b8H
	DB	0aH
	DB	0b8H
	DB	012H
	DB	0b8H
	DB	012H
	DB	0b8H
	DB	012H
	DB	098H
	DB	012H
	DB	0b9H
	DB	012H
	DB	0d9H
	DB	012H
	DB	0f9H
	DB	012H
	DB	0f9H
	DB	012H
	DB	0f9H
	DB	012H
	DB	0f9H
	DB	012H
	DB	0f9H
	DB	012H
	DB	019H
	DB	013H
	DB	0f9H
	DB	012H
	DB	0f9H
	DB	012H
	DB	019H
	DB	01bH
	DB	019H
	DB	01bH
	DB	019H
	DB	01bH
	DB	019H
	DB	01bH
	DB	03aH
	DB	01bH
	DB	03aH
	DB	01bH
	DB	03aH
	DB	01bH
	DB	03aH
	DB	01bH
	DB	03aH
	DB	01bH
	DB	05aH
	DB	01bH
	DB	03aH
	DB	01bH
	DB	05aH
	DB	01bH
	DB	05aH
	DB	023H
	DB	05aH
	DB	023H
	DB	05aH
	DB	023H
	DB	07aH
	DB	023H
	DB	05aH
	DB	023H
	DB	07aH
	DB	02bH
	DB	05aH
	DB	02bH
	DB	09bH
	DB	02bH
	DB	09bH
	DB	02bH
	DB	09bH
	DB	02bH
	DB	09bH
	DB	02bH
	DB	09aH
	DB	02bH
	DB	09aH
	DB	02bH
	DB	09aH
	DB	02bH
	DB	09bH
	DB	02bH
	DB	0bbH
	DB	033H
	DB	0bbH
	DB	033H
	DB	0baH
	DB	033H
	DB	0bbH
	DB	033H
	DB	0dbH
	DB	03bH
	DB	0faH
	DB	043H
	DB	0daH
	DB	04bH
	DB	0daH
	DB	053H
	DB	03bH
	DB	06cH
	DB	01cH
	DB	095H
	DB	09dH
	DB	0b5H
	DB	0fdH
	DB	0c5H
	DB	03eH
	DB	0ceH
	DB	01eH
	DB	0ceH
	DB	0fdH
	DB	0c5H
	DB	0ddH
	DB	0bdH
	DB	0bdH
	DB	0b5H
	DB	07dH
	DB	0adH
	DB	05cH
	DB	09dH
	DB	01cH
	DB	095H
	DB	0dbH
	DB	08cH
	DB	0fbH
	DB	084H
	DB	07aH
	DB	06cH
	DB	03aH
	DB	05cH
	DB	03aH
	DB	054H
	DB	03aH
	DB	054H
	DB	01aH
	DB	054H
	DB	01aH
	DB	05cH
	DB	01aH
	DB	05cH
	DB	03aH
	DB	05cH
	DB	03aH
	DB	05cH
	DB	03aH
	DB	05cH
	DB	01aH
	DB	05cH
	DB	01aH
	DB	05cH
	DB	01aH
	DB	05cH
	DB	01aH
	DB	05cH
	DB	019H
	DB	05cH
	DB	0f9H
	DB	053H
	DB	01aH
	DB	054H
	DB	01aH
	DB	054H
	DB	01aH
	DB	054H
	DB	0faH
	DB	053H
	DB	0faH
	DB	053H
	DB	01aH
	DB	054H
	DB	01aH
	DB	054H
	DB	01aH
	DB	054H
	DB	01aH
	DB	054H
	DB	0faH
	DB	053H
	DB	0f9H
	DB	053H
	DB	0f9H
	DB	053H
	DB	03aH
	DB	05cH
	DB	01aH
	DB	05cH
	DB	0f9H
	DB	053H
	DB	01aH
	DB	054H
	DB	019H
	DB	054H
	DB	01aH
	DB	054H
	DB	019H
	DB	064H
	DB	019H
	DB	06cH
	DB	019H
	DB	06cH
	DB	019H
	DB	05cH
	DB	0f9H
	DB	053H
	DB	0f9H
	DB	053H
	DB	0f9H
	DB	053H
	DB	0f9H
	DB	053H
	DB	0f9H
	DB	053H
	DB	0f9H
	DB	053H
	DB	0f9H
	DB	053H
	DB	0f9H
	DB	04bH
	DB	0f9H
	DB	04bH
	DB	0f9H
	DB	04bH
	DB	0f9H
	DB	04bH
	DB	019H
	DB	04cH
	DB	0f9H
	DB	04bH
	DB	0f9H
	DB	04bH
	DB	019H
	DB	054H
	DB	0f9H
	DB	053H
	DB	0f8H
	DB	053H
	DB	053H
	DB	04bH
	DB	0efH
	DB	06aH
	DB	0f4H
	DB	0acH
	DB	0ffH
	DB	0ffH
	DB	0ffH
	DB	0ffH
	DB	0ffH
	DB	0ffH
	DB	0ffH
	DB	0ffH
	DB	0dfH
	DB	0ffH
	DB	09eH
	DB	0ffH
	DB	03aH
	DB	0d6H
	DB	05bH
	DB	0deH
	DB	09bH
	DB	0deH
	DB	09bH
	DB	0d6H
	DB	07bH
	DB	0c6H
	DB	07bH
	DB	0beH
	DB	05bH
	DB	0b6H
	DB	05bH
	DB	0aeH
	DB	07cH
	DB	0a6H
	DB	05bH
	DB	09eH
	DB	0bdH
	DB	0a6H
	DB	05bH
	DB	09eH
	DB	0d9H
	DB	07dH
	DB	01aH
	DB	086H
	DB	0b9H
	DB	07dH
	DB	0faH
	DB	08dH
	DB	0b9H
	DB	085H
	DB	078H
	DB	075H
	DB	057H
	DB	06dH
	DB	077H
	DB	06dH
	DB	078H
	DB	06dH
	DB	01bH
	DB	07eH
	DB	098H
	DB	06dH
	DB	078H
	DB	065H
	DB	01bH
	DB	076H
	DB	05cH
	DB	07eH
	DB	03bH
	DB	07eH
	DB	07cH
	DB	086H
	DB	0bdH
	DB	096H
	DB	0ddH
	DB	096H
	DB	07cH
	DB	08eH
	DB	03bH
	DB	086H
	DB	07cH
	DB	086H
	DB	01bH
	DB	07eH
	DB	01bH
	DB	076H
	DB	01aH
	DB	066H
	DB	0ddH
	DB	08eH
	DB	0bdH
	DB	08eH
	DB	0bdH
	DB	096H
	DB	09cH
	DB	08eH
	DB	07bH
	DB	086H
	DB	0d9H
	DB	075H
	DB	03aH
	DB	07eH
	DB	098H
	DB	05dH
	DB	0f8H
	DB	065H
	DB	098H
	DB	05dH
	DB	0f9H
	DB	07dH
	DB	037H
	DB	05dH
	DB	098H
	DB	065H
	DB	098H
	DB	065H
	DB	097H
	DB	065H
	DB	0b8H
	DB	06dH
	DB	0d8H
	DB	06dH
	DB	0d3H
	DB	044H
	DB	033H
	DB	04dH
	DB	0f3H
	DB	044H
	DB	03aH
	DB	07eH
	DB	0d4H
	DB	04cH
	DB	093H
	DB	03cH
	DB	072H
	DB	034H
	DB	0f5H
	DB	03cH
	DB	0b8H
	DB	065H
	DB	0d9H
	DB	06dH
	DB	03aH
	DB	07eH
	DB	0f9H
	DB	07dH
	DB	0d9H
	DB	075H
	DB	097H
	DB	06dH
	DB	014H
	DB	055H
	DB	014H
	DB	04dH
	DB	0f2H
	DB	03cH
	DB	0b2H
	DB	034H
	DB	035H
	DB	04dH
	DB	035H
	DB	04dH
	DB	036H
	DB	055H
	DB	059H
	DB	08eH
	DB	015H
	DB	06dH
	DB	0d4H
	DB	04cH
	DB	078H
	DB	05dH
	DB	098H
	DB	06dH
	DB	0b7H
	DB	065H
	DB	0d7H
	DB	065H
	DB	096H
	DB	055H
	DB	0d8H
	DB	065H
	DB	0bbH
	DB	096H
	DB	075H
	DB	065H
	DB	096H
	DB	055H
	DB	0d8H
	DB	065H
	DB	0f8H
	DB	065H
	DB	018H
	DB	06eH
	DB	0b5H
	DB	065H
	DB	033H
	DB	04dH
	DB	055H
	DB	04dH
	DB	097H
	DB	055H
	DB	01aH
	DB	07eH
	DB	034H
	DB	04dH
	DB	098H
	DB	055H
	DB	09cH
	DB	08eH
	DB	07cH
	DB	08eH
	DB	019H
	DB	07eH
	DB	076H
	DB	055H
	DB	078H
	DB	0aH
	DB	098H
	DB	0aH
	DB	098H
	DB	0aH
	DB	098H
	DB	0aH
	DB	098H
	DB	0aH
	DB	098H
	DB	0aH
	DB	098H
	DB	0aH
	DB	098H
	DB	0aH
	DB	098H
	DB	0aH
	DB	098H
	DB	0aH
	DB	0b8H
	DB	0aH
	DB	0b8H
	DB	0aH
	DB	0b8H
	DB	0aH
	DB	0b8H
	DB	0aH
	DB	0b8H
	DB	012H
	DB	0b8H
	DB	012H
	DB	0b9H
	DB	012H
	DB	0b9H
	DB	012H
	DB	0d9H
	DB	012H
	DB	0d9H
	DB	012H
	DB	0f9H
	DB	012H
	DB	0d9H
	DB	012H
	DB	0d9H
	DB	012H
	DB	0f9H
	DB	012H
	DB	0f9H
	DB	012H
	DB	0f9H
	DB	012H
	DB	019H
	DB	01bH
	DB	0f9H
	DB	01aH
	DB	019H
	DB	01bH
	DB	019H
	DB	01bH
	DB	019H
	DB	01bH
	DB	03aH
	DB	01bH
	DB	03aH
	DB	01bH
	DB	03aH
	DB	01bH
	DB	03aH
	DB	01bH
	DB	03aH
	DB	01bH
	DB	03aH
	DB	01bH
	DB	03aH
	DB	01bH
	DB	03aH
	DB	01bH
	DB	05aH
	DB	023H
	DB	07bH
	DB	023H
	DB	05aH
	DB	023H
	DB	07aH
	DB	023H
	DB	07aH
	DB	023H
	DB	07aH
	DB	02bH
	DB	05aH
	DB	02bH
	DB	07aH
	DB	02bH
	DB	09bH
	DB	02bH
	DB	09bH
	DB	02bH
	DB	09bH
	DB	02bH
	DB	0bbH
	DB	02bH
	DB	09aH
	DB	02bH
	DB	09aH
	DB	02bH
	DB	0bbH
	DB	033H
	DB	0bbH
	DB	033H
	DB	0bbH
	DB	033H
	DB	0bbH
	DB	033H
	DB	0bbH
	DB	03bH
	DB	0baH
	DB	04bH
	DB	03aH
	DB	064H
	DB	07bH
	DB	074H
	DB	03aH
	DB	06cH
	DB	07aH
	DB	07cH
	DB	0fbH
	DB	08cH
	DB	07cH
	DB	0adH
	DB	0ddH
	DB	0bdH
	DB	0fdH
	DB	0c5H
	DB	01eH
	DB	0c6H
	DB	0fdH
	DB	0bdH
	DB	0bdH
	DB	0b5H
	DB	05cH
	DB	0a5H
	DB	01cH
	DB	095H
	DB	0dbH
	DB	084H
	DB	0dcH
	DB	084H
	DB	0dbH
	DB	07cH
	DB	09bH
	DB	074H
	DB	03aH
	DB	064H
	DB	03aH
	DB	054H
	DB	03aH
	DB	054H
	DB	03aH
	DB	054H
	DB	03aH
	DB	054H
	DB	03aH
	DB	05cH
	DB	03aH
	DB	05cH
	DB	01aH
	DB	05cH
	DB	03aH
	DB	05cH
	DB	03aH
	DB	05cH
	DB	01aH
	DB	05cH
	DB	01aH
	DB	05cH
	DB	03aH
	DB	05cH
	DB	03aH
	DB	05cH
	DB	019H
	DB	05cH
	DB	019H
	DB	05cH
	DB	01aH
	DB	054H
	DB	03aH
	DB	054H
	DB	01aH
	DB	054H
	DB	01aH
	DB	054H
	DB	01aH
	DB	054H
	DB	01aH
	DB	054H
	DB	01aH
	DB	054H
	DB	01aH
	DB	054H
	DB	01aH
	DB	054H
	DB	01aH
	DB	054H
	DB	01aH
	DB	054H
	DB	01aH
	DB	054H
	DB	01aH
	DB	05cH
	DB	0f9H
	DB	053H
	DB	019H
	DB	054H
	DB	019H
	DB	054H
	DB	019H
	DB	054H
	DB	019H
	DB	054H
	DB	019H
	DB	064H
	DB	039H
	DB	06cH
	DB	019H
	DB	064H
	DB	019H
	DB	05cH
	DB	0f9H
	DB	053H
	DB	0f9H
	DB	053H
	DB	0f9H
	DB	053H
	DB	0f9H
	DB	053H
	DB	0f9H
	DB	053H
	DB	0f9H
	DB	053H
	DB	0f9H
	DB	04bH
	DB	0f9H
	DB	04bH
	DB	0f9H
	DB	04bH
	DB	0f9H
	DB	04bH
	DB	0f9H
	DB	04bH
	DB	019H
	DB	04cH
	DB	019H
	DB	04cH
	DB	0f9H
	DB	04bH
	DB	019H
	DB	054H
	DB	0f9H
	DB	053H
	DB	018H
	DB	05cH
	DB	0d6H
	DB	063H
	DB	0efH
	DB	062H
	DB	096H
	DB	0c5H
	DB	0ffH
	DB	0ffH
	DB	0ffH
	DB	0ffH
	DB	0ffH
	DB	0ffH
	DB	0ffH
	DB	0ffH
	DB	0dfH
	DB	0ffH
	DB	07eH
	DB	0f7H
	DB	05aH
	DB	0d6H
	DB	05bH
	DB	0deH
	DB	07bH
	DB	0deH
	DB	09bH
	DB	0deH
	DB	07bH
	DB	0c6H
	DB	09bH
	DB	0beH
	DB	07cH
	DB	0b6H
	DB	05bH
	DB	0aeH
	DB	07cH
	DB	0a6H
	DB	07cH
	DB	09eH
	DB	09cH
	DB	0a6H
	DB	03bH
	DB	09eH
	DB	098H
	DB	07dH
	DB	0faH
	DB	07dH
	DB	0d9H
	DB	085H
	DB	05bH
	DB	096H
	DB	099H
	DB	07dH
	DB	099H
	DB	07dH
	DB	078H
	DB	075H
	DB	057H
	DB	065H
	DB	058H
	DB	065H
	DB	0faH
	DB	075H
	DB	0d9H
	DB	075H
	DB	078H
	DB	065H
	DB	05cH
	DB	07eH
	DB	05cH
	DB	07eH
	DB	03bH
	DB	07eH
	DB	05bH
	DB	07eH
	DB	09cH
	DB	086H
	DB	09cH
	DB	086H
	DB	05cH
	DB	086H
	DB	03bH
	DB	086H
	DB	07cH
	DB	08eH
	DB	01bH
	DB	07eH
	DB	01bH
	DB	076H
	DB	05bH
	DB	06eH
	DB	0ddH
	DB	08eH
	DB	0bdH
	DB	08eH
	DB	07cH
	DB	086H
	DB	0fdH
	DB	096H
	DB	0fdH
	DB	09eH
	DB	07bH
	DB	08eH
	DB	0f9H
	DB	075H
	DB	057H
	DB	05dH
	DB	0d8H
	DB	065H
	DB	057H
	DB	055H
	DB	0b8H
	DB	06dH
	DB	037H
	DB	05dH
	DB	077H
	DB	05dH
	DB	077H
	DB	05dH
	DB	0b8H
	DB	065H
	DB	077H
	DB	05dH
	DB	077H
	DB	065H
	DB	0d3H
	DB	04cH
	DB	096H
	DB	05dH
	DB	035H
	DB	04dH
	DB	05bH
	DB	086H
	DB	015H
	DB	055H
	DB	0d3H
	DB	044H
	DB	0b3H
	DB	03cH
	DB	0b3H
	DB	034H
	DB	097H
	DB	05dH
	DB	077H
	DB	05dH
	DB	0f9H
	DB	06dH
	DB	0d8H
	DB	075H
	DB	0b8H
	DB	075H
	DB	0d8H
	DB	075H
	DB	0f4H
	DB	04cH
	DB	0f3H
	DB	044H
	DB	0d2H
	DB	03cH
	DB	0b2H
	DB	034H
	DB	035H
	DB	04dH
	DB	015H
	DB	045H
	DB	036H
	DB	055H
	DB	07bH
	DB	08eH
	DB	0b6H
	DB	085H
	DB	015H
	DB	05dH
	DB	057H
	DB	05dH
	DB	098H
	DB	06dH
	DB	0b7H
	DB	065H
	DB	0b6H
	DB	065H
	DB	0b6H
	DB	065H
	DB	0f8H
	DB	06dH
	DB	07aH
	DB	08eH
	DB	055H
	DB	065H
	DB	0b6H
	DB	05dH
	DB	0f7H
	DB	06dH
	DB	0b6H
	DB	065H
	DB	0d6H
	DB	05dH
	DB	075H
	DB	055H
	DB	013H
	DB	04dH
	DB	055H
	DB	055H
	DB	097H
	DB	055H
	DB	0f9H
	DB	075H
	DB	014H
	DB	04dH
	DB	097H
	DB	04dH
	DB	0bdH
	DB	086H
	DB	07bH
	DB	08eH
	DB	05aH
	DB	086H
	DB	097H
	DB	055H
	DB	078H
	DB	0aH
	DB	078H
	DB	0aH
	DB	078H
	DB	0aH
	DB	098H
	DB	0aH
	DB	098H
	DB	0aH
	DB	098H
	DB	0aH
	DB	0b9H
	DB	0aH
	DB	098H
	DB	0aH
	DB	098H
	DB	0aH
	DB	098H
	DB	0aH
	DB	0b8H
	DB	0aH
	DB	0b8H
	DB	0aH
	DB	0b8H
	DB	0aH
	DB	0b8H
	DB	0aH
	DB	0b8H
	DB	0aH
	DB	0d9H
	DB	012H
	DB	0f9H
	DB	012H
	DB	0d9H
	DB	012H
	DB	0d9H
	DB	012H
	DB	0d9H
	DB	012H
	DB	0d9H
	DB	012H
	DB	0d9H
	DB	012H
	DB	0d9H
	DB	012H
	DB	0f9H
	DB	012H
	DB	0f9H
	DB	012H
	DB	0f9H
	DB	01aH
	DB	0f9H
	DB	01aH
	DB	0f9H
	DB	01aH
	DB	019H
	DB	01bH
	DB	019H
	DB	01bH
	DB	039H
	DB	01bH
	DB	019H
	DB	01bH
	DB	03aH
	DB	01bH
	DB	03aH
	DB	01bH
	DB	03aH
	DB	01bH
	DB	03aH
	DB	01bH
	DB	03aH
	DB	01bH
	DB	03aH
	DB	01bH
	DB	03aH
	DB	01bH
	DB	03aH
	DB	01bH
	DB	05aH
	DB	023H
	DB	05aH
	DB	023H
	DB	07aH
	DB	023H
	DB	07aH
	DB	023H
	DB	05aH
	DB	023H
	DB	05aH
	DB	02bH
	DB	07aH
	DB	02bH
	DB	09bH
	DB	02bH
	DB	0bbH
	DB	02bH
	DB	0bbH
	DB	033H
	DB	09aH
	DB	02bH
	DB	09bH
	DB	02bH
	DB	09aH
	DB	02bH
	DB	09aH
	DB	02bH
	DB	0bbH
	DB	033H
	DB	0bbH
	DB	033H
	DB	0bbH
	DB	033H
	DB	0baH
	DB	03bH
	DB	01bH
	DB	064H
	DB	0dcH
	DB	08cH
	DB	0fcH
	DB	094H
	DB	09bH
	DB	084H
	DB	0dbH
	DB	08cH
	DB	09aH
	DB	084H
	DB	01bH
	DB	09dH
	DB	0bcH
	DB	0bdH
	DB	01dH
	DB	0ceH
	DB	0fdH
	DB	0c5H
	DB	0ddH
	DB	0bdH
	DB	07dH
	DB	0adH
	DB	03cH
	DB	09dH
	DB	0fbH
	DB	084H
	DB	09bH
	DB	074H
	DB	09bH
	DB	06cH
	DB	0bbH
	DB	06cH
	DB	07bH
	DB	064H
	DB	03aH
	DB	05cH
	DB	03aH
	DB	054H
	DB	03aH
	DB	054H
	DB	03aH
	DB	054H
	DB	03aH
	DB	054H
	DB	05bH
	DB	05cH
	DB	05bH
	DB	05cH
	DB	05bH
	DB	05cH
	DB	05aH
	DB	064H
	DB	03aH
	DB	064H
	DB	03aH
	DB	064H
	DB	03aH
	DB	05cH
	DB	03bH
	DB	05cH
	DB	03aH
	DB	05cH
	DB	01aH
	DB	05cH
	DB	019H
	DB	05cH
	DB	03aH
	DB	05cH
	DB	03aH
	DB	05cH
	DB	01aH
	DB	054H
	DB	01aH
	DB	054H
	DB	0faH
	DB	053H
	DB	01aH
	DB	054H
	DB	01aH
	DB	054H
	DB	01aH
	DB	054H
	DB	01aH
	DB	054H
	DB	01aH
	DB	054H
	DB	0faH
	DB	053H
	DB	01aH
	DB	054H
	DB	01aH
	DB	054H
	DB	01aH
	DB	054H
	DB	019H
	DB	054H
	DB	01aH
	DB	054H
	DB	019H
	DB	054H
	DB	01aH
	DB	05cH
	DB	01aH
	DB	064H
	DB	0f9H
	DB	063H
	DB	019H
	DB	05cH
	DB	019H
	DB	05cH
	DB	0f9H
	DB	053H
	DB	0f9H
	DB	053H
	DB	019H
	DB	054H
	DB	0f9H
	DB	053H
	DB	0f9H
	DB	053H
	DB	0f9H
	DB	053H
	DB	019H
	DB	054H
	DB	0f9H
	DB	04bH
	DB	0f9H
	DB	053H
	DB	0f9H
	DB	04bH
	DB	0f9H
	DB	04bH
	DB	0f9H
	DB	04bH
	DB	0f9H
	DB	04bH
	DB	019H
	DB	04cH
	DB	0f9H
	DB	053H
	DB	0f9H
	DB	053H
	DB	0f8H
	DB	053H
	DB	017H
	DB	05cH
	DB	051H
	DB	06bH
	DB	038H
	DB	0d6H
	DB	0ffH
	DB	0ffH
	DB	0ffH
	DB	0ffH
	DB	0ffH
	DB	0ffH
	DB	0ffH
	DB	0ffH
	DB	0bfH
	DB	0ffH
	DB	09eH
	DB	0ffH
	DB	03aH
	DB	0d6H
	DB	05bH
	DB	0d6H
	DB	07bH
	DB	0deH
	DB	0bbH
	DB	0deH
	DB	07aH
	DB	0c6H
	DB	07bH
	DB	0beH
	DB	09cH
	DB	0beH
	DB	05bH
	DB	0aeH
	DB	07cH
	DB	0a6H
	DB	07cH
	DB	0a6H
	DB	0bdH
	DB	0aeH
	DB	07cH
	DB	0a6H
	DB	098H
	DB	07dH
	DB	0b9H
	DB	07dH
	DB	0faH
	DB	085H
	DB	01bH
	DB	08eH
	DB	099H
	DB	07dH
	DB	099H
	DB	07dH
	DB	078H
	DB	075H
	DB	036H
	DB	065H
	DB	057H
	DB	065H
	DB	0d9H
	DB	06dH
	DB	0d9H
	DB	06dH
	DB	078H
	DB	05dH
	DB	03bH
	DB	076H
	DB	09cH
	DB	07eH
	DB	01aH
	DB	076H
	DB	03bH
	DB	076H
	DB	05bH
	DB	07eH
	DB	09cH
	DB	086H
	DB	07cH
	DB	086H
	DB	05bH
	DB	086H
	DB	09cH
	DB	08eH
	DB	0faH
	DB	075H
	DB	01aH
	DB	06eH
	DB	05cH
	DB	07eH
	DB	09cH
	DB	08eH
	DB	05bH
	DB	07eH
	DB	03aH
	DB	06eH
	DB	09cH
	DB	086H
	DB	0fdH
	DB	096H
	DB	0bcH
	DB	096H
	DB	0f9H
	DB	075H
	DB	077H
	DB	065H
	DB	096H
	DB	065H
	DB	016H
	DB	055H
	DB	077H
	DB	065H
	DB	017H
	DB	055H
	DB	057H
	DB	05dH
	DB	078H
	DB	05dH
	DB	098H
	DB	065H
	DB	036H
	DB	055H
	DB	036H
	DB	05dH
	DB	056H
	DB	05dH
	DB	096H
	DB	05dH
	DB	097H
	DB	05dH
	DB	03aH
	DB	07eH
	DB	077H
	DB	065H
	DB	0f4H
	DB	04cH
	DB	0d3H
	DB	044H
	DB	031H
	DB	024H
	DB	0b8H
	DB	05dH
	DB	098H
	DB	065H
	DB	0d9H
	DB	06dH
	DB	0b8H
	DB	06dH
	DB	0f8H
	DB	075H
	DB	0b7H
	DB	06dH
	DB	015H
	DB	055H
	DB	034H
	DB	04dH
	DB	0d2H
	DB	044H
	DB	0d3H
	DB	03cH
	DB	055H
	DB	055H
	DB	014H
	DB	045H
	DB	057H
	DB	05dH
	DB	05bH
	DB	08eH
	DB	0f8H
	DB	095H
	DB	056H
	DB	075H
	DB	056H
	DB	065H
	DB	0b9H
	DB	075H
	DB	0b7H
	DB	06dH
	DB	0f7H
	DB	06dH
	DB	058H
	DB	086H
	DB	097H
	DB	065H
	DB	0f9H
	DB	07dH
	DB	055H
	DB	065H
	DB	0f7H
	DB	06dH
	DB	0b6H
	DB	065H
	DB	095H
	DB	05dH
	DB	0b6H
	DB	05dH
	DB	0b6H
	DB	05dH
	DB	054H
	DB	055H
	DB	056H
	DB	055H
	DB	097H
	DB	055H
	DB	0f8H
	DB	075H
	DB	014H
	DB	04dH
	DB	057H
	DB	045H
	DB	03bH
	DB	06eH
	DB	03aH
	DB	07eH
	DB	039H
	DB	07eH
	DB	096H
	DB	055H
	DB	078H
	DB	0aH
	DB	078H
	DB	0aH
	DB	078H
	DB	0aH
	DB	098H
	DB	0aH
	DB	0b8H
	DB	0aH
	DB	0b9H
