; Listing generated by Microsoft (R) Optimizing Compiler Version 19.30.30705.0 

	TITLE	D:\学习\毕业设计\方案1_GFX+底板\官方例程\DISPLAY\TouchGFX\build\Debug\obj\Table_Amiri_Regular_18_2bpp.obj
	.686P
	.XMM
	include listing.inc
	.model	flat

INCLUDELIB MSVCRTD
INCLUDELIB OLDNAMES

PUBLIC	?glyphs_Amiri_Regular_18_2bpp@@3QBUGlyphNode@touchgfx@@B ; glyphs_Amiri_Regular_18_2bpp
PUBLIC	?unicodes_Amiri_Regular_18_2bpp@@3QBQBEB	; unicodes_Amiri_Regular_18_2bpp
PUBLIC	?Amiri_Regular_contextualFormsTable@@3UFontContextualFormsTable@touchgfx@@B ; Amiri_Regular_contextualFormsTable
EXTRN	?unicodes_Amiri_Regular_18_2bpp_0@@3QBEB:BYTE	; unicodes_Amiri_Regular_18_2bpp_0
EXTRN	?unicodes_Amiri_Regular_18_2bpp_31@@3QBEB:BYTE	; unicodes_Amiri_Regular_18_2bpp_31
msvcjmc	SEGMENT
__692521D7_concurrencysal@h DB 01H
__A324AF7F_sal@h DB 01H
__3FA7CF14_vadefs@h DB 01H
__4DFECF8D_vcruntime@h DB 01H
__6569C2CA_corecrt@h DB 01H
__C3DF3361_assert@h DB 01H
__47AAA172_stdint@h DB 01H
__BA83647B_Config@hpp DB 01H
__AA120D12_Types@hpp DB 01H
__73751FBD_stdarg@h DB 01H
__249BB391_Unicode@hpp DB 01H
__2B5BEDA9_Font@hpp DB 01H
__66C3C840_ConstFont@hpp DB 01H
__9BA7F6D3_GeneratedFont@hpp DB 01H
__6F3395B6_Table_Amiri_Regular_18_2bpp@cpp DB 01H
msvcjmc	ENDS
CONST	SEGMENT
?glyphs_Amiri_Regular_18_2bpp@@3QBUGlyphNode@touchgfx@@B DD 00H ; glyphs_Amiri_Regular_18_2bpp
	DW	020H
	DB	00H
	DB	00H
	DB	00H
	DB	00H
	DB	05H
	DB	00H
	DB	00H
	DB	00H
	DD	00H
	DW	03fH
	DB	05H
	DB	0cH
	DB	0cH
	DB	01H
	DB	06H
	DB	00H
	DB	00H
	DB	00H
	DD	0fH
	DW	0625H
	DB	04H
	DB	011H
	DB	0cH
	DB	01H
	DB	04H
	DB	00H
	DB	00H
	DB	00H
	DD	020H
	DW	0627H
	DB	02H
	DB	0cH
	DB	0cH
	DB	01H
	DB	04H
	DB	00H
	DB	00H
	DB	00H
	DD	026H
	DW	0628H
	DB	0fH
	DB	0cH
	DB	07H
	DB	01H
	DB	011H
	DB	00H
	DB	00H
	DB	00H
	DD	053H
	DW	0629H
	DB	05H
	DB	0cH
	DB	0cH
	DB	01H
	DB	07H
	DB	00H
	DB	00H
	DB	00H
	DD	062H
	DW	062aH
	DB	0fH
	DB	09H
	DB	09H
	DB	01H
	DB	011H
	DB	00H
	DB	00H
	DB	00H
	DD	084H
	DW	062dH
	DB	0cH
	DB	0eH
	DB	05H
	DB	01H
	DB	0cH
	DB	00H
	DB	00H
	DB	00H
	DD	0aeH
	DW	062eH
	DB	0cH
	DB	012H
	DB	09H
	DB	01H
	DB	0cH
	DB	00H
	DB	00H
	DB	00H
	DD	0e4H
	DW	062fH
	DB	06H
	DB	07H
	DB	07H
	DB	01H
	DB	08H
	DB	00H
	DB	00H
	DB	00H
	DD	0efH
	DW	0631H
	DB	07H
	DB	09H
	DB	05H
	DB	0ffH
	DB	07H
	DB	00H
	DB	00H
	DB	00H
	DD	0ffH
	DW	0633H
	DB	010H
	DB	0bH
	DB	07H
	DB	01H
	DB	012H
	DB	00H
	DB	00H
	DB	00H
	DD	012bH
	DW	0635H
	DB	014H
	DB	0bH
	DB	07H
	DB	01H
	DB	016H
	DB	00H
	DB	00H
	DB	00H
	DD	0162H
	DW	0639H
	DB	0cH
	DB	011H
	DB	08H
	DB	01H
	DB	0aH
	DB	00H
	DB	00H
	DB	00H
	DD	0195H
	DW	063aH
	DB	0cH
	DB	015H
	DB	0cH
	DB	01H
	DB	0aH
	DB	00H
	DB	00H
	DB	00H
	DD	01d4H
	DW	0642H
	DB	0bH
	DB	0eH
	DB	0bH
	DB	01H
	DB	0cH
	DB	00H
	DB	00H
	DB	00H
	DD	01fbH
	DW	0643H
	DB	0aH
	DB	0eH
	DB	0eH
	DB	01H
	DB	0cH
	DB	00H
	DB	00H
	DB	00H
	DD	021eH
	DW	0644H
	DB	09H
	DB	0fH
	DB	0dH
	DB	01H
	DB	0bH
	DB	00H
	DB	00H
	DB	00H
	DD	0240H
	DW	0645H
	DB	06H
	DB	0fH
	DB	06H
	DB	01H
	DB	08H
	DB	00H
	DB	00H
	DB	00H
	DD	0257H
	DW	0646H
	DB	08H
	DB	0cH
	DB	0bH
	DB	01H
	DB	0aH
	DB	00H
	DB	00H
	DB	00H
	DD	026fH
	DW	064aH
	DB	0cH
	DB	0fH
	DB	07H
	DB	01H
	DB	0eH
	DB	00H
	DB	00H
	DB	00H
	DD	00H
	DW	0fc06H
	DB	0cH
	DB	014H
	DB	0aH
	DB	01H
	DB	0cH
	DB	00H
	DB	00H
	DB	00H
	DD	03cH
	DW	0fc07H
	DB	0cH
	DB	015H
	DB	0bH
	DB	01H
	DB	0cH
	DB	00H
	DB	00H
	DB	00H
	DD	07bH
	DW	0fc08H
	DB	0aH
	DB	010H
	DB	06H
	DB	00H
	DB	0bH
	DB	00H
	DB	00H
	DB	00H
	DD	0a3H
	DW	0fc0aH
	DB	0cH
	DB	010H
	DB	08H
	DB	01H
	DB	0dH
	DB	00H
	DB	00H
	DB	00H
	DD	0d3H
	DW	0fc0cH
	DB	0cH
	DB	018H
	DB	0eH
	DB	01H
	DB	0cH
	DB	00H
	DB	00H
	DB	00H
	DD	011bH
	DW	0fc0dH
	DB	0cH
	DB	018H
	DB	0eH
	DB	01H
	DB	0cH
	DB	00H
	DB	00H
	DB	00H
	DD	0163H
	DW	0fc0eH
	DB	0aH
	DB	015H
	DB	0bH
	DB	00H
	DB	0bH
	DB	00H
	DB	00H
	DB	00H
	DD	0198H
	DW	0fc10H
	DB	0bH
	DB	015H
	DB	0dH
	DB	01H
	DB	0dH
	DB	00H
	DB	00H
	DB	00H
	DD	01d2H
	DW	0fc18H
	DB	013H
	DB	010H
	DB	06H
	DB	01H
	DB	015H
	DB	00H
	DB	00H
	DB	00H
	DD	021eH
	DW	0fc1aH
	DB	0dH
	DB	017H
	DB	0dH
	DB	01H
	DB	0fH
	DB	00H
	DB	00H
	DB	00H
	DD	0269H
	DW	0fc1bH
	DB	013H
	DB	013H
	DB	09H
	DB	01H
	DB	015H
	DB	00H
	DB	00H
	DB	00H
	DD	02c4H
	DW	0fc1dH
	DB	0cH
	DB	013H
	DB	09H
	DB	01H
	DB	0eH
	DB	00H
	DB	00H
	DB	00H
	DD	02fdH
	DW	0fc1eH
	DB	0cH
	DB	015H
	DB	0bH
	DB	01H
	DB	0eH
	DB	00H
	DB	00H
	DB	00H
	DD	033cH
	DW	0fc1fH
	DB	0fH
	DB	010H
	DB	05H
	DB	01H
	DB	010H
	DB	00H
	DB	00H
	DB	00H
	DD	0378H
	DW	0fc20H
	DB	0fH
	DB	014H
	DB	0aH
	DB	01H
	DB	011H
	DB	00H
	DB	00H
	DB	00H
	DD	03c3H
	DW	0fc21H
	DB	012H
	DB	011H
	DB	06H
	DB	01H
	DB	014H
	DB	00H
	DB	00H
	DB	00H
	DD	0410H
	DW	0fc2aH
	DB	010H
	DB	011H
	DB	07H
	DB	01H
	DB	012H
	DB	00H
	DB	00H
	DB	00H
	DD	0454H
	DW	0fc2cH
	DB	010H
	DB	015H
	DB	0bH
	DB	01H
	DB	012H
	DB	00H
	DB	00H
	DB	00H
	DD	04a8H
	DW	0fc33H
	DB	0cH
	DB	019H
	DB	0fH
	DB	01H
	DB	0dH
	DB	00H
	DB	00H
	DB	00H
	DD	04f3H
	DW	0fc34H
	DB	0dH
	DB	015H
	DB	0bH
	DB	01H
	DB	0fH
	DB	00H
	DB	00H
	DB	00H
	DD	0538H
	DW	0fc36H
	DB	0bH
	DB	016H
	DB	0eH
	DB	01H
	DB	0dH
	DB	00H
	DB	00H
	DB	00H
	DD	0575H
	DW	0fc37H
	DB	0dH
	DB	0fH
	DB	0eH
	DB	00H
	DB	0eH
	DB	00H
	DB	00H
	DB	00H
	DD	05a6H
	DW	0fc39H
	DB	0dH
	DB	019H
	DB	0fH
	DB	01H
	DB	0fH
	DB	00H
	DB	00H
	DB	00H
	DD	05f8H
	DW	0fc3aH
	DB	0dH
	DB	019H
	DB	0fH
	DB	01H
	DB	0fH
	DB	00H
	DB	00H
	DB	00H
	DD	064aH
	DW	0fc3bH
	DB	013H
	DB	014H
	DB	0eH
	DB	01H
	DB	015H
	DB	00H
	DB	00H
	DB	00H
	DD	06a9H
	DW	0fc3cH
	DB	0dH
	DB	019H
	DB	010H
	DB	00H
	DB	0eH
	DB	00H
	DB	00H
	DB	00H
	DD	06fbH
	DW	0fc3eH
	DB	010H
	DB	019H
	DB	011H
	DB	01H
	DB	012H
	DB	00H
	DB	00H
	DB	00H
	DD	075fH
	DW	0fc40H
	DB	0cH
	DB	016H
	DB	0cH
	DB	01H
	DB	0dH
	DB	00H
	DB	00H
	DB	00H
	DD	07a1H
	DW	0fc41H
	DB	0cH
	DB	016H
	DB	0cH
	DB	01H
	DB	0dH
	DB	00H
	DB	00H
	DB	00H
	DD	07e3H
	DW	0fc42H
	DB	07H
	DB	017H
	DB	0eH
	DB	00H
	DB	08H
	DB	00H
	DB	00H
	DB	00H
	DD	080cH
	DW	0fc44H
	DB	0bH
	DB	015H
	DB	0dH
	DB	01H
	DB	0dH
	DB	00H
	DB	00H
	DB	00H
	DD	0846H
	DW	0fc46H
	DB	0cH
	DB	014H
	DB	0aH
	DB	01H
	DB	0cH
	DB	00H
	DB	00H
	DB	00H
	DD	0882H
	DW	0fc47H
	DB	0cH
	DB	015H
	DB	0bH
	DB	01H
	DB	0cH
	DB	00H
	DB	00H
	DB	00H
	DD	08c1H
	DW	0fc48H
	DB	0fH
	DB	010H
	DB	06H
	DB	01H
	DB	010H
	DB	00H
	DB	00H
	DB	00H
	DD	08fdH
	DW	0fc4aH
	DB	0eH
	DB	0fH
	DB	07H
	DB	01H
	DB	010H
	DB	00H
	DB	00H
	DB	00H
	DD	0932H
	DW	0fc4cH
	DB	0cH
	DB	018H
	DB	0eH
	DB	01H
	DB	0cH
	DB	00H
	DB	00H
	DB	00H
	DD	097aH
	DW	0fc4dH
	DB	0cH
	DB	018H
	DB	0eH
	DB	01H
	DB	0cH
	DB	00H
	DB	00H
	DB	00H
	DD	09c2H
	DW	0fc4eH
	DB	0aH
	DB	015H
	DB	0bH
	DB	00H
	DB	0bH
	DB	00H
	DB	00H
	DB	00H
	DD	09f7H
	DW	0fc50H
	DB	0bH
	DB	014H
	DB	0cH
	DB	01H
	DB	0dH
	DB	00H
	DB	00H
	DB	00H
	DD	0a2eH
	DW	0fc56H
	DB	0cH
	DB	014H
	DB	0aH
	DB	01H
	DB	0cH
	DB	00H
	DB	00H
	DB	00H
	DD	0a6aH
	DW	0fc57H
	DB	0cH
	DB	015H
	DB	0bH
	DB	01H
	DB	0cH
	DB	00H
	DB	00H
	DB	00H
	DD	0aa9H
	DW	0fc58H
	DB	0bH
	DB	010H
	DB	06H
	DB	00H
	DB	0bH
	DB	00H
	DB	00H
	DB	00H
	DD	0ad5H
	DW	0fc5aH
	DB	0dH
	DB	010H
	DB	08H
	DB	01H
	DB	0dH
	DB	00H
	DB	00H
	DB	00H
	DD	0b09H
	DW	0fc6aH
	DB	0cH
	DB	0bH
	DB	06H
	DB	0ffH
	DB	0aH
	DB	00H
	DB	00H
	DB	00H
	DD	0b2aH
	DW	0fc6cH
	DB	0aH
	DB	0fH
	DB	04H
	DB	01H
	DB	0aH
	DB	00H
	DB	00H
	DB	00H
	DD	0b50H
	DW	0fc6dH
	DB	0dH
	DB	0dH
	DB	08H
	DB	01H
	DB	0eH
	DB	00H
	DB	00H
	DB	00H
	DD	0b7bH
	DW	0fc6fH
	DB	0dH
	DB	0eH
	DB	04H
	DB	01H
	DB	0dH
	DB	00H
	DB	00H
	DB	00H
	DD	0ba9H
	DW	0fc70H
	DB	0cH
	DB	0eH
	DB	0aH
	DB	0ffH
	DB	0aH
	DB	00H
	DB	00H
	DB	00H
	DD	0bd3H
	DW	0fc72H
	DB	0aH
	DB	014H
	DB	09H
	DB	01H
	DB	0aH
	DB	00H
	DB	00H
	DB	00H
	DD	0c05H
	DW	0fc73H
	DB	0dH
	DB	0dH
	DB	09H
	DB	01H
	DB	0eH
	DB	00H
	DB	00H
	DB	00H
	DD	0c30H
	DW	0fc75H
	DB	0dH
	DB	013H
	DB	09H
	DB	01H
	DB	0dH
	DB	00H
	DB	00H
	DB	00H
	DD	0c6eH
	DW	0fc7fH
	DB	010H
	DB	017H
	DB	0cH
	DB	01H
	DB	010H
	DB	00H
	DB	00H
	DB	00H
	DD	0ccaH
	DW	0fc80H
	DB	0eH
	DB	010H
	DB	0fH
	DB	00H
	DB	0dH
	DB	00H
	DB	00H
	DB	00H
	DD	0d02H
	DW	0fc81H
	DB	014H
	DB	016H
	DB	0fH
	DB	01H
	DB	014H
	DB	00H
	DB	00H
	DB	00H
	DD	0d70H
	DW	0fc82H
	DB	0eH
	DB	019H
	DB	0fH
	DB	01H
	DB	0cH
	DB	00H
	DB	00H
	DB	00H
	DD	0dc8H
	DW	0fc84H
	DB	012H
	DB	018H
	DB	0eH
	DB	01H
	DB	011H
	DB	00H
	DB	00H
	DB	00H
	DD	0e34H
	DW	0fc85H
	DB	08H
	DB	019H
	DB	0dH
	DB	01H
	DB	09H
	DB	00H
	DB	00H
	DB	00H
	DD	0e66H
	DW	0fc87H
	DB	0cH
	DB	017H
	DB	0cH
	DB	01H
	DB	0cH
	DB	00H
	DB	00H
	DB	00H
	DD	0eabH
	DW	0fc88H
	DB	0dH
	DB	0dH
	DB	0dH
	DB	00H
	DB	0cH
	DB	00H
	DB	00H
	DB	00H
	DD	0ed6H
	DW	0fc89H
	DB	011H
	DB	0fH
	DB	05H
	DB	01H
	DB	012H
	DB	00H
	DB	00H
	DB	00H
	DD	0f16H
	DW	0fc8aH
	DB	0cH
	DB	0eH
	DB	0aH
	DB	0ffH
	DB	0aH
	DB	00H
	DB	00H
	DB	00H
	DD	0f40H
	DW	0fc8cH
	DB	0aH
	DB	013H
	DB	08H
	DB	01H
	DB	0aH
	DB	00H
	DB	00H
	DB	00H
	DD	0f70H
	DW	0fc8dH
	DB	0dH
	DB	0dH
	DB	09H
	DB	01H
	DB	0eH
	DB	00H
	DB	00H
	DB	00H
	DD	0f9bH
	DW	0fc8fH
	DB	0dH
	DB	012H
	DB	08H
	DB	01H
	DB	0dH
	DB	00H
	DB	00H
	DB	00H
	DD	0fd6H
	DW	0fc91H
	DB	0cH
	DB	0aH
	DB	06H
	DB	0ffH
	DB	0aH
	DB	00H
	DB	00H
	DB	00H
	DD	0ff4H
	DW	0fc93H
	DB	0aH
	DB	0fH
	DB	04H
	DB	01H
	DB	0aH
	DB	00H
	DB	00H
	DB	00H
	DD	0101aH
	DW	0fc94H
	DB	0dH
	DB	0dH
	DB	08H
	DB	01H
	DB	0eH
	DB	00H
	DB	00H
	DB	00H
	DD	01045H
	DW	0fc96H
	DB	0dH
	DB	0eH
	DB	04H
	DB	01H
	DB	0dH
	DB	00H
	DB	00H
	DB	00H
	DD	01073H
	DW	0fc9dH
	DB	0cH
	DB	0fH
	DB	0aH
	DB	0ffH
	DB	0cH
	DB	00H
	DB	00H
	DB	00H
	DD	010a0H
	DW	0fc9eH
	DB	0cH
	DB	0fH
	DB	0aH
	DB	0ffH
	DB	0cH
	DB	00H
	DB	00H
	DB	00H
	DD	010cdH
	DW	0fc9fH
	DB	08H
	DB	0dH
	DB	09H
	DB	0ffH
	DB	08H
	DB	00H
	DB	00H
	DB	00H
	DD	010e7H
	DW	0fca2H
	DB	0cH
	DB	0eH
	DB	0eH
	DB	0ffH
	DB	0cH
	DB	00H
	DB	00H
	DB	00H
	DD	01111H
	DW	0fca3H
	DB	0cH
	DB	0eH
	DB	0eH
	DB	0ffH
	DB	0cH
	DB	00H
	DB	00H
	DB	00H
	DD	0113bH
	DW	0fca4H
	DB	08H
	DB	0cH
	DB	0cH
	DB	0ffH
	DB	08H
	DB	00H
	DB	00H
	DB	00H
	DD	01153H
	DW	0fcaaH
	DB	0dH
	DB	08H
	DB	08H
	DB	0ffH
	DB	0dH
	DB	00H
	DB	00H
	DB	00H
	DD	0116dH
	DW	0fcacH
	DB	0dH
	DB	0bH
	DB	0bH
	DB	0ffH
	DB	0dH
	DB	00H
	DB	00H
	DB	00H
	DD	01191H
	DW	0fcaeH
	DB	0dH
	DB	08H
	DB	08H
	DB	0ffH
	DB	0dH
	DB	00H
	DB	00H
	DB	00H
	DD	011abH
	DW	0fcafH
	DB	0dH
	DB	0aH
	DB	0aH
	DB	0ffH
	DB	0dH
	DB	00H
	DB	00H
	DB	00H
	DD	011ccH
	DW	0fcb0H
	DB	0dH
	DB	08H
	DB	08H
	DB	0ffH
	DB	0dH
	DB	00H
	DB	00H
	DB	00H
	DD	011e6H
	DW	0fcb1H
	DB	010H
	DB	0aH
	DB	0aH
	DB	0ffH
	DB	010H
	DB	00H
	DB	00H
	DB	00H
	DD	0120eH
	DW	0fcb2H
	DB	010H
	DB	0aH
	DB	0aH
	DB	0ffH
	DB	010H
	DB	00H
	DB	00H
	DB	00H
	DD	01236H
	DW	0fcb3H
	DB	0fH
	DB	0aH
	DB	0aH
	DB	0ffH
	DB	0fH
	DB	00H
	DB	00H
	DB	00H
	DD	0125cH
	DW	0fcbbH
	DB	0dH
	DB	0bH
	DB	0bH
	DB	0ffH
	DB	0dH
	DB	00H
	DB	00H
	DB	00H
	DD	01280H
	DW	0fcbdH
	DB	0dH
	DB	0eH
	DB	0eH
	DB	0ffH
	DB	0dH
	DB	00H
	DB	00H
	DB	00H
	DD	012aeH
	DW	0fcc2H
	DB	0cH
	DB	0fH
	DB	0fH
	DB	0ffH
	DB	0cH
	DB	00H
	DB	00H
	DB	00H
	DD	012dbH
	DW	0fcc3H
	DB	07H
	DB	0eH
	DB	0eH
	DB	0ffH
	DB	07H
	DB	00H
	DB	00H
	DB	00H
	DD	012f4H
	DW	0fcc5H
	DB	0eH
	DB	0fH
	DB	0fH
	DB	0ffH
	DB	0dH
	DB	00H
	DB	00H
	DB	00H
	DD	01329H
	DW	0fcc6H
	DB	0eH
	DB	0fH
	DB	0fH
	DB	0ffH
	DB	0dH
	DB	00H
	DB	00H
	DB	00H
	DD	0135eH
	DW	0fcc7H
	DB	0eH
	DB	0fH
	DB	0eH
	DB	0ffH
	DB	0eH
	DB	00H
	DB	00H
	DB	00H
	DD	01393H
	DW	0fcc8H
	DB	0eH
	DB	0fH
	DB	0fH
	DB	0ffH
	DB	0eH
	DB	00H
	DB	00H
	DB	00H
	DD	013c8H
	DW	0fccaH
	DB	0cH
	DB	0dH
	DB	0dH
	DB	0ffH
	DB	0bH
	DB	00H
	DB	00H
	DB	00H
	DD	013efH
	DW	0fccbH
	DB	0cH
	DB	0dH
	DB	0dH
	DB	0ffH
	DB	0bH
	DB	00H
	DB	00H
	DB	00H
	DD	01416H
	DW	0fcccH
	DB	07H
	DB	0dH
	DB	0dH
	DB	0ffH
	DB	06H
	DB	00H
	DB	00H
	DB	00H
	DD	0142dH
	DW	0fccfH
	DB	0cH
	DB	0aH
	DB	0aH
	DB	0ffH
	DB	0bH
	DB	00H
	DB	00H
	DB	00H
	DD	0144bH
	DW	0fcd0H
	DB	0cH
	DB	0aH
	DB	0aH
	DB	0ffH
	DB	0bH
	DB	00H
	DB	00H
	DB	00H
	DD	01469H
	DW	0fcd1H
	DB	08H
	DB	0aH
	DB	0aH
	DB	0ffH
	DB	08H
	DB	00H
	DB	00H
	DB	00H
	DD	0147dH
	DW	0fcd3H
	DB	0cH
	DB	0eH
	DB	0eH
	DB	0ffH
	DB	0cH
	DB	00H
	DB	00H
	DB	00H
	DD	014a7H
	DW	0fcd4H
	DB	0cH
	DB	0eH
	DB	0eH
	DB	0ffH
	DB	0cH
	DB	00H
	DB	00H
	DB	00H
	DD	014d1H
	DW	0fcd5H
	DB	08H
	DB	0cH
	DB	0cH
	DB	0ffH
	DB	08H
	DB	00H
	DB	00H
	DB	00H
	DD	014e9H
	DW	0fcdbH
	DB	0dH
	DB	0eH
	DB	0aH
	DB	0ffH
	DB	0cH
	DB	00H
	DB	00H
	DB	00H
	DD	01517H
	DW	0fcdcH
	DB	0dH
	DB	0eH
	DB	0aH
	DB	0ffH
	DB	0cH
	DB	00H
	DB	00H
	DB	00H
	DD	01545H
	DW	0fcddH
	DB	09H
	DB	0dH
	DB	09H
	DB	0ffH
	DB	08H
	DB	00H
	DB	00H
	DB	00H
	DD	01563H
	DW	0fce1H
	DB	0eH
	DB	09H
	DB	05H
	DB	0ffH
	DB	0dH
	DB	00H
	DB	00H
	DB	00H
	DD	01583H
	DW	0fce3H
	DB	0eH
	DB	09H
	DB	09H
	DB	0ffH
	DB	0dH
	DB	00H
	DB	00H
	DB	00H
	DD	015a3H
	DW	0fce7H
	DB	014H
	DB	05H
	DB	05H
	DB	0ffH
	DB	013H
	DB	00H
	DB	00H
	DB	00H
	DD	015bcH
	DW	0fcebH
	DB	0fH
	DB	010H
	DB	0fH
	DB	0ffH
	DB	0dH
	DB	00H
	DB	00H
	DB	00H
	DD	015f8H
	DW	0fcecH
	DB	010H
	DB	010H
	DB	010H
	DB	0ffH
	DB	0eH
	DB	00H
	DB	00H
	DB	00H
	DD	01638H
	DW	0fcedH
	DB	0aH
	DB	0eH
	DB	0dH
	DB	0ffH
	DB	08H
	DB	00H
	DB	00H
	DB	00H
	DD	0165bH
	DW	0fceeH
	DB	0eH
	DB	09H
	DB	09H
	DB	0ffH
	DB	0dH
	DB	00H
	DB	00H
	DB	00H
	DD	0167bH
	DW	0fcf0H
	DB	0eH
	DB	08H
	DB	05H
	DB	0ffH
	DB	0dH
	DB	00H
	DB	00H
	DB	00H
	DD	01697H
	DW	0fcf8H
	DB	011H
	DB	012H
	DB	0aH
	DB	01H
	DB	013H
	DB	00H
	DB	00H
	DB	00H
	DD	016e4H
	DW	0fcfaH
	DB	011H
	DB	015H
	DB	0dH
	DB	01H
	DB	013H
	DB	00H
	DB	00H
	DB	00H
	DD	0173eH
	DW	0fcfcH
	DB	012H
	DB	0fH
	DB	05H
	DB	01H
	DB	013H
	DB	00H
	DB	00H
	DB	00H
	DD	01782H
	DW	0fd00H
	DB	012H
	DB	0fH
	DB	07H
	DB	01H
	DB	014H
	DB	00H
	DB	00H
	DB	00H
	DD	017c6H
	DW	0fd04H
	DB	012H
	DB	013H
	DB	0bH
	DB	01H
	DB	014H
	DB	00H
	DB	00H
	DB	00H
	DD	0181cH
	DW	0fd06H
	DB	015H
	DB	010H
	DB	06H
	DB	01H
	DB	017H
	DB	00H
	DB	00H
	DB	00H
	DD	01870H
	DW	0fd0eH
	DB	011H
	DB	0bH
	DB	05H
	DB	0feH
	DB	010H
	DB	00H
	DB	00H
	DB	00H
	DD	0189fH
	DW	0fd0fH
	DB	015H
	DB	0cH
	DB	06H
	DB	0feH
	DB	014H
	DB	00H
	DB	00H
	DB	00H
	DD	018deH
	DW	0fd14H
	DB	010H
	DB	0fH
	DB	05H
	DB	01H
	DB	010H
	DB	00H
	DB	00H
	DB	00H
	DD	0191aH
	DW	0fd16H
	DB	010H
	DB	014H
	DB	0aH
	DB	01H
	DB	010H
	DB	00H
	DB	00H
	DB	00H
	DD	0196aH
	DW	0fd18H
	DB	014H
	DB	0eH
	DB	04H
	DB	01H
	DB	014H
	DB	00H
	DB	00H
	DB	00H
	DD	019b0H
	DW	0fd1cH
	DB	015H
	DB	010H
	DB	06H
	DB	01H
	DB	016H
	DB	00H
	DB	00H
	DB	00H
	DD	01a04H
	DW	0fd20H
	DB	015H
	DB	013H
	DB	09H
	DB	01H
	DB	016H
	DB	00H
	DB	00H
	DB	00H
	DD	01a68H
	DW	0fd22H
	DB	016H
	DB	010H
	DB	06H
	DB	01H
	DB	016H
	DB	00H
	DB	00H
	DB	00H
	DD	01ac0H
	DW	0fd2aH
	DB	013H
	DB	0aH
	DB	04H
	DB	0feH
	DB	011H
	DB	00H
	DB	00H
	DB	00H
	DD	01af0H
	DW	0fd2bH
	DB	016H
	DB	0cH
	DB	06H
	DB	0feH
	DB	013H
	DB	00H
	DB	00H
	DB	00H
	DD	01b32H
	DW	0fd35H
	DB	017H
	DB	06H
	DB	06H
	DB	0ffH
	DB	015H
	DB	00H
	DB	00H
	DB	00H
	DD	01b55H
	DW	0fd36H
	DB	017H
	DB	0aH
	DB	0aH
	DB	0ffH
	DB	015H
	DB	00H
	DB	00H
	DB	00H
	DD	01b8fH
	DW	0fd53H
	DB	0eH
	DB	0fH
	DB	0fH
	DB	0ffH
	DB	0eH
	DB	00H
	DB	00H
	DB	00H
	DD	01bc4H
	DW	0fd54H
	DB	0eH
	DB	0fH
	DB	0fH
	DB	0ffH
	DB	0eH
	DB	00H
	DB	00H
	DB	00H
	DD	01bf9H
	DW	0fd56H
	DB	0cH
	DB	011H
	DB	011H
	DB	0ffH
	DB	0cH
	DB	00H
	DB	00H
	DB	00H
	DD	01c2cH
	DW	0fd57H
	DB	0cH
	DB	011H
	DB	011H
	DB	0ffH
	DB	0cH
	DB	00H
	DB	00H
	DB	00H
	DD	01c5fH
	DW	0fd5aH
	DB	01eH
	DB	010H
	DB	06H
	DB	01H
	DB	01eH
	DB	00H
	DB	00H
	DB	00H
	DD	01cd7H
	DW	0fd5fH
	DB	01eH
	DB	0eH
	DB	05H
	DB	01H
	DB	01eH
	DB	00H
	DB	00H
	DB	00H
	DD	01d40H
	DW	0fd60H
	DB	018H
	DB	08H
	DB	08H
	DB	0ffH
	DB	018H
	DB	00H
	DB	00H
	DB	00H
	DD	01d70H
	DW	0fd62H
	DB	01cH
	DB	0fH
	DB	05H
	DB	01H
	DB	01cH
	DB	00H
	DB	00H
	DB	00H
	DD	01dd9H
	DW	0fd63H
	DB	015H
	DB	08H
	DB	08H
	DB	0ffH
	DB	015H
	DB	00H
	DB	00H
	DB	00H
	DD	01e03H
	DW	0fd64H
	DB	023H
	DB	011H
	DB	07H
	DB	01H
	DB	024H
	DB	00H
	DB	00H
	DB	00H
	DD	01e98H
	DW	0fd65H
	DB	01bH
	DB	0aH
	DB	0aH
	DB	0ffH
	DB	01bH
	DB	00H
	DB	00H
	DB	00H
	DD	01edcH
	DW	0fd66H
	DB	01eH
	DB	010H
	DB	06H
	DB	01H
	DB	01fH
	DB	00H
	DB	00H
	DB	00H
	DD	01f54H
	DW	0fd76H
	DB	018H
	DB	0fH
	DB	05H
	DB	01H
	DB	018H
	DB	00H
	DB	00H
	DB	00H
	DD	01faeH
	DW	0fd77H
	DB	015H
	DB	0bH
	DB	0bH
	DB	0ffH
	DB	015H
	DB	00H
	DB	00H
	DB	00H
	DD	01fe8H
	DW	0fd79H
	DB	018H
	DB	014H
	DB	0aH
	DB	01H
	DB	018H
	DB	00H
	DB	00H
	DB	00H
	DD	02060H
	DW	0fd7aH
	DB	019H
	DB	014H
	DB	0aH
	DB	01H
	DB	019H
	DB	00H
	DB	00H
	DB	00H
	DD	020ddH
	DW	0fd7eH
	DB	01aH
	DB	015H
	DB	0cH
	DB	01H
	DB	01bH
	DB	00H
	DB	00H
	DB	00H
	DD	02166H
	DW	0fd7fH
	DB	018H
	DB	016H
	DB	0cH
	DB	01H
	DB	019H
	DB	00H
	DB	00H
	DB	00H
	DD	021eaH
	DW	0fd80H
	DB	017H
	DB	016H
	DB	0cH
	DB	01H
	DB	018H
	DB	00H
	DB	00H
	DB	00H
	DD	02269H
	DW	0fd81H
	DB	019H
	DB	016H
	DB	0cH
	DB	01H
	DB	019H
	DB	00H
	DB	00H
	DB	00H
	DD	022f3H
	DW	0fd85H
	DB	017H
	DB	016H
	DB	0cH
	DB	01H
	DB	018H
	DB	00H
	DB	00H
	DB	00H
	DD	02372H
	DW	0fd86H
	DB	0cH
	DB	0dH
	DB	0dH
	DB	0ffH
	DB	0cH
	DB	00H
	DB	00H
	DB	00H
	DD	02399H
	DW	0fd87H
	DB	013H
	DB	016H
	DB	0cH
	DB	01H
	DB	014H
	DB	00H
	DB	00H
	DB	00H
	DD	02402H
	DW	0fd88H
	DB	0cH
	DB	0eH
	DB	0eH
	DB	0ffH
	DB	0bH
	DB	00H
	DB	00H
	DB	00H
	DD	0242cH
	DW	0fd8aH
	DB	0eH
	DB	0cH
	DB	0cH
	DB	0ffH
	DB	0dH
	DB	00H
	DB	00H
	DB	00H
	DD	02456H
	DW	0fd8bH
	DB	01dH
	DB	010H
	DB	06H
	DB	01H
	DB	01eH
	DB	00H
	DB	00H
	DB	00H
	DD	024caH
	DW	0fd8fH
	DB	0eH
	DB	0dH
	DB	0dH
	DB	0ffH
	DB	0dH
	DB	00H
	DB	00H
	DB	00H
	DD	024f8H
	DW	0fd95H
	DB	0eH
	DB	0fH
	DB	0fH
	DB	0ffH
	DB	0eH
	DB	00H
	DB	00H
	DB	00H
	DD	0252dH
	DW	0fd9aH
	DB	017H
	DB	013H
	DB	09H
	DB	01H
	DB	017H
	DB	00H
	DB	00H
	DB	00H
	DD	0259bH
	DW	0fd9cH
	DB	016H
	DB	0fH
	DB	05H
	DB	01H
	DB	016H
	DB	00H
	DB	00H
	DB	00H
	DD	025eeH
	DW	0fd9dH
	DB	011H
	DB	0dH
	DB	09H
	DB	0ffH
	DB	010H
	DB	00H
	DB	00H
	DB	00H
	DD	02626H
	DW	0fd9eH
	DB	019H
	DB	013H
	DB	09H
	DB	01H
	DB	01aH
	DB	00H
	DB	00H
	DB	00H
	DD	0269dH
	DW	0fda1H
	DB	019H
	DB	013H
	DB	09H
	DB	01H
	DB	01aH
	DB	00H
	DB	00H
	DB	00H
	DD	02714H
	DW	0fda3H
	DB	017H
	DB	013H
	DB	09H
	DB	01H
	DB	017H
	DB	00H
	DB	00H
	DB	00H
	DD	02782H
	DW	0fda9H
	DB	022H
	DB	010H
	DB	06H
	DB	01H
	DB	023H
	DB	00H
	DB	00H
	DB	00H
	DD	0280aH
	DW	0fdadH
	DB	013H
	DB	016H
	DB	0cH
	DB	01H
	DB	013H
	DB	00H
	DB	00H
	DB	00H
	DD	02873H
	DW	0fdaeH
	DB	019H
	DB	010H
	DB	06H
	DB	01H
	DB	01aH
	DB	00H
	DB	00H
	DB	00H
	DD	028d7H
	DW	0fdb0H
	DB	017H
	DB	0fH
	DB	05H
	DB	01H
	DB	017H
	DB	00H
	DB	00H
	DB	00H
	DD	0292eH
	DW	0fdb1H
	DB	01bH
	DB	0fH
	DB	05H
	DB	01H
	DB	01bH
	DB	00H
	DB	00H
	DB	00H
	DD	02994H
	DW	0fdb2H
	DB	019H
	DB	016H
	DB	0cH
	DB	01H
	DB	01aH
	DB	00H
	DB	00H
	DB	00H
	DD	02a1eH
	DW	0fdb3H
	DB	019H
	DB	013H
	DB	09H
	DB	01H
	DB	01aH
	DB	00H
	DB	00H
	DB	00H
	DD	02a95H
	DW	0fdb4H
	DB	012H
	DB	0eH
	DB	0eH
	DB	0ffH
	DB	012H
	DB	00H
	DB	00H
	DB	00H
	DD	02ad4H
	DW	0fdb5H
	DB	0cH
	DB	0dH
	DB	0dH
	DB	0ffH
	DB	0cH
	DB	00H
	DB	00H
	DB	00H
	DD	02afbH
	DW	0fdb6H
	DB	019H
	DB	0fH
	DB	05H
	DB	01H
	DB	019H
	DB	00H
	DB	00H
	DB	00H
	DD	02b59H
	DW	0fdb7H
	DB	018H
	DB	01aH
	DB	010H
	DB	01H
	DB	019H
	DB	00H
	DB	00H
	DB	00H
	DD	02bf5H
	DW	0fdb9H
	DB	01dH
	DB	014H
	DB	0aH
	DB	01H
	DB	01eH
	DB	00H
	DB	00H
	DB	00H
	DD	02c86H
	DW	0fdbbH
	DB	017H
	DB	01aH
	DB	010H
	DB	01H
	DB	017H
	DB	00H
	DB	00H
	DB	00H
	DD	02d1cH
	DW	0fdc2H
	DB	019H
	DB	010H
	DB	06H
	DB	01H
	DB	01aH
	DB	00H
	DB	00H
	DB	00H
	DD	02d80H
	DW	0fdc3H
	DB	016H
	DB	0fH
	DB	0fH
	DB	0ffH
	DB	016H
	DB	00H
	DB	00H
	DB	00H
	DD	02dd3H
	DW	0fdc5H
	DB	017H
	DB	0aH
	DB	0aH
	DB	0ffH
	DB	017H
	DB	00H
	DB	00H
	DB	00H
	DD	02e0dH
	DW	0fdc6H
	DB	01fH
	DB	013H
	DB	09H
	DB	01H
	DB	020H
	DB	00H
	DB	00H
	DB	00H
	DD	02ea1H
	DW	0fdf3H
	DB	01aH
	DB	013H
	DB	0eH
	DB	0ffH
	DB	01aH
	DB	00H
	DB	00H
	DB	00H
	DD	02f1dH
	DW	0fdf4H
	DB	014H
	DB	0cH
	DB	0cH
	DB	01H
	DB	016H
	DB	00H
	DB	00H
	DB	00H
	DD	02f59H
	DW	0fdf5H
	DB	01eH
	DB	017H
	DB	0dH
	DB	01H
	DB	020H
	DB	00H
	DB	00H
	DB	00H
	DD	03006H
	DW	0fe87H
	DB	04H
	DB	011H
	DB	0cH
	DB	01H
	DB	04H
	DB	00H
	DB	00H
	DB	00H
	DD	03017H
	DW	0fe88H
	DB	05H
	DB	013H
	DB	0dH
	DB	00H
	DB	04H
	DB	00H
	DB	00H
	DB	00H
	DD	0302fH
	DW	0fe8dH
	DB	02H
	DB	0cH
	DB	0cH
	DB	01H
	DB	04H
	DB	00H
	DB	00H
	DB	00H
	DD	03035H
	DW	0fe8eH
	DB	05H
	DB	0dH
	DB	0dH
	DB	00H
	DB	04H
	DB	00H
	DB	00H
	DB	00H
	DD	03046H
	DW	0fe8fH
	DB	0fH
	DB	0cH
	DB	07H
	DB	01H
	DB	011H
	DB	00H
	DB	00H
	DB	00H
	DD	03073H
	DW	0fe90H
	DB	010H
	DB	0aH
	DB	04H
	DB	01H
	DB	010H
	DB	00H
	DB	00H
	DB	00H
	DD	0309bH
	DW	0fe91H
	DB	04H
	DB	09H
	DB	05H
	DB	0ffH
	DB	03H
	DB	00H
	DB	00H
	DB	00H
	DD	030a4H
	DW	0fe92H
	DB	06H
	DB	07H
	DB	03H
	DB	0ffH
	DB	04H
	DB	00H
	DB	00H
	DB	00H
	DD	030afH
	DW	0fe93H
	DB	05H
	DB	0cH
	DB	0cH
	DB	01H
	DB	07H
	DB	00H
	DB	00H
	DB	00H
	DD	030beH
	DW	0fe94H
	DB	07H
	DB	0cH
	DB	0cH
	DB	00H
	DB	07H
	DB	00H
	DB	00H
	DB	00H
	DD	030d3H
	DW	0fe95H
	DB	0fH
	DB	09H
	DB	09H
	DB	01H
	DB	011H
	DB	00H
	DB	00H
	DB	00H
	DD	030f5H
	DW	0fe96H
	DB	010H
	DB	0bH
	DB	09H
	DB	01H
	DB	010H
	DB	00H
	DB	00H
	DB	00H
	DD	03121H
	DW	0fe97H
	DB	05H
	DB	09H
	DB	09H
	DB	0ffH
	DB	03H
	DB	00H
	DB	00H
	DB	00H
	DD	0312dH
	DW	0fe98H
	DB	06H
	DB	08H
	DB	08H
	DB	0ffH
	DB	04H
	DB	00H
	DB	00H
	DB	00H
	DD	03139H
	DW	0fea1H
	DB	0cH
	DB	0eH
	DB	05H
	DB	01H
	DB	0cH
	DB	00H
	DB	00H
	DB	00H
	DD	03163H
	DW	0fea2H
	DB	0dH
	DB	0eH
	DB	05H
	DB	01H
	DB	0cH
	DB	00H
	DB	00H
	DB	00H
	DD	03191H
	DW	0fea3H
	DB	0cH
	DB	06H
	DB	06H
	DB	0ffH
	DB	0cH
	DB	00H
	DB	00H
	DB	00H
	DD	031a3H
	DW	0fea4H
	DB	0dH
	DB	06H
	DB	06H
	DB	0ffH
	DB	0bH
	DB	00H
	DB	00H
	DB	00H
	DD	031b7H
	DW	0fea5H
	DB	0cH
	DB	012H
	DB	09H
	DB	01H
	DB	0cH
	DB	00H
	DB	00H
	DB	00H
	DD	031edH
	DW	0fea6H
	DB	0dH
	DB	012H
	DB	09H
	DB	01H
	DB	0cH
	DB	00H
	DB	00H
	DB	00H
	DD	03228H
	DW	0fea7H
	DB	0cH
	DB	09H
	DB	09H
	DB	0ffH
	DB	0cH
	DB	00H
	DB	00H
	DB	00H
	DD	03243H
	DW	0fea8H
	DB	0dH
	DB	0aH
	DB	0aH
	DB	0ffH
	DB	0bH
	DB	00H
	DB	00H
	DB	00H
	DD	03264H
	DW	0fea9H
	DB	06H
	DB	07H
	DB	07H
	DB	01H
	DB	08H
	DB	00H
	DB	00H
	DB	00H
	DD	0326fH
	DW	0feaaH
	DB	08H
	DB	09H
	DB	09H
	DB	01H
	DB	08H
	DB	00H
	DB	00H
	DB	00H
	DD	03281H
	DW	0feadH
	DB	07H
	DB	09H
	DB	05H
	DB	0ffH
	DB	07H
	DB	00H
	DB	00H
	DB	00H
	DD	03291H
	DW	0feaeH
	DB	08H
	DB	08H
	DB	03H
	DB	0ffH
	DB	06H
	DB	00H
	DB	00H
	DB	00H
	DD	032a1H
	DW	0feb1H
	DB	010H
	DB	0bH
	DB	07H
	DB	01H
	DB	012H
	DB	00H
	DB	00H
	DB	00H
	DD	032cdH
	DW	0feb2H
	DB	013H
	DB	0aH
	DB	04H
	DB	01H
	DB	013H
	DB	00H
	DB	00H
	DB	00H
	DD	032fdH
	DW	0feb3H
	DB	0aH
	DB	05H
	DB	05H
	DB	0ffH
	DB	0aH
	DB	00H
	DB	00H
	DB	00H
	DD	0330aH
	DW	0feb4H
	DB	0cH
	DB	04H
	DB	04H
	DB	0ffH
	DB	0aH
	DB	00H
	DB	00H
	DB	00H
	DD	03316H
	DW	0feb9H
	DB	014H
	DB	0bH
	DB	07H
	DB	01H
	DB	016H
	DB	00H
	DB	00H
	DB	00H
	DD	0334dH
	DW	0febaH
	DB	015H
	DB	0cH
	DB	06H
	DB	01H
	DB	015H
	DB	00H
	DB	00H
	DB	00H
	DD	0338cH
	DW	0febbH
	DB	0dH
	DB	08H
	DB	06H
	DB	0ffH
	DB	0dH
	DB	00H
	DB	00H
	DB	00H
	DD	033a6H
	DW	0febcH
	DB	0fH
	DB	08H
	DB	07H
	DB	0ffH
	DB	0dH
	DB	00H
	DB	00H
	DB	00H
	DD	033c4H
	DW	0fec9H
	DB	0cH
	DB	011H
	DB	08H
	DB	01H
	DB	0aH
	DB	00H
	DB	00H
	DB	00H
	DD	033f7H
	DW	0fecaH
	DB	0cH
	DB	0fH
	DB	05H
	DB	01H
	DB	09H
	DB	00H
	DB	00H
	DB	00H
	DD	03424H
	DW	0fecbH
	DB	09H
	DB	07H
	DB	07H
	DB	0ffH
	DB	09H
	DB	00H
	DB	00H
	DB	00H
	DD	03434H
	DW	0feccH
	DB	08H
	DB	06H
	DB	06H
	DB	0ffH
	DB	07H
	DB	00H
	DB	00H
	DB	00H
	DD	03440H
	DW	0fecdH
	DB	0cH
	DB	015H
	DB	0cH
	DB	01H
	DB	0aH
	DB	00H
	DB	00H
	DB	00H
	DD	0347fH
	DW	0feceH
	DB	0cH
	DB	014H
	DB	0aH
	DB	01H
	DB	09H
	DB	00H
	DB	00H
	DB	00H
	DD	034bbH
	DW	0fecfH
	DB	09H
	DB	0bH
	DB	0bH
	DB	0ffH
	DB	09H
	DB	00H
	DB	00H
	DB	00H
	DD	034d4H
	DW	0fed0H
	DB	08H
	DB	0aH
	DB	0aH
	DB	0ffH
	DB	07H
	DB	00H
	DB	00H
	DB	00H
	DD	034e8H
	DW	0fed5H
	DB	0bH
	DB	0eH
	DB	0bH
	DB	01H
	DB	0cH
	DB	00H
	DB	00H
	DB	00H
	DD	0350fH
	DW	0fed6H
	DB	0bH
	DB	0dH
	DB	08H
	DB	01H
	DB	0bH
	DB	00H
	DB	00H
	DB	00H
	DD	03533H
	DW	0fed7H
	DB	05H
	DB	0bH
	DB	0bH
	DB	0ffH
	DB	05H
	DB	00H
	DB	00H
	DB	00H
	DD	03541H
	DW	0fed8H
	DB	08H
	DB	0cH
	DB	0cH
	DB	0ffH
	DB	07H
	DB	00H
	DB	00H
	DB	00H
	DD	03559H
	DW	0fed9H
	DB	0aH
	DB	0eH
	DB	0eH
	DB	01H
	DB	0cH
	DB	00H
	DB	00H
	DB	00H
	DD	0357cH
	DW	0fedaH
	DB	0fH
	DB	0dH
	DB	0dH
	DB	01H
	DB	0fH
	DB	00H
	DB	00H
	DB	00H
	DD	035adH
	DW	0fedbH
	DB	0cH
	DB	0eH
	DB	0eH
	DB	0ffH
	DB	0cH
	DB	00H
	DB	00H
	DB	00H
	DD	035d7H
	DW	0fedcH
	DB	0cH
	DB	0fH
	DB	0fH
	DB	0ffH
	DB	0bH
	DB	00H
	DB	00H
	DB	00H
	DD	03604H
	DW	0feddH
	DB	09H
	DB	0fH
	DB	0dH
	DB	01H
	DB	0bH
	DB	00H
	DB	00H
	DB	00H
	DD	03626H
	DW	0fedeH
	DB	0bH
	DB	013H
	DB	0cH
	DB	01H
	DB	0cH
	DB	00H
	DB	00H
	DB	00H
	DD	0365bH
	DW	0fedfH
	DB	03H
	DB	0dH
	DB	0dH
	DB	0ffH
	DB	03H
	DB	00H
	DB	00H
	DB	00H
	DD	03665H
	DW	0fee0H
	DB	05H
	DB	0cH
	DB	0cH
	DB	0ffH
	DB	04H
	DB	00H
	DB	00H
	DB	00H
	DD	03674H
	DW	0fee1H
	DB	06H
	DB	0fH
	DB	06H
	DB	01H
	DB	08H
	DB	00H
	DB	00H
	DB	00H
	DD	0368bH
	DW	0fee2H
	DB	09H
	DB	0eH
	DB	04H
	DB	01H
	DB	09H
	DB	00H
	DB	00H
	DB	00H
	DD	036abH
	DW	0fee3H
	DB	07H
	DB	06H
	DB	06H
	DB	0ffH
	DB	07H
	DB	00H
	DB	00H
	DB	00H
	DD	036b6H
	DW	0fee4H
	DB	0aH
	DB	05H
	DB	05H
	DB	0ffH
	DB	08H
	DB	00H
	DB	00H
	DB	00H
	DD	036c3H
	DW	0fee5H
	DB	08H
	DB	0cH
	DB	0bH
	DB	01H
	DB	0aH
	DB	00H
	DB	00H
	DB	00H
	DD	036dbH
	DW	0fee6H
	DB	0bH
	DB	0dH
	DB	07H
	DB	01H
	DB	0bH
	DB	00H
	DB	00H
	DB	00H
	DD	036ffH
	DW	0fee7H
	DB	04H
	DB	09H
	DB	09H
	DB	0ffH
	DB	03H
	DB	00H
	DB	00H
	DB	00H
	DD	03708H
	DW	0fee8H
	DB	06H
	DB	09H
	DB	09H
	DB	0ffH
	DB	04H
	DB	00H
	DB	00H
	DB	00H
	DD	03716H
	DW	0fef1H
	DB	0cH
	DB	0fH
	DB	07H
	DB	01H
	DB	0eH
	DB	00H
	DB	00H
	DB	00H
	DD	03743H
	DW	0fef2H
	DB	0bH
	DB	0cH
	DB	02H
	DB	01H
	DB	0bH
	DB	00H
	DB	00H
	DB	00H
	DD	03764H
	DW	0fef3H
	DB	05H
	DB	0aH
	DB	05H
	DB	0ffH
	DB	03H
	DB	00H
	DB	00H
	DB	00H
	DD	03771H
	DW	0fef4H
	DB	06H
	DB	07H
	DB	03H
	DB	0ffH
	DB	04H
	DB	00H
	DB	00H
	DB	00H
	DD	0377cH
	DW	0fef9H
	DB	0aH
	DB	015H
	DB	0dH
	DB	01H
	DB	0cH
	DB	00H
	DB	00H
	DB	00H
	DD	037b1H
	DW	0fefaH
	DB	0dH
	DB	013H
	DB	0cH
	DB	00H
	DB	0cH
	DB	00H
	DB	00H
	DB	00H
	DD	037efH
	DW	0fefbH
	DB	0aH
	DB	0eH
	DB	0dH
	DB	01H
	DB	0cH
	DB	00H
	DB	00H
	DB	00H
	DD	03812H
	DW	0fefcH
	DB	0cH
	DB	0dH
	DB	0cH
	DB	01H
	DB	0cH
	DB	00H
	DB	00H
	DB	00H
	ORG $+2
?unicodes_Amiri_Regular_18_2bpp@@3QBQBEB DD FLAT:?unicodes_Amiri_Regular_18_2bpp_0@@3QBEB ; unicodes_Amiri_Regular_18_2bpp
	DD	00H
	DD	00H
	DD	00H
	DD	00H
	DD	00H
	DD	00H
	DD	00H
	DD	00H
	DD	00H
	DD	00H
	DD	00H
	DD	00H
	DD	00H
	DD	00H
	DD	00H
	DD	00H
	DD	00H
	DD	00H
	DD	00H
	DD	00H
	DD	00H
	DD	00H
	DD	00H
	DD	00H
	DD	00H
	DD	00H
	DD	00H
	DD	00H
	DD	00H
	DD	00H
	DD	FLAT:?unicodes_Amiri_Regular_18_2bpp_31@@3QBEB
?contextualForms4Long@@3QAY04$$CBGA DW 01bH		; contextualForms4Long
	DW	0fdf3H
	DW	0643H
	DW	00H
	DW	00H
	DW	02edH
	DW	0fdf2H
	DW	0644H
	DW	00H
	DW	00H
	DW	0233dH
	DW	0fdfcH
	DW	06ccH
	DW	00H
	DW	00H
	DW	02676H
	DW	0fdf6H
	DW	0633H
	DW	00H
	DW	00H
	DW	03310H
	DW	0fdf5H
	DW	0644H
	DW	00H
	DW	00H
	DW	042cbH
	DW	0fdf7H
	DW	0644H
	DW	00H
	DW	00H
	DW	06c66H
	DW	0fdf4H
	DW	062dH
	DW	00H
	DW	00H
	DW	076efH
	DW	0fdf8H
	DW	0633H
	DW	00H
	DW	00H
?contextualForms3Long@@3QAY04$$CBGA DW 046H		; contextualForms3Long
	DW	00H
	DW	0fdc2H
	DW	00H
	DW	00H
	DW	06eH
	DW	00H
	DW	0fd9eH
	DW	00H
	DW	00H
	DW	0bf9H
	DW	00H
	DW	00H
	DW	0fd50H
	DW	00H
	DW	0bfdH
	DW	00H
	DW	0fda0H
	DW	00H
	DW	00H
	DW	0bfeH
	DW	00H
	DW	0fd9fH
	DW	00H
	DW	00H
	DW	0c08H
	DW	00H
	DW	0fd51H
	DW	0fd52H
	DW	00H
	DW	0c21H
	DW	00H
	DW	00H
	DW	0fd53H
	DW	00H
	DW	0c49H
	DW	00H
	DW	00H
	DW	0fd54H
	DW	00H
	DW	0c4dH
	DW	00H
	DW	0fda2H
	DW	00H
	DW	00H
	DW	0c4eH
	DW	00H
	DW	0fda1H
	DW	00H
	DW	00H
	DW	0fc8H
	DW	00H
	DW	00H
	DW	0fd55H
	DW	00H
	DW	0fc9H
	DW	00H
	DW	00H
	DW	0fd56H
	DW	00H
	DW	0fcaH
	DW	00H
	DW	00H
	DW	0fd57H
	DW	00H
	DW	0fe5H
	DW	00H
	DW	0fda4H
	DW	00H
	DW	00H
	DW	0fe6H
	DW	00H
	DW	0fda3H
	DW	00H
	DW	00H
	DW	01805H
	DW	00H
	DW	0fda6H
	DW	00H
	DW	00H
	DW	01806H
	DW	00H
	DW	0fdbeH
	DW	00H
	DW	00H
	DW	01ba9H
	DW	00H
	DW	0fd58H
	DW	0fd59H
	DW	00H
	DW	01bc5H
	DW	00H
	DW	0fda7H
	DW	00H
	DW	00H
	DW	01bc6H
	DW	00H
	DW	0fda5H
	DW	00H
	DW	00H
	DW	01dceH
	DW	00H
	DW	0fdbfH
	DW	00H
	DW	00H
	DW	021b5H
	DW	00H
	DW	0fd5bH
	DW	00H
	DW	00H
	DW	021b6H
	DW	00H
	DW	0fd5aH
	DW	00H
	DW	00H
	DW	04151H
	DW	00H
	DW	00H
	DW	0fd5dH
	DW	00H
	DW	0416dH
	DW	00H
	DW	0fd5eH
	DW	00H
	DW	00H
	DW	04178H
	DW	00H
	DW	00H
	DW	0fd5cH
	DW	00H
	DW	041bdH
	DW	00H
	DW	0fda8H
	DW	00H
	DW	00H
	DW	041beH
	DW	00H
	DW	0fdc6H
	DW	00H
	DW	00H
	DW	04538H
	DW	00H
	DW	00H
	DW	0fd61H
	DW	00H
	DW	04539H
	DW	00H
	DW	0fd5fH
	DW	0fd60H
	DW	00H
	DW	04551H
	DW	00H
	DW	0fd62H
	DW	0fd63H
	DW	00H
	DW	0475eH
	DW	00H
	DW	0fd69H
	DW	00H
	DW	00H
	DW	04781H
	DW	00H
	DW	0fd67H
	DW	0fd68H
	DW	00H
	DW	04786H
	DW	00H
	DW	0fdaaH
	DW	00H
	DW	00H
	DW	04b2aH
	DW	00H
	DW	0fd6aH
	DW	0fd6bH
	DW	00H
	DW	04b41H
	DW	00H
	DW	0fd6cH
	DW	0fd6dH
	DW	00H
	DW	04d59H
	DW	00H
	DW	0fd64H
	DW	0fd65H
	DW	00H
	DW	04d76H
	DW	00H
	DW	0fda9H
	DW	00H
	DW	00H
	DW	0510dH
	DW	0fdf9H
	DW	00H
	DW	00H
	DW	00H
	DW	05117H
	DW	0fdf0H
	DW	00H
	DW	00H
	DW	00H
	DW	05131H
	DW	00H
	DW	0fd66H
	DW	0fdc5H
	DW	00H
	DW	05365H
	DW	00H
	DW	0fd6eH
	DW	00H
	DW	00H
	DW	05366H
	DW	00H
	DW	0fdabH
	DW	00H
	DW	00H
	DW	05389H
	DW	00H
	DW	0fd6fH
	DW	0fd70H
	DW	00H
	DW	05cf9H
	DW	00H
	DW	0fd71H
	DW	0fd72H
	DW	00H
	DW	05d11H
	DW	00H
	DW	00H
	DW	0fd73H
	DW	00H
	DW	05d16H
	DW	00H
	DW	0fd74H
	DW	00H
	DW	00H
	DW	06509H
	DW	00H
	DW	0fd75H
	DW	0fdc4H
	DW	00H
	DW	068f1H
	DW	00H
	DW	0fd76H
	DW	0fd77H
	DW	00H
	DW	068f5H
	DW	00H
	DW	0fd78H
	DW	00H
	DW	00H
	DW	068f6H
	DW	00H
	DW	0fdb6H
	DW	00H
	DW	00H
	DW	06ee1H
	DW	00H
	DW	0fd79H
	DW	00H
	DW	00H
	DW	06ee5H
	DW	00H
	DW	0fd7bH
	DW	00H
	DW	00H
	DW	06ee6H
	DW	00H
	DW	0fd7aH
	DW	00H
	DW	00H
	DW	093f5H
	DW	00H
	DW	00H
	DW	00H
	DW	0fcf2H
	DW	0941dH
	DW	00H
	DW	00H
	DW	00H
	DW	0fcf3H
	DW	09445H
	DW	00H
	DW	00H
	DW	00H
	DW	0fcf4H
	DW	094d9H
	DW	00H
	DW	0fd7cH
	DW	0fd7dH
	DW	00H
	DW	09876H
	DW	00H
	DW	0fdc1H
	DW	00H
	DW	00H
	DW	09e47H
	DW	0fdf1H
	DW	00H
	DW	00H
	DW	00H
	DW	09e49H
	DW	00H
	DW	0fd7eH
	DW	0fdb4H
	DW	00H
	DW	09e61H
	DW	00H
	DW	0fd7fH
	DW	00H
	DW	00H
	DW	09e66H
	DW	00H
	DW	0fdb2H
	DW	00H
	DW	00H
	DW	0a451H
	DW	00H
	DW	0fdbbH
	DW	0fdc3H
	DW	00H
	DW	0a456H
	DW	00H
	DW	0fdb7H
	DW	00H
	DW	00H
	DW	0a640H
	DW	00H
	DW	0fd84H
	DW	0fd83H
	DW	00H
	DW	0a659H
	DW	00H
	DW	0fdbcH
	DW	0fdbaH
	DW	00H
	DW	0a65eH
	DW	00H
	DW	0fdacH
	DW	00H
	DW	00H
	DW	0a681H
	DW	00H
	DW	0fd80H
	DW	0fdb5H
	DW	00H
	DW	0a685H
	DW	00H
	DW	0fd82H
	DW	00H
	DW	00H
	DW	0a686H
	DW	00H
	DW	0fd81H
	DW	00H
	DW	00H
	DW	0a6a9H
	DW	00H
	DW	0fd85H
	DW	0fd86H
	DW	00H
	DW	0aa29H
	DW	00H
	DW	0fd87H
	DW	0fd88H
	DW	00H
	DW	0aa46H
	DW	00H
	DW	0fdadH
	DW	00H
	DW	00H
	DW	0ac31H
	DW	00H
	DW	00H
	DW	0fd8cH
	DW	00H
	DW	0ac32H
	DW	00H
	DW	00H
	DW	0fd92H
	DW	00H
	DW	0ac49H
	DW	00H
	DW	00H
	DW	0fd8dH
	DW	00H
	DW	0ac4eH
	DW	00H
	DW	0fdc0H
	DW	00H
	DW	00H
	DW	0ac58H
	DW	00H
	DW	00H
	DW	0fd89H
	DW	00H
	DW	0ac71H
	DW	00H
	DW	00H
	DW	0fd8aH
	DW	00H
	DW	0ac76H
	DW	00H
	DW	0fd8bH
	DW	00H
	DW	00H
	DW	0ac80H
	DW	00H
	DW	00H
	DW	0fd8eH
	DW	00H
	DW	0ac99H
	DW	00H
	DW	00H
	DW	0fd8fH
	DW	00H
	DW	0ac9eH
	DW	00H
	DW	0fdb9H
	DW	00H
	DW	00H
	DW	0b036H
	DW	00H
	DW	0fdb1H
	DW	00H
	DW	00H
	DW	0b221H
	DW	00H
	DW	0fdbdH
	DW	0fdb8H
	DW	00H
	DW	0b239H
	DW	00H
	DW	0fd97H
	DW	0fd98H
	DW	00H
	DW	0b23dH
	DW	00H
	DW	0fd99H
	DW	00H
	DW	00H
	DW	0b23eH
	DW	00H
	DW	0fdc7H
	DW	00H
	DW	00H
	DW	0b261H
	DW	00H
	DW	00H
	DW	0fd95H
	DW	00H
	DW	0b265H
	DW	00H
	DW	0fd96H
	DW	00H
	DW	00H
	DW	0b266H
	DW	00H
	DW	0fdb3H
	DW	00H
	DW	00H
	DW	0b625H
	DW	00H
	DW	0fd9bH
	DW	00H
	DW	00H
	DW	0b626H
	DW	00H
	DW	0fd9aH
	DW	00H
	DW	00H
	DW	0bbf8H
	DW	00H
	DW	00H
	DW	0fd93H
	DW	00H
	DW	0bc11H
	DW	00H
	DW	00H
	DW	0fd94H
	DW	00H
	DW	0c9feH
	DW	00H
	DW	0fdafH
	DW	00H
	DW	00H
	DW	0ca26H
	DW	00H
	DW	0fdaeH
	DW	00H
	DW	00H
	DW	0cde1H
	DW	00H
	DW	0fd9cH
	DW	0fd9dH
	DW	00H
	DW	0cde6H
	DW	00H
	DW	0fdb0H
	DW	00H
	DW	00H
	DW	0d4f5H
	DW	0fc5eH
	DW	00H
	DW	00H
	DW	00H
	DW	0d51dH
	DW	0fc5fH
	DW	00H
	DW	00H
	DW	00H
	DW	0d545H
	DW	0fc60H
	DW	00H
	DW	00H
	DW	00H
	DW	0d56dH
	DW	0fc61H
	DW	00H
	DW	00H
	DW	00H
	DW	0d595H
	DW	0fc62H
	DW	00H
	DW	00H
	DW	00H
	DW	0d5beH
	DW	0fc63H
	DW	00H
	DW	00H
	DW	00H
	ORG $+4
?contextualForms2Long@@3QAY04$$CBGA DW 0204bH		; contextualForms2Long
	DW	0fe70H
	DW	00H
	DW	00H
	DW	00H
	DW	0204cH
	DW	0fe72H
	DW	00H
	DW	00H
	DW	00H
	DW	0204dH
	DW	0fe74H
	DW	00H
	DW	00H
	DW	00H
	DW	0204eH
	DW	0fe76H
	DW	00H
	DW	00H
	DW	00H
	DW	0204fH
	DW	0fe78H
	DW	00H
	DW	00H
	DW	00H
	DW	02050H
	DW	0fe7aH
	DW	00H
	DW	00H
	DW	00H
	DW	02051H
	DW	0fe7cH
	DW	00H
	DW	00H
	DW	00H
	DW	02052H
	DW	0fe7eH
	DW	00H
	DW	00H
	DW	00H
	DW	02627H
	DW	0fbeaH
	DW	0fbebH
	DW	00H
	DW	00H
	DW	0262cH
	DW	0fc00H
	DW	00H
	DW	0fc97H
	DW	00H
	DW	0262dH
	DW	0fc01H
	DW	00H
	DW	0fc98H
	DW	00H
	DW	0262eH
	DW	00H
	DW	00H
	DW	0fc99H
	DW	00H
	DW	02631H
	DW	00H
	DW	0fc64H
	DW	00H
	DW	00H
	DW	02632H
	DW	00H
	DW	0fc65H
	DW	00H
	DW	00H
	DW	02645H
	DW	0fc02H
	DW	0fc66H
	DW	0fc9aH
	DW	0fcdfH
	DW	02646H
	DW	00H
	DW	0fc67H
	DW	00H
	DW	00H
	DW	02647H
	DW	00H
	DW	00H
	DW	0fc9bH
	DW	0fce0H
	DW	02648H
	DW	0fbeeH
	DW	0fbefH
	DW	00H
	DW	00H
	DW	02649H
	DW	0fc03H
	DW	0fc68H
	DW	0fbfbH
	DW	00H
	DW	0264aH
	DW	0fc04H
	DW	0fc69H
	DW	00H
	DW	00H
	DW	026c6H
	DW	0fbf2H
	DW	0fbf3H
	DW	00H
	DW	00H
	DW	026c7H
	DW	0fbf0H
	DW	0fbf1H
	DW	00H
	DW	00H
	DW	026c8H
	DW	0fbf4H
	DW	0fbf5H
	DW	00H
	DW	00H
	DW	026d0H
	DW	0fbf6H
	DW	0fbf7H
	DW	0fbf8H
	DW	00H
	DW	026d5H
	DW	0fbecH
	DW	0fbedH
	DW	00H
	DW	00H
	DW	0274bH
	DW	0fd3dH
	DW	0fd3cH
	DW	00H
	DW	00H
	DW	0282cH
	DW	0fc05H
	DW	00H
	DW	0fc9cH
	DW	00H
	DW	0282dH
	DW	0fc06H
	DW	00H
	DW	0fc9dH
	DW	00H
	DW	0282eH
	DW	0fc07H
	DW	00H
	DW	0fc9eH
	DW	00H
	DW	02831H
	DW	00H
	DW	0fc6aH
	DW	00H
	DW	00H
	DW	02832H
	DW	00H
	DW	0fc6bH
	DW	00H
	DW	00H
	DW	02845H
	DW	0fc08H
	DW	0fc6cH
	DW	0fc9fH
	DW	0fce1H
	DW	02846H
	DW	00H
	DW	0fc6dH
	DW	00H
	DW	00H
	DW	02847H
	DW	00H
	DW	00H
	DW	0fca0H
	DW	0fce2H
	DW	02849H
	DW	0fc09H
	DW	0fc6eH
	DW	00H
	DW	00H
	DW	0284aH
	DW	0fc0aH
	DW	0fc6fH
	DW	00H
	DW	00H
	DW	02a2cH
	DW	0fc0bH
	DW	00H
	DW	0fca1H
	DW	00H
	DW	02a2dH
	DW	0fc0cH
	DW	00H
	DW	0fca2H
	DW	00H
	DW	02a2eH
	DW	0fc0dH
	DW	00H
	DW	0fca3H
	DW	00H
	DW	02a31H
	DW	00H
	DW	0fc70H
	DW	00H
	DW	00H
	DW	02a32H
	DW	00H
	DW	0fc71H
	DW	00H
	DW	00H
	DW	02a45H
	DW	0fc0eH
	DW	0fc72H
	DW	0fca4H
	DW	0fce3H
	DW	02a46H
	DW	00H
	DW	0fc73H
	DW	00H
	DW	00H
	DW	02a47H
	DW	00H
	DW	00H
	DW	0fca5H
	DW	0fce4H
	DW	02a49H
	DW	0fc0fH
	DW	0fc74H
	DW	00H
	DW	00H
	DW	02a4aH
	DW	0fc10H
	DW	0fc75H
	DW	00H
	DW	00H
	DW	02b2cH
	DW	0fc11H
	DW	00H
	DW	00H
	DW	00H
	DW	02b31H
	DW	00H
	DW	0fc76H
	DW	00H
	DW	00H
	DW	02b32H
	DW	00H
	DW	0fc77H
	DW	00H
	DW	00H
	DW	02b45H
	DW	0fc12H
	DW	0fc78H
	DW	0fca6H
	DW	0fce5H
	DW	02b46H
	DW	00H
	DW	0fc79H
	DW	00H
	DW	00H
	DW	02b47H
	DW	00H
	DW	00H
	DW	00H
	DW	0fce6H
	DW	02b49H
	DW	0fc13H
	DW	0fc7aH
	DW	00H
	DW	00H
	DW	02b4aH
	DW	0fc14H
	DW	0fc7bH
	DW	00H
	DW	00H
	DW	02c2dH
	DW	0fc15H
	DW	00H
	DW	0fca7H
	DW	00H
	DW	02c45H
	DW	0fc16H
	DW	00H
	DW	0fca8H
	DW	00H
	DW	02c49H
	DW	0fd01H
	DW	0fd1dH
	DW	00H
	DW	00H
	DW	02c4aH
	DW	0fd02H
	DW	0fd1eH
	DW	00H
	DW	00H
	DW	02d2cH
	DW	0fc17H
	DW	00H
	DW	0fca9H
	DW	00H
	DW	02d45H
	DW	0fc18H
	DW	00H
	DW	0fcaaH
	DW	00H
	DW	02d49H
	DW	0fcffH
	DW	0fd1bH
	DW	00H
	DW	00H
	DW	02d4aH
	DW	0fd00H
	DW	0fd1cH
	DW	00H
	DW	00H
	DW	02e2cH
	DW	0fc19H
	DW	00H
	DW	0fcabH
	DW	00H
	DW	02e2dH
	DW	0fc1aH
	DW	00H
	DW	00H
	DW	00H
	DW	02e45H
	DW	0fc1bH
	DW	00H
	DW	0fcacH
	DW	00H
	DW	02e49H
	DW	0fd03H
	DW	0fd1fH
	DW	00H
	DW	00H
	DW	02e4aH
	DW	0fd04H
	DW	0fd20H
	DW	00H
	DW	00H
	DW	03070H
	DW	0fc5bH
	DW	00H
	DW	00H
	DW	00H
	DW	03170H
	DW	0fc5cH
	DW	00H
	DW	00H
	DW	00H
	DW	0332cH
	DW	0fc1cH
	DW	00H
	DW	0fcadH
	DW	0fd34H
	DW	0332dH
	DW	0fc1dH
	DW	00H
	DW	0fcaeH
	DW	0fd35H
	DW	0332eH
	DW	0fc1eH
	DW	00H
	DW	0fcafH
	DW	0fd36H
	DW	03331H
	DW	0fd0eH
	DW	0fd2aH
	DW	00H
	DW	00H
	DW	03345H
	DW	0fc1fH
	DW	00H
	DW	0fcb0H
	DW	0fce7H
	DW	03347H
	DW	00H
	DW	00H
	DW	0fd31H
	DW	0fce8H
	DW	03349H
	DW	0fcfbH
	DW	0fd17H
	DW	00H
	DW	00H
	DW	0334aH
	DW	0fcfcH
	DW	0fd18H
	DW	00H
	DW	00H
	DW	0342cH
	DW	0fd09H
	DW	0fd25H
	DW	0fd2dH
	DW	0fd37H
	DW	0342dH
	DW	0fd0aH
	DW	0fd26H
	DW	0fd2eH
	DW	0fd38H
	DW	0342eH
	DW	0fd0bH
	DW	0fd27H
	DW	0fd2fH
	DW	0fd39H
	DW	03431H
	DW	0fd0dH
	DW	0fd29H
	DW	00H
	DW	00H
	DW	03445H
	DW	0fd0cH
	DW	0fd28H
	DW	0fd30H
	DW	0fce9H
	DW	03447H
	DW	00H
	DW	00H
	DW	0fd32H
	DW	0fceaH
	DW	03449H
	DW	0fcfdH
	DW	0fd19H
	DW	00H
	DW	00H
	DW	0344aH
	DW	0fcfeH
	DW	0fd1aH
	DW	00H
	DW	00H
	DW	0352dH
	DW	0fc20H
	DW	00H
	DW	0fcb1H
	DW	00H
	DW	0352eH
	DW	00H
	DW	00H
	DW	0fcb2H
	DW	00H
	DW	03531H
	DW	0fd0fH
	DW	0fd2bH
	DW	00H
	DW	00H
	DW	03545H
	DW	0fc21H
	DW	00H
	DW	0fcb3H
	DW	00H
	DW	03549H
	DW	0fd05H
	DW	0fd21H
	DW	00H
	DW	00H
	DW	0354aH
	DW	0fd06H
	DW	0fd22H
	DW	00H
	DW	00H
	DW	0362cH
	DW	0fc22H
	DW	00H
	DW	0fcb4H
	DW	00H
	DW	0362dH
	DW	0fc23H
	DW	00H
	DW	0fcb5H
	DW	00H
	DW	0362eH
	DW	0fc24H
	DW	00H
	DW	0fcb6H
	DW	00H
	DW	03631H
	DW	0fd10H
	DW	0fd2cH
	DW	00H
	DW	00H
	DW	03645H
	DW	0fc25H
	DW	00H
	DW	0fcb7H
	DW	00H
	DW	03649H
	DW	0fd07H
	DW	0fd23H
	DW	00H
	DW	00H
	DW	0364aH
	DW	0fd08H
	DW	0fd24H
	DW	00H
	DW	00H
	DW	0372dH
	DW	0fc26H
	DW	00H
	DW	0fcb8H
	DW	00H
	DW	03745H
	DW	0fc27H
	DW	00H
	DW	0fd33H
	DW	0fd3aH
	DW	03749H
	DW	0fcf5H
	DW	0fd11H
	DW	00H
	DW	00H
	DW	0374aH
	DW	0fcf6H
	DW	0fd12H
	DW	00H
	DW	00H
	DW	03845H
	DW	0fc28H
	DW	00H
	DW	0fcb9H
	DW	0fd3bH
	DW	0392cH
	DW	0fc29H
	DW	00H
	DW	0fcbaH
	DW	00H
	DW	03945H
	DW	0fc2aH
	DW	00H
	DW	0fcbbH
	DW	00H
	DW	03949H
	DW	0fcf7H
	DW	0fd13H
	DW	00H
	DW	00H
	DW	0394aH
	DW	0fcf8H
	DW	0fd14H
	DW	00H
	DW	00H
	DW	03a2cH
	DW	0fc2bH
	DW	00H
	DW	0fcbcH
	DW	00H
	DW	03a45H
	DW	0fc2cH
	DW	00H
	DW	0fcbdH
	DW	00H
	DW	03a49H
	DW	0fcf9H
	DW	0fd15H
	DW	00H
	DW	00H
	DW	03a4aH
	DW	0fcfaH
	DW	0fd16H
	DW	00H
	DW	00H
	DW	0404bH
	DW	00H
	DW	00H
	DW	00H
	DW	0fe71H
	DW	0404eH
	DW	00H
	DW	00H
	DW	00H
	DW	0fe77H
	DW	0404fH
	DW	00H
	DW	00H
	DW	00H
	DW	0fe79H
	DW	04050H
	DW	00H
	DW	00H
	DW	00H
	DW	0fe7bH
	DW	04051H
	DW	00H
	DW	00H
	DW	00H
	DW	0fe7dH
	DW	04052H
	DW	00H
	DW	00H
	DW	00H
	DW	0fe7fH
	DW	0412cH
	DW	0fc2dH
	DW	00H
	DW	0fcbeH
	DW	00H
	DW	0412dH
	DW	0fc2eH
	DW	00H
	DW	0fcbfH
	DW	00H
	DW	0412eH
	DW	0fc2fH
	DW	00H
	DW	0fcc0H
	DW	00H
	DW	04145H
	DW	0fc30H
	DW	00H
	DW	0fcc1H
	DW	00H
	DW	04149H
	DW	0fc31H
	DW	0fc7cH
	DW	00H
	DW	00H
	DW	0414aH
	DW	0fc32H
	DW	0fc7dH
	DW	00H
	DW	00H
	DW	0422dH
	DW	0fc33H
	DW	00H
	DW	0fcc2H
	DW	00H
	DW	04245H
	DW	0fc34H
	DW	00H
	DW	0fcc3H
	DW	00H
	DW	04249H
	DW	0fc35H
	DW	0fc7eH
	DW	00H
	DW	00H
	DW	0424aH
	DW	0fc36H
	DW	0fc7fH
	DW	00H
	DW	00H
	DW	04327H
	DW	0fc37H
	DW	0fc80H
	DW	00H
	DW	00H
	DW	0432cH
	DW	0fc38H
	DW	00H
	DW	0fcc4H
	DW	00H
	DW	0432dH
	DW	0fc39H
	DW	00H
	DW	0fcc5H
	DW	00H
	DW	0432eH
	DW	0fc3aH
	DW	00H
	DW	0fcc6H
	DW	00H
	DW	04344H
	DW	0fc3bH
	DW	0fc81H
	DW	0fcc7H
	DW	0fcebH
	DW	04345H
	DW	0fc3cH
	DW	0fc82H
	DW	0fcc8H
	DW	0fcecH
	DW	04349H
	DW	0fc3dH
	DW	0fc83H
	DW	00H
	DW	00H
	DW	0434aH
	DW	0fc3eH
	DW	0fc84H
	DW	00H
	DW	00H
	DW	04422H
	DW	0fef5H
	DW	0fef6H
	DW	00H
	DW	00H
	DW	04423H
	DW	0fef7H
	DW	0fef8H
	DW	00H
	DW	00H
	DW	04425H
	DW	0fef9H
	DW	0fefaH
	DW	00H
	DW	00H
	DW	04427H
	DW	0fefbH
	DW	0fefcH
	DW	00H
	DW	00H
	DW	0442cH
	DW	0fc3fH
	DW	00H
	DW	0fcc9H
	DW	00H
	DW	0442dH
	DW	0fc40H
	DW	00H
	DW	0fccaH
	DW	00H
	DW	0442eH
	DW	0fc41H
	DW	00H
	DW	0fccbH
	DW	00H
	DW	04445H
	DW	0fc42H
	DW	0fc85H
	DW	0fcccH
	DW	0fcedH
	DW	04447H
	DW	00H
	DW	00H
	DW	0fccdH
	DW	00H
	DW	04449H
	DW	0fc43H
	DW	0fc86H
	DW	00H
	DW	00H
	DW	0444aH
	DW	0fc44H
	DW	0fc87H
	DW	00H
	DW	00H
	DW	04527H
	DW	00H
	DW	0fc88H
	DW	00H
	DW	00H
	DW	0452cH
	DW	0fc45H
	DW	00H
	DW	0fcceH
	DW	00H
	DW	0452dH
	DW	0fc46H
	DW	00H
	DW	0fccfH
	DW	00H
	DW	0452eH
	DW	0fc47H
	DW	00H
	DW	0fcd0H
	DW	00H
	DW	04545H
	DW	0fc48H
	DW	0fc89H
	DW	0fcd1H
	DW	00H
	DW	04549H
	DW	0fc49H
	DW	00H
	DW	00H
	DW	00H
	DW	0454aH
	DW	0fc4aH
	DW	00H
	DW	00H
	DW	00H
	DW	0462cH
	DW	0fc4bH
	DW	00H
	DW	0fcd2H
	DW	00H
	DW	0462dH
	DW	0fc4cH
	DW	00H
	DW	0fcd3H
	DW	00H
	DW	0462eH
	DW	0fc4dH
	DW	00H
	DW	0fcd4H
	DW	00H
	DW	04631H
	DW	00H
	DW	0fc8aH
	DW	00H
	DW	00H
	DW	04632H
	DW	00H
	DW	0fc8bH
	DW	00H
	DW	00H
	DW	04645H
	DW	0fc4eH
	DW	0fc8cH
	DW	0fcd5H
	DW	0fceeH
	DW	04646H
	DW	00H
	DW	0fc8dH
	DW	00H
	DW	00H
	DW	04647H
	DW	00H
	DW	00H
	DW	0fcd6H
	DW	0fcefH
	DW	04649H
	DW	0fc4fH
	DW	0fc8eH
	DW	00H
	DW	00H
	DW	0464aH
	DW	0fc50H
	DW	0fc8fH
	DW	00H
	DW	00H
	DW	0472cH
	DW	0fc51H
	DW	00H
	DW	0fcd7H
	DW	00H
	DW	04745H
	DW	0fc52H
	DW	00H
	DW	0fcd8H
	DW	00H
	DW	04749H
	DW	0fc53H
	DW	00H
	DW	00H
	DW	00H
	DW	0474aH
	DW	0fc54H
	DW	00H
	DW	00H
	DW	00H
	DW	04770H
	DW	00H
	DW	00H
	DW	0fcd9H
	DW	00H
	DW	04970H
	DW	0fc5dH
	DW	0fc90H
	DW	00H
	DW	00H
	DW	04a2cH
	DW	0fc55H
	DW	00H
	DW	0fcdaH
	DW	00H
	DW	04a2dH
	DW	0fc56H
	DW	00H
	DW	0fcdbH
	DW	00H
	DW	04a2eH
	DW	0fc57H
	DW	00H
	DW	0fcdcH
	DW	00H
	DW	04a31H
	DW	00H
	DW	0fc91H
	DW	00H
	DW	00H
	DW	04a32H
	DW	00H
	DW	0fc92H
	DW	00H
	DW	00H
	DW	04a46H
	DW	00H
	DW	0fc94H
	DW	00H
	DW	00H
	DW	04a47H
	DW	00H
	DW	00H
	DW	0fcdeH
	DW	0fcf1H
	DW	04a49H
	DW	0fc59H
	DW	0fc95H
	DW	00H
	DW	00H
	DW	04a4aH
	DW	0fc5aH
	DW	0fc96H
	DW	00H
	DW	00H
	ORG $+4
?contextualForms0621_063a@@3QAY03$$CBGA DW 0fe80H	; contextualForms0621_063a
	DW	00H
	DW	00H
	DW	00H
	DW	0fe81H
	DW	0fe82H
	DW	00H
	DW	00H
	DW	0fe83H
	DW	0fe84H
	DW	00H
	DW	00H
	DW	0fe85H
	DW	0fe86H
	DW	00H
	DW	00H
	DW	0fe87H
	DW	0fe88H
	DW	00H
	DW	00H
	DW	0fe89H
	DW	0fe8aH
	DW	0fe8bH
	DW	0fe8cH
	DW	0fe8dH
	DW	0fe8eH
	DW	00H
	DW	00H
	DW	0fe8fH
	DW	0fe90H
	DW	0fe91H
	DW	0fe92H
	DW	0fe93H
	DW	0fe94H
	DW	00H
	DW	00H
	DW	0fe95H
	DW	0fe96H
	DW	0fe97H
	DW	0fe98H
	DW	0fe99H
	DW	0fe9aH
	DW	0fe9bH
	DW	0fe9cH
	DW	0fe9dH
	DW	0fe9eH
	DW	0fe9fH
	DW	0fea0H
	DW	0fea1H
	DW	0fea2H
	DW	0fea3H
	DW	0fea4H
	DW	0fea5H
	DW	0fea6H
	DW	0fea7H
	DW	0fea8H
	DW	0fea9H
	DW	0feaaH
	DW	00H
	DW	00H
	DW	0feabH
	DW	0feacH
	DW	00H
	DW	00H
	DW	0feadH
	DW	0feaeH
	DW	00H
	DW	00H
	DW	0feafH
	DW	0feb0H
	DW	00H
	DW	00H
	DW	0feb1H
	DW	0feb2H
	DW	0feb3H
	DW	0feb4H
	DW	0feb5H
	DW	0feb6H
	DW	0feb7H
	DW	0feb8H
	DW	0feb9H
	DW	0febaH
	DW	0febbH
	DW	0febcH
	DW	0febdH
	DW	0febeH
	DW	0febfH
	DW	0fec0H
	DW	0fec1H
	DW	0fec2H
	DW	0fec3H
	DW	0fec4H
	DW	0fec5H
	DW	0fec6H
	DW	0fec7H
	DW	0fec8H
	DW	0fec9H
	DW	0fecaH
	DW	0fecbH
	DW	0feccH
	DW	0fecdH
	DW	0feceH
	DW	0fecfH
	DW	0fed0H
?contextualForms0641_064a@@3QAY03$$CBGA DW 0fed1H	; contextualForms0641_064a
	DW	0fed2H
	DW	0fed3H
	DW	0fed4H
	DW	0fed5H
	DW	0fed6H
	DW	0fed7H
	DW	0fed8H
	DW	0fed9H
	DW	0fedaH
	DW	0fedbH
	DW	0fedcH
	DW	0feddH
	DW	0fedeH
	DW	0fedfH
	DW	0fee0H
	DW	0fee1H
	DW	0fee2H
	DW	0fee3H
	DW	0fee4H
	DW	0fee5H
	DW	0fee6H
	DW	0fee7H
	DW	0fee8H
	DW	0fee9H
	DW	0feeaH
	DW	0feebH
	DW	0feecH
	DW	0feedH
	DW	0feeeH
	DW	00H
	DW	00H
	DW	0feefH
	DW	0fef0H
	DW	0fbe8H
	DW	0fbe9H
	DW	0fef1H
	DW	0fef2H
	DW	0fef3H
	DW	0fef4H
?contextualForms06XX@@3QAY04$$CBGA DW 0671H		; contextualForms06XX
	DW	0fb50H
	DW	0fb51H
	DW	00H
	DW	00H
	DW	0677H
	DW	0fbddH
	DW	00H
	DW	00H
	DW	00H
	DW	0679H
	DW	0fb66H
	DW	0fb67H
	DW	0fb68H
	DW	0fb69H
	DW	067aH
	DW	0fb5eH
	DW	0fb5fH
	DW	0fb60H
	DW	0fb61H
	DW	067bH
	DW	0fb52H
	DW	0fb53H
	DW	0fb54H
	DW	0fb55H
	DW	067eH
	DW	0fb56H
	DW	0fb57H
	DW	0fb58H
	DW	0fb59H
	DW	067fH
	DW	0fb62H
	DW	0fb63H
	DW	0fb64H
	DW	0fb65H
	DW	0680H
	DW	0fb5aH
	DW	0fb5bH
	DW	0fb5cH
	DW	0fb5dH
	DW	0683H
	DW	0fb76H
	DW	0fb77H
	DW	0fb78H
	DW	0fb79H
	DW	0684H
	DW	0fb72H
	DW	0fb73H
	DW	0fb74H
	DW	0fb75H
	DW	0686H
	DW	0fb7aH
	DW	0fb7bH
	DW	0fb7cH
	DW	0fb7dH
	DW	0687H
	DW	0fb7eH
	DW	0fb7fH
	DW	0fb80H
	DW	0fb81H
	DW	0688H
	DW	0fb88H
	DW	0fb89H
	DW	00H
	DW	00H
	DW	068cH
	DW	0fb84H
	DW	0fb85H
	DW	00H
	DW	00H
	DW	068dH
	DW	0fb82H
	DW	0fb83H
	DW	00H
	DW	00H
	DW	068eH
	DW	0fb86H
	DW	0fb87H
	DW	00H
	DW	00H
	DW	0691H
	DW	0fb8cH
	DW	0fb8dH
	DW	00H
	DW	00H
	DW	0698H
	DW	0fb8aH
	DW	0fb8bH
	DW	00H
	DW	00H
	DW	06a4H
	DW	0fb6aH
	DW	0fb6bH
	DW	0fb6cH
	DW	0fb6dH
	DW	06a6H
	DW	0fb6eH
	DW	0fb6fH
	DW	0fb70H
	DW	0fb71H
	DW	06a9H
	DW	0fb8eH
	DW	0fb8fH
	DW	0fb90H
	DW	0fb91H
	DW	06adH
	DW	0fbd3H
	DW	0fbd4H
	DW	0fbd5H
	DW	0fbd6H
	DW	06afH
	DW	0fb92H
	DW	0fb93H
	DW	0fb94H
	DW	0fb95H
	DW	06b1H
	DW	0fb9aH
	DW	0fb9bH
	DW	0fb9cH
	DW	0fb9dH
	DW	06b3H
	DW	0fb96H
	DW	0fb97H
	DW	0fb98H
	DW	0fb99H
	DW	06baH
	DW	0fb9eH
	DW	0fb9fH
	DW	00H
	DW	00H
	DW	06bbH
	DW	0fba0H
	DW	0fba1H
	DW	0fba2H
	DW	0fba3H
	DW	06beH
	DW	0fbaaH
	DW	0fbabH
	DW	0fbacH
	DW	0fbadH
	DW	06c0H
	DW	0fba4H
	DW	0fba5H
	DW	00H
	DW	00H
	DW	06c1H
	DW	0fba6H
	DW	0fba7H
	DW	0fba8H
	DW	0fba9H
	DW	06c5H
	DW	0fbe0H
	DW	0fbe1H
	DW	00H
	DW	00H
	DW	06c6H
	DW	0fbd9H
	DW	0fbdaH
	DW	00H
	DW	00H
	DW	06c7H
	DW	0fbd7H
	DW	0fbd8H
	DW	00H
	DW	00H
	DW	06c8H
	DW	0fbdbH
	DW	0fbdcH
	DW	00H
	DW	00H
	DW	06c9H
	DW	0fbe2H
	DW	0fbe3H
	DW	00H
	DW	00H
	DW	06cbH
	DW	0fbdeH
	DW	0fbdfH
	DW	00H
	DW	00H
	DW	06ccH
	DW	0fbfcH
	DW	0fbfdH
	DW	0fbfeH
	DW	0fbffH
	DW	06d0H
	DW	0fbe4H
	DW	0fbe5H
	DW	0fbe6H
	DW	0fbe7H
	DW	06d2H
	DW	0fbaeH
	DW	0fbafH
	DW	00H
	DW	00H
	DW	06d3H
	DW	0fbb0H
	DW	0fbb1H
	DW	00H
	DW	00H
?Amiri_Regular_contextualFormsTable@@3UFontContextualFormsTable@touchgfx@@B DD FLAT:?contextualForms4Long@@3QAY04$$CBGA ; Amiri_Regular_contextualFormsTable
	DD	FLAT:?contextualForms3Long@@3QAY04$$CBGA
	DD	FLAT:?contextualForms2Long@@3QAY04$$CBGA
	DD	FLAT:?contextualForms0621_063a@@3QAY03$$CBGA
	DD	FLAT:?contextualForms0641_064a@@3QAY03$$CBGA
	DD	FLAT:?contextualForms06XX@@3QAY04$$CBGA
	DW	08H
	DW	06aH
	DW	0b2H
	DW	028H
CONST	ENDS
PUBLIC	??1Font@touchgfx@@UAE@XZ			; touchgfx::Font::~Font
PUBLIC	?getGlyph@Font@touchgfx@@UBEPBUGlyphNode@2@G@Z	; touchgfx::Font::getGlyph
PUBLIC	?getFallbackChar@Font@touchgfx@@UBEGXZ		; touchgfx::Font::getFallbackChar
PUBLIC	?getEllipsisChar@Font@touchgfx@@UBEGXZ		; touchgfx::Font::getEllipsisChar
PUBLIC	?getFontHeight@Font@touchgfx@@UBEGXZ		; touchgfx::Font::getFontHeight
PUBLIC	?getMinimumTextHeight@Font@touchgfx@@UBEGXZ	; touchgfx::Font::getMinimumTextHeight
PUBLIC	?getBitsPerPixel@Font@touchgfx@@UBEEXZ		; touchgfx::Font::getBitsPerPixel
PUBLIC	?getByteAlignRow@Font@touchgfx@@UBEEXZ		; touchgfx::Font::getByteAlignRow
PUBLIC	?getKerning@Font@touchgfx@@UBECGPBUGlyphNode@2@@Z ; touchgfx::Font::getKerning
PUBLIC	?getGSUBTable@Font@touchgfx@@UBEPBGXZ		; touchgfx::Font::getGSUBTable
PUBLIC	?getContextualFormsTable@Font@touchgfx@@UBEPBUFontContextualFormsTable@2@XZ ; touchgfx::Font::getContextualFormsTable
PUBLIC	??_GFont@touchgfx@@UAEPAXI@Z			; touchgfx::Font::`scalar deleting destructor'
PUBLIC	??1ConstFont@touchgfx@@UAE@XZ			; touchgfx::ConstFont::~ConstFont
PUBLIC	??1GeneratedFont@touchgfx@@UAE@XZ		; touchgfx::GeneratedFont::~GeneratedFont
PUBLIC	?getFont_Amiri_Regular_18_2bpp@@YAAAVGeneratedFont@touchgfx@@XZ ; getFont_Amiri_Regular_18_2bpp
PUBLIC	__JustMyCode_Default
PUBLIC	??_7Font@touchgfx@@6B@				; touchgfx::Font::`vftable'
PUBLIC	??_R4Font@touchgfx@@6B@				; touchgfx::Font::`RTTI Complete Object Locator'
PUBLIC	??_R0?AVFont@touchgfx@@@8			; touchgfx::Font `RTTI Type Descriptor'
PUBLIC	??_R3Font@touchgfx@@8				; touchgfx::Font::`RTTI Class Hierarchy Descriptor'
PUBLIC	??_R2Font@touchgfx@@8				; touchgfx::Font::`RTTI Base Class Array'
PUBLIC	??_R1A@?0A@EA@Font@touchgfx@@8			; touchgfx::Font::`RTTI Base Class Descriptor at (0,-1,0,64)'
EXTRN	__purecall:PROC
EXTRN	??3@YAXPAXI@Z:PROC				; operator delete
EXTRN	_atexit:PROC
EXTRN	__Init_thread_header:PROC
EXTRN	__Init_thread_abort:PROC
EXTRN	__Init_thread_footer:PROC
EXTRN	?getStringWidth@Font@touchgfx@@UBAGPBGZZ:PROC	; touchgfx::Font::getStringWidth
EXTRN	?getStringWidth@Font@touchgfx@@UBAGEPBGZZ:PROC	; touchgfx::Font::getStringWidth
EXTRN	?getCharWidth@Font@touchgfx@@UBEGG@Z:PROC	; touchgfx::Font::getCharWidth
EXTRN	?getSpacingAbove@Font@touchgfx@@UBAEPBGZZ:PROC	; touchgfx::Font::getSpacingAbove
EXTRN	?getMaxTextHeight@Font@touchgfx@@UBAGPBGZZ:PROC	; touchgfx::Font::getMaxTextHeight
EXTRN	?getNumberOfLines@Font@touchgfx@@UBAGPBGZZ:PROC	; touchgfx::Font::getNumberOfLines
EXTRN	??_EFont@touchgfx@@UAEPAXI@Z:PROC		; touchgfx::Font::`vector deleting destructor'
EXTRN	??0GeneratedFont@touchgfx@@QAE@PBUGlyphNode@1@GGEEEEEPBQBEPBUKerningNode@1@GGQBGPBUFontContextualFormsTable@1@@Z:PROC ; touchgfx::GeneratedFont::GeneratedFont
EXTRN	@_RTC_CheckStackVars@8:PROC
EXTRN	@__CheckForDebuggerJustMyCode@4:PROC
EXTRN	@__security_check_cookie@4:PROC
EXTRN	__RTC_CheckEsp:PROC
EXTRN	__RTC_InitBase:PROC
EXTRN	__RTC_Shutdown:PROC
EXTRN	___CxxFrameHandler3:PROC
EXTRN	__Init_thread_epoch:DWORD
EXTRN	?kerning_Amiri_Regular_18_2bpp@@3QBUKerningNode@touchgfx@@B:BYTE ; kerning_Amiri_Regular_18_2bpp
EXTRN	??_7type_info@@6B@:QWORD			; type_info::`vftable'
EXTRN	___security_cookie:DWORD
EXTRN	__tls_array:DWORD
EXTRN	__tls_index:DWORD
_BSS	SEGMENT
?Amiri_Regular_18_2bpp@?1??getFont_Amiri_Regular_18_2bpp@@YAAAVGeneratedFont@touchgfx@@XZ@4V23@A DB 028H DUP (?) ; `getFont_Amiri_Regular_18_2bpp'::`2'::Amiri_Regular_18_2bpp
?$TSS0@?1??getFont_Amiri_Regular_18_2bpp@@YAAAVGeneratedFont@touchgfx@@XZ@4HA DD 01H DUP (?) ; `getFont_Amiri_Regular_18_2bpp'::`2'::$TSS0
_BSS	ENDS
;	COMDAT rtc$TMZ
rtc$TMZ	SEGMENT
__RTC_Shutdown.rtc$TMZ DD FLAT:__RTC_Shutdown
rtc$TMZ	ENDS
;	COMDAT rtc$IMZ
rtc$IMZ	SEGMENT
__RTC_InitBase.rtc$IMZ DD FLAT:__RTC_InitBase
rtc$IMZ	ENDS
;	COMDAT ??_R1A@?0A@EA@Font@touchgfx@@8
rdata$r	SEGMENT
??_R1A@?0A@EA@Font@touchgfx@@8 DD FLAT:??_R0?AVFont@touchgfx@@@8 ; touchgfx::Font::`RTTI Base Class Descriptor at (0,-1,0,64)'
	DD	00H
	DD	00H
	DD	0ffffffffH
	DD	00H
	DD	040H
	DD	FLAT:??_R3Font@touchgfx@@8
rdata$r	ENDS
;	COMDAT ??_R2Font@touchgfx@@8
rdata$r	SEGMENT
??_R2Font@touchgfx@@8 DD FLAT:??_R1A@?0A@EA@Font@touchgfx@@8 ; touchgfx::Font::`RTTI Base Class Array'
rdata$r	ENDS
;	COMDAT ??_R3Font@touchgfx@@8
rdata$r	SEGMENT
??_R3Font@touchgfx@@8 DD 00H				; touchgfx::Font::`RTTI Class Hierarchy Descriptor'
	DD	00H
	DD	01H
	DD	FLAT:??_R2Font@touchgfx@@8
rdata$r	ENDS
;	COMDAT ??_R0?AVFont@touchgfx@@@8
data$rs	SEGMENT
??_R0?AVFont@touchgfx@@@8 DD FLAT:??_7type_info@@6B@	; touchgfx::Font `RTTI Type Descriptor'
	DD	00H
	DB	'.?AVFont@touchgfx@@', 00H
data$rs	ENDS
;	COMDAT ??_R4Font@touchgfx@@6B@
rdata$r	SEGMENT
??_R4Font@touchgfx@@6B@ DD 00H				; touchgfx::Font::`RTTI Complete Object Locator'
	DD	00H
	DD	00H
	DD	FLAT:??_R0?AVFont@touchgfx@@@8
	DD	FLAT:??_R3Font@touchgfx@@8
rdata$r	ENDS
;	COMDAT ??_7Font@touchgfx@@6B@
CONST	SEGMENT
??_7Font@touchgfx@@6B@ DD FLAT:??_R4Font@touchgfx@@6B@	; touchgfx::Font::`vftable'
	DD	FLAT:??_EFont@touchgfx@@UAEPAXI@Z
	DD	FLAT:?getGlyph@Font@touchgfx@@UBEPBUGlyphNode@2@G@Z
	DD	FLAT:__purecall
	DD	FLAT:?getFallbackChar@Font@touchgfx@@UBEGXZ
	DD	FLAT:?getEllipsisChar@Font@touchgfx@@UBEGXZ
	DD	FLAT:?getStringWidth@Font@touchgfx@@UBAGEPBGZZ
	DD	FLAT:?getStringWidth@Font@touchgfx@@UBAGPBGZZ
	DD	FLAT:?getCharWidth@Font@touchgfx@@UBEGG@Z
	DD	FLAT:?getSpacingAbove@Font@touchgfx@@UBAEPBGZZ
	DD	FLAT:?getMaxTextHeight@Font@touchgfx@@UBAGPBGZZ
	DD	FLAT:?getFontHeight@Font@touchgfx@@UBEGXZ
	DD	FLAT:?getMinimumTextHeight@Font@touchgfx@@UBEGXZ
	DD	FLAT:?getBitsPerPixel@Font@touchgfx@@UBEEXZ
	DD	FLAT:?getByteAlignRow@Font@touchgfx@@UBEEXZ
	DD	FLAT:?getKerning@Font@touchgfx@@UBECGPBUGlyphNode@2@@Z
	DD	FLAT:?getNumberOfLines@Font@touchgfx@@UBAGPBGZZ
	DD	FLAT:?getGSUBTable@Font@touchgfx@@UBEPBGXZ
	DD	FLAT:?getContextualFormsTable@Font@touchgfx@@UBEPBUFontContextualFormsTable@2@XZ
CONST	ENDS
;	COMDAT voltbl
voltbl	SEGMENT
_volmd	DB	01aH
voltbl	ENDS
;	COMDAT xdata$x
xdata$x	SEGMENT
__unwindtable$?getFont_Amiri_Regular_18_2bpp@@YAAAVGeneratedFont@touchgfx@@XZ DD 0ffffffffH
	DD	FLAT:__unwindfunclet$?getFont_Amiri_Regular_18_2bpp@@YAAAVGeneratedFont@touchgfx@@XZ$0
__ehfuncinfo$?getFont_Amiri_Regular_18_2bpp@@YAAAVGeneratedFont@touchgfx@@XZ DD 019930522H
	DD	01H
	DD	FLAT:__unwindtable$?getFont_Amiri_Regular_18_2bpp@@YAAAVGeneratedFont@touchgfx@@XZ
	DD	2 DUP(00H)
	DD	2 DUP(00H)
	DD	00H
	DD	01H
xdata$x	ENDS
; Function compile flags: /Odt
;	COMDAT __JustMyCode_Default
_TEXT	SEGMENT
__JustMyCode_Default PROC				; COMDAT
	push	ebp
	mov	ebp, esp
	pop	ebp
	ret	0
__JustMyCode_Default ENDP
_TEXT	ENDS
; Function compile flags: /Odtp /RTCsu /ZI
;	COMDAT ??__FAmiri_Regular_18_2bpp@?1??getFont_Amiri_Regular_18_2bpp@@YAAAVGeneratedFont@touchgfx@@XZ@YAXXZ
text$yd	SEGMENT
??__FAmiri_Regular_18_2bpp@?1??getFont_Amiri_Regular_18_2bpp@@YAAAVGeneratedFont@touchgfx@@XZ@YAXXZ PROC ; `getFont_Amiri_Regular_18_2bpp'::`2'::`dynamic atexit destructor for 'Amiri_Regular_18_2bpp'', COMDAT
	push	ebp
	mov	ebp, esp
	sub	esp, 192				; 000000c0H
	push	ebx
	push	esi
	push	edi
	mov	edi, ebp
	xor	ecx, ecx
	mov	eax, -858993460				; ccccccccH
	rep stosd
	mov	ecx, OFFSET ?Amiri_Regular_18_2bpp@?1??getFont_Amiri_Regular_18_2bpp@@YAAAVGeneratedFont@touchgfx@@XZ@4V23@A
	call	??1GeneratedFont@touchgfx@@UAE@XZ
	pop	edi
	pop	esi
	pop	ebx
	add	esp, 192				; 000000c0H
	cmp	ebp, esp
	call	__RTC_CheckEsp
	mov	esp, ebp
	pop	ebp
	ret	0
??__FAmiri_Regular_18_2bpp@?1??getFont_Amiri_Regular_18_2bpp@@YAAAVGeneratedFont@touchgfx@@XZ@YAXXZ ENDP ; `getFont_Amiri_Regular_18_2bpp'::`2'::`dynamic atexit destructor for 'Amiri_Regular_18_2bpp''
text$yd	ENDS
; Function compile flags: /Odtp /RTCsu /ZI
;	COMDAT ?getFont_Amiri_Regular_18_2bpp@@YAAAVGeneratedFont@touchgfx@@XZ
_TEXT	SEGMENT
__$EHRec$ = -12						; size = 12
?getFont_Amiri_Regular_18_2bpp@@YAAAVGeneratedFont@touchgfx@@XZ PROC ; getFont_Amiri_Regular_18_2bpp, COMDAT
; File D:\学习\毕业设计\方案1_GFX+底板\官方例程\DISPLAY\TouchGFX\generated\fonts\src\Table_Amiri_Regular_18_2bpp.cpp
; Line 738
	push	ebp
	mov	ebp, esp
	push	-1
	push	__ehhandler$?getFont_Amiri_Regular_18_2bpp@@YAAAVGeneratedFont@touchgfx@@XZ
	mov	eax, DWORD PTR fs:0
	push	eax
	sub	esp, 192				; 000000c0H
	push	ebx
	push	esi
	push	edi
	lea	edi, DWORD PTR [ebp-12]
	xor	ecx, ecx
	mov	eax, -858993460				; ccccccccH
	rep stosd
	mov	eax, DWORD PTR ___security_cookie
	xor	eax, ebp
	push	eax
	lea	eax, DWORD PTR __$EHRec$[ebp]
	mov	DWORD PTR fs:0, eax
	mov	ecx, OFFSET __6F3395B6_Table_Amiri_Regular_18_2bpp@cpp
	call	@__CheckForDebuggerJustMyCode@4
; Line 739
	mov	eax, DWORD PTR __tls_index
	mov	ecx, DWORD PTR fs:__tls_array
	mov	edx, DWORD PTR [ecx+eax*4]
	mov	eax, DWORD PTR ?$TSS0@?1??getFont_Amiri_Regular_18_2bpp@@YAAAVGeneratedFont@touchgfx@@XZ@4HA
	cmp	eax, DWORD PTR __Init_thread_epoch[edx]
	jle	SHORT $LN2@getFont_Am
	push	OFFSET ?$TSS0@?1??getFont_Amiri_Regular_18_2bpp@@YAAAVGeneratedFont@touchgfx@@XZ@4HA
	call	__Init_thread_header
	add	esp, 4
	cmp	DWORD PTR ?$TSS0@?1??getFont_Amiri_Regular_18_2bpp@@YAAAVGeneratedFont@touchgfx@@XZ@4HA, -1
	jne	SHORT $LN2@getFont_Am
	mov	DWORD PTR __$EHRec$[ebp+8], 0
	push	OFFSET ?Amiri_Regular_contextualFormsTable@@3UFontContextualFormsTable@touchgfx@@B ; Amiri_Regular_contextualFormsTable
	push	0
	push	0
	push	63					; 0000003fH
	push	OFFSET ?kerning_Amiri_Regular_18_2bpp@@3QBUKerningNode@touchgfx@@B ; kerning_Amiri_Regular_18_2bpp
	push	OFFSET ?unicodes_Amiri_Regular_18_2bpp@@3QBQBEB ; unicodes_Amiri_Regular_18_2bpp
	push	4
	push	2
	push	0
	push	2
	push	12					; 0000000cH
	push	18					; 00000012H
	push	273					; 00000111H
	push	OFFSET ?glyphs_Amiri_Regular_18_2bpp@@3QBUGlyphNode@touchgfx@@B ; glyphs_Amiri_Regular_18_2bpp
	mov	ecx, OFFSET ?Amiri_Regular_18_2bpp@?1??getFont_Amiri_Regular_18_2bpp@@YAAAVGeneratedFont@touchgfx@@XZ@4V23@A
	call	??0GeneratedFont@touchgfx@@QAE@PBUGlyphNode@1@GGEEEEEPBQBEPBUKerningNode@1@GGQBGPBUFontContextualFormsTable@1@@Z ; touchgfx::GeneratedFont::GeneratedFont
	push	OFFSET ??__FAmiri_Regular_18_2bpp@?1??getFont_Amiri_Regular_18_2bpp@@YAAAVGeneratedFont@touchgfx@@XZ@YAXXZ ; `getFont_Amiri_Regular_18_2bpp'::`2'::`dynamic atexit destructor for 'Amiri_Regular_18_2bpp''
	call	_atexit
	add	esp, 4
	mov	DWORD PTR __$EHRec$[ebp+8], -1
	push	OFFSET ?$TSS0@?1??getFont_Amiri_Regular_18_2bpp@@YAAAVGeneratedFont@touchgfx@@XZ@4HA
	call	__Init_thread_footer
	add	esp, 4
$LN2@getFont_Am:
; Line 740
	mov	eax, OFFSET ?Amiri_Regular_18_2bpp@?1??getFont_Amiri_Regular_18_2bpp@@YAAAVGeneratedFont@touchgfx@@XZ@4V23@A
; Line 741
	mov	ecx, DWORD PTR __$EHRec$[ebp]
	mov	DWORD PTR fs:0, ecx
	pop	ecx
	pop	edi
	pop	esi
	pop	ebx
	add	esp, 204				; 000000ccH
	cmp	ebp, esp
	call	__RTC_CheckEsp
	mov	esp, ebp
	pop	ebp
	ret	0
_TEXT	ENDS
;	COMDAT text$x
text$x	SEGMENT
__unwindfunclet$?getFont_Amiri_Regular_18_2bpp@@YAAAVGeneratedFont@touchgfx@@XZ$0:
	push	OFFSET ?$TSS0@?1??getFont_Amiri_Regular_18_2bpp@@YAAAVGeneratedFont@touchgfx@@XZ@4HA
	call	__Init_thread_abort
	pop	ecx
	ret	0
	int	3
	int	3
	int	3
	int	3
	int	3
__ehhandler$?getFont_Amiri_Regular_18_2bpp@@YAAAVGeneratedFont@touchgfx@@XZ:
	npad	1
	npad	1
	mov	edx, DWORD PTR [esp+8]
	lea	eax, DWORD PTR [edx+12]
	mov	ecx, DWORD PTR [edx-208]
	xor	ecx, eax
	call	@__security_check_cookie@4
	mov	eax, OFFSET __ehfuncinfo$?getFont_Amiri_Regular_18_2bpp@@YAAAVGeneratedFont@touchgfx@@XZ
	jmp	___CxxFrameHandler3
text$x	ENDS
?getFont_Amiri_Regular_18_2bpp@@YAAAVGeneratedFont@touchgfx@@XZ ENDP ; getFont_Amiri_Regular_18_2bpp
; Function compile flags: /Odtp /RTCsu /ZI
;	COMDAT ??1GeneratedFont@touchgfx@@UAE@XZ
_TEXT	SEGMENT
_this$ = -8						; size = 4
??1GeneratedFont@touchgfx@@UAE@XZ PROC			; touchgfx::GeneratedFont::~GeneratedFont, COMDAT
; _this$ = ecx
	push	ebp
	mov	ebp, esp
	sub	esp, 204				; 000000ccH
	push	ebx
	push	esi
	push	edi
	push	ecx
	lea	edi, DWORD PTR [ebp-12]
	mov	ecx, 3
	mov	eax, -858993460				; ccccccccH
	rep stosd
	pop	ecx
	mov	DWORD PTR _this$[ebp], ecx
	mov	ecx, DWORD PTR _this$[ebp]
	call	??1ConstFont@touchgfx@@UAE@XZ
	pop	edi
	pop	esi
	pop	ebx
	add	esp, 204				; 000000ccH
	cmp	ebp, esp
	call	__RTC_CheckEsp
	mov	esp, ebp
	pop	ebp
	ret	0
??1GeneratedFont@touchgfx@@UAE@XZ ENDP			; touchgfx::GeneratedFont::~GeneratedFont
_TEXT	ENDS
; Function compile flags: /Odtp /RTCsu /ZI
;	COMDAT ??1ConstFont@touchgfx@@UAE@XZ
_TEXT	SEGMENT
_this$ = -8						; size = 4
??1ConstFont@touchgfx@@UAE@XZ PROC			; touchgfx::ConstFont::~ConstFont, COMDAT
; _this$ = ecx
	push	ebp
	mov	ebp, esp
	sub	esp, 204				; 000000ccH
	push	ebx
	push	esi
	push	edi
	push	ecx
	lea	edi, DWORD PTR [ebp-12]
	mov	ecx, 3
	mov	eax, -858993460				; ccccccccH
	rep stosd
	pop	ecx
	mov	DWORD PTR _this$[ebp], ecx
	mov	ecx, DWORD PTR _this$[ebp]
	call	??1Font@touchgfx@@UAE@XZ		; touchgfx::Font::~Font
	pop	edi
	pop	esi
	pop	ebx
	add	esp, 204				; 000000ccH
	cmp	ebp, esp
	call	__RTC_CheckEsp
	mov	esp, ebp
	pop	ebp
	ret	0
??1ConstFont@touchgfx@@UAE@XZ ENDP			; touchgfx::ConstFont::~ConstFont
_TEXT	ENDS
; Function compile flags: /Odtp /RTCsu /ZI
;	COMDAT ??_GFont@touchgfx@@UAEPAXI@Z
_TEXT	SEGMENT
_this$ = -8						; size = 4
___flags$ = 8						; size = 4
??_GFont@touchgfx@@UAEPAXI@Z PROC			; touchgfx::Font::`scalar deleting destructor', COMDAT
; _this$ = ecx
	push	ebp
	mov	ebp, esp
	sub	esp, 204				; 000000ccH
	push	ebx
	push	esi
	push	edi
	push	ecx
	lea	edi, DWORD PTR [ebp-12]
	mov	ecx, 3
	mov	eax, -858993460				; ccccccccH
	rep stosd
	pop	ecx
	mov	DWORD PTR _this$[ebp], ecx
	mov	ecx, DWORD PTR _this$[ebp]
	call	??1Font@touchgfx@@UAE@XZ		; touchgfx::Font::~Font
	mov	eax, DWORD PTR ___flags$[ebp]
	and	eax, 1
	je	SHORT $LN2@scalar
	push	16					; 00000010H
	mov	eax, DWORD PTR _this$[ebp]
	push	eax
	call	??3@YAXPAXI@Z				; operator delete
	add	esp, 8
$LN2@scalar:
	mov	eax, DWORD PTR _this$[ebp]
	pop	edi
	pop	esi
	pop	ebx
	add	esp, 204				; 000000ccH
	cmp	ebp, esp
	call	__RTC_CheckEsp
	mov	esp, ebp
	pop	ebp
	ret	4
??_GFont@touchgfx@@UAEPAXI@Z ENDP			; touchgfx::Font::`scalar deleting destructor'
_TEXT	ENDS
; Function compile flags: /Odtp /RTCsu /ZI
;	COMDAT ?getContextualFormsTable@Font@touchgfx@@UBEPBUFontContextualFormsTable@2@XZ
_TEXT	SEGMENT
_this$ = -8						; size = 4
?getContextualFormsTable@Font@touchgfx@@UBEPBUFontContextualFormsTable@2@XZ PROC ; touchgfx::Font::getContextualFormsTable, COMDAT
; _this$ = ecx
; File D:\学习\毕业设计\方案1_GFX+底板\官方例程\DISPLAY\Middlewares\ST\touchgfx\framework\include\touchgfx\Font.hpp
; Line 419
	push	ebp
	mov	ebp, esp
	sub	esp, 204				; 000000ccH
	push	ebx
	push	esi
	push	edi
	push	ecx
	lea	edi, DWORD PTR [ebp-12]
	mov	ecx, 3
	mov	eax, -858993460				; ccccccccH
	rep stosd
	pop	ecx
	mov	DWORD PTR _this$[ebp], ecx
	mov	ecx, OFFSET __2B5BEDA9_Font@hpp
	call	@__CheckForDebuggerJustMyCode@4
; Line 420
	xor	eax, eax
; Line 421
	pop	edi
	pop	esi
	pop	ebx
	add	esp, 204				; 000000ccH
	cmp	ebp, esp
	call	__RTC_CheckEsp
	mov	esp, ebp
	pop	ebp
	ret	0
?getContextualFormsTable@Font@touchgfx@@UBEPBUFontContextualFormsTable@2@XZ ENDP ; touchgfx::Font::getContextualFormsTable
_TEXT	ENDS
; Function compile flags: /Odtp /RTCsu /ZI
;	COMDAT ?getGSUBTable@Font@touchgfx@@UBEPBGXZ
_TEXT	SEGMENT
_this$ = -8						; size = 4
?getGSUBTable@Font@touchgfx@@UBEPBGXZ PROC		; touchgfx::Font::getGSUBTable, COMDAT
; _this$ = ecx
; File D:\学习\毕业设计\方案1_GFX+底板\官方例程\DISPLAY\Middlewares\ST\touchgfx\framework\include\touchgfx\Font.hpp
; Line 409
	push	ebp
	mov	ebp, esp
	sub	esp, 204				; 000000ccH
	push	ebx
	push	esi
	push	edi
	push	ecx
	lea	edi, DWORD PTR [ebp-12]
	mov	ecx, 3
	mov	eax, -858993460				; ccccccccH
	rep stosd
	pop	ecx
	mov	DWORD PTR _this$[ebp], ecx
	mov	ecx, OFFSET __2B5BEDA9_Font@hpp
	call	@__CheckForDebuggerJustMyCode@4
; Line 410
	xor	eax, eax
; Line 411
	pop	edi
	pop	esi
	pop	ebx
	add	esp, 204				; 000000ccH
	cmp	ebp, esp
	call	__RTC_CheckEsp
	mov	esp, ebp
	pop	ebp
	ret	0
?getGSUBTable@Font@touchgfx@@UBEPBGXZ ENDP		; touchgfx::Font::getGSUBTable
_TEXT	ENDS
; Function compile flags: /Odtp /RTCsu /ZI
;	COMDAT ?getKerning@Font@touchgfx@@UBECGPBUGlyphNode@2@@Z
_TEXT	SEGMENT
_this$ = -8						; size = 4
_prevChar$ = 8						; size = 2
_glyph$ = 12						; size = 4
?getKerning@Font@touchgfx@@UBECGPBUGlyphNode@2@@Z PROC	; touchgfx::Font::getKerning, COMDAT
; _this$ = ecx
; File D:\学习\毕业设计\方案1_GFX+底板\官方例程\DISPLAY\Middlewares\ST\touchgfx\framework\include\touchgfx\Font.hpp
; Line 389
	push	ebp
	mov	ebp, esp
	sub	esp, 204				; 000000ccH
	push	ebx
	push	esi
	push	edi
	push	ecx
	lea	edi, DWORD PTR [ebp-12]
	mov	ecx, 3
	mov	eax, -858993460				; ccccccccH
	rep stosd
	pop	ecx
	mov	DWORD PTR _this$[ebp], ecx
	mov	ecx, OFFSET __2B5BEDA9_Font@hpp
	call	@__CheckForDebuggerJustMyCode@4
; Line 390
	xor	al, al
; Line 391
	pop	edi
	pop	esi
	pop	ebx
	add	esp, 204				; 000000ccH
	cmp	ebp, esp
	call	__RTC_CheckEsp
	mov	esp, ebp
	pop	ebp
	ret	8
?getKerning@Font@touchgfx@@UBECGPBUGlyphNode@2@@Z ENDP	; touchgfx::Font::getKerning
_TEXT	ENDS
; Function compile flags: /Odtp /RTCsu /ZI
;	COMDAT ?getByteAlignRow@Font@touchgfx@@UBEEXZ
_TEXT	SEGMENT
_this$ = -8						; size = 4
?getByteAlignRow@Font@touchgfx@@UBEEXZ PROC		; touchgfx::Font::getByteAlignRow, COMDAT
; _this$ = ecx
; File D:\学习\毕业设计\方案1_GFX+底板\官方例程\DISPLAY\Middlewares\ST\touchgfx\framework\include\touchgfx\Font.hpp
; Line 352
	push	ebp
	mov	ebp, esp
	sub	esp, 204				; 000000ccH
	push	ebx
	push	esi
	push	edi
	push	ecx
	lea	edi, DWORD PTR [ebp-12]
	mov	ecx, 3
	mov	eax, -858993460				; ccccccccH
	rep stosd
	pop	ecx
	mov	DWORD PTR _this$[ebp], ecx
	mov	ecx, OFFSET __2B5BEDA9_Font@hpp
	call	@__CheckForDebuggerJustMyCode@4
; Line 353
	mov	eax, DWORD PTR _this$[ebp]
	mov	al, BYTE PTR [eax+7]
	shr	al, 7
	and	al, 1
; Line 354
	pop	edi
	pop	esi
	pop	ebx
	add	esp, 204				; 000000ccH
	cmp	ebp, esp
	call	__RTC_CheckEsp
	mov	esp, ebp
	pop	ebp
	ret	0
?getByteAlignRow@Font@touchgfx@@UBEEXZ ENDP		; touchgfx::Font::getByteAlignRow
_TEXT	ENDS
; Function compile flags: /Odtp /RTCsu /ZI
;	COMDAT ?getBitsPerPixel@Font@touchgfx@@UBEEXZ
_TEXT	SEGMENT
_this$ = -8						; size = 4
?getBitsPerPixel@Font@touchgfx@@UBEEXZ PROC		; touchgfx::Font::getBitsPerPixel, COMDAT
; _this$ = ecx
; File D:\学习\毕业设计\方案1_GFX+底板\官方例程\DISPLAY\Middlewares\ST\touchgfx\framework\include\touchgfx\Font.hpp
; Line 342
	push	ebp
	mov	ebp, esp
	sub	esp, 204				; 000000ccH
	push	ebx
	push	esi
	push	edi
	push	ecx
	lea	edi, DWORD PTR [ebp-12]
	mov	ecx, 3
	mov	eax, -858993460				; ccccccccH
	rep stosd
	pop	ecx
	mov	DWORD PTR _this$[ebp], ecx
	mov	ecx, OFFSET __2B5BEDA9_Font@hpp
	call	@__CheckForDebuggerJustMyCode@4
; Line 343
	mov	eax, DWORD PTR _this$[ebp]
	mov	al, BYTE PTR [eax+7]
	and	al, 127					; 0000007fH
; Line 344
	pop	edi
	pop	esi
	pop	ebx
	add	esp, 204				; 000000ccH
	cmp	ebp, esp
	call	__RTC_CheckEsp
	mov	esp, ebp
	pop	ebp
	ret	0
?getBitsPerPixel@Font@touchgfx@@UBEEXZ ENDP		; touchgfx::Font::getBitsPerPixel
_TEXT	ENDS
; Function compile flags: /Odtp /RTCsu /ZI
;	COMDAT ?getMinimumTextHeight@Font@touchgfx@@UBEGXZ
_TEXT	SEGMENT
_this$ = -8						; size = 4
?getMinimumTextHeight@Font@touchgfx@@UBEGXZ PROC	; touchgfx::Font::getMinimumTextHeight, COMDAT
; _this$ = ecx
; File D:\学习\毕业设计\方案1_GFX+底板\官方例程\DISPLAY\Middlewares\ST\touchgfx\framework\include\touchgfx\Font.hpp
; Line 332
	push	ebp
	mov	ebp, esp
	sub	esp, 204				; 000000ccH
	push	ebx
	push	esi
	push	edi
	push	ecx
	lea	edi, DWORD PTR [ebp-12]
	mov	ecx, 3
	mov	eax, -858993460				; ccccccccH
	rep stosd
	pop	ecx
	mov	DWORD PTR _this$[ebp], ecx
	mov	ecx, OFFSET __2B5BEDA9_Font@hpp
	call	@__CheckForDebuggerJustMyCode@4
; Line 333
	mov	eax, DWORD PTR _this$[ebp]
	movzx	eax, WORD PTR [eax+4]
	mov	ecx, DWORD PTR _this$[ebp]
	movzx	edx, BYTE PTR [ecx+6]
	add	eax, edx
; Line 334
	pop	edi
	pop	esi
	pop	ebx
	add	esp, 204				; 000000ccH
	cmp	ebp, esp
	call	__RTC_CheckEsp
	mov	esp, ebp
	pop	ebp
	ret	0
?getMinimumTextHeight@Font@touchgfx@@UBEGXZ ENDP	; touchgfx::Font::getMinimumTextHeight
_TEXT	ENDS
; Function compile flags: /Odtp /RTCsu /ZI
;	COMDAT ?getFontHeight@Font@touchgfx@@UBEGXZ
_TEXT	SEGMENT
_this$ = -8						; size = 4
?getFontHeight@Font@touchgfx@@UBEGXZ PROC		; touchgfx::Font::getFontHeight, COMDAT
; _this$ = ecx
; File D:\学习\毕业设计\方案1_GFX+底板\官方例程\DISPLAY\Middlewares\ST\touchgfx\framework\include\touchgfx\Font.hpp
; Line 320
	push	ebp
	mov	ebp, esp
	sub	esp, 204				; 000000ccH
	push	ebx
	push	esi
	push	edi
	push	ecx
	lea	edi, DWORD PTR [ebp-12]
	mov	ecx, 3
	mov	eax, -858993460				; ccccccccH
	rep stosd
	pop	ecx
	mov	DWORD PTR _this$[ebp], ecx
	mov	ecx, OFFSET __2B5BEDA9_Font@hpp
	call	@__CheckForDebuggerJustMyCode@4
; Line 321
	mov	eax, DWORD PTR _this$[ebp]
	mov	ax, WORD PTR [eax+4]
; Line 322
	pop	edi
	pop	esi
	pop	ebx
	add	esp, 204				; 000000ccH
	cmp	ebp, esp
	call	__RTC_CheckEsp
	mov	esp, ebp
	pop	ebp
	ret	0
?getFontHeight@Font@touchgfx@@UBEGXZ ENDP		; touchgfx::Font::getFontHeight
_TEXT	ENDS
; Function compile flags: /Odtp /RTCsu /ZI
;	COMDAT ?getEllipsisChar@Font@touchgfx@@UBEGXZ
_TEXT	SEGMENT
_this$ = -8						; size = 4
?getEllipsisChar@Font@touchgfx@@UBEGXZ PROC		; touchgfx::Font::getEllipsisChar, COMDAT
; _this$ = ecx
; File D:\学习\毕业设计\方案1_GFX+底板\官方例程\DISPLAY\Middlewares\ST\touchgfx\framework\include\touchgfx\Font.hpp
; Line 231
	push	ebp
	mov	ebp, esp
	sub	esp, 204				; 000000ccH
	push	ebx
	push	esi
	push	edi
	push	ecx
	lea	edi, DWORD PTR [ebp-12]
	mov	ecx, 3
	mov	eax, -858993460				; ccccccccH
	rep stosd
	pop	ecx
	mov	DWORD PTR _this$[ebp], ecx
	mov	ecx, OFFSET __2B5BEDA9_Font@hpp
	call	@__CheckForDebuggerJustMyCode@4
; Line 232
	mov	eax, DWORD PTR _this$[ebp]
	mov	ax, WORD PTR [eax+12]
; Line 233
	pop	edi
	pop	esi
	pop	ebx
	add	esp, 204				; 000000ccH
	cmp	ebp, esp
	call	__RTC_CheckEsp
	mov	esp, ebp
	pop	ebp
	ret	0
?getEllipsisChar@Font@touchgfx@@UBEGXZ ENDP		; touchgfx::Font::getEllipsisChar
_TEXT	ENDS
; Function compile flags: /Odtp /RTCsu /ZI
;	COMDAT ?getFallbackChar@Font@touchgfx@@UBEGXZ
_TEXT	SEGMENT
_this$ = -8						; size = 4
?getFallbackChar@Font@touchgfx@@UBEGXZ PROC		; touchgfx::Font::getFallbackChar, COMDAT
; _this$ = ecx
; File D:\学习\毕业设计\方案1_GFX+底板\官方例程\DISPLAY\Middlewares\ST\touchgfx\framework\include\touchgfx\Font.hpp
; Line 218
	push	ebp
	mov	ebp, esp
	sub	esp, 204				; 000000ccH
	push	ebx
	push	esi
	push	edi
	push	ecx
	lea	edi, DWORD PTR [ebp-12]
	mov	ecx, 3
	mov	eax, -858993460				; ccccccccH
	rep stosd
	pop	ecx
	mov	DWORD PTR _this$[ebp], ecx
	mov	ecx, OFFSET __2B5BEDA9_Font@hpp
	call	@__CheckForDebuggerJustMyCode@4
; Line 219
	mov	eax, DWORD PTR _this$[ebp]
	mov	ax, WORD PTR [eax+10]
; Line 220
	pop	edi
	pop	esi
	pop	ebx
	add	esp, 204				; 000000ccH
	cmp	ebp, esp
	call	__RTC_CheckEsp
	mov	esp, ebp
	pop	ebp
	ret	0
?getFallbackChar@Font@touchgfx@@UBEGXZ ENDP		; touchgfx::Font::getFallbackChar
_TEXT	ENDS
; Function compile flags: /Odtp /RTCsu /ZI
;	COMDAT ?getGlyph@Font@touchgfx@@UBEPBUGlyphNode@2@G@Z
_TEXT	SEGMENT
_glyph$ = -44						; size = 4
_bitsPerPixelDummy$ = -29				; size = 1
_dummyPixelDataPointer$ = -20				; size = 4
_this$ = -8						; size = 4
_unicode$ = 8						; size = 2
?getGlyph@Font@touchgfx@@UBEPBUGlyphNode@2@G@Z PROC	; touchgfx::Font::getGlyph, COMDAT
; _this$ = ecx
; File D:\学习\毕业设计\方案1_GFX+底板\官方例程\DISPLAY\Middlewares\ST\touchgfx\framework\include\touchgfx\Font.hpp
; Line 199
	push	ebp
	mov	ebp, esp
	sub	esp, 240				; 000000f0H
	push	ebx
	push	esi
	push	edi
	push	ecx
	lea	edi, DWORD PTR [ebp-48]
	mov	ecx, 12					; 0000000cH
	mov	eax, -858993460				; ccccccccH
	rep stosd
	pop	ecx
	mov	DWORD PTR _this$[ebp], ecx
	mov	ecx, OFFSET __2B5BEDA9_Font@hpp
	call	@__CheckForDebuggerJustMyCode@4
; Line 200
	movzx	eax, WORD PTR _unicode$[ebp]
	test	eax, eax
	jne	SHORT $LN2@getGlyph
; Line 202
	xor	eax, eax
	jmp	SHORT $LN1@getGlyph
$LN2@getGlyph:
; Line 204
	mov	DWORD PTR _dummyPixelDataPointer$[ebp], 0
; Line 205
	mov	BYTE PTR _bitsPerPixelDummy$[ebp], 0
; Line 206
	mov	esi, esp
	lea	eax, DWORD PTR _bitsPerPixelDummy$[ebp]
	push	eax
	lea	ecx, DWORD PTR _dummyPixelDataPointer$[ebp]
	push	ecx
	movzx	edx, WORD PTR _unicode$[ebp]
	push	edx
	mov	eax, DWORD PTR _this$[ebp]
	mov	edx, DWORD PTR [eax]
	mov	ecx, DWORD PTR _this$[ebp]
	mov	eax, DWORD PTR [edx+8]
	call	eax
	cmp	esi, esp
	call	__RTC_CheckEsp
	mov	DWORD PTR _glyph$[ebp], eax
; Line 207
	mov	eax, DWORD PTR _glyph$[ebp]
$LN1@getGlyph:
; Line 208
	push	edx
	mov	ecx, ebp
	push	eax
	lea	edx, DWORD PTR $LN7@getGlyph
	call	@_RTC_CheckStackVars@8
	pop	eax
	pop	edx
	pop	edi
	pop	esi
	pop	ebx
	add	esp, 240				; 000000f0H
	cmp	ebp, esp
	call	__RTC_CheckEsp
	mov	esp, ebp
	pop	ebp
	ret	4
	npad	3
$LN7@getGlyph:
	DD	2
	DD	$LN6@getGlyph
$LN6@getGlyph:
	DD	-20					; ffffffecH
	DD	4
	DD	$LN4@getGlyph
	DD	-29					; ffffffe3H
	DD	1
	DD	$LN5@getGlyph
$LN5@getGlyph:
	DB	98					; 00000062H
	DB	105					; 00000069H
	DB	116					; 00000074H
	DB	115					; 00000073H
	DB	80					; 00000050H
	DB	101					; 00000065H
	DB	114					; 00000072H
	DB	80					; 00000050H
	DB	105					; 00000069H
	DB	120					; 00000078H
	DB	101					; 00000065H
	DB	108					; 0000006cH
	DB	68					; 00000044H
	DB	117					; 00000075H
	DB	109					; 0000006dH
	DB	109					; 0000006dH
	DB	121					; 00000079H
	DB	0
$LN4@getGlyph:
	DB	100					; 00000064H
	DB	117					; 00000075H
	DB	109					; 0000006dH
	DB	109					; 0000006dH
	DB	121					; 00000079H
	DB	80					; 00000050H
	DB	105					; 00000069H
	DB	120					; 00000078H
	DB	101					; 00000065H
	DB	108					; 0000006cH
	DB	68					; 00000044H
	DB	97					; 00000061H
	DB	116					; 00000074H
	DB	97					; 00000061H
	DB	80					; 00000050H
	DB	111					; 0000006fH
	DB	105					; 00000069H
	DB	110					; 0000006eH
	DB	116					; 00000074H
	DB	101					; 00000065H
	DB	114					; 00000072H
	DB	0
?getGlyph@Font@touchgfx@@UBEPBUGlyphNode@2@G@Z ENDP	; touchgfx::Font::getGlyph
_TEXT	ENDS
; Function compile flags: /Odtp /RTCsu /ZI
;	COMDAT ??1Font@touchgfx@@UAE@XZ
_TEXT	SEGMENT
_this$ = -8						; size = 4
??1Font@touchgfx@@UAE@XZ PROC				; touchgfx::Font::~Font, COMDAT
; _this$ = ecx
; File D:\学习\毕业设计\方案1_GFX+底板\官方例程\DISPLAY\Middlewares\ST\touchgfx\framework\include\touchgfx\Font.hpp
; Line 168
	push	ebp
	mov	ebp, esp
	sub	esp, 204				; 000000ccH
	push	ebx
	push	esi
	push	edi
	push	ecx
	lea	edi, DWORD PTR [ebp-12]
	mov	ecx, 3
	mov	eax, -858993460				; ccccccccH
	rep stosd
	pop	ecx
	mov	DWORD PTR _this$[ebp], ecx
	mov	ecx, OFFSET __2B5BEDA9_Font@hpp
	call	@__CheckForDebuggerJustMyCode@4
	mov	eax, DWORD PTR _this$[ebp]
	mov	DWORD PTR [eax], OFFSET ??_7Font@touchgfx@@6B@
; Line 169
	pop	edi
	pop	esi
	pop	ebx
	add	esp, 204				; 000000ccH
	cmp	ebp, esp
	call	__RTC_CheckEsp
	mov	esp, ebp
	pop	ebp
	ret	0
??1Font@touchgfx@@UAE@XZ ENDP				; touchgfx::Font::~Font
_TEXT	ENDS
END
