; Listing generated by Microsoft (R) Optimizing Compiler Version 19.30.30705.0 

	TITLE	D:\学习\毕业设计\方案1_GFX+底板\官方例程\DISPLAY\TouchGFX\build\Debug\obj\TypedTextDatabase.obj
	.686P
	.XMM
	include listing.inc
	.model	flat

INCLUDELIB MSVCRTD
INCLUDELIB OLDNAMES

PUBLIC	?typedText_database_DEFAULT@@3QBUTypedTextData@TypedText@touchgfx@@B ; typedText_database_DEFAULT
PUBLIC	?typedTextDatabaseArray@@3QBQBUTypedTextData@TypedText@touchgfx@@B ; typedTextDatabaseArray
msvcjmc	SEGMENT
__692521D7_concurrencysal@h DB 01H
__A324AF7F_sal@h DB 01H
__3FA7CF14_vadefs@h DB 01H
__4DFECF8D_vcruntime@h DB 01H
__6569C2CA_corecrt@h DB 01H
__C3DF3361_assert@h DB 01H
__47AAA172_stdint@h DB 01H
__BA83647B_Config@hpp DB 01H
__AA120D12_Types@hpp DB 01H
__73751FBD_stdarg@h DB 01H
__249BB391_Unicode@hpp DB 01H
__2B5BEDA9_Font@hpp DB 01H
__84151005_Texts@hpp DB 01H
__7903F453_TypedText@hpp DB 01H
__66C3C840_ConstFont@hpp DB 01H
__9BA7F6D3_GeneratedFont@hpp DB 01H
__E159C7D2_TypedTextDatabase@hpp DB 01H
__69D1556C_TypedTextDatabase@cpp DB 01H
msvcjmc	ENDS
CONST	SEGMENT
?typedText_database_DEFAULT@@3QBUTypedTextData@TypedText@touchgfx@@B DB 00H ; typedText_database_DEFAULT
	DB	01H
	DB	00H
	DB	01H
	DB	01H
	DB	00H
	DB	01H
	DB	00H
	DB	00H
	DB	01H
	DB	01H
	DB	00H
	DB	01H
	DB	00H
	DB	02H
	DB	00H
	DB	07H
	DB	00H
	DB	01H
	DB	00H
	DB	07H
	DB	00H
	DB	03H
	DB	04H
	DB	00H
	DB	01H
	DB	01H
	DB	00H
	DB	01H
	DB	00H
	DB	01H
	DB	00H
	DB	01H
	DB	00H
	DB	01H
	DB	00H
	DB	01H
	DB	00H
	DB	01H
	DB	00H
	DB	01H
	DB	00H
	DB	01H
	DB	00H
	DB	01H
	DB	00H
	DB	01H
	DB	00H
	DB	01H
	DB	00H
	DB	00H
	DB	01H
?typedTextDatabaseArray@@3QBQBUTypedTextData@TypedText@touchgfx@@B DD FLAT:?typedText_database_DEFAULT@@3QBUTypedTextData@TypedText@touchgfx@@B ; typedTextDatabaseArray
	DD	FLAT:?typedText_database_KR@@3QBUTypedTextData@TypedText@touchgfx@@B
	DD	FLAT:?typedText_database_CN@@3QBUTypedTextData@TypedText@touchgfx@@B
	DD	FLAT:?typedText_database_JP@@3QBUTypedTextData@TypedText@touchgfx@@B
	DD	FLAT:?typedText_database_DEFAULT@@3QBUTypedTextData@TypedText@touchgfx@@B
	DD	FLAT:?typedText_database_DEFAULT@@3QBUTypedTextData@TypedText@touchgfx@@B
	DD	FLAT:?typedText_database_TN@@3QBUTypedTextData@TypedText@touchgfx@@B
?typedText_database_KR@@3QBUTypedTextData@TypedText@touchgfx@@B DB 04H ; typedText_database_KR
	DB	01H
	DB	02H
	DB	01H
	DB	01H
	DB	00H
	DB	01H
	DB	00H
	DB	04H
	DB	01H
	DB	01H
	DB	00H
	DB	01H
	DB	00H
	DB	02H
	DB	00H
	DB	07H
	DB	00H
	DB	01H
	DB	00H
	DB	07H
	DB	00H
	DB	03H
	DB	04H
	DB	00H
	DB	01H
	DB	01H
	DB	00H
	DB	01H
	DB	00H
	DB	01H
	DB	00H
	DB	01H
	DB	00H
	DB	01H
	DB	00H
	DB	01H
	DB	00H
	DB	01H
	DB	00H
	DB	01H
	DB	00H
	DB	01H
	DB	00H
	DB	01H
	DB	00H
	DB	01H
	DB	00H
	DB	01H
	DB	00H
	DB	00H
	DB	01H
?typedText_database_CN@@3QBUTypedTextData@TypedText@touchgfx@@B DB 06H ; typedText_database_CN
	DB	01H
	DB	06H
	DB	01H
	DB	01H
	DB	00H
	DB	01H
	DB	00H
	DB	06H
	DB	01H
	DB	01H
	DB	00H
	DB	01H
	DB	00H
	DB	02H
	DB	00H
	DB	07H
	DB	00H
	DB	01H
	DB	00H
	DB	07H
	DB	00H
	DB	03H
	DB	04H
	DB	00H
	DB	01H
	DB	01H
	DB	00H
	DB	01H
	DB	00H
	DB	01H
	DB	00H
	DB	01H
	DB	00H
	DB	01H
	DB	00H
	DB	01H
	DB	00H
	DB	01H
	DB	00H
	DB	01H
	DB	00H
	DB	01H
	DB	00H
	DB	01H
	DB	00H
	DB	01H
	DB	00H
	DB	01H
	DB	00H
	DB	00H
	DB	01H
?typedText_database_JP@@3QBUTypedTextData@TypedText@touchgfx@@B DB 06H ; typedText_database_JP
	DB	01H
	DB	07H
	DB	01H
	DB	01H
	DB	00H
	DB	01H
	DB	00H
	DB	06H
	DB	01H
	DB	01H
	DB	00H
	DB	01H
	DB	00H
	DB	02H
	DB	00H
	DB	07H
	DB	00H
	DB	01H
	DB	00H
	DB	07H
	DB	00H
	DB	03H
	DB	04H
	DB	00H
	DB	01H
	DB	01H
	DB	00H
	DB	01H
	DB	00H
	DB	01H
	DB	00H
	DB	01H
	DB	00H
	DB	01H
	DB	00H
	DB	01H
	DB	00H
	DB	01H
	DB	00H
	DB	01H
	DB	00H
	DB	01H
	DB	00H
	DB	01H
	DB	00H
	DB	01H
	DB	00H
	DB	01H
	DB	00H
	DB	00H
	DB	01H
?typedText_database_TN@@3QBUTypedTextData@TypedText@touchgfx@@B DB 00H ; typedText_database_TN
	DB	01H
	DB	03H
	DB	01H
	DB	01H
	DB	00H
	DB	01H
	DB	00H
	DB	03H
	DB	01H
	DB	01H
	DB	00H
	DB	01H
	DB	00H
	DB	02H
	DB	00H
	DB	07H
	DB	00H
	DB	01H
	DB	00H
	DB	07H
	DB	00H
	DB	03H
	DB	04H
	DB	00H
	DB	01H
	DB	01H
	DB	00H
	DB	01H
	DB	00H
	DB	01H
	DB	00H
	DB	01H
	DB	00H
	DB	01H
	DB	00H
	DB	01H
	DB	00H
	DB	01H
	DB	00H
	DB	01H
	DB	00H
	DB	01H
	DB	00H
	DB	01H
	DB	00H
	DB	01H
	DB	00H
	DB	01H
	DB	00H
	DB	00H
	DB	01H
CONST	ENDS
PUBLIC	?getInstance@TypedTextDatabase@@YAPBUTypedTextData@TypedText@touchgfx@@G@Z ; TypedTextDatabase::getInstance
PUBLIC	?getFonts@TypedTextDatabase@@YAPAPBVFont@touchgfx@@XZ ; TypedTextDatabase::getFonts
PUBLIC	?setFont@TypedTextDatabase@@YAPBVFont@touchgfx@@GPBV23@@Z ; TypedTextDatabase::setFont
PUBLIC	?resetFont@TypedTextDatabase@@YAXG@Z		; TypedTextDatabase::resetFont
PUBLIC	?getInstanceSize@TypedTextDatabase@@YAGXZ	; TypedTextDatabase::getInstanceSize
PUBLIC	__JustMyCode_Default
PUBLIC	?touchgfx_fonts@@3PAPBVFont@touchgfx@@A		; touchgfx_fonts
EXTRN	?getFont_verdana_20_4bpp@@YAAAVGeneratedFont@touchgfx@@XZ:PROC ; getFont_verdana_20_4bpp
EXTRN	?getFont_verdana_14_4bpp@@YAAAVGeneratedFont@touchgfx@@XZ:PROC ; getFont_verdana_14_4bpp
EXTRN	?getFont_NanumGothic_14_4bpp@@YAAAVGeneratedFont@touchgfx@@XZ:PROC ; getFont_NanumGothic_14_4bpp
EXTRN	?getFont_Amiri_Regular_18_2bpp@@YAAAVGeneratedFont@touchgfx@@XZ:PROC ; getFont_Amiri_Regular_18_2bpp
EXTRN	?getFont_NanumGothic_20_4bpp@@YAAAVGeneratedFont@touchgfx@@XZ:PROC ; getFont_NanumGothic_20_4bpp
EXTRN	?getFont_NanumGothic_30_4bpp@@YAAAVGeneratedFont@touchgfx@@XZ:PROC ; getFont_NanumGothic_30_4bpp
EXTRN	?getFont_chinese_msyh_20_4bpp@@YAAAVGeneratedFont@touchgfx@@XZ:PROC ; getFont_chinese_msyh_20_4bpp
EXTRN	?getFont_chinese_msyh_14_4bpp@@YAAAVGeneratedFont@touchgfx@@XZ:PROC ; getFont_chinese_msyh_14_4bpp
EXTRN	?getFont_Amiri_Regular_22_4bpp@@YAAAVGeneratedFont@touchgfx@@XZ:PROC ; getFont_Amiri_Regular_22_4bpp
EXTRN	@__CheckForDebuggerJustMyCode@4:PROC
EXTRN	__RTC_CheckEsp:PROC
EXTRN	__RTC_InitBase:PROC
EXTRN	__RTC_Shutdown:PROC
_BSS	SEGMENT
?touchgfx_fonts@@3PAPBVFont@touchgfx@@A DD 09H DUP (?)	; touchgfx_fonts
_BSS	ENDS
CRT$XCU	SEGMENT
?touchgfx_fonts$initializer$@@3P6AXXZA DD FLAT:??__Etouchgfx_fonts@@YAXXZ ; touchgfx_fonts$initializer$
CRT$XCU	ENDS
;	COMDAT rtc$TMZ
rtc$TMZ	SEGMENT
__RTC_Shutdown.rtc$TMZ DD FLAT:__RTC_Shutdown
rtc$TMZ	ENDS
;	COMDAT rtc$IMZ
rtc$IMZ	SEGMENT
__RTC_InitBase.rtc$IMZ DD FLAT:__RTC_InitBase
rtc$IMZ	ENDS
; Function compile flags: /Odt
;	COMDAT __JustMyCode_Default
_TEXT	SEGMENT
__JustMyCode_Default PROC				; COMDAT
	push	ebp
	mov	ebp, esp
	pop	ebp
	ret	0
__JustMyCode_Default ENDP
_TEXT	ENDS
; Function compile flags: /Odtp /RTCsu /ZI
;	COMDAT ??__Etouchgfx_fonts@@YAXXZ
text$di	SEGMENT
??__Etouchgfx_fonts@@YAXXZ PROC				; `dynamic initializer for 'touchgfx_fonts'', COMDAT
; File D:\学习\毕业设计\方案1_GFX+底板\官方例程\DISPLAY\TouchGFX\generated\texts\src\TypedTextDatabase.cpp
; Line 28
	push	ebp
	mov	ebp, esp
	sub	esp, 192				; 000000c0H
	push	ebx
	push	esi
	push	edi
	mov	edi, ebp
	xor	ecx, ecx
	mov	eax, -858993460				; ccccccccH
	rep stosd
	mov	ecx, OFFSET __69D1556C_TypedTextDatabase@cpp
	call	@__CheckForDebuggerJustMyCode@4
; Line 19
	call	?getFont_verdana_20_4bpp@@YAAAVGeneratedFont@touchgfx@@XZ ; getFont_verdana_20_4bpp
	mov	DWORD PTR ?touchgfx_fonts@@3PAPBVFont@touchgfx@@A, eax
; Line 20
	call	?getFont_verdana_14_4bpp@@YAAAVGeneratedFont@touchgfx@@XZ ; getFont_verdana_14_4bpp
	mov	DWORD PTR ?touchgfx_fonts@@3PAPBVFont@touchgfx@@A+4, eax
; Line 21
	call	?getFont_NanumGothic_14_4bpp@@YAAAVGeneratedFont@touchgfx@@XZ ; getFont_NanumGothic_14_4bpp
	mov	DWORD PTR ?touchgfx_fonts@@3PAPBVFont@touchgfx@@A+8, eax
; Line 22
	call	?getFont_Amiri_Regular_18_2bpp@@YAAAVGeneratedFont@touchgfx@@XZ ; getFont_Amiri_Regular_18_2bpp
	mov	DWORD PTR ?touchgfx_fonts@@3PAPBVFont@touchgfx@@A+12, eax
; Line 23
	call	?getFont_NanumGothic_20_4bpp@@YAAAVGeneratedFont@touchgfx@@XZ ; getFont_NanumGothic_20_4bpp
	mov	DWORD PTR ?touchgfx_fonts@@3PAPBVFont@touchgfx@@A+16, eax
; Line 24
	call	?getFont_NanumGothic_30_4bpp@@YAAAVGeneratedFont@touchgfx@@XZ ; getFont_NanumGothic_30_4bpp
	mov	DWORD PTR ?touchgfx_fonts@@3PAPBVFont@touchgfx@@A+20, eax
; Line 25
	call	?getFont_chinese_msyh_20_4bpp@@YAAAVGeneratedFont@touchgfx@@XZ ; getFont_chinese_msyh_20_4bpp
	mov	DWORD PTR ?touchgfx_fonts@@3PAPBVFont@touchgfx@@A+24, eax
; Line 26
	call	?getFont_chinese_msyh_14_4bpp@@YAAAVGeneratedFont@touchgfx@@XZ ; getFont_chinese_msyh_14_4bpp
	mov	DWORD PTR ?touchgfx_fonts@@3PAPBVFont@touchgfx@@A+28, eax
; Line 27
	call	?getFont_Amiri_Regular_22_4bpp@@YAAAVGeneratedFont@touchgfx@@XZ ; getFont_Amiri_Regular_22_4bpp
	mov	DWORD PTR ?touchgfx_fonts@@3PAPBVFont@touchgfx@@A+32, eax
	pop	edi
	pop	esi
	pop	ebx
	add	esp, 192				; 000000c0H
	cmp	ebp, esp
	call	__RTC_CheckEsp
	mov	esp, ebp
	pop	ebp
	ret	0
??__Etouchgfx_fonts@@YAXXZ ENDP				; `dynamic initializer for 'touchgfx_fonts''
text$di	ENDS
; Function compile flags: /Odtp /RTCsu /ZI
;	COMDAT ?getInstanceSize@TypedTextDatabase@@YAGXZ
_TEXT	SEGMENT
?getInstanceSize@TypedTextDatabase@@YAGXZ PROC		; TypedTextDatabase::getInstanceSize, COMDAT
; File D:\学习\毕业设计\方案1_GFX+底板\官方例程\DISPLAY\TouchGFX\generated\texts\src\TypedTextDatabase.cpp
; Line 198
	push	ebp
	mov	ebp, esp
	sub	esp, 192				; 000000c0H
	push	ebx
	push	esi
	push	edi
	mov	edi, ebp
	xor	ecx, ecx
	mov	eax, -858993460				; ccccccccH
	rep stosd
	mov	ecx, OFFSET __69D1556C_TypedTextDatabase@cpp
	call	@__CheckForDebuggerJustMyCode@4
; Line 199
	mov	eax, 26					; 0000001aH
; Line 200
	pop	edi
	pop	esi
	pop	ebx
	add	esp, 192				; 000000c0H
	cmp	ebp, esp
	call	__RTC_CheckEsp
	mov	esp, ebp
	pop	ebp
	ret	0
?getInstanceSize@TypedTextDatabase@@YAGXZ ENDP		; TypedTextDatabase::getInstanceSize
_TEXT	ENDS
; Function compile flags: /Odtp /RTCsu /ZI
;	COMDAT ?resetFont@TypedTextDatabase@@YAXG@Z
_TEXT	SEGMENT
tv65 = -196						; size = 4
_fontId$ = 8						; size = 2
?resetFont@TypedTextDatabase@@YAXG@Z PROC		; TypedTextDatabase::resetFont, COMDAT
; File D:\学习\毕业设计\方案1_GFX+底板\官方例程\DISPLAY\TouchGFX\generated\texts\src\TypedTextDatabase.cpp
; Line 215
	push	ebp
	mov	ebp, esp
	sub	esp, 196				; 000000c4H
	push	ebx
	push	esi
	push	edi
	lea	edi, DWORD PTR [ebp-4]
	mov	ecx, 1
	mov	eax, -858993460				; ccccccccH
	rep stosd
	mov	ecx, OFFSET __69D1556C_TypedTextDatabase@cpp
	call	@__CheckForDebuggerJustMyCode@4
; Line 216
	movzx	eax, WORD PTR _fontId$[ebp]
	mov	DWORD PTR tv65[ebp], eax
	cmp	DWORD PTR tv65[ebp], 8
	ja	$LN1@resetFont
	mov	ecx, DWORD PTR tv65[ebp]
	jmp	DWORD PTR $LN14@resetFont[ecx*4]
$LN4@resetFont:
; Line 219
	call	?getFont_verdana_20_4bpp@@YAAAVGeneratedFont@touchgfx@@XZ ; getFont_verdana_20_4bpp
	mov	ecx, 4
	imul	edx, ecx, 0
	mov	DWORD PTR ?touchgfx_fonts@@3PAPBVFont@touchgfx@@A[edx], eax
; Line 220
	jmp	$LN1@resetFont
$LN5@resetFont:
; Line 222
	call	?getFont_verdana_14_4bpp@@YAAAVGeneratedFont@touchgfx@@XZ ; getFont_verdana_14_4bpp
	mov	ecx, 4
	shl	ecx, 0
	mov	DWORD PTR ?touchgfx_fonts@@3PAPBVFont@touchgfx@@A[ecx], eax
; Line 223
	jmp	$LN1@resetFont
$LN6@resetFont:
; Line 225
	call	?getFont_NanumGothic_14_4bpp@@YAAAVGeneratedFont@touchgfx@@XZ ; getFont_NanumGothic_14_4bpp
	mov	ecx, 4
	shl	ecx, 1
	mov	DWORD PTR ?touchgfx_fonts@@3PAPBVFont@touchgfx@@A[ecx], eax
; Line 226
	jmp	SHORT $LN1@resetFont
$LN7@resetFont:
; Line 228
	call	?getFont_Amiri_Regular_18_2bpp@@YAAAVGeneratedFont@touchgfx@@XZ ; getFont_Amiri_Regular_18_2bpp
	mov	ecx, 4
	imul	edx, ecx, 3
	mov	DWORD PTR ?touchgfx_fonts@@3PAPBVFont@touchgfx@@A[edx], eax
; Line 229
	jmp	SHORT $LN1@resetFont
$LN8@resetFont:
; Line 231
	call	?getFont_NanumGothic_20_4bpp@@YAAAVGeneratedFont@touchgfx@@XZ ; getFont_NanumGothic_20_4bpp
	mov	ecx, 4
	shl	ecx, 2
	mov	DWORD PTR ?touchgfx_fonts@@3PAPBVFont@touchgfx@@A[ecx], eax
; Line 232
	jmp	SHORT $LN1@resetFont
$LN9@resetFont:
; Line 234
	call	?getFont_NanumGothic_30_4bpp@@YAAAVGeneratedFont@touchgfx@@XZ ; getFont_NanumGothic_30_4bpp
	mov	ecx, 4
	imul	edx, ecx, 5
	mov	DWORD PTR ?touchgfx_fonts@@3PAPBVFont@touchgfx@@A[edx], eax
; Line 235
	jmp	SHORT $LN1@resetFont
$LN10@resetFont:
; Line 237
	call	?getFont_chinese_msyh_20_4bpp@@YAAAVGeneratedFont@touchgfx@@XZ ; getFont_chinese_msyh_20_4bpp
	mov	ecx, 4
	imul	edx, ecx, 6
	mov	DWORD PTR ?touchgfx_fonts@@3PAPBVFont@touchgfx@@A[edx], eax
; Line 238
	jmp	SHORT $LN1@resetFont
$LN11@resetFont:
; Line 240
	call	?getFont_chinese_msyh_14_4bpp@@YAAAVGeneratedFont@touchgfx@@XZ ; getFont_chinese_msyh_14_4bpp
	mov	ecx, 4
	imul	edx, ecx, 7
	mov	DWORD PTR ?touchgfx_fonts@@3PAPBVFont@touchgfx@@A[edx], eax
; Line 241
	jmp	SHORT $LN1@resetFont
$LN12@resetFont:
; Line 243
	call	?getFont_Amiri_Regular_22_4bpp@@YAAAVGeneratedFont@touchgfx@@XZ ; getFont_Amiri_Regular_22_4bpp
	mov	ecx, 4
	shl	ecx, 3
	mov	DWORD PTR ?touchgfx_fonts@@3PAPBVFont@touchgfx@@A[ecx], eax
$LN1@resetFont:
; Line 246
	pop	edi
	pop	esi
	pop	ebx
	add	esp, 196				; 000000c4H
	cmp	ebp, esp
	call	__RTC_CheckEsp
	mov	esp, ebp
	pop	ebp
	ret	0
	npad	3
$LN14@resetFont:
	DD	$LN4@resetFont
	DD	$LN5@resetFont
	DD	$LN6@resetFont
	DD	$LN7@resetFont
	DD	$LN8@resetFont
	DD	$LN9@resetFont
	DD	$LN10@resetFont
	DD	$LN11@resetFont
	DD	$LN12@resetFont
?resetFont@TypedTextDatabase@@YAXG@Z ENDP		; TypedTextDatabase::resetFont
_TEXT	ENDS
; Function compile flags: /Odtp /RTCsu /ZI
;	COMDAT ?setFont@TypedTextDatabase@@YAPBVFont@touchgfx@@GPBV23@@Z
_TEXT	SEGMENT
_old$ = -8						; size = 4
_fontId$ = 8						; size = 2
_font$ = 12						; size = 4
?setFont@TypedTextDatabase@@YAPBVFont@touchgfx@@GPBV23@@Z PROC ; TypedTextDatabase::setFont, COMDAT
; File D:\学习\毕业设计\方案1_GFX+底板\官方例程\DISPLAY\TouchGFX\generated\texts\src\TypedTextDatabase.cpp
; Line 208
	push	ebp
	mov	ebp, esp
	sub	esp, 204				; 000000ccH
	push	ebx
	push	esi
	push	edi
	lea	edi, DWORD PTR [ebp-12]
	mov	ecx, 3
	mov	eax, -858993460				; ccccccccH
	rep stosd
	mov	ecx, OFFSET __69D1556C_TypedTextDatabase@cpp
	call	@__CheckForDebuggerJustMyCode@4
; Line 209
	movzx	eax, WORD PTR _fontId$[ebp]
	mov	ecx, DWORD PTR ?touchgfx_fonts@@3PAPBVFont@touchgfx@@A[eax*4]
	mov	DWORD PTR _old$[ebp], ecx
; Line 210
	movzx	eax, WORD PTR _fontId$[ebp]
	mov	ecx, DWORD PTR _font$[ebp]
	mov	DWORD PTR ?touchgfx_fonts@@3PAPBVFont@touchgfx@@A[eax*4], ecx
; Line 211
	mov	eax, DWORD PTR _old$[ebp]
; Line 212
	pop	edi
	pop	esi
	pop	ebx
	add	esp, 204				; 000000ccH
	cmp	ebp, esp
	call	__RTC_CheckEsp
	mov	esp, ebp
	pop	ebp
	ret	0
?setFont@TypedTextDatabase@@YAPBVFont@touchgfx@@GPBV23@@Z ENDP ; TypedTextDatabase::setFont
_TEXT	ENDS
; Function compile flags: /Odtp /RTCsu /ZI
;	COMDAT ?getFonts@TypedTextDatabase@@YAPAPBVFont@touchgfx@@XZ
_TEXT	SEGMENT
?getFonts@TypedTextDatabase@@YAPAPBVFont@touchgfx@@XZ PROC ; TypedTextDatabase::getFonts, COMDAT
; File D:\学习\毕业设计\方案1_GFX+底板\官方例程\DISPLAY\TouchGFX\generated\texts\src\TypedTextDatabase.cpp
; Line 203
	push	ebp
	mov	ebp, esp
	sub	esp, 192				; 000000c0H
	push	ebx
	push	esi
	push	edi
	mov	edi, ebp
	xor	ecx, ecx
	mov	eax, -858993460				; ccccccccH
	rep stosd
	mov	ecx, OFFSET __69D1556C_TypedTextDatabase@cpp
	call	@__CheckForDebuggerJustMyCode@4
; Line 204
	mov	eax, OFFSET ?touchgfx_fonts@@3PAPBVFont@touchgfx@@A ; touchgfx_fonts
; Line 205
	pop	edi
	pop	esi
	pop	ebx
	add	esp, 192				; 000000c0H
	cmp	ebp, esp
	call	__RTC_CheckEsp
	mov	esp, ebp
	pop	ebp
	ret	0
?getFonts@TypedTextDatabase@@YAPAPBVFont@touchgfx@@XZ ENDP ; TypedTextDatabase::getFonts
_TEXT	ENDS
; Function compile flags: /Odtp /RTCsu /ZI
;	COMDAT ?getInstance@TypedTextDatabase@@YAPBUTypedTextData@TypedText@touchgfx@@G@Z
_TEXT	SEGMENT
_id$ = 8						; size = 2
?getInstance@TypedTextDatabase@@YAPBUTypedTextData@TypedText@touchgfx@@G@Z PROC ; TypedTextDatabase::getInstance, COMDAT
; File D:\学习\毕业设计\方案1_GFX+底板\官方例程\DISPLAY\TouchGFX\generated\texts\src\TypedTextDatabase.cpp
; Line 193
	push	ebp
	mov	ebp, esp
	sub	esp, 192				; 000000c0H
	push	ebx
	push	esi
	push	edi
	mov	edi, ebp
	xor	ecx, ecx
	mov	eax, -858993460				; ccccccccH
	rep stosd
	mov	ecx, OFFSET __69D1556C_TypedTextDatabase@cpp
	call	@__CheckForDebuggerJustMyCode@4
; Line 194
	movzx	eax, WORD PTR _id$[ebp]
	mov	eax, DWORD PTR ?typedTextDatabaseArray@@3QBQBUTypedTextData@TypedText@touchgfx@@B[eax*4]
; Line 195
	pop	edi
	pop	esi
	pop	ebx
	add	esp, 192				; 000000c0H
	cmp	ebp, esp
	call	__RTC_CheckEsp
	mov	esp, ebp
	pop	ebp
	ret	0
?getInstance@TypedTextDatabase@@YAPBUTypedTextData@TypedText@touchgfx@@G@Z ENDP ; TypedTextDatabase::getInstance
_TEXT	ENDS
END
